
Test.elf:     file format elf32-littlearm

Sections:
Idx Name          Size      VMA       LMA       File off  Algn
  0 .isr_vector   00000188  08000000  08000000  00010000  2**0
                  CONTENTS, ALLOC, LOAD, READONLY, DATA
  1 .text         0000569c  08000188  08000188  00010188  2**3
                  CONTENTS, ALLOC, LOAD, READONLY, CODE
  2 .rodata       00000034  08005824  08005824  00015824  2**2
                  CONTENTS, ALLOC, LOAD, READONLY, DATA
  3 .ARM.extab    00000000  08005858  08005858  00020014  2**0
                  CONTENTS
  4 .ARM          00000008  08005858  08005858  00015858  2**2
                  CONTENTS, ALLOC, LOAD, READONLY, DATA
  5 .preinit_array 00000000  08005860  08005860  00020014  2**0
                  CONTENTS, ALLOC, LOAD, DATA
  6 .init_array   00000004  08005860  08005860  00015860  2**2
                  CONTENTS, ALLOC, LOAD, DATA
  7 .fini_array   00000004  08005864  08005864  00015864  2**2
                  CONTENTS, ALLOC, LOAD, DATA
  8 .data         00000014  20000000  08005868  00020000  2**2
                  CONTENTS, ALLOC, LOAD, DATA
  9 .ccmram       00000000  10000000  10000000  00020014  2**0
                  CONTENTS
 10 .bss          00000150  20000014  20000014  00020014  2**2
                  ALLOC
 11 ._user_heap_stack 00000604  20000164  20000164  00020014  2**0
                  ALLOC
 12 .ARM.attributes 00000030  00000000  00000000  00020014  2**0
                  CONTENTS, READONLY
 13 .comment      00000043  00000000  00000000  00020044  2**0
                  CONTENTS, READONLY
 14 .debug_info   0000e7d1  00000000  00000000  00020087  2**0
                  CONTENTS, READONLY, DEBUGGING, OCTETS
 15 .debug_abbrev 0000227e  00000000  00000000  0002e858  2**0
                  CONTENTS, READONLY, DEBUGGING, OCTETS
 16 .debug_aranges 00000f18  00000000  00000000  00030ad8  2**3
                  CONTENTS, READONLY, DEBUGGING, OCTETS
 17 .debug_rnglists 00000bd2  00000000  00000000  000319f0  2**0
                  CONTENTS, READONLY, DEBUGGING, OCTETS
 18 .debug_macro  0002200f  00000000  00000000  000325c2  2**0
                  CONTENTS, READONLY, DEBUGGING, OCTETS
 19 .debug_line   00011c8d  00000000  00000000  000545d1  2**0
                  CONTENTS, READONLY, DEBUGGING, OCTETS
 20 .debug_str    000d4e32  00000000  00000000  0006625e  2**0
                  CONTENTS, READONLY, DEBUGGING, OCTETS
 21 .debug_frame  00004154  00000000  00000000  0013b090  2**2
                  CONTENTS, READONLY, DEBUGGING, OCTETS
 22 .debug_line_str 0000005e  00000000  00000000  0013f1e4  2**0
                  CONTENTS, READONLY, DEBUGGING, OCTETS

Disassembly of section .text:

08000188 <__do_global_dtors_aux>:
 8000188:	b510      	push	{r4, lr}
 800018a:	4c05      	ldr	r4, [pc, #20]	; (80001a0 <__do_global_dtors_aux+0x18>)
 800018c:	7823      	ldrb	r3, [r4, #0]
 800018e:	b933      	cbnz	r3, 800019e <__do_global_dtors_aux+0x16>
 8000190:	4b04      	ldr	r3, [pc, #16]	; (80001a4 <__do_global_dtors_aux+0x1c>)
 8000192:	b113      	cbz	r3, 800019a <__do_global_dtors_aux+0x12>
 8000194:	4804      	ldr	r0, [pc, #16]	; (80001a8 <__do_global_dtors_aux+0x20>)
 8000196:	f3af 8000 	nop.w
 800019a:	2301      	movs	r3, #1
 800019c:	7023      	strb	r3, [r4, #0]
 800019e:	bd10      	pop	{r4, pc}
 80001a0:	20000014 	.word	0x20000014
 80001a4:	00000000 	.word	0x00000000
 80001a8:	0800580c 	.word	0x0800580c

080001ac <frame_dummy>:
 80001ac:	b508      	push	{r3, lr}
 80001ae:	4b03      	ldr	r3, [pc, #12]	; (80001bc <frame_dummy+0x10>)
 80001b0:	b11b      	cbz	r3, 80001ba <frame_dummy+0xe>
 80001b2:	4903      	ldr	r1, [pc, #12]	; (80001c0 <frame_dummy+0x14>)
 80001b4:	4803      	ldr	r0, [pc, #12]	; (80001c4 <frame_dummy+0x18>)
 80001b6:	f3af 8000 	nop.w
 80001ba:	bd08      	pop	{r3, pc}
 80001bc:	00000000 	.word	0x00000000
 80001c0:	20000018 	.word	0x20000018
 80001c4:	0800580c 	.word	0x0800580c

080001c8 <__aeabi_drsub>:
 80001c8:	f081 4100 	eor.w	r1, r1, #2147483648	; 0x80000000
 80001cc:	e002      	b.n	80001d4 <__adddf3>
 80001ce:	bf00      	nop

080001d0 <__aeabi_dsub>:
 80001d0:	f083 4300 	eor.w	r3, r3, #2147483648	; 0x80000000

080001d4 <__adddf3>:
 80001d4:	b530      	push	{r4, r5, lr}
 80001d6:	ea4f 0441 	mov.w	r4, r1, lsl #1
 80001da:	ea4f 0543 	mov.w	r5, r3, lsl #1
 80001de:	ea94 0f05 	teq	r4, r5
 80001e2:	bf08      	it	eq
 80001e4:	ea90 0f02 	teqeq	r0, r2
 80001e8:	bf1f      	itttt	ne
 80001ea:	ea54 0c00 	orrsne.w	ip, r4, r0
 80001ee:	ea55 0c02 	orrsne.w	ip, r5, r2
 80001f2:	ea7f 5c64 	mvnsne.w	ip, r4, asr #21
 80001f6:	ea7f 5c65 	mvnsne.w	ip, r5, asr #21
 80001fa:	f000 80e2 	beq.w	80003c2 <__adddf3+0x1ee>
 80001fe:	ea4f 5454 	mov.w	r4, r4, lsr #21
 8000202:	ebd4 5555 	rsbs	r5, r4, r5, lsr #21
 8000206:	bfb8      	it	lt
 8000208:	426d      	neglt	r5, r5
 800020a:	dd0c      	ble.n	8000226 <__adddf3+0x52>
 800020c:	442c      	add	r4, r5
 800020e:	ea80 0202 	eor.w	r2, r0, r2
 8000212:	ea81 0303 	eor.w	r3, r1, r3
 8000216:	ea82 0000 	eor.w	r0, r2, r0
 800021a:	ea83 0101 	eor.w	r1, r3, r1
 800021e:	ea80 0202 	eor.w	r2, r0, r2
 8000222:	ea81 0303 	eor.w	r3, r1, r3
 8000226:	2d36      	cmp	r5, #54	; 0x36
 8000228:	bf88      	it	hi
 800022a:	bd30      	pophi	{r4, r5, pc}
 800022c:	f011 4f00 	tst.w	r1, #2147483648	; 0x80000000
 8000230:	ea4f 3101 	mov.w	r1, r1, lsl #12
 8000234:	f44f 1c80 	mov.w	ip, #1048576	; 0x100000
 8000238:	ea4c 3111 	orr.w	r1, ip, r1, lsr #12
 800023c:	d002      	beq.n	8000244 <__adddf3+0x70>
 800023e:	4240      	negs	r0, r0
 8000240:	eb61 0141 	sbc.w	r1, r1, r1, lsl #1
 8000244:	f013 4f00 	tst.w	r3, #2147483648	; 0x80000000
 8000248:	ea4f 3303 	mov.w	r3, r3, lsl #12
 800024c:	ea4c 3313 	orr.w	r3, ip, r3, lsr #12
 8000250:	d002      	beq.n	8000258 <__adddf3+0x84>
 8000252:	4252      	negs	r2, r2
 8000254:	eb63 0343 	sbc.w	r3, r3, r3, lsl #1
 8000258:	ea94 0f05 	teq	r4, r5
 800025c:	f000 80a7 	beq.w	80003ae <__adddf3+0x1da>
 8000260:	f1a4 0401 	sub.w	r4, r4, #1
 8000264:	f1d5 0e20 	rsbs	lr, r5, #32
 8000268:	db0d      	blt.n	8000286 <__adddf3+0xb2>
 800026a:	fa02 fc0e 	lsl.w	ip, r2, lr
 800026e:	fa22 f205 	lsr.w	r2, r2, r5
 8000272:	1880      	adds	r0, r0, r2
 8000274:	f141 0100 	adc.w	r1, r1, #0
 8000278:	fa03 f20e 	lsl.w	r2, r3, lr
 800027c:	1880      	adds	r0, r0, r2
 800027e:	fa43 f305 	asr.w	r3, r3, r5
 8000282:	4159      	adcs	r1, r3
 8000284:	e00e      	b.n	80002a4 <__adddf3+0xd0>
 8000286:	f1a5 0520 	sub.w	r5, r5, #32
 800028a:	f10e 0e20 	add.w	lr, lr, #32
 800028e:	2a01      	cmp	r2, #1
 8000290:	fa03 fc0e 	lsl.w	ip, r3, lr
 8000294:	bf28      	it	cs
 8000296:	f04c 0c02 	orrcs.w	ip, ip, #2
 800029a:	fa43 f305 	asr.w	r3, r3, r5
 800029e:	18c0      	adds	r0, r0, r3
 80002a0:	eb51 71e3 	adcs.w	r1, r1, r3, asr #31
 80002a4:	f001 4500 	and.w	r5, r1, #2147483648	; 0x80000000
 80002a8:	d507      	bpl.n	80002ba <__adddf3+0xe6>
 80002aa:	f04f 0e00 	mov.w	lr, #0
 80002ae:	f1dc 0c00 	rsbs	ip, ip, #0
 80002b2:	eb7e 0000 	sbcs.w	r0, lr, r0
 80002b6:	eb6e 0101 	sbc.w	r1, lr, r1
 80002ba:	f5b1 1f80 	cmp.w	r1, #1048576	; 0x100000
 80002be:	d31b      	bcc.n	80002f8 <__adddf3+0x124>
 80002c0:	f5b1 1f00 	cmp.w	r1, #2097152	; 0x200000
 80002c4:	d30c      	bcc.n	80002e0 <__adddf3+0x10c>
 80002c6:	0849      	lsrs	r1, r1, #1
 80002c8:	ea5f 0030 	movs.w	r0, r0, rrx
 80002cc:	ea4f 0c3c 	mov.w	ip, ip, rrx
 80002d0:	f104 0401 	add.w	r4, r4, #1
 80002d4:	ea4f 5244 	mov.w	r2, r4, lsl #21
 80002d8:	f512 0f80 	cmn.w	r2, #4194304	; 0x400000
 80002dc:	f080 809a 	bcs.w	8000414 <__adddf3+0x240>
 80002e0:	f1bc 4f00 	cmp.w	ip, #2147483648	; 0x80000000
 80002e4:	bf08      	it	eq
 80002e6:	ea5f 0c50 	movseq.w	ip, r0, lsr #1
 80002ea:	f150 0000 	adcs.w	r0, r0, #0
 80002ee:	eb41 5104 	adc.w	r1, r1, r4, lsl #20
 80002f2:	ea41 0105 	orr.w	r1, r1, r5
 80002f6:	bd30      	pop	{r4, r5, pc}
 80002f8:	ea5f 0c4c 	movs.w	ip, ip, lsl #1
 80002fc:	4140      	adcs	r0, r0
 80002fe:	eb41 0101 	adc.w	r1, r1, r1
 8000302:	3c01      	subs	r4, #1
 8000304:	bf28      	it	cs
 8000306:	f5b1 1f80 	cmpcs.w	r1, #1048576	; 0x100000
 800030a:	d2e9      	bcs.n	80002e0 <__adddf3+0x10c>
 800030c:	f091 0f00 	teq	r1, #0
 8000310:	bf04      	itt	eq
 8000312:	4601      	moveq	r1, r0
 8000314:	2000      	moveq	r0, #0
 8000316:	fab1 f381 	clz	r3, r1
 800031a:	bf08      	it	eq
 800031c:	3320      	addeq	r3, #32
 800031e:	f1a3 030b 	sub.w	r3, r3, #11
 8000322:	f1b3 0220 	subs.w	r2, r3, #32
 8000326:	da0c      	bge.n	8000342 <__adddf3+0x16e>
 8000328:	320c      	adds	r2, #12
 800032a:	dd08      	ble.n	800033e <__adddf3+0x16a>
 800032c:	f102 0c14 	add.w	ip, r2, #20
 8000330:	f1c2 020c 	rsb	r2, r2, #12
 8000334:	fa01 f00c 	lsl.w	r0, r1, ip
 8000338:	fa21 f102 	lsr.w	r1, r1, r2
 800033c:	e00c      	b.n	8000358 <__adddf3+0x184>
 800033e:	f102 0214 	add.w	r2, r2, #20
 8000342:	bfd8      	it	le
 8000344:	f1c2 0c20 	rsble	ip, r2, #32
 8000348:	fa01 f102 	lsl.w	r1, r1, r2
 800034c:	fa20 fc0c 	lsr.w	ip, r0, ip
 8000350:	bfdc      	itt	le
 8000352:	ea41 010c 	orrle.w	r1, r1, ip
 8000356:	4090      	lslle	r0, r2
 8000358:	1ae4      	subs	r4, r4, r3
 800035a:	bfa2      	ittt	ge
 800035c:	eb01 5104 	addge.w	r1, r1, r4, lsl #20
 8000360:	4329      	orrge	r1, r5
 8000362:	bd30      	popge	{r4, r5, pc}
 8000364:	ea6f 0404 	mvn.w	r4, r4
 8000368:	3c1f      	subs	r4, #31
 800036a:	da1c      	bge.n	80003a6 <__adddf3+0x1d2>
 800036c:	340c      	adds	r4, #12
 800036e:	dc0e      	bgt.n	800038e <__adddf3+0x1ba>
 8000370:	f104 0414 	add.w	r4, r4, #20
 8000374:	f1c4 0220 	rsb	r2, r4, #32
 8000378:	fa20 f004 	lsr.w	r0, r0, r4
 800037c:	fa01 f302 	lsl.w	r3, r1, r2
 8000380:	ea40 0003 	orr.w	r0, r0, r3
 8000384:	fa21 f304 	lsr.w	r3, r1, r4
 8000388:	ea45 0103 	orr.w	r1, r5, r3
 800038c:	bd30      	pop	{r4, r5, pc}
 800038e:	f1c4 040c 	rsb	r4, r4, #12
 8000392:	f1c4 0220 	rsb	r2, r4, #32
 8000396:	fa20 f002 	lsr.w	r0, r0, r2
 800039a:	fa01 f304 	lsl.w	r3, r1, r4
 800039e:	ea40 0003 	orr.w	r0, r0, r3
 80003a2:	4629      	mov	r1, r5
 80003a4:	bd30      	pop	{r4, r5, pc}
 80003a6:	fa21 f004 	lsr.w	r0, r1, r4
 80003aa:	4629      	mov	r1, r5
 80003ac:	bd30      	pop	{r4, r5, pc}
 80003ae:	f094 0f00 	teq	r4, #0
 80003b2:	f483 1380 	eor.w	r3, r3, #1048576	; 0x100000
 80003b6:	bf06      	itte	eq
 80003b8:	f481 1180 	eoreq.w	r1, r1, #1048576	; 0x100000
 80003bc:	3401      	addeq	r4, #1
 80003be:	3d01      	subne	r5, #1
 80003c0:	e74e      	b.n	8000260 <__adddf3+0x8c>
 80003c2:	ea7f 5c64 	mvns.w	ip, r4, asr #21
 80003c6:	bf18      	it	ne
 80003c8:	ea7f 5c65 	mvnsne.w	ip, r5, asr #21
 80003cc:	d029      	beq.n	8000422 <__adddf3+0x24e>
 80003ce:	ea94 0f05 	teq	r4, r5
 80003d2:	bf08      	it	eq
 80003d4:	ea90 0f02 	teqeq	r0, r2
 80003d8:	d005      	beq.n	80003e6 <__adddf3+0x212>
 80003da:	ea54 0c00 	orrs.w	ip, r4, r0
 80003de:	bf04      	itt	eq
 80003e0:	4619      	moveq	r1, r3
 80003e2:	4610      	moveq	r0, r2
 80003e4:	bd30      	pop	{r4, r5, pc}
 80003e6:	ea91 0f03 	teq	r1, r3
 80003ea:	bf1e      	ittt	ne
 80003ec:	2100      	movne	r1, #0
 80003ee:	2000      	movne	r0, #0
 80003f0:	bd30      	popne	{r4, r5, pc}
 80003f2:	ea5f 5c54 	movs.w	ip, r4, lsr #21
 80003f6:	d105      	bne.n	8000404 <__adddf3+0x230>
 80003f8:	0040      	lsls	r0, r0, #1
 80003fa:	4149      	adcs	r1, r1
 80003fc:	bf28      	it	cs
 80003fe:	f041 4100 	orrcs.w	r1, r1, #2147483648	; 0x80000000
 8000402:	bd30      	pop	{r4, r5, pc}
 8000404:	f514 0480 	adds.w	r4, r4, #4194304	; 0x400000
 8000408:	bf3c      	itt	cc
 800040a:	f501 1180 	addcc.w	r1, r1, #1048576	; 0x100000
 800040e:	bd30      	popcc	{r4, r5, pc}
 8000410:	f001 4500 	and.w	r5, r1, #2147483648	; 0x80000000
 8000414:	f045 41fe 	orr.w	r1, r5, #2130706432	; 0x7f000000
 8000418:	f441 0170 	orr.w	r1, r1, #15728640	; 0xf00000
 800041c:	f04f 0000 	mov.w	r0, #0
 8000420:	bd30      	pop	{r4, r5, pc}
 8000422:	ea7f 5c64 	mvns.w	ip, r4, asr #21
 8000426:	bf1a      	itte	ne
 8000428:	4619      	movne	r1, r3
 800042a:	4610      	movne	r0, r2
 800042c:	ea7f 5c65 	mvnseq.w	ip, r5, asr #21
 8000430:	bf1c      	itt	ne
 8000432:	460b      	movne	r3, r1
 8000434:	4602      	movne	r2, r0
 8000436:	ea50 3401 	orrs.w	r4, r0, r1, lsl #12
 800043a:	bf06      	itte	eq
 800043c:	ea52 3503 	orrseq.w	r5, r2, r3, lsl #12
 8000440:	ea91 0f03 	teqeq	r1, r3
 8000444:	f441 2100 	orrne.w	r1, r1, #524288	; 0x80000
 8000448:	bd30      	pop	{r4, r5, pc}
 800044a:	bf00      	nop

0800044c <__aeabi_ui2d>:
 800044c:	f090 0f00 	teq	r0, #0
 8000450:	bf04      	itt	eq
 8000452:	2100      	moveq	r1, #0
 8000454:	4770      	bxeq	lr
 8000456:	b530      	push	{r4, r5, lr}
 8000458:	f44f 6480 	mov.w	r4, #1024	; 0x400
 800045c:	f104 0432 	add.w	r4, r4, #50	; 0x32
 8000460:	f04f 0500 	mov.w	r5, #0
 8000464:	f04f 0100 	mov.w	r1, #0
 8000468:	e750      	b.n	800030c <__adddf3+0x138>
 800046a:	bf00      	nop

0800046c <__aeabi_i2d>:
 800046c:	f090 0f00 	teq	r0, #0
 8000470:	bf04      	itt	eq
 8000472:	2100      	moveq	r1, #0
 8000474:	4770      	bxeq	lr
 8000476:	b530      	push	{r4, r5, lr}
 8000478:	f44f 6480 	mov.w	r4, #1024	; 0x400
 800047c:	f104 0432 	add.w	r4, r4, #50	; 0x32
 8000480:	f010 4500 	ands.w	r5, r0, #2147483648	; 0x80000000
 8000484:	bf48      	it	mi
 8000486:	4240      	negmi	r0, r0
 8000488:	f04f 0100 	mov.w	r1, #0
 800048c:	e73e      	b.n	800030c <__adddf3+0x138>
 800048e:	bf00      	nop

08000490 <__aeabi_f2d>:
 8000490:	0042      	lsls	r2, r0, #1
 8000492:	ea4f 01e2 	mov.w	r1, r2, asr #3
 8000496:	ea4f 0131 	mov.w	r1, r1, rrx
 800049a:	ea4f 7002 	mov.w	r0, r2, lsl #28
 800049e:	bf1f      	itttt	ne
 80004a0:	f012 437f 	andsne.w	r3, r2, #4278190080	; 0xff000000
 80004a4:	f093 4f7f 	teqne	r3, #4278190080	; 0xff000000
 80004a8:	f081 5160 	eorne.w	r1, r1, #939524096	; 0x38000000
 80004ac:	4770      	bxne	lr
 80004ae:	f032 427f 	bics.w	r2, r2, #4278190080	; 0xff000000
 80004b2:	bf08      	it	eq
 80004b4:	4770      	bxeq	lr
 80004b6:	f093 4f7f 	teq	r3, #4278190080	; 0xff000000
 80004ba:	bf04      	itt	eq
 80004bc:	f441 2100 	orreq.w	r1, r1, #524288	; 0x80000
 80004c0:	4770      	bxeq	lr
 80004c2:	b530      	push	{r4, r5, lr}
 80004c4:	f44f 7460 	mov.w	r4, #896	; 0x380
 80004c8:	f001 4500 	and.w	r5, r1, #2147483648	; 0x80000000
 80004cc:	f021 4100 	bic.w	r1, r1, #2147483648	; 0x80000000
 80004d0:	e71c      	b.n	800030c <__adddf3+0x138>
 80004d2:	bf00      	nop

080004d4 <__aeabi_ul2d>:
 80004d4:	ea50 0201 	orrs.w	r2, r0, r1
 80004d8:	bf08      	it	eq
 80004da:	4770      	bxeq	lr
 80004dc:	b530      	push	{r4, r5, lr}
 80004de:	f04f 0500 	mov.w	r5, #0
 80004e2:	e00a      	b.n	80004fa <__aeabi_l2d+0x16>

080004e4 <__aeabi_l2d>:
 80004e4:	ea50 0201 	orrs.w	r2, r0, r1
 80004e8:	bf08      	it	eq
 80004ea:	4770      	bxeq	lr
 80004ec:	b530      	push	{r4, r5, lr}
 80004ee:	f011 4500 	ands.w	r5, r1, #2147483648	; 0x80000000
 80004f2:	d502      	bpl.n	80004fa <__aeabi_l2d+0x16>
 80004f4:	4240      	negs	r0, r0
 80004f6:	eb61 0141 	sbc.w	r1, r1, r1, lsl #1
 80004fa:	f44f 6480 	mov.w	r4, #1024	; 0x400
 80004fe:	f104 0432 	add.w	r4, r4, #50	; 0x32
 8000502:	ea5f 5c91 	movs.w	ip, r1, lsr #22
 8000506:	f43f aed8 	beq.w	80002ba <__adddf3+0xe6>
 800050a:	f04f 0203 	mov.w	r2, #3
 800050e:	ea5f 0cdc 	movs.w	ip, ip, lsr #3
 8000512:	bf18      	it	ne
 8000514:	3203      	addne	r2, #3
 8000516:	ea5f 0cdc 	movs.w	ip, ip, lsr #3
 800051a:	bf18      	it	ne
 800051c:	3203      	addne	r2, #3
 800051e:	eb02 02dc 	add.w	r2, r2, ip, lsr #3
 8000522:	f1c2 0320 	rsb	r3, r2, #32
 8000526:	fa00 fc03 	lsl.w	ip, r0, r3
 800052a:	fa20 f002 	lsr.w	r0, r0, r2
 800052e:	fa01 fe03 	lsl.w	lr, r1, r3
 8000532:	ea40 000e 	orr.w	r0, r0, lr
 8000536:	fa21 f102 	lsr.w	r1, r1, r2
 800053a:	4414      	add	r4, r2
 800053c:	e6bd      	b.n	80002ba <__adddf3+0xe6>
 800053e:	bf00      	nop

08000540 <__aeabi_dmul>:
 8000540:	b570      	push	{r4, r5, r6, lr}
 8000542:	f04f 0cff 	mov.w	ip, #255	; 0xff
 8000546:	f44c 6ce0 	orr.w	ip, ip, #1792	; 0x700
 800054a:	ea1c 5411 	ands.w	r4, ip, r1, lsr #20
 800054e:	bf1d      	ittte	ne
 8000550:	ea1c 5513 	andsne.w	r5, ip, r3, lsr #20
 8000554:	ea94 0f0c 	teqne	r4, ip
 8000558:	ea95 0f0c 	teqne	r5, ip
 800055c:	f000 f8de 	bleq	800071c <__aeabi_dmul+0x1dc>
 8000560:	442c      	add	r4, r5
 8000562:	ea81 0603 	eor.w	r6, r1, r3
 8000566:	ea21 514c 	bic.w	r1, r1, ip, lsl #21
 800056a:	ea23 534c 	bic.w	r3, r3, ip, lsl #21
 800056e:	ea50 3501 	orrs.w	r5, r0, r1, lsl #12
 8000572:	bf18      	it	ne
 8000574:	ea52 3503 	orrsne.w	r5, r2, r3, lsl #12
 8000578:	f441 1180 	orr.w	r1, r1, #1048576	; 0x100000
 800057c:	f443 1380 	orr.w	r3, r3, #1048576	; 0x100000
 8000580:	d038      	beq.n	80005f4 <__aeabi_dmul+0xb4>
 8000582:	fba0 ce02 	umull	ip, lr, r0, r2
 8000586:	f04f 0500 	mov.w	r5, #0
 800058a:	fbe1 e502 	umlal	lr, r5, r1, r2
 800058e:	f006 4200 	and.w	r2, r6, #2147483648	; 0x80000000
 8000592:	fbe0 e503 	umlal	lr, r5, r0, r3
 8000596:	f04f 0600 	mov.w	r6, #0
 800059a:	fbe1 5603 	umlal	r5, r6, r1, r3
 800059e:	f09c 0f00 	teq	ip, #0
 80005a2:	bf18      	it	ne
 80005a4:	f04e 0e01 	orrne.w	lr, lr, #1
 80005a8:	f1a4 04ff 	sub.w	r4, r4, #255	; 0xff
 80005ac:	f5b6 7f00 	cmp.w	r6, #512	; 0x200
 80005b0:	f564 7440 	sbc.w	r4, r4, #768	; 0x300
 80005b4:	d204      	bcs.n	80005c0 <__aeabi_dmul+0x80>
 80005b6:	ea5f 0e4e 	movs.w	lr, lr, lsl #1
 80005ba:	416d      	adcs	r5, r5
 80005bc:	eb46 0606 	adc.w	r6, r6, r6
 80005c0:	ea42 21c6 	orr.w	r1, r2, r6, lsl #11
 80005c4:	ea41 5155 	orr.w	r1, r1, r5, lsr #21
 80005c8:	ea4f 20c5 	mov.w	r0, r5, lsl #11
 80005cc:	ea40 505e 	orr.w	r0, r0, lr, lsr #21
 80005d0:	ea4f 2ece 	mov.w	lr, lr, lsl #11
 80005d4:	f1b4 0cfd 	subs.w	ip, r4, #253	; 0xfd
 80005d8:	bf88      	it	hi
 80005da:	f5bc 6fe0 	cmphi.w	ip, #1792	; 0x700
 80005de:	d81e      	bhi.n	800061e <__aeabi_dmul+0xde>
 80005e0:	f1be 4f00 	cmp.w	lr, #2147483648	; 0x80000000
 80005e4:	bf08      	it	eq
 80005e6:	ea5f 0e50 	movseq.w	lr, r0, lsr #1
 80005ea:	f150 0000 	adcs.w	r0, r0, #0
 80005ee:	eb41 5104 	adc.w	r1, r1, r4, lsl #20
 80005f2:	bd70      	pop	{r4, r5, r6, pc}
 80005f4:	f006 4600 	and.w	r6, r6, #2147483648	; 0x80000000
 80005f8:	ea46 0101 	orr.w	r1, r6, r1
 80005fc:	ea40 0002 	orr.w	r0, r0, r2
 8000600:	ea81 0103 	eor.w	r1, r1, r3
 8000604:	ebb4 045c 	subs.w	r4, r4, ip, lsr #1
 8000608:	bfc2      	ittt	gt
 800060a:	ebd4 050c 	rsbsgt	r5, r4, ip
 800060e:	ea41 5104 	orrgt.w	r1, r1, r4, lsl #20
 8000612:	bd70      	popgt	{r4, r5, r6, pc}
 8000614:	f441 1180 	orr.w	r1, r1, #1048576	; 0x100000
 8000618:	f04f 0e00 	mov.w	lr, #0
 800061c:	3c01      	subs	r4, #1
 800061e:	f300 80ab 	bgt.w	8000778 <__aeabi_dmul+0x238>
 8000622:	f114 0f36 	cmn.w	r4, #54	; 0x36
 8000626:	bfde      	ittt	le
 8000628:	2000      	movle	r0, #0
 800062a:	f001 4100 	andle.w	r1, r1, #2147483648	; 0x80000000
 800062e:	bd70      	pople	{r4, r5, r6, pc}
 8000630:	f1c4 0400 	rsb	r4, r4, #0
 8000634:	3c20      	subs	r4, #32
 8000636:	da35      	bge.n	80006a4 <__aeabi_dmul+0x164>
 8000638:	340c      	adds	r4, #12
 800063a:	dc1b      	bgt.n	8000674 <__aeabi_dmul+0x134>
 800063c:	f104 0414 	add.w	r4, r4, #20
 8000640:	f1c4 0520 	rsb	r5, r4, #32
 8000644:	fa00 f305 	lsl.w	r3, r0, r5
 8000648:	fa20 f004 	lsr.w	r0, r0, r4
 800064c:	fa01 f205 	lsl.w	r2, r1, r5
 8000650:	ea40 0002 	orr.w	r0, r0, r2
 8000654:	f001 4200 	and.w	r2, r1, #2147483648	; 0x80000000
 8000658:	f021 4100 	bic.w	r1, r1, #2147483648	; 0x80000000
 800065c:	eb10 70d3 	adds.w	r0, r0, r3, lsr #31
 8000660:	fa21 f604 	lsr.w	r6, r1, r4
 8000664:	eb42 0106 	adc.w	r1, r2, r6
 8000668:	ea5e 0e43 	orrs.w	lr, lr, r3, lsl #1
 800066c:	bf08      	it	eq
 800066e:	ea20 70d3 	biceq.w	r0, r0, r3, lsr #31
 8000672:	bd70      	pop	{r4, r5, r6, pc}
 8000674:	f1c4 040c 	rsb	r4, r4, #12
 8000678:	f1c4 0520 	rsb	r5, r4, #32
 800067c:	fa00 f304 	lsl.w	r3, r0, r4
 8000680:	fa20 f005 	lsr.w	r0, r0, r5
 8000684:	fa01 f204 	lsl.w	r2, r1, r4
 8000688:	ea40 0002 	orr.w	r0, r0, r2
 800068c:	f001 4100 	and.w	r1, r1, #2147483648	; 0x80000000
 8000690:	eb10 70d3 	adds.w	r0, r0, r3, lsr #31
 8000694:	f141 0100 	adc.w	r1, r1, #0
 8000698:	ea5e 0e43 	orrs.w	lr, lr, r3, lsl #1
 800069c:	bf08      	it	eq
 800069e:	ea20 70d3 	biceq.w	r0, r0, r3, lsr #31
 80006a2:	bd70      	pop	{r4, r5, r6, pc}
 80006a4:	f1c4 0520 	rsb	r5, r4, #32
 80006a8:	fa00 f205 	lsl.w	r2, r0, r5
 80006ac:	ea4e 0e02 	orr.w	lr, lr, r2
 80006b0:	fa20 f304 	lsr.w	r3, r0, r4
 80006b4:	fa01 f205 	lsl.w	r2, r1, r5
 80006b8:	ea43 0302 	orr.w	r3, r3, r2
 80006bc:	fa21 f004 	lsr.w	r0, r1, r4
 80006c0:	f001 4100 	and.w	r1, r1, #2147483648	; 0x80000000
 80006c4:	fa21 f204 	lsr.w	r2, r1, r4
 80006c8:	ea20 0002 	bic.w	r0, r0, r2
 80006cc:	eb00 70d3 	add.w	r0, r0, r3, lsr #31
 80006d0:	ea5e 0e43 	orrs.w	lr, lr, r3, lsl #1
 80006d4:	bf08      	it	eq
 80006d6:	ea20 70d3 	biceq.w	r0, r0, r3, lsr #31
 80006da:	bd70      	pop	{r4, r5, r6, pc}
 80006dc:	f094 0f00 	teq	r4, #0
 80006e0:	d10f      	bne.n	8000702 <__aeabi_dmul+0x1c2>
 80006e2:	f001 4600 	and.w	r6, r1, #2147483648	; 0x80000000
 80006e6:	0040      	lsls	r0, r0, #1
 80006e8:	eb41 0101 	adc.w	r1, r1, r1
 80006ec:	f411 1f80 	tst.w	r1, #1048576	; 0x100000
 80006f0:	bf08      	it	eq
 80006f2:	3c01      	subeq	r4, #1
 80006f4:	d0f7      	beq.n	80006e6 <__aeabi_dmul+0x1a6>
 80006f6:	ea41 0106 	orr.w	r1, r1, r6
 80006fa:	f095 0f00 	teq	r5, #0
 80006fe:	bf18      	it	ne
 8000700:	4770      	bxne	lr
 8000702:	f003 4600 	and.w	r6, r3, #2147483648	; 0x80000000
 8000706:	0052      	lsls	r2, r2, #1
 8000708:	eb43 0303 	adc.w	r3, r3, r3
 800070c:	f413 1f80 	tst.w	r3, #1048576	; 0x100000
 8000710:	bf08      	it	eq
 8000712:	3d01      	subeq	r5, #1
 8000714:	d0f7      	beq.n	8000706 <__aeabi_dmul+0x1c6>
 8000716:	ea43 0306 	orr.w	r3, r3, r6
 800071a:	4770      	bx	lr
 800071c:	ea94 0f0c 	teq	r4, ip
 8000720:	ea0c 5513 	and.w	r5, ip, r3, lsr #20
 8000724:	bf18      	it	ne
 8000726:	ea95 0f0c 	teqne	r5, ip
 800072a:	d00c      	beq.n	8000746 <__aeabi_dmul+0x206>
 800072c:	ea50 0641 	orrs.w	r6, r0, r1, lsl #1
 8000730:	bf18      	it	ne
 8000732:	ea52 0643 	orrsne.w	r6, r2, r3, lsl #1
 8000736:	d1d1      	bne.n	80006dc <__aeabi_dmul+0x19c>
 8000738:	ea81 0103 	eor.w	r1, r1, r3
 800073c:	f001 4100 	and.w	r1, r1, #2147483648	; 0x80000000
 8000740:	f04f 0000 	mov.w	r0, #0
 8000744:	bd70      	pop	{r4, r5, r6, pc}
 8000746:	ea50 0641 	orrs.w	r6, r0, r1, lsl #1
 800074a:	bf06      	itte	eq
 800074c:	4610      	moveq	r0, r2
 800074e:	4619      	moveq	r1, r3
 8000750:	ea52 0643 	orrsne.w	r6, r2, r3, lsl #1
 8000754:	d019      	beq.n	800078a <__aeabi_dmul+0x24a>
 8000756:	ea94 0f0c 	teq	r4, ip
 800075a:	d102      	bne.n	8000762 <__aeabi_dmul+0x222>
 800075c:	ea50 3601 	orrs.w	r6, r0, r1, lsl #12
 8000760:	d113      	bne.n	800078a <__aeabi_dmul+0x24a>
 8000762:	ea95 0f0c 	teq	r5, ip
 8000766:	d105      	bne.n	8000774 <__aeabi_dmul+0x234>
 8000768:	ea52 3603 	orrs.w	r6, r2, r3, lsl #12
 800076c:	bf1c      	itt	ne
 800076e:	4610      	movne	r0, r2
 8000770:	4619      	movne	r1, r3
 8000772:	d10a      	bne.n	800078a <__aeabi_dmul+0x24a>
 8000774:	ea81 0103 	eor.w	r1, r1, r3
 8000778:	f001 4100 	and.w	r1, r1, #2147483648	; 0x80000000
 800077c:	f041 41fe 	orr.w	r1, r1, #2130706432	; 0x7f000000
 8000780:	f441 0170 	orr.w	r1, r1, #15728640	; 0xf00000
 8000784:	f04f 0000 	mov.w	r0, #0
 8000788:	bd70      	pop	{r4, r5, r6, pc}
 800078a:	f041 41fe 	orr.w	r1, r1, #2130706432	; 0x7f000000
 800078e:	f441 0178 	orr.w	r1, r1, #16252928	; 0xf80000
 8000792:	bd70      	pop	{r4, r5, r6, pc}

08000794 <__aeabi_ddiv>:
 8000794:	b570      	push	{r4, r5, r6, lr}
 8000796:	f04f 0cff 	mov.w	ip, #255	; 0xff
 800079a:	f44c 6ce0 	orr.w	ip, ip, #1792	; 0x700
 800079e:	ea1c 5411 	ands.w	r4, ip, r1, lsr #20
 80007a2:	bf1d      	ittte	ne
 80007a4:	ea1c 5513 	andsne.w	r5, ip, r3, lsr #20
 80007a8:	ea94 0f0c 	teqne	r4, ip
 80007ac:	ea95 0f0c 	teqne	r5, ip
 80007b0:	f000 f8a7 	bleq	8000902 <__aeabi_ddiv+0x16e>
 80007b4:	eba4 0405 	sub.w	r4, r4, r5
 80007b8:	ea81 0e03 	eor.w	lr, r1, r3
 80007bc:	ea52 3503 	orrs.w	r5, r2, r3, lsl #12
 80007c0:	ea4f 3101 	mov.w	r1, r1, lsl #12
 80007c4:	f000 8088 	beq.w	80008d8 <__aeabi_ddiv+0x144>
 80007c8:	ea4f 3303 	mov.w	r3, r3, lsl #12
 80007cc:	f04f 5580 	mov.w	r5, #268435456	; 0x10000000
 80007d0:	ea45 1313 	orr.w	r3, r5, r3, lsr #4
 80007d4:	ea43 6312 	orr.w	r3, r3, r2, lsr #24
 80007d8:	ea4f 2202 	mov.w	r2, r2, lsl #8
 80007dc:	ea45 1511 	orr.w	r5, r5, r1, lsr #4
 80007e0:	ea45 6510 	orr.w	r5, r5, r0, lsr #24
 80007e4:	ea4f 2600 	mov.w	r6, r0, lsl #8
 80007e8:	f00e 4100 	and.w	r1, lr, #2147483648	; 0x80000000
 80007ec:	429d      	cmp	r5, r3
 80007ee:	bf08      	it	eq
 80007f0:	4296      	cmpeq	r6, r2
 80007f2:	f144 04fd 	adc.w	r4, r4, #253	; 0xfd
 80007f6:	f504 7440 	add.w	r4, r4, #768	; 0x300
 80007fa:	d202      	bcs.n	8000802 <__aeabi_ddiv+0x6e>
 80007fc:	085b      	lsrs	r3, r3, #1
 80007fe:	ea4f 0232 	mov.w	r2, r2, rrx
 8000802:	1ab6      	subs	r6, r6, r2
 8000804:	eb65 0503 	sbc.w	r5, r5, r3
 8000808:	085b      	lsrs	r3, r3, #1
 800080a:	ea4f 0232 	mov.w	r2, r2, rrx
 800080e:	f44f 1080 	mov.w	r0, #1048576	; 0x100000
 8000812:	f44f 2c00 	mov.w	ip, #524288	; 0x80000
 8000816:	ebb6 0e02 	subs.w	lr, r6, r2
 800081a:	eb75 0e03 	sbcs.w	lr, r5, r3
 800081e:	bf22      	ittt	cs
 8000820:	1ab6      	subcs	r6, r6, r2
 8000822:	4675      	movcs	r5, lr
 8000824:	ea40 000c 	orrcs.w	r0, r0, ip
 8000828:	085b      	lsrs	r3, r3, #1
 800082a:	ea4f 0232 	mov.w	r2, r2, rrx
 800082e:	ebb6 0e02 	subs.w	lr, r6, r2
 8000832:	eb75 0e03 	sbcs.w	lr, r5, r3
 8000836:	bf22      	ittt	cs
 8000838:	1ab6      	subcs	r6, r6, r2
 800083a:	4675      	movcs	r5, lr
 800083c:	ea40 005c 	orrcs.w	r0, r0, ip, lsr #1
 8000840:	085b      	lsrs	r3, r3, #1
 8000842:	ea4f 0232 	mov.w	r2, r2, rrx
 8000846:	ebb6 0e02 	subs.w	lr, r6, r2
 800084a:	eb75 0e03 	sbcs.w	lr, r5, r3
 800084e:	bf22      	ittt	cs
 8000850:	1ab6      	subcs	r6, r6, r2
 8000852:	4675      	movcs	r5, lr
 8000854:	ea40 009c 	orrcs.w	r0, r0, ip, lsr #2
 8000858:	085b      	lsrs	r3, r3, #1
 800085a:	ea4f 0232 	mov.w	r2, r2, rrx
 800085e:	ebb6 0e02 	subs.w	lr, r6, r2
 8000862:	eb75 0e03 	sbcs.w	lr, r5, r3
 8000866:	bf22      	ittt	cs
 8000868:	1ab6      	subcs	r6, r6, r2
 800086a:	4675      	movcs	r5, lr
 800086c:	ea40 00dc 	orrcs.w	r0, r0, ip, lsr #3
 8000870:	ea55 0e06 	orrs.w	lr, r5, r6
 8000874:	d018      	beq.n	80008a8 <__aeabi_ddiv+0x114>
 8000876:	ea4f 1505 	mov.w	r5, r5, lsl #4
 800087a:	ea45 7516 	orr.w	r5, r5, r6, lsr #28
 800087e:	ea4f 1606 	mov.w	r6, r6, lsl #4
 8000882:	ea4f 03c3 	mov.w	r3, r3, lsl #3
 8000886:	ea43 7352 	orr.w	r3, r3, r2, lsr #29
 800088a:	ea4f 02c2 	mov.w	r2, r2, lsl #3
 800088e:	ea5f 1c1c 	movs.w	ip, ip, lsr #4
 8000892:	d1c0      	bne.n	8000816 <__aeabi_ddiv+0x82>
 8000894:	f411 1f80 	tst.w	r1, #1048576	; 0x100000
 8000898:	d10b      	bne.n	80008b2 <__aeabi_ddiv+0x11e>
 800089a:	ea41 0100 	orr.w	r1, r1, r0
 800089e:	f04f 0000 	mov.w	r0, #0
 80008a2:	f04f 4c00 	mov.w	ip, #2147483648	; 0x80000000
 80008a6:	e7b6      	b.n	8000816 <__aeabi_ddiv+0x82>
 80008a8:	f411 1f80 	tst.w	r1, #1048576	; 0x100000
 80008ac:	bf04      	itt	eq
 80008ae:	4301      	orreq	r1, r0
 80008b0:	2000      	moveq	r0, #0
 80008b2:	f1b4 0cfd 	subs.w	ip, r4, #253	; 0xfd
 80008b6:	bf88      	it	hi
 80008b8:	f5bc 6fe0 	cmphi.w	ip, #1792	; 0x700
 80008bc:	f63f aeaf 	bhi.w	800061e <__aeabi_dmul+0xde>
 80008c0:	ebb5 0c03 	subs.w	ip, r5, r3
 80008c4:	bf04      	itt	eq
 80008c6:	ebb6 0c02 	subseq.w	ip, r6, r2
 80008ca:	ea5f 0c50 	movseq.w	ip, r0, lsr #1
 80008ce:	f150 0000 	adcs.w	r0, r0, #0
 80008d2:	eb41 5104 	adc.w	r1, r1, r4, lsl #20
 80008d6:	bd70      	pop	{r4, r5, r6, pc}
 80008d8:	f00e 4e00 	and.w	lr, lr, #2147483648	; 0x80000000
 80008dc:	ea4e 3111 	orr.w	r1, lr, r1, lsr #12
 80008e0:	eb14 045c 	adds.w	r4, r4, ip, lsr #1
 80008e4:	bfc2      	ittt	gt
 80008e6:	ebd4 050c 	rsbsgt	r5, r4, ip
 80008ea:	ea41 5104 	orrgt.w	r1, r1, r4, lsl #20
 80008ee:	bd70      	popgt	{r4, r5, r6, pc}
 80008f0:	f441 1180 	orr.w	r1, r1, #1048576	; 0x100000
 80008f4:	f04f 0e00 	mov.w	lr, #0
 80008f8:	3c01      	subs	r4, #1
 80008fa:	e690      	b.n	800061e <__aeabi_dmul+0xde>
 80008fc:	ea45 0e06 	orr.w	lr, r5, r6
 8000900:	e68d      	b.n	800061e <__aeabi_dmul+0xde>
 8000902:	ea0c 5513 	and.w	r5, ip, r3, lsr #20
 8000906:	ea94 0f0c 	teq	r4, ip
 800090a:	bf08      	it	eq
 800090c:	ea95 0f0c 	teqeq	r5, ip
 8000910:	f43f af3b 	beq.w	800078a <__aeabi_dmul+0x24a>
 8000914:	ea94 0f0c 	teq	r4, ip
 8000918:	d10a      	bne.n	8000930 <__aeabi_ddiv+0x19c>
 800091a:	ea50 3401 	orrs.w	r4, r0, r1, lsl #12
 800091e:	f47f af34 	bne.w	800078a <__aeabi_dmul+0x24a>
 8000922:	ea95 0f0c 	teq	r5, ip
 8000926:	f47f af25 	bne.w	8000774 <__aeabi_dmul+0x234>
 800092a:	4610      	mov	r0, r2
 800092c:	4619      	mov	r1, r3
 800092e:	e72c      	b.n	800078a <__aeabi_dmul+0x24a>
 8000930:	ea95 0f0c 	teq	r5, ip
 8000934:	d106      	bne.n	8000944 <__aeabi_ddiv+0x1b0>
 8000936:	ea52 3503 	orrs.w	r5, r2, r3, lsl #12
 800093a:	f43f aefd 	beq.w	8000738 <__aeabi_dmul+0x1f8>
 800093e:	4610      	mov	r0, r2
 8000940:	4619      	mov	r1, r3
 8000942:	e722      	b.n	800078a <__aeabi_dmul+0x24a>
 8000944:	ea50 0641 	orrs.w	r6, r0, r1, lsl #1
 8000948:	bf18      	it	ne
 800094a:	ea52 0643 	orrsne.w	r6, r2, r3, lsl #1
 800094e:	f47f aec5 	bne.w	80006dc <__aeabi_dmul+0x19c>
 8000952:	ea50 0441 	orrs.w	r4, r0, r1, lsl #1
 8000956:	f47f af0d 	bne.w	8000774 <__aeabi_dmul+0x234>
 800095a:	ea52 0543 	orrs.w	r5, r2, r3, lsl #1
 800095e:	f47f aeeb 	bne.w	8000738 <__aeabi_dmul+0x1f8>
 8000962:	e712      	b.n	800078a <__aeabi_dmul+0x24a>

08000964 <__aeabi_d2f>:
 8000964:	ea4f 0241 	mov.w	r2, r1, lsl #1
 8000968:	f1b2 43e0 	subs.w	r3, r2, #1879048192	; 0x70000000
 800096c:	bf24      	itt	cs
 800096e:	f5b3 1c00 	subscs.w	ip, r3, #2097152	; 0x200000
 8000972:	f1dc 5cfe 	rsbscs	ip, ip, #532676608	; 0x1fc00000
 8000976:	d90d      	bls.n	8000994 <__aeabi_d2f+0x30>
 8000978:	f001 4c00 	and.w	ip, r1, #2147483648	; 0x80000000
 800097c:	ea4f 02c0 	mov.w	r2, r0, lsl #3
 8000980:	ea4c 7050 	orr.w	r0, ip, r0, lsr #29
 8000984:	f1b2 4f00 	cmp.w	r2, #2147483648	; 0x80000000
 8000988:	eb40 0083 	adc.w	r0, r0, r3, lsl #2
 800098c:	bf08      	it	eq
 800098e:	f020 0001 	biceq.w	r0, r0, #1
 8000992:	4770      	bx	lr
 8000994:	f011 4f80 	tst.w	r1, #1073741824	; 0x40000000
 8000998:	d121      	bne.n	80009de <__aeabi_d2f+0x7a>
 800099a:	f113 7238 	adds.w	r2, r3, #48234496	; 0x2e00000
 800099e:	bfbc      	itt	lt
 80009a0:	f001 4000 	andlt.w	r0, r1, #2147483648	; 0x80000000
 80009a4:	4770      	bxlt	lr
 80009a6:	f441 1180 	orr.w	r1, r1, #1048576	; 0x100000
 80009aa:	ea4f 5252 	mov.w	r2, r2, lsr #21
 80009ae:	f1c2 0218 	rsb	r2, r2, #24
 80009b2:	f1c2 0c20 	rsb	ip, r2, #32
 80009b6:	fa10 f30c 	lsls.w	r3, r0, ip
 80009ba:	fa20 f002 	lsr.w	r0, r0, r2
 80009be:	bf18      	it	ne
 80009c0:	f040 0001 	orrne.w	r0, r0, #1
 80009c4:	ea4f 23c1 	mov.w	r3, r1, lsl #11
 80009c8:	ea4f 23d3 	mov.w	r3, r3, lsr #11
 80009cc:	fa03 fc0c 	lsl.w	ip, r3, ip
 80009d0:	ea40 000c 	orr.w	r0, r0, ip
 80009d4:	fa23 f302 	lsr.w	r3, r3, r2
 80009d8:	ea4f 0343 	mov.w	r3, r3, lsl #1
 80009dc:	e7cc      	b.n	8000978 <__aeabi_d2f+0x14>
 80009de:	ea7f 5362 	mvns.w	r3, r2, asr #21
 80009e2:	d107      	bne.n	80009f4 <__aeabi_d2f+0x90>
 80009e4:	ea50 3301 	orrs.w	r3, r0, r1, lsl #12
 80009e8:	bf1e      	ittt	ne
 80009ea:	f04f 40fe 	movne.w	r0, #2130706432	; 0x7f000000
 80009ee:	f440 0040 	orrne.w	r0, r0, #12582912	; 0xc00000
 80009f2:	4770      	bxne	lr
 80009f4:	f001 4000 	and.w	r0, r1, #2147483648	; 0x80000000
 80009f8:	f040 40fe 	orr.w	r0, r0, #2130706432	; 0x7f000000
 80009fc:	f440 0000 	orr.w	r0, r0, #8388608	; 0x800000
 8000a00:	4770      	bx	lr
 8000a02:	bf00      	nop

08000a04 <__aeabi_uldivmod>:
 8000a04:	b953      	cbnz	r3, 8000a1c <__aeabi_uldivmod+0x18>
 8000a06:	b94a      	cbnz	r2, 8000a1c <__aeabi_uldivmod+0x18>
 8000a08:	2900      	cmp	r1, #0
 8000a0a:	bf08      	it	eq
 8000a0c:	2800      	cmpeq	r0, #0
 8000a0e:	bf1c      	itt	ne
 8000a10:	f04f 31ff 	movne.w	r1, #4294967295
 8000a14:	f04f 30ff 	movne.w	r0, #4294967295
 8000a18:	f000 b970 	b.w	8000cfc <__aeabi_idiv0>
 8000a1c:	f1ad 0c08 	sub.w	ip, sp, #8
 8000a20:	e96d ce04 	strd	ip, lr, [sp, #-16]!
 8000a24:	f000 f806 	bl	8000a34 <__udivmoddi4>
 8000a28:	f8dd e004 	ldr.w	lr, [sp, #4]
 8000a2c:	e9dd 2302 	ldrd	r2, r3, [sp, #8]
 8000a30:	b004      	add	sp, #16
 8000a32:	4770      	bx	lr

08000a34 <__udivmoddi4>:
 8000a34:	e92d 47f0 	stmdb	sp!, {r4, r5, r6, r7, r8, r9, sl, lr}
 8000a38:	9e08      	ldr	r6, [sp, #32]
 8000a3a:	460d      	mov	r5, r1
 8000a3c:	4604      	mov	r4, r0
 8000a3e:	460f      	mov	r7, r1
 8000a40:	2b00      	cmp	r3, #0
 8000a42:	d14a      	bne.n	8000ada <__udivmoddi4+0xa6>
 8000a44:	428a      	cmp	r2, r1
 8000a46:	4694      	mov	ip, r2
 8000a48:	d965      	bls.n	8000b16 <__udivmoddi4+0xe2>
 8000a4a:	fab2 f382 	clz	r3, r2
 8000a4e:	b143      	cbz	r3, 8000a62 <__udivmoddi4+0x2e>
 8000a50:	fa02 fc03 	lsl.w	ip, r2, r3
 8000a54:	f1c3 0220 	rsb	r2, r3, #32
 8000a58:	409f      	lsls	r7, r3
 8000a5a:	fa20 f202 	lsr.w	r2, r0, r2
 8000a5e:	4317      	orrs	r7, r2
 8000a60:	409c      	lsls	r4, r3
 8000a62:	ea4f 4e1c 	mov.w	lr, ip, lsr #16
 8000a66:	fa1f f58c 	uxth.w	r5, ip
 8000a6a:	fbb7 f1fe 	udiv	r1, r7, lr
 8000a6e:	0c22      	lsrs	r2, r4, #16
 8000a70:	fb0e 7711 	mls	r7, lr, r1, r7
 8000a74:	ea42 4207 	orr.w	r2, r2, r7, lsl #16
 8000a78:	fb01 f005 	mul.w	r0, r1, r5
 8000a7c:	4290      	cmp	r0, r2
 8000a7e:	d90a      	bls.n	8000a96 <__udivmoddi4+0x62>
 8000a80:	eb1c 0202 	adds.w	r2, ip, r2
 8000a84:	f101 37ff 	add.w	r7, r1, #4294967295
 8000a88:	f080 811c 	bcs.w	8000cc4 <__udivmoddi4+0x290>
 8000a8c:	4290      	cmp	r0, r2
 8000a8e:	f240 8119 	bls.w	8000cc4 <__udivmoddi4+0x290>
 8000a92:	3902      	subs	r1, #2
 8000a94:	4462      	add	r2, ip
 8000a96:	1a12      	subs	r2, r2, r0
 8000a98:	b2a4      	uxth	r4, r4
 8000a9a:	fbb2 f0fe 	udiv	r0, r2, lr
 8000a9e:	fb0e 2210 	mls	r2, lr, r0, r2
 8000aa2:	ea44 4402 	orr.w	r4, r4, r2, lsl #16
 8000aa6:	fb00 f505 	mul.w	r5, r0, r5
 8000aaa:	42a5      	cmp	r5, r4
 8000aac:	d90a      	bls.n	8000ac4 <__udivmoddi4+0x90>
 8000aae:	eb1c 0404 	adds.w	r4, ip, r4
 8000ab2:	f100 32ff 	add.w	r2, r0, #4294967295
 8000ab6:	f080 8107 	bcs.w	8000cc8 <__udivmoddi4+0x294>
 8000aba:	42a5      	cmp	r5, r4
 8000abc:	f240 8104 	bls.w	8000cc8 <__udivmoddi4+0x294>
 8000ac0:	4464      	add	r4, ip
 8000ac2:	3802      	subs	r0, #2
 8000ac4:	ea40 4001 	orr.w	r0, r0, r1, lsl #16
 8000ac8:	1b64      	subs	r4, r4, r5
 8000aca:	2100      	movs	r1, #0
 8000acc:	b11e      	cbz	r6, 8000ad6 <__udivmoddi4+0xa2>
 8000ace:	40dc      	lsrs	r4, r3
 8000ad0:	2300      	movs	r3, #0
 8000ad2:	e9c6 4300 	strd	r4, r3, [r6]
 8000ad6:	e8bd 87f0 	ldmia.w	sp!, {r4, r5, r6, r7, r8, r9, sl, pc}
 8000ada:	428b      	cmp	r3, r1
 8000adc:	d908      	bls.n	8000af0 <__udivmoddi4+0xbc>
 8000ade:	2e00      	cmp	r6, #0
 8000ae0:	f000 80ed 	beq.w	8000cbe <__udivmoddi4+0x28a>
 8000ae4:	2100      	movs	r1, #0
 8000ae6:	e9c6 0500 	strd	r0, r5, [r6]
 8000aea:	4608      	mov	r0, r1
 8000aec:	e8bd 87f0 	ldmia.w	sp!, {r4, r5, r6, r7, r8, r9, sl, pc}
 8000af0:	fab3 f183 	clz	r1, r3
 8000af4:	2900      	cmp	r1, #0
 8000af6:	d149      	bne.n	8000b8c <__udivmoddi4+0x158>
 8000af8:	42ab      	cmp	r3, r5
 8000afa:	d302      	bcc.n	8000b02 <__udivmoddi4+0xce>
 8000afc:	4282      	cmp	r2, r0
 8000afe:	f200 80f8 	bhi.w	8000cf2 <__udivmoddi4+0x2be>
 8000b02:	1a84      	subs	r4, r0, r2
 8000b04:	eb65 0203 	sbc.w	r2, r5, r3
 8000b08:	2001      	movs	r0, #1
 8000b0a:	4617      	mov	r7, r2
 8000b0c:	2e00      	cmp	r6, #0
 8000b0e:	d0e2      	beq.n	8000ad6 <__udivmoddi4+0xa2>
 8000b10:	e9c6 4700 	strd	r4, r7, [r6]
 8000b14:	e7df      	b.n	8000ad6 <__udivmoddi4+0xa2>
 8000b16:	b902      	cbnz	r2, 8000b1a <__udivmoddi4+0xe6>
 8000b18:	deff      	udf	#255	; 0xff
 8000b1a:	fab2 f382 	clz	r3, r2
 8000b1e:	2b00      	cmp	r3, #0
 8000b20:	f040 8090 	bne.w	8000c44 <__udivmoddi4+0x210>
 8000b24:	1a8a      	subs	r2, r1, r2
 8000b26:	ea4f 471c 	mov.w	r7, ip, lsr #16
 8000b2a:	fa1f fe8c 	uxth.w	lr, ip
 8000b2e:	2101      	movs	r1, #1
 8000b30:	fbb2 f5f7 	udiv	r5, r2, r7
 8000b34:	fb07 2015 	mls	r0, r7, r5, r2
 8000b38:	0c22      	lsrs	r2, r4, #16
 8000b3a:	ea42 4200 	orr.w	r2, r2, r0, lsl #16
 8000b3e:	fb0e f005 	mul.w	r0, lr, r5
 8000b42:	4290      	cmp	r0, r2
 8000b44:	d908      	bls.n	8000b58 <__udivmoddi4+0x124>
 8000b46:	eb1c 0202 	adds.w	r2, ip, r2
 8000b4a:	f105 38ff 	add.w	r8, r5, #4294967295
 8000b4e:	d202      	bcs.n	8000b56 <__udivmoddi4+0x122>
 8000b50:	4290      	cmp	r0, r2
 8000b52:	f200 80cb 	bhi.w	8000cec <__udivmoddi4+0x2b8>
 8000b56:	4645      	mov	r5, r8
 8000b58:	1a12      	subs	r2, r2, r0
 8000b5a:	b2a4      	uxth	r4, r4
 8000b5c:	fbb2 f0f7 	udiv	r0, r2, r7
 8000b60:	fb07 2210 	mls	r2, r7, r0, r2
 8000b64:	ea44 4402 	orr.w	r4, r4, r2, lsl #16
 8000b68:	fb0e fe00 	mul.w	lr, lr, r0
 8000b6c:	45a6      	cmp	lr, r4
 8000b6e:	d908      	bls.n	8000b82 <__udivmoddi4+0x14e>
 8000b70:	eb1c 0404 	adds.w	r4, ip, r4
 8000b74:	f100 32ff 	add.w	r2, r0, #4294967295
 8000b78:	d202      	bcs.n	8000b80 <__udivmoddi4+0x14c>
 8000b7a:	45a6      	cmp	lr, r4
 8000b7c:	f200 80bb 	bhi.w	8000cf6 <__udivmoddi4+0x2c2>
 8000b80:	4610      	mov	r0, r2
 8000b82:	eba4 040e 	sub.w	r4, r4, lr
 8000b86:	ea40 4005 	orr.w	r0, r0, r5, lsl #16
 8000b8a:	e79f      	b.n	8000acc <__udivmoddi4+0x98>
 8000b8c:	f1c1 0720 	rsb	r7, r1, #32
 8000b90:	408b      	lsls	r3, r1
 8000b92:	fa22 fc07 	lsr.w	ip, r2, r7
 8000b96:	ea4c 0c03 	orr.w	ip, ip, r3
 8000b9a:	fa05 f401 	lsl.w	r4, r5, r1
 8000b9e:	fa20 f307 	lsr.w	r3, r0, r7
 8000ba2:	40fd      	lsrs	r5, r7
 8000ba4:	ea4f 491c 	mov.w	r9, ip, lsr #16
 8000ba8:	4323      	orrs	r3, r4
 8000baa:	fbb5 f8f9 	udiv	r8, r5, r9
 8000bae:	fa1f fe8c 	uxth.w	lr, ip
 8000bb2:	fb09 5518 	mls	r5, r9, r8, r5
 8000bb6:	0c1c      	lsrs	r4, r3, #16
 8000bb8:	ea44 4405 	orr.w	r4, r4, r5, lsl #16
 8000bbc:	fb08 f50e 	mul.w	r5, r8, lr
 8000bc0:	42a5      	cmp	r5, r4
 8000bc2:	fa02 f201 	lsl.w	r2, r2, r1
 8000bc6:	fa00 f001 	lsl.w	r0, r0, r1
 8000bca:	d90b      	bls.n	8000be4 <__udivmoddi4+0x1b0>
 8000bcc:	eb1c 0404 	adds.w	r4, ip, r4
 8000bd0:	f108 3aff 	add.w	sl, r8, #4294967295
 8000bd4:	f080 8088 	bcs.w	8000ce8 <__udivmoddi4+0x2b4>
 8000bd8:	42a5      	cmp	r5, r4
 8000bda:	f240 8085 	bls.w	8000ce8 <__udivmoddi4+0x2b4>
 8000bde:	f1a8 0802 	sub.w	r8, r8, #2
 8000be2:	4464      	add	r4, ip
 8000be4:	1b64      	subs	r4, r4, r5
 8000be6:	b29d      	uxth	r5, r3
 8000be8:	fbb4 f3f9 	udiv	r3, r4, r9
 8000bec:	fb09 4413 	mls	r4, r9, r3, r4
 8000bf0:	ea45 4404 	orr.w	r4, r5, r4, lsl #16
 8000bf4:	fb03 fe0e 	mul.w	lr, r3, lr
 8000bf8:	45a6      	cmp	lr, r4
 8000bfa:	d908      	bls.n	8000c0e <__udivmoddi4+0x1da>
 8000bfc:	eb1c 0404 	adds.w	r4, ip, r4
 8000c00:	f103 35ff 	add.w	r5, r3, #4294967295
 8000c04:	d26c      	bcs.n	8000ce0 <__udivmoddi4+0x2ac>
 8000c06:	45a6      	cmp	lr, r4
 8000c08:	d96a      	bls.n	8000ce0 <__udivmoddi4+0x2ac>
 8000c0a:	3b02      	subs	r3, #2
 8000c0c:	4464      	add	r4, ip
 8000c0e:	ea43 4308 	orr.w	r3, r3, r8, lsl #16
 8000c12:	fba3 9502 	umull	r9, r5, r3, r2
 8000c16:	eba4 040e 	sub.w	r4, r4, lr
 8000c1a:	42ac      	cmp	r4, r5
 8000c1c:	46c8      	mov	r8, r9
 8000c1e:	46ae      	mov	lr, r5
 8000c20:	d356      	bcc.n	8000cd0 <__udivmoddi4+0x29c>
 8000c22:	d053      	beq.n	8000ccc <__udivmoddi4+0x298>
 8000c24:	b156      	cbz	r6, 8000c3c <__udivmoddi4+0x208>
 8000c26:	ebb0 0208 	subs.w	r2, r0, r8
 8000c2a:	eb64 040e 	sbc.w	r4, r4, lr
 8000c2e:	fa04 f707 	lsl.w	r7, r4, r7
 8000c32:	40ca      	lsrs	r2, r1
 8000c34:	40cc      	lsrs	r4, r1
 8000c36:	4317      	orrs	r7, r2
 8000c38:	e9c6 7400 	strd	r7, r4, [r6]
 8000c3c:	4618      	mov	r0, r3
 8000c3e:	2100      	movs	r1, #0
 8000c40:	e8bd 87f0 	ldmia.w	sp!, {r4, r5, r6, r7, r8, r9, sl, pc}
 8000c44:	f1c3 0120 	rsb	r1, r3, #32
 8000c48:	fa02 fc03 	lsl.w	ip, r2, r3
 8000c4c:	fa20 f201 	lsr.w	r2, r0, r1
 8000c50:	fa25 f101 	lsr.w	r1, r5, r1
 8000c54:	409d      	lsls	r5, r3
 8000c56:	432a      	orrs	r2, r5
 8000c58:	ea4f 471c 	mov.w	r7, ip, lsr #16
 8000c5c:	fa1f fe8c 	uxth.w	lr, ip
 8000c60:	fbb1 f0f7 	udiv	r0, r1, r7
 8000c64:	fb07 1510 	mls	r5, r7, r0, r1
 8000c68:	0c11      	lsrs	r1, r2, #16
 8000c6a:	ea41 4105 	orr.w	r1, r1, r5, lsl #16
 8000c6e:	fb00 f50e 	mul.w	r5, r0, lr
 8000c72:	428d      	cmp	r5, r1
 8000c74:	fa04 f403 	lsl.w	r4, r4, r3
 8000c78:	d908      	bls.n	8000c8c <__udivmoddi4+0x258>
 8000c7a:	eb1c 0101 	adds.w	r1, ip, r1
 8000c7e:	f100 38ff 	add.w	r8, r0, #4294967295
 8000c82:	d22f      	bcs.n	8000ce4 <__udivmoddi4+0x2b0>
 8000c84:	428d      	cmp	r5, r1
 8000c86:	d92d      	bls.n	8000ce4 <__udivmoddi4+0x2b0>
 8000c88:	3802      	subs	r0, #2
 8000c8a:	4461      	add	r1, ip
 8000c8c:	1b49      	subs	r1, r1, r5
 8000c8e:	b292      	uxth	r2, r2
 8000c90:	fbb1 f5f7 	udiv	r5, r1, r7
 8000c94:	fb07 1115 	mls	r1, r7, r5, r1
 8000c98:	ea42 4201 	orr.w	r2, r2, r1, lsl #16
 8000c9c:	fb05 f10e 	mul.w	r1, r5, lr
 8000ca0:	4291      	cmp	r1, r2
 8000ca2:	d908      	bls.n	8000cb6 <__udivmoddi4+0x282>
 8000ca4:	eb1c 0202 	adds.w	r2, ip, r2
 8000ca8:	f105 38ff 	add.w	r8, r5, #4294967295
 8000cac:	d216      	bcs.n	8000cdc <__udivmoddi4+0x2a8>
 8000cae:	4291      	cmp	r1, r2
 8000cb0:	d914      	bls.n	8000cdc <__udivmoddi4+0x2a8>
 8000cb2:	3d02      	subs	r5, #2
 8000cb4:	4462      	add	r2, ip
 8000cb6:	1a52      	subs	r2, r2, r1
 8000cb8:	ea45 4100 	orr.w	r1, r5, r0, lsl #16
 8000cbc:	e738      	b.n	8000b30 <__udivmoddi4+0xfc>
 8000cbe:	4631      	mov	r1, r6
 8000cc0:	4630      	mov	r0, r6
 8000cc2:	e708      	b.n	8000ad6 <__udivmoddi4+0xa2>
 8000cc4:	4639      	mov	r1, r7
 8000cc6:	e6e6      	b.n	8000a96 <__udivmoddi4+0x62>
 8000cc8:	4610      	mov	r0, r2
 8000cca:	e6fb      	b.n	8000ac4 <__udivmoddi4+0x90>
 8000ccc:	4548      	cmp	r0, r9
 8000cce:	d2a9      	bcs.n	8000c24 <__udivmoddi4+0x1f0>
 8000cd0:	ebb9 0802 	subs.w	r8, r9, r2
 8000cd4:	eb65 0e0c 	sbc.w	lr, r5, ip
 8000cd8:	3b01      	subs	r3, #1
 8000cda:	e7a3      	b.n	8000c24 <__udivmoddi4+0x1f0>
 8000cdc:	4645      	mov	r5, r8
 8000cde:	e7ea      	b.n	8000cb6 <__udivmoddi4+0x282>
 8000ce0:	462b      	mov	r3, r5
 8000ce2:	e794      	b.n	8000c0e <__udivmoddi4+0x1da>
 8000ce4:	4640      	mov	r0, r8
 8000ce6:	e7d1      	b.n	8000c8c <__udivmoddi4+0x258>
 8000ce8:	46d0      	mov	r8, sl
 8000cea:	e77b      	b.n	8000be4 <__udivmoddi4+0x1b0>
 8000cec:	3d02      	subs	r5, #2
 8000cee:	4462      	add	r2, ip
 8000cf0:	e732      	b.n	8000b58 <__udivmoddi4+0x124>
 8000cf2:	4608      	mov	r0, r1
 8000cf4:	e70a      	b.n	8000b0c <__udivmoddi4+0xd8>
 8000cf6:	4464      	add	r4, ip
 8000cf8:	3802      	subs	r0, #2
 8000cfa:	e742      	b.n	8000b82 <__udivmoddi4+0x14e>

08000cfc <__aeabi_idiv0>:
 8000cfc:	4770      	bx	lr
 8000cfe:	bf00      	nop

08000d00 <lcd10usDelay>:
}
#endif /* USE_BUSY_FLAG */

/*!	\brief	Creates delay multiples of 10us. */
static void lcd10usDelay(volatile uint32_t us)
{
 8000d00:	b480      	push	{r7}
 8000d02:	b083      	sub	sp, #12
 8000d04:	af00      	add	r7, sp, #0
 8000d06:	6078      	str	r0, [r7, #4]
	/* Ñonversion to us */
	us *= MCU_FREQ_VALUE;
 8000d08:	4b0b      	ldr	r3, [pc, #44]	; (8000d38 <lcd10usDelay+0x38>)
 8000d0a:	681b      	ldr	r3, [r3, #0]
 8000d0c:	4a0b      	ldr	r2, [pc, #44]	; (8000d3c <lcd10usDelay+0x3c>)
 8000d0e:	fba2 2303 	umull	r2, r3, r2, r3
 8000d12:	0c9b      	lsrs	r3, r3, #18
 8000d14:	687a      	ldr	r2, [r7, #4]
 8000d16:	fb02 f303 	mul.w	r3, r2, r3
 8000d1a:	607b      	str	r3, [r7, #4]
	/* Wait */
	while (us > 0u)
 8000d1c:	e002      	b.n	8000d24 <lcd10usDelay+0x24>
	{
		us--;
 8000d1e:	687b      	ldr	r3, [r7, #4]
 8000d20:	3b01      	subs	r3, #1
 8000d22:	607b      	str	r3, [r7, #4]
	while (us > 0u)
 8000d24:	687b      	ldr	r3, [r7, #4]
 8000d26:	2b00      	cmp	r3, #0
 8000d28:	d1f9      	bne.n	8000d1e <lcd10usDelay+0x1e>
	}
}
 8000d2a:	bf00      	nop
 8000d2c:	bf00      	nop
 8000d2e:	370c      	adds	r7, #12
 8000d30:	46bd      	mov	sp, r7
 8000d32:	f85d 7b04 	ldr.w	r7, [sp], #4
 8000d36:	4770      	bx	lr
 8000d38:	20000008 	.word	0x20000008
 8000d3c:	431bde83 	.word	0x431bde83

08000d40 <lcdStrobe>:

/*!	\brief	Initiate the transfer of data/commands to LCD. */
static void lcdStrobe(void)
{/* Low level function. */
 8000d40:	b580      	push	{r7, lr}
 8000d42:	af00      	add	r7, sp, #0
	SET(LCD_E_OUT, LCD_E);
 8000d44:	4b08      	ldr	r3, [pc, #32]	; (8000d68 <lcdStrobe+0x28>)
 8000d46:	695b      	ldr	r3, [r3, #20]
 8000d48:	4a07      	ldr	r2, [pc, #28]	; (8000d68 <lcdStrobe+0x28>)
 8000d4a:	f443 6300 	orr.w	r3, r3, #2048	; 0x800
 8000d4e:	6153      	str	r3, [r2, #20]
	lcd10usDelay(ENABLE_CYCLE_TIME);
 8000d50:	2001      	movs	r0, #1
 8000d52:	f7ff ffd5 	bl	8000d00 <lcd10usDelay>
	CLR(LCD_E_OUT, LCD_E);	/* Enable strobe */
 8000d56:	4b04      	ldr	r3, [pc, #16]	; (8000d68 <lcdStrobe+0x28>)
 8000d58:	695b      	ldr	r3, [r3, #20]
 8000d5a:	4a03      	ldr	r2, [pc, #12]	; (8000d68 <lcdStrobe+0x28>)
 8000d5c:	f423 6300 	bic.w	r3, r3, #2048	; 0x800
 8000d60:	6153      	str	r3, [r2, #20]
}
 8000d62:	bf00      	nop
 8000d64:	bd80      	pop	{r7, pc}
 8000d66:	bf00      	nop
 8000d68:	40021000 	.word	0x40021000

08000d6c <lcdHigh>:

/*!	\brief	Send the msb nibble of the data / command to LCD. */
static void lcdHigh(uint8_t data)
{/* Low level function. */
 8000d6c:	b480      	push	{r7}
 8000d6e:	b083      	sub	sp, #12
 8000d70:	af00      	add	r7, sp, #0
 8000d72:	4603      	mov	r3, r0
 8000d74:	71fb      	strb	r3, [r7, #7]
	if(data & LCD_D7_MASK) SET(LCD_D7_OUT, LCD_D7); else CLR(LCD_D7_OUT, LCD_D7);
 8000d76:	f997 3007 	ldrsb.w	r3, [r7, #7]
 8000d7a:	2b00      	cmp	r3, #0
 8000d7c:	da06      	bge.n	8000d8c <lcdHigh+0x20>
 8000d7e:	4b24      	ldr	r3, [pc, #144]	; (8000e10 <lcdHigh+0xa4>)
 8000d80:	695b      	ldr	r3, [r3, #20]
 8000d82:	4a23      	ldr	r2, [pc, #140]	; (8000e10 <lcdHigh+0xa4>)
 8000d84:	f443 4300 	orr.w	r3, r3, #32768	; 0x8000
 8000d88:	6153      	str	r3, [r2, #20]
 8000d8a:	e005      	b.n	8000d98 <lcdHigh+0x2c>
 8000d8c:	4b20      	ldr	r3, [pc, #128]	; (8000e10 <lcdHigh+0xa4>)
 8000d8e:	695b      	ldr	r3, [r3, #20]
 8000d90:	4a1f      	ldr	r2, [pc, #124]	; (8000e10 <lcdHigh+0xa4>)
 8000d92:	f423 4300 	bic.w	r3, r3, #32768	; 0x8000
 8000d96:	6153      	str	r3, [r2, #20]
	if(data & LCD_D6_MASK) SET(LCD_D6_OUT, LCD_D6); else CLR(LCD_D6_OUT, LCD_D6);
 8000d98:	79fb      	ldrb	r3, [r7, #7]
 8000d9a:	f003 0340 	and.w	r3, r3, #64	; 0x40
 8000d9e:	2b00      	cmp	r3, #0
 8000da0:	d006      	beq.n	8000db0 <lcdHigh+0x44>
 8000da2:	4b1b      	ldr	r3, [pc, #108]	; (8000e10 <lcdHigh+0xa4>)
 8000da4:	695b      	ldr	r3, [r3, #20]
 8000da6:	4a1a      	ldr	r2, [pc, #104]	; (8000e10 <lcdHigh+0xa4>)
 8000da8:	f443 4380 	orr.w	r3, r3, #16384	; 0x4000
 8000dac:	6153      	str	r3, [r2, #20]
 8000dae:	e005      	b.n	8000dbc <lcdHigh+0x50>
 8000db0:	4b17      	ldr	r3, [pc, #92]	; (8000e10 <lcdHigh+0xa4>)
 8000db2:	695b      	ldr	r3, [r3, #20]
 8000db4:	4a16      	ldr	r2, [pc, #88]	; (8000e10 <lcdHigh+0xa4>)
 8000db6:	f423 4380 	bic.w	r3, r3, #16384	; 0x4000
 8000dba:	6153      	str	r3, [r2, #20]
	if(data & LCD_D5_MASK) SET(LCD_D5_OUT, LCD_D5); else CLR(LCD_D5_OUT, LCD_D5);
 8000dbc:	79fb      	ldrb	r3, [r7, #7]
 8000dbe:	f003 0320 	and.w	r3, r3, #32
 8000dc2:	2b00      	cmp	r3, #0
 8000dc4:	d006      	beq.n	8000dd4 <lcdHigh+0x68>
 8000dc6:	4b12      	ldr	r3, [pc, #72]	; (8000e10 <lcdHigh+0xa4>)
 8000dc8:	695b      	ldr	r3, [r3, #20]
 8000dca:	4a11      	ldr	r2, [pc, #68]	; (8000e10 <lcdHigh+0xa4>)
 8000dcc:	f443 5300 	orr.w	r3, r3, #8192	; 0x2000
 8000dd0:	6153      	str	r3, [r2, #20]
 8000dd2:	e005      	b.n	8000de0 <lcdHigh+0x74>
 8000dd4:	4b0e      	ldr	r3, [pc, #56]	; (8000e10 <lcdHigh+0xa4>)
 8000dd6:	695b      	ldr	r3, [r3, #20]
 8000dd8:	4a0d      	ldr	r2, [pc, #52]	; (8000e10 <lcdHigh+0xa4>)
 8000dda:	f423 5300 	bic.w	r3, r3, #8192	; 0x2000
 8000dde:	6153      	str	r3, [r2, #20]
	if(data & LCD_D4_MASK) SET(LCD_D4_OUT, LCD_D4); else CLR(LCD_D4_OUT, LCD_D4);
 8000de0:	79fb      	ldrb	r3, [r7, #7]
 8000de2:	f003 0310 	and.w	r3, r3, #16
 8000de6:	2b00      	cmp	r3, #0
 8000de8:	d006      	beq.n	8000df8 <lcdHigh+0x8c>
 8000dea:	4b09      	ldr	r3, [pc, #36]	; (8000e10 <lcdHigh+0xa4>)
 8000dec:	695b      	ldr	r3, [r3, #20]
 8000dee:	4a08      	ldr	r2, [pc, #32]	; (8000e10 <lcdHigh+0xa4>)
 8000df0:	f443 5380 	orr.w	r3, r3, #4096	; 0x1000
 8000df4:	6153      	str	r3, [r2, #20]
}
 8000df6:	e005      	b.n	8000e04 <lcdHigh+0x98>
	if(data & LCD_D4_MASK) SET(LCD_D4_OUT, LCD_D4); else CLR(LCD_D4_OUT, LCD_D4);
 8000df8:	4b05      	ldr	r3, [pc, #20]	; (8000e10 <lcdHigh+0xa4>)
 8000dfa:	695b      	ldr	r3, [r3, #20]
 8000dfc:	4a04      	ldr	r2, [pc, #16]	; (8000e10 <lcdHigh+0xa4>)
 8000dfe:	f423 5380 	bic.w	r3, r3, #4096	; 0x1000
 8000e02:	6153      	str	r3, [r2, #20]
}
 8000e04:	bf00      	nop
 8000e06:	370c      	adds	r7, #12
 8000e08:	46bd      	mov	sp, r7
 8000e0a:	f85d 7b04 	ldr.w	r7, [sp], #4
 8000e0e:	4770      	bx	lr
 8000e10:	40021000 	.word	0x40021000

08000e14 <lcdLow>:

/*!	\brief	Send the lsb nibble of the data / command to LCD. */
static void lcdLow(uint8_t data)
{/* Low level function. */
 8000e14:	b480      	push	{r7}
 8000e16:	b083      	sub	sp, #12
 8000e18:	af00      	add	r7, sp, #0
 8000e1a:	4603      	mov	r3, r0
 8000e1c:	71fb      	strb	r3, [r7, #7]
	if(data & LCD_D3_MASK) SET(LCD_D7_OUT, LCD_D7); else CLR(LCD_D7_OUT, LCD_D7);
 8000e1e:	79fb      	ldrb	r3, [r7, #7]
 8000e20:	f003 0308 	and.w	r3, r3, #8
 8000e24:	2b00      	cmp	r3, #0
 8000e26:	d006      	beq.n	8000e36 <lcdLow+0x22>
 8000e28:	4b24      	ldr	r3, [pc, #144]	; (8000ebc <lcdLow+0xa8>)
 8000e2a:	695b      	ldr	r3, [r3, #20]
 8000e2c:	4a23      	ldr	r2, [pc, #140]	; (8000ebc <lcdLow+0xa8>)
 8000e2e:	f443 4300 	orr.w	r3, r3, #32768	; 0x8000
 8000e32:	6153      	str	r3, [r2, #20]
 8000e34:	e005      	b.n	8000e42 <lcdLow+0x2e>
 8000e36:	4b21      	ldr	r3, [pc, #132]	; (8000ebc <lcdLow+0xa8>)
 8000e38:	695b      	ldr	r3, [r3, #20]
 8000e3a:	4a20      	ldr	r2, [pc, #128]	; (8000ebc <lcdLow+0xa8>)
 8000e3c:	f423 4300 	bic.w	r3, r3, #32768	; 0x8000
 8000e40:	6153      	str	r3, [r2, #20]
	if(data & LCD_D2_MASK) SET(LCD_D6_OUT, LCD_D6); else CLR(LCD_D6_OUT, LCD_D6);
 8000e42:	79fb      	ldrb	r3, [r7, #7]
 8000e44:	f003 0304 	and.w	r3, r3, #4
 8000e48:	2b00      	cmp	r3, #0
 8000e4a:	d006      	beq.n	8000e5a <lcdLow+0x46>
 8000e4c:	4b1b      	ldr	r3, [pc, #108]	; (8000ebc <lcdLow+0xa8>)
 8000e4e:	695b      	ldr	r3, [r3, #20]
 8000e50:	4a1a      	ldr	r2, [pc, #104]	; (8000ebc <lcdLow+0xa8>)
 8000e52:	f443 4380 	orr.w	r3, r3, #16384	; 0x4000
 8000e56:	6153      	str	r3, [r2, #20]
 8000e58:	e005      	b.n	8000e66 <lcdLow+0x52>
 8000e5a:	4b18      	ldr	r3, [pc, #96]	; (8000ebc <lcdLow+0xa8>)
 8000e5c:	695b      	ldr	r3, [r3, #20]
 8000e5e:	4a17      	ldr	r2, [pc, #92]	; (8000ebc <lcdLow+0xa8>)
 8000e60:	f423 4380 	bic.w	r3, r3, #16384	; 0x4000
 8000e64:	6153      	str	r3, [r2, #20]
	if(data & LCD_D1_MASK) SET(LCD_D5_OUT, LCD_D5); else CLR(LCD_D5_OUT, LCD_D5);
 8000e66:	79fb      	ldrb	r3, [r7, #7]
 8000e68:	f003 0302 	and.w	r3, r3, #2
 8000e6c:	2b00      	cmp	r3, #0
 8000e6e:	d006      	beq.n	8000e7e <lcdLow+0x6a>
 8000e70:	4b12      	ldr	r3, [pc, #72]	; (8000ebc <lcdLow+0xa8>)
 8000e72:	695b      	ldr	r3, [r3, #20]
 8000e74:	4a11      	ldr	r2, [pc, #68]	; (8000ebc <lcdLow+0xa8>)
 8000e76:	f443 5300 	orr.w	r3, r3, #8192	; 0x2000
 8000e7a:	6153      	str	r3, [r2, #20]
 8000e7c:	e005      	b.n	8000e8a <lcdLow+0x76>
 8000e7e:	4b0f      	ldr	r3, [pc, #60]	; (8000ebc <lcdLow+0xa8>)
 8000e80:	695b      	ldr	r3, [r3, #20]
 8000e82:	4a0e      	ldr	r2, [pc, #56]	; (8000ebc <lcdLow+0xa8>)
 8000e84:	f423 5300 	bic.w	r3, r3, #8192	; 0x2000
 8000e88:	6153      	str	r3, [r2, #20]
	if(data & LCD_D0_MASK) SET(LCD_D4_OUT, LCD_D4); else CLR(LCD_D4_OUT, LCD_D4);
 8000e8a:	79fb      	ldrb	r3, [r7, #7]
 8000e8c:	f003 0301 	and.w	r3, r3, #1
 8000e90:	2b00      	cmp	r3, #0
 8000e92:	d006      	beq.n	8000ea2 <lcdLow+0x8e>
 8000e94:	4b09      	ldr	r3, [pc, #36]	; (8000ebc <lcdLow+0xa8>)
 8000e96:	695b      	ldr	r3, [r3, #20]
 8000e98:	4a08      	ldr	r2, [pc, #32]	; (8000ebc <lcdLow+0xa8>)
 8000e9a:	f443 5380 	orr.w	r3, r3, #4096	; 0x1000
 8000e9e:	6153      	str	r3, [r2, #20]
}
 8000ea0:	e005      	b.n	8000eae <lcdLow+0x9a>
	if(data & LCD_D0_MASK) SET(LCD_D4_OUT, LCD_D4); else CLR(LCD_D4_OUT, LCD_D4);
 8000ea2:	4b06      	ldr	r3, [pc, #24]	; (8000ebc <lcdLow+0xa8>)
 8000ea4:	695b      	ldr	r3, [r3, #20]
 8000ea6:	4a05      	ldr	r2, [pc, #20]	; (8000ebc <lcdLow+0xa8>)
 8000ea8:	f423 5380 	bic.w	r3, r3, #4096	; 0x1000
 8000eac:	6153      	str	r3, [r2, #20]
}
 8000eae:	bf00      	nop
 8000eb0:	370c      	adds	r7, #12
 8000eb2:	46bd      	mov	sp, r7
 8000eb4:	f85d 7b04 	ldr.w	r7, [sp], #4
 8000eb8:	4770      	bx	lr
 8000eba:	bf00      	nop
 8000ebc:	40021000 	.word	0x40021000

08000ec0 <lcdWrite>:

/*!	\brief	Send data/commands to the display. */
static void lcdWrite(uint8_t data)
{/* Low level function. */
 8000ec0:	b580      	push	{r7, lr}
 8000ec2:	b082      	sub	sp, #8
 8000ec4:	af00      	add	r7, sp, #0
 8000ec6:	4603      	mov	r3, r0
 8000ec8:	71fb      	strb	r3, [r7, #7]
#if (USE_BUSY_FLAG)
	/* Write data/commands to LCD. */
	CLR(LCD_RW_OUT, LCD_RW);
#endif /* USE_BUSY_FLAG */

	lcdHigh(data);
 8000eca:	79fb      	ldrb	r3, [r7, #7]
 8000ecc:	4618      	mov	r0, r3
 8000ece:	f7ff ff4d 	bl	8000d6c <lcdHigh>
	lcdStrobe();
 8000ed2:	f7ff ff35 	bl	8000d40 <lcdStrobe>
	lcdLow(data);
 8000ed6:	79fb      	ldrb	r3, [r7, #7]
 8000ed8:	4618      	mov	r0, r3
 8000eda:	f7ff ff9b 	bl	8000e14 <lcdLow>
	lcdStrobe();
 8000ede:	f7ff ff2f 	bl	8000d40 <lcdStrobe>

	/* The busy flag must be checked after the 4-bit data has been transferred twice. */
#if (USE_BUSY_FLAG)
	lcd_busy_delay();
#else
	lcd10usDelay(BUSY_CYCLE_TIME);
 8000ee2:	2005      	movs	r0, #5
 8000ee4:	f7ff ff0c 	bl	8000d00 <lcd10usDelay>
#endif /* USE_BUSY_FLAG */
}
 8000ee8:	bf00      	nop
 8000eea:	3708      	adds	r7, #8
 8000eec:	46bd      	mov	sp, r7
 8000eee:	bd80      	pop	{r7, pc}

08000ef0 <lcdConfig>:

/*!	\brief	Initializing by instruction. 4-bit interface initialization. */
static void lcdConfig(uint8_t param)
{/* Low level function. */
 8000ef0:	b580      	push	{r7, lr}
 8000ef2:	b082      	sub	sp, #8
 8000ef4:	af00      	add	r7, sp, #0
 8000ef6:	4603      	mov	r3, r0
 8000ef8:	71fb      	strb	r3, [r7, #7]
	/* Send commands to LCD. */
	CLR(LCD_RS_OUT, LCD_RS);
 8000efa:	4b10      	ldr	r3, [pc, #64]	; (8000f3c <lcdConfig+0x4c>)
 8000efc:	695b      	ldr	r3, [r3, #20]
 8000efe:	4a0f      	ldr	r2, [pc, #60]	; (8000f3c <lcdConfig+0x4c>)
 8000f00:	f023 0380 	bic.w	r3, r3, #128	; 0x80
 8000f04:	6153      	str	r3, [r2, #20]
#if (USE_BUSY_FLAG)
	/* Write data/commands to LCD. */
	CLR(LCD_RW_OUT, LCD_RW);
#endif /* USE_BUSY_FLAG */

	lcdHigh(param);
 8000f06:	79fb      	ldrb	r3, [r7, #7]
 8000f08:	4618      	mov	r0, r3
 8000f0a:	f7ff ff2f 	bl	8000d6c <lcdHigh>
	lcdStrobe();		// Change 8-bit interface to 4-bit interface
 8000f0e:	f7ff ff17 	bl	8000d40 <lcdStrobe>
	lcd10usDelay(BUSY_CYCLE_TIME);
 8000f12:	2005      	movs	r0, #5
 8000f14:	f7ff fef4 	bl	8000d00 <lcd10usDelay>
	lcdStrobe();		/* DB7 to DB4 of the "Function set" instruction is written twice. */
 8000f18:	f7ff ff12 	bl	8000d40 <lcdStrobe>
	lcd10usDelay(BUSY_CYCLE_TIME);
 8000f1c:	2005      	movs	r0, #5
 8000f1e:	f7ff feef 	bl	8000d00 <lcd10usDelay>
	lcdLow(param);
 8000f22:	79fb      	ldrb	r3, [r7, #7]
 8000f24:	4618      	mov	r0, r3
 8000f26:	f7ff ff75 	bl	8000e14 <lcdLow>
	lcdStrobe();		// 4-bit, two lines, 5x8 pixel
 8000f2a:	f7ff ff09 	bl	8000d40 <lcdStrobe>
	lcd10usDelay(BUSY_CYCLE_TIME);
 8000f2e:	2005      	movs	r0, #5
 8000f30:	f7ff fee6 	bl	8000d00 <lcd10usDelay>
	/* Note: The number of display lines and character font cannot be changed after this point. */
}
 8000f34:	bf00      	nop
 8000f36:	3708      	adds	r7, #8
 8000f38:	46bd      	mov	sp, r7
 8000f3a:	bd80      	pop	{r7, pc}
 8000f3c:	40021000 	.word	0x40021000

08000f40 <lcdClrScr>:
 * 				and returns the display to its original status if it was shifted.
 * 				In other words, the display disappears and the cursor
 * 				or blinking goes to the left edge of the display (in the first line if 2 lines are displayed).
 * 				It also sets I/D to 1 (increment mode) in entry mode (S of entry mode does not change). */
void lcdClrScr(void)
{
 8000f40:	b580      	push	{r7, lr}
 8000f42:	af00      	add	r7, sp, #0
	/* Send a command to LCD. */
	CLR(LCD_RS_OUT, LCD_RS);
 8000f44:	4b06      	ldr	r3, [pc, #24]	; (8000f60 <lcdClrScr+0x20>)
 8000f46:	695b      	ldr	r3, [r3, #20]
 8000f48:	4a05      	ldr	r2, [pc, #20]	; (8000f60 <lcdClrScr+0x20>)
 8000f4a:	f023 0380 	bic.w	r3, r3, #128	; 0x80
 8000f4e:	6153      	str	r3, [r2, #20]
	/* Clear screen */
	lcdWrite(0x01u);
 8000f50:	2001      	movs	r0, #1
 8000f52:	f7ff ffb5 	bl	8000ec0 <lcdWrite>
	/* Busy delay */
#if (USE_BUSY_FLAG)
	lcd_busy_delay();
#else
	lcd10usDelay(CLRSCR_CYCLE_TIME);
 8000f56:	20c8      	movs	r0, #200	; 0xc8
 8000f58:	f7ff fed2 	bl	8000d00 <lcd10usDelay>
#endif /* USE_BUSY_FLAG */
}
 8000f5c:	bf00      	nop
 8000f5e:	bd80      	pop	{r7, pc}
 8000f60:	40021000 	.word	0x40021000

08000f64 <lcdReturn>:
 * 				and returns the display to its original status if it was shifted.
 * 				The DDRAM contents do not change.
 * 				The cursor or blinking go to the left edge of the display
 * 				(in the first line if 2 lines are displayed). */
void lcdReturn(void)
{
 8000f64:	b580      	push	{r7, lr}
 8000f66:	af00      	add	r7, sp, #0
	/* Send a command to LCD. */
	CLR(LCD_RS_OUT, LCD_RS);
 8000f68:	4b06      	ldr	r3, [pc, #24]	; (8000f84 <lcdReturn+0x20>)
 8000f6a:	695b      	ldr	r3, [r3, #20]
 8000f6c:	4a05      	ldr	r2, [pc, #20]	; (8000f84 <lcdReturn+0x20>)
 8000f6e:	f023 0380 	bic.w	r3, r3, #128	; 0x80
 8000f72:	6153      	str	r3, [r2, #20]
	/* Return home */
	lcdWrite(0x02u);
 8000f74:	2002      	movs	r0, #2
 8000f76:	f7ff ffa3 	bl	8000ec0 <lcdWrite>
	/* Busy delay */
#if (USE_BUSY_FLAG)
	lcd_busy_delay();
#else
	lcd10usDelay(RETHOME_CYCLE_TIME);
 8000f7a:	20c8      	movs	r0, #200	; 0xc8
 8000f7c:	f7ff fec0 	bl	8000d00 <lcd10usDelay>
#endif /* USE_BUSY_FLAG */
}
 8000f80:	bf00      	nop
 8000f82:	bd80      	pop	{r7, pc}
 8000f84:	40021000 	.word	0x40021000

08000f88 <cursorShift>:
 * 				without writing or reading display data.
 * 				This function is used to correct or search the display.
 * 				In a 2-line display, the cursor moves to the second line
 * 				when it passes the 40th digit of the first line. */
void cursorShift(uint8_t direction)
{
 8000f88:	b580      	push	{r7, lr}
 8000f8a:	b082      	sub	sp, #8
 8000f8c:	af00      	add	r7, sp, #0
 8000f8e:	4603      	mov	r3, r0
 8000f90:	71fb      	strb	r3, [r7, #7]
	/* Send a command to LCD. */
	CLR(LCD_RS_OUT, LCD_RS);
 8000f92:	4b0c      	ldr	r3, [pc, #48]	; (8000fc4 <cursorShift+0x3c>)
 8000f94:	695b      	ldr	r3, [r3, #20]
 8000f96:	4a0b      	ldr	r2, [pc, #44]	; (8000fc4 <cursorShift+0x3c>)
 8000f98:	f023 0380 	bic.w	r3, r3, #128	; 0x80
 8000f9c:	6153      	str	r3, [r2, #20]
	/* Shift cursor */
	switch (direction)
 8000f9e:	79fb      	ldrb	r3, [r7, #7]
 8000fa0:	2b3c      	cmp	r3, #60	; 0x3c
 8000fa2:	d002      	beq.n	8000faa <cursorShift+0x22>
 8000fa4:	2b3e      	cmp	r3, #62	; 0x3e
 8000fa6:	d004      	beq.n	8000fb2 <cursorShift+0x2a>
			lcdWrite(0x14u);
			break;

		default:
			/* Ignore this command */
			break;
 8000fa8:	e007      	b.n	8000fba <cursorShift+0x32>
			lcdWrite(0x10u);
 8000faa:	2010      	movs	r0, #16
 8000fac:	f7ff ff88 	bl	8000ec0 <lcdWrite>
			break;
 8000fb0:	e003      	b.n	8000fba <cursorShift+0x32>
			lcdWrite(0x14u);
 8000fb2:	2014      	movs	r0, #20
 8000fb4:	f7ff ff84 	bl	8000ec0 <lcdWrite>
			break;
 8000fb8:	bf00      	nop
	}
}
 8000fba:	bf00      	nop
 8000fbc:	3708      	adds	r7, #8
 8000fbe:	46bd      	mov	sp, r7
 8000fc0:	bd80      	pop	{r7, pc}
 8000fc2:	bf00      	nop
 8000fc4:	40021000 	.word	0x40021000

08000fc8 <lcdGoto>:

/*!	\details	Go to the specified (DDRAM/CGRAM) memory address.*/
void lcdGoto(uint8_t line, uint8_t address)
{
 8000fc8:	b580      	push	{r7, lr}
 8000fca:	b082      	sub	sp, #8
 8000fcc:	af00      	add	r7, sp, #0
 8000fce:	4603      	mov	r3, r0
 8000fd0:	460a      	mov	r2, r1
 8000fd2:	71fb      	strb	r3, [r7, #7]
 8000fd4:	4613      	mov	r3, r2
 8000fd6:	71bb      	strb	r3, [r7, #6]
	/* Send a command to LCD. */
	CLR(LCD_RS_OUT, LCD_RS);
 8000fd8:	4b22      	ldr	r3, [pc, #136]	; (8001064 <lcdGoto+0x9c>)
 8000fda:	695b      	ldr	r3, [r3, #20]
 8000fdc:	4a21      	ldr	r2, [pc, #132]	; (8001064 <lcdGoto+0x9c>)
 8000fde:	f023 0380 	bic.w	r3, r3, #128	; 0x80
 8000fe2:	6153      	str	r3, [r2, #20]
	/* Set DDRAM/CGRAM address. */
	switch (line)
 8000fe4:	79fb      	ldrb	r3, [r7, #7]
 8000fe6:	3b01      	subs	r3, #1
 8000fe8:	2b04      	cmp	r3, #4
 8000fea:	d835      	bhi.n	8001058 <lcdGoto+0x90>
 8000fec:	a201      	add	r2, pc, #4	; (adr r2, 8000ff4 <lcdGoto+0x2c>)
 8000fee:	f852 f023 	ldr.w	pc, [r2, r3, lsl #2]
 8000ff2:	bf00      	nop
 8000ff4:	08001009 	.word	0x08001009
 8000ff8:	08001019 	.word	0x08001019
 8000ffc:	08001029 	.word	0x08001029
 8001000:	08001039 	.word	0x08001039
 8001004:	08001049 	.word	0x08001049
	{
		/* Set DDRAM address. */
		case LCD_1st_LINE: lcdWrite(0x80u | START_ADDRESS_1st_LINE | address); break;
 8001008:	79bb      	ldrb	r3, [r7, #6]
 800100a:	f063 037f 	orn	r3, r3, #127	; 0x7f
 800100e:	b2db      	uxtb	r3, r3
 8001010:	4618      	mov	r0, r3
 8001012:	f7ff ff55 	bl	8000ec0 <lcdWrite>
 8001016:	e020      	b.n	800105a <lcdGoto+0x92>
		case LCD_2nd_LINE: lcdWrite(0x80u | START_ADDRESS_2nd_LINE | address); break;
 8001018:	79bb      	ldrb	r3, [r7, #6]
 800101a:	f063 033f 	orn	r3, r3, #63	; 0x3f
 800101e:	b2db      	uxtb	r3, r3
 8001020:	4618      	mov	r0, r3
 8001022:	f7ff ff4d 	bl	8000ec0 <lcdWrite>
 8001026:	e018      	b.n	800105a <lcdGoto+0x92>
		case LCD_3rd_LINE: lcdWrite(0x80u | START_ADDRESS_3rd_LINE | address); break;
 8001028:	79bb      	ldrb	r3, [r7, #6]
 800102a:	f063 036f 	orn	r3, r3, #111	; 0x6f
 800102e:	b2db      	uxtb	r3, r3
 8001030:	4618      	mov	r0, r3
 8001032:	f7ff ff45 	bl	8000ec0 <lcdWrite>
 8001036:	e010      	b.n	800105a <lcdGoto+0x92>
		case LCD_4th_LINE: lcdWrite(0x80u | START_ADDRESS_4th_LINE | address); break;
 8001038:	79bb      	ldrb	r3, [r7, #6]
 800103a:	f063 032f 	orn	r3, r3, #47	; 0x2f
 800103e:	b2db      	uxtb	r3, r3
 8001040:	4618      	mov	r0, r3
 8001042:	f7ff ff3d 	bl	8000ec0 <lcdWrite>
 8001046:	e008      	b.n	800105a <lcdGoto+0x92>
		/* Set CGRAM address. */
		case CGRAM : lcdWrite(0x40u | address); break;
 8001048:	79bb      	ldrb	r3, [r7, #6]
 800104a:	f043 0340 	orr.w	r3, r3, #64	; 0x40
 800104e:	b2db      	uxtb	r3, r3
 8001050:	4618      	mov	r0, r3
 8001052:	f7ff ff35 	bl	8000ec0 <lcdWrite>
 8001056:	e000      	b.n	800105a <lcdGoto+0x92>

		default:
			/* Ignore this command */
			break;
 8001058:	bf00      	nop
	}
}
 800105a:	bf00      	nop
 800105c:	3708      	adds	r7, #8
 800105e:	46bd      	mov	sp, r7
 8001060:	bd80      	pop	{r7, pc}
 8001062:	bf00      	nop
 8001064:	40021000 	.word	0x40021000

08001068 <lcdSetMode>:

/*!	\details	Change LCD settings. */
void lcdSetMode(uint8_t param)
{
 8001068:	b580      	push	{r7, lr}
 800106a:	b082      	sub	sp, #8
 800106c:	af00      	add	r7, sp, #0
 800106e:	4603      	mov	r3, r0
 8001070:	71fb      	strb	r3, [r7, #7]
	/* Send a command to LCD. */
	CLR(LCD_RS_OUT, LCD_RS);
 8001072:	4b07      	ldr	r3, [pc, #28]	; (8001090 <lcdSetMode+0x28>)
 8001074:	695b      	ldr	r3, [r3, #20]
 8001076:	4a06      	ldr	r2, [pc, #24]	; (8001090 <lcdSetMode+0x28>)
 8001078:	f023 0380 	bic.w	r3, r3, #128	; 0x80
 800107c:	6153      	str	r3, [r2, #20]
	lcdWrite(param);
 800107e:	79fb      	ldrb	r3, [r7, #7]
 8001080:	4618      	mov	r0, r3
 8001082:	f7ff ff1d 	bl	8000ec0 <lcdWrite>
}
 8001086:	bf00      	nop
 8001088:	3708      	adds	r7, #8
 800108a:	46bd      	mov	sp, r7
 800108c:	bd80      	pop	{r7, pc}
 800108e:	bf00      	nop
 8001090:	40021000 	.word	0x40021000

08001094 <lcdPutc>:

/*!	\details	Write a single char to the current memory space (DDRAM/CGRAM). */
void lcdPutc(uint8_t data)
{
 8001094:	b580      	push	{r7, lr}
 8001096:	b082      	sub	sp, #8
 8001098:	af00      	add	r7, sp, #0
 800109a:	4603      	mov	r3, r0
 800109c:	71fb      	strb	r3, [r7, #7]
	/* Send data to LCD. */
	SET(LCD_RS_OUT, LCD_RS);
 800109e:	4b08      	ldr	r3, [pc, #32]	; (80010c0 <lcdPutc+0x2c>)
 80010a0:	695b      	ldr	r3, [r3, #20]
 80010a2:	4a07      	ldr	r2, [pc, #28]	; (80010c0 <lcdPutc+0x2c>)
 80010a4:	f043 0380 	orr.w	r3, r3, #128	; 0x80
 80010a8:	6153      	str	r3, [r2, #20]
	lcdWrite(data);
 80010aa:	79fb      	ldrb	r3, [r7, #7]
 80010ac:	4618      	mov	r0, r3
 80010ae:	f7ff ff07 	bl	8000ec0 <lcdWrite>
	/* Note:
	 * After execution of the CGRAM/DDRAM data write/read instruction, the RAM address counter is incremented
	 * or decremented by 1. The RAM address counter is updated after the busy flag turns off.
	 * tADD is the time elapsed after the busy flag turns off until the address counter is updated. */
	lcd10usDelay(AC_UPDATE_TIME);	/* Update RAM address counter delay. */
 80010b2:	2001      	movs	r0, #1
 80010b4:	f7ff fe24 	bl	8000d00 <lcd10usDelay>
}
 80010b8:	bf00      	nop
 80010ba:	3708      	adds	r7, #8
 80010bc:	46bd      	mov	sp, r7
 80010be:	bd80      	pop	{r7, pc}
 80010c0:	40021000 	.word	0x40021000

080010c4 <lcdPuts>:

/*!	\details	Writes ANSI-C string to LCD (DDRAM memory space). */
//void lcdPuts(const uint8_t *str)
void lcdPuts(const char *str)
{
 80010c4:	b580      	push	{r7, lr}
 80010c6:	b084      	sub	sp, #16
 80010c8:	af00      	add	r7, sp, #0
 80010ca:	6078      	str	r0, [r7, #4]
	/* Send a ANSI-C string to LCD. */
	while ('\0' != *str)
 80010cc:	e028      	b.n	8001120 <lcdPuts+0x5c>
	{
#if ( USE_FORMATTED_OUTPUT )
		if(('\n' == *str))
 80010ce:	687b      	ldr	r3, [r7, #4]
 80010d0:	781b      	ldrb	r3, [r3, #0]
 80010d2:	2b0a      	cmp	r3, #10
 80010d4:	d104      	bne.n	80010e0 <lcdPuts+0x1c>
		{/*New line */
			lcdGoto(LCD_2nd_LINE, 0u);
 80010d6:	2100      	movs	r1, #0
 80010d8:	2002      	movs	r0, #2
 80010da:	f7ff ff75 	bl	8000fc8 <lcdGoto>
 80010de:	e01c      	b.n	800111a <lcdPuts+0x56>
		}
		else if(('\r' == *str))
 80010e0:	687b      	ldr	r3, [r7, #4]
 80010e2:	781b      	ldrb	r3, [r3, #0]
 80010e4:	2b0d      	cmp	r3, #13
 80010e6:	d102      	bne.n	80010ee <lcdPuts+0x2a>
		{/* Return home */
			lcdReturn();
 80010e8:	f7ff ff3c 	bl	8000f64 <lcdReturn>
 80010ec:	e015      	b.n	800111a <lcdPuts+0x56>
		}
		else if(('\t' == *str))
 80010ee:	687b      	ldr	r3, [r7, #4]
 80010f0:	781b      	ldrb	r3, [r3, #0]
 80010f2:	2b09      	cmp	r3, #9
 80010f4:	d10c      	bne.n	8001110 <lcdPuts+0x4c>
		{/* Tab space */
			uint8_t i;

			for(i=0u; i<TAB_SPACE; i++)
 80010f6:	2300      	movs	r3, #0
 80010f8:	73fb      	strb	r3, [r7, #15]
 80010fa:	e005      	b.n	8001108 <lcdPuts+0x44>
			{/* Shift cursor to the right. */
				cursorShift(RIGHT);
 80010fc:	203e      	movs	r0, #62	; 0x3e
 80010fe:	f7ff ff43 	bl	8000f88 <cursorShift>
			for(i=0u; i<TAB_SPACE; i++)
 8001102:	7bfb      	ldrb	r3, [r7, #15]
 8001104:	3301      	adds	r3, #1
 8001106:	73fb      	strb	r3, [r7, #15]
 8001108:	7bfb      	ldrb	r3, [r7, #15]
 800110a:	2b03      	cmp	r3, #3
 800110c:	d9f6      	bls.n	80010fc <lcdPuts+0x38>
 800110e:	e004      	b.n	800111a <lcdPuts+0x56>
		}
		else
#endif
		{
			/* Display a symbol. */
			lcdPutc(*str);
 8001110:	687b      	ldr	r3, [r7, #4]
 8001112:	781b      	ldrb	r3, [r3, #0]
 8001114:	4618      	mov	r0, r3
 8001116:	f7ff ffbd 	bl	8001094 <lcdPutc>
		}
		/* Get the next symbol. */
		str++;
 800111a:	687b      	ldr	r3, [r7, #4]
 800111c:	3301      	adds	r3, #1
 800111e:	607b      	str	r3, [r7, #4]
	while ('\0' != *str)
 8001120:	687b      	ldr	r3, [r7, #4]
 8001122:	781b      	ldrb	r3, [r3, #0]
 8001124:	2b00      	cmp	r3, #0
 8001126:	d1d2      	bne.n	80010ce <lcdPuts+0xa>
	}
}
 8001128:	bf00      	nop
 800112a:	bf00      	nop
 800112c:	3710      	adds	r7, #16
 800112e:	46bd      	mov	sp, r7
 8001130:	bd80      	pop	{r7, pc}

08001132 <lcdLoadChar>:

/*!	\details	Load the user-defined symbol into the CGRAM memory. */
void lcdLoadChar(uint8_t* vector, uint8_t position)
{
 8001132:	b580      	push	{r7, lr}
 8001134:	b084      	sub	sp, #16
 8001136:	af00      	add	r7, sp, #0
 8001138:	6078      	str	r0, [r7, #4]
 800113a:	460b      	mov	r3, r1
 800113c:	70fb      	strb	r3, [r7, #3]
	uint8_t i;
	/* Go to the CGRAM memory space: 0 to 7 */
	lcdGoto(CGRAM, (position * FONT_HEIGHT));
 800113e:	78fb      	ldrb	r3, [r7, #3]
 8001140:	00db      	lsls	r3, r3, #3
 8001142:	b2db      	uxtb	r3, r3
 8001144:	4619      	mov	r1, r3
 8001146:	2005      	movs	r0, #5
 8001148:	f7ff ff3e 	bl	8000fc8 <lcdGoto>

	for(i = 0u; i < FONT_HEIGHT; i++)
 800114c:	2300      	movs	r3, #0
 800114e:	73fb      	strb	r3, [r7, #15]
 8001150:	e009      	b.n	8001166 <lcdLoadChar+0x34>
	{/* Load one row of pixels into the CGRAM register. */
		lcdPutc(vector[i]);
 8001152:	7bfb      	ldrb	r3, [r7, #15]
 8001154:	687a      	ldr	r2, [r7, #4]
 8001156:	4413      	add	r3, r2
 8001158:	781b      	ldrb	r3, [r3, #0]
 800115a:	4618      	mov	r0, r3
 800115c:	f7ff ff9a 	bl	8001094 <lcdPutc>
	for(i = 0u; i < FONT_HEIGHT; i++)
 8001160:	7bfb      	ldrb	r3, [r7, #15]
 8001162:	3301      	adds	r3, #1
 8001164:	73fb      	strb	r3, [r7, #15]
 8001166:	7bfb      	ldrb	r3, [r7, #15]
 8001168:	2b07      	cmp	r3, #7
 800116a:	d9f2      	bls.n	8001152 <lcdLoadChar+0x20>
	}

	/* Return to the DDRAM memory space. */
	lcdGoto(LCD_1st_LINE, 0u);
 800116c:	2100      	movs	r1, #0
 800116e:	2001      	movs	r0, #1
 8001170:	f7ff ff2a 	bl	8000fc8 <lcdGoto>
}
 8001174:	bf00      	nop
 8001176:	3710      	adds	r7, #16
 8001178:	46bd      	mov	sp, r7
 800117a:	bd80      	pop	{r7, pc}

0800117c <lcdPow10>:
	cursorShift(LEFT);		// Ðóõàºìî êóðñîð íà îäíó ïîçèö³þ âë³âî
}

/*!	\brief	Returns 10^n value. */
static uint32_t lcdPow10(uint8_t n)
{
 800117c:	b480      	push	{r7}
 800117e:	b085      	sub	sp, #20
 8001180:	af00      	add	r7, sp, #0
 8001182:	4603      	mov	r3, r0
 8001184:	71fb      	strb	r3, [r7, #7]
	uint32_t retval = 1u;
 8001186:	2301      	movs	r3, #1
 8001188:	60fb      	str	r3, [r7, #12]

	while (n > 0u)
 800118a:	e008      	b.n	800119e <lcdPow10+0x22>
	{
		retval *= 10u;
 800118c:	68fa      	ldr	r2, [r7, #12]
 800118e:	4613      	mov	r3, r2
 8001190:	009b      	lsls	r3, r3, #2
 8001192:	4413      	add	r3, r2
 8001194:	005b      	lsls	r3, r3, #1
 8001196:	60fb      	str	r3, [r7, #12]
		n--;
 8001198:	79fb      	ldrb	r3, [r7, #7]
 800119a:	3b01      	subs	r3, #1
 800119c:	71fb      	strb	r3, [r7, #7]
	while (n > 0u)
 800119e:	79fb      	ldrb	r3, [r7, #7]
 80011a0:	2b00      	cmp	r3, #0
 80011a2:	d1f3      	bne.n	800118c <lcdPow10+0x10>
	}

	return retval;
 80011a4:	68fb      	ldr	r3, [r7, #12]
}
 80011a6:	4618      	mov	r0, r3
 80011a8:	3714      	adds	r7, #20
 80011aa:	46bd      	mov	sp, r7
 80011ac:	f85d 7b04 	ldr.w	r7, [sp], #4
 80011b0:	4770      	bx	lr
	...

080011b4 <lcdItos>:

/*!	\brief	Display a integer number: +/- 2147483647. */
void lcdItos(int32_t value)
{
 80011b4:	b580      	push	{r7, lr}
 80011b6:	b084      	sub	sp, #16
 80011b8:	af00      	add	r7, sp, #0
 80011ba:	6078      	str	r0, [r7, #4]
	int32_t i;

	if (value < 0)
 80011bc:	687b      	ldr	r3, [r7, #4]
 80011be:	2b00      	cmp	r3, #0
 80011c0:	da05      	bge.n	80011ce <lcdItos+0x1a>
	{
		lcdPutc('-');
 80011c2:	202d      	movs	r0, #45	; 0x2d
 80011c4:	f7ff ff66 	bl	8001094 <lcdPutc>
		value = -value;
 80011c8:	687b      	ldr	r3, [r7, #4]
 80011ca:	425b      	negs	r3, r3
 80011cc:	607b      	str	r3, [r7, #4]
	}

	i = 1;
 80011ce:	2301      	movs	r3, #1
 80011d0:	60fb      	str	r3, [r7, #12]
	while ((value / i) > 9)
 80011d2:	e005      	b.n	80011e0 <lcdItos+0x2c>
	{
		i *= 10;
 80011d4:	68fa      	ldr	r2, [r7, #12]
 80011d6:	4613      	mov	r3, r2
 80011d8:	009b      	lsls	r3, r3, #2
 80011da:	4413      	add	r3, r2
 80011dc:	005b      	lsls	r3, r3, #1
 80011de:	60fb      	str	r3, [r7, #12]
	while ((value / i) > 9)
 80011e0:	687a      	ldr	r2, [r7, #4]
 80011e2:	68fb      	ldr	r3, [r7, #12]
 80011e4:	fb92 f3f3 	sdiv	r3, r2, r3
 80011e8:	2b09      	cmp	r3, #9
 80011ea:	dcf3      	bgt.n	80011d4 <lcdItos+0x20>
	}

	lcdPutc(value/i + '0');	/* Display at least one symbol */
 80011ec:	687a      	ldr	r2, [r7, #4]
 80011ee:	68fb      	ldr	r3, [r7, #12]
 80011f0:	fb92 f3f3 	sdiv	r3, r2, r3
 80011f4:	b2db      	uxtb	r3, r3
 80011f6:	3330      	adds	r3, #48	; 0x30
 80011f8:	b2db      	uxtb	r3, r3
 80011fa:	4618      	mov	r0, r3
 80011fc:	f7ff ff4a 	bl	8001094 <lcdPutc>
	i /= 10;
 8001200:	68fb      	ldr	r3, [r7, #12]
 8001202:	4a16      	ldr	r2, [pc, #88]	; (800125c <lcdItos+0xa8>)
 8001204:	fb82 1203 	smull	r1, r2, r2, r3
 8001208:	1092      	asrs	r2, r2, #2
 800120a:	17db      	asrs	r3, r3, #31
 800120c:	1ad3      	subs	r3, r2, r3
 800120e:	60fb      	str	r3, [r7, #12]

	while (i > 0)
 8001210:	e01c      	b.n	800124c <lcdItos+0x98>
	{
		lcdPutc('0' + ((value % (i*10)) / i));
 8001212:	68fa      	ldr	r2, [r7, #12]
 8001214:	4613      	mov	r3, r2
 8001216:	009b      	lsls	r3, r3, #2
 8001218:	4413      	add	r3, r2
 800121a:	005b      	lsls	r3, r3, #1
 800121c:	461a      	mov	r2, r3
 800121e:	687b      	ldr	r3, [r7, #4]
 8001220:	fb93 f1f2 	sdiv	r1, r3, r2
 8001224:	fb01 f202 	mul.w	r2, r1, r2
 8001228:	1a9a      	subs	r2, r3, r2
 800122a:	68fb      	ldr	r3, [r7, #12]
 800122c:	fb92 f3f3 	sdiv	r3, r2, r3
 8001230:	b2db      	uxtb	r3, r3
 8001232:	3330      	adds	r3, #48	; 0x30
 8001234:	b2db      	uxtb	r3, r3
 8001236:	4618      	mov	r0, r3
 8001238:	f7ff ff2c 	bl	8001094 <lcdPutc>
		i /= 10;
 800123c:	68fb      	ldr	r3, [r7, #12]
 800123e:	4a07      	ldr	r2, [pc, #28]	; (800125c <lcdItos+0xa8>)
 8001240:	fb82 1203 	smull	r1, r2, r2, r3
 8001244:	1092      	asrs	r2, r2, #2
 8001246:	17db      	asrs	r3, r3, #31
 8001248:	1ad3      	subs	r3, r2, r3
 800124a:	60fb      	str	r3, [r7, #12]
	while (i > 0)
 800124c:	68fb      	ldr	r3, [r7, #12]
 800124e:	2b00      	cmp	r3, #0
 8001250:	dcdf      	bgt.n	8001212 <lcdItos+0x5e>
	}
}
 8001252:	bf00      	nop
 8001254:	bf00      	nop
 8001256:	3710      	adds	r7, #16
 8001258:	46bd      	mov	sp, r7
 800125a:	bd80      	pop	{r7, pc}
 800125c:	66666667 	.word	0x66666667

08001260 <lcdFtos>:

/*!	\brief	Display a floating point number. */
void lcdFtos(float value, uint8_t n)
{
 8001260:	b580      	push	{r7, lr}
 8001262:	b082      	sub	sp, #8
 8001264:	af00      	add	r7, sp, #0
 8001266:	ed87 0a01 	vstr	s0, [r7, #4]
 800126a:	4603      	mov	r3, r0
 800126c:	70fb      	strb	r3, [r7, #3]
	if (value < 0.0)
 800126e:	edd7 7a01 	vldr	s15, [r7, #4]
 8001272:	eef5 7ac0 	vcmpe.f32	s15, #0.0
 8001276:	eef1 fa10 	vmrs	APSR_nzcv, fpscr
 800127a:	d508      	bpl.n	800128e <lcdFtos+0x2e>
	{
		lcdPutc('-');
 800127c:	202d      	movs	r0, #45	; 0x2d
 800127e:	f7ff ff09 	bl	8001094 <lcdPutc>
		value = -value;
 8001282:	edd7 7a01 	vldr	s15, [r7, #4]
 8001286:	eef1 7a67 	vneg.f32	s15, s15
 800128a:	edc7 7a01 	vstr	s15, [r7, #4]
	}

	lcdItos((int32_t)value); // Âèâ³ä ö³ëî¿ ÷àñòèíè
 800128e:	edd7 7a01 	vldr	s15, [r7, #4]
 8001292:	eefd 7ae7 	vcvt.s32.f32	s15, s15
 8001296:	ee17 0a90 	vmov	r0, s15
 800129a:	f7ff ff8b 	bl	80011b4 <lcdItos>

	if (n > 0u)
 800129e:	78fb      	ldrb	r3, [r7, #3]
 80012a0:	2b00      	cmp	r3, #0
 80012a2:	d016      	beq.n	80012d2 <lcdFtos+0x72>
	{
		lcdPutc('.'); // Êðàïêà
 80012a4:	202e      	movs	r0, #46	; 0x2e
 80012a6:	f7ff fef5 	bl	8001094 <lcdPutc>

		lcdNtos((uint32_t)(value * (float)lcdPow10(n)), n); // Âèâ³ä äðîáîâî¿ ÷àñòèíè
 80012aa:	78fb      	ldrb	r3, [r7, #3]
 80012ac:	4618      	mov	r0, r3
 80012ae:	f7ff ff65 	bl	800117c <lcdPow10>
 80012b2:	ee07 0a90 	vmov	s15, r0
 80012b6:	eeb8 7a67 	vcvt.f32.u32	s14, s15
 80012ba:	edd7 7a01 	vldr	s15, [r7, #4]
 80012be:	ee67 7a27 	vmul.f32	s15, s14, s15
 80012c2:	eefc 7ae7 	vcvt.u32.f32	s15, s15
 80012c6:	78fb      	ldrb	r3, [r7, #3]
 80012c8:	4619      	mov	r1, r3
 80012ca:	ee17 0a90 	vmov	r0, s15
 80012ce:	f000 f805 	bl	80012dc <lcdNtos>
	}
}
 80012d2:	bf00      	nop
 80012d4:	3708      	adds	r7, #8
 80012d6:	46bd      	mov	sp, r7
 80012d8:	bd80      	pop	{r7, pc}
	...

080012dc <lcdNtos>:

/*!	\brief	Display "n" right digits of "value". */
void lcdNtos(uint32_t value, uint8_t n)
{
 80012dc:	b580      	push	{r7, lr}
 80012de:	b084      	sub	sp, #16
 80012e0:	af00      	add	r7, sp, #0
 80012e2:	6078      	str	r0, [r7, #4]
 80012e4:	460b      	mov	r3, r1
 80012e6:	70fb      	strb	r3, [r7, #3]
	if (n > 0u)
 80012e8:	78fb      	ldrb	r3, [r7, #3]
 80012ea:	2b00      	cmp	r3, #0
 80012ec:	d023      	beq.n	8001336 <lcdNtos+0x5a>
	{
		uint32_t i = lcdPow10(n - 1u);
 80012ee:	78fb      	ldrb	r3, [r7, #3]
 80012f0:	3b01      	subs	r3, #1
 80012f2:	b2db      	uxtb	r3, r3
 80012f4:	4618      	mov	r0, r3
 80012f6:	f7ff ff41 	bl	800117c <lcdPow10>
 80012fa:	60f8      	str	r0, [r7, #12]

		while (i > 0u)	/* Display at least one symbol */
 80012fc:	e018      	b.n	8001330 <lcdNtos+0x54>
		{
			lcdPutc('0' + ((value/i) % 10u));
 80012fe:	687a      	ldr	r2, [r7, #4]
 8001300:	68fb      	ldr	r3, [r7, #12]
 8001302:	fbb2 f1f3 	udiv	r1, r2, r3
 8001306:	4b0e      	ldr	r3, [pc, #56]	; (8001340 <lcdNtos+0x64>)
 8001308:	fba3 2301 	umull	r2, r3, r3, r1
 800130c:	08da      	lsrs	r2, r3, #3
 800130e:	4613      	mov	r3, r2
 8001310:	009b      	lsls	r3, r3, #2
 8001312:	4413      	add	r3, r2
 8001314:	005b      	lsls	r3, r3, #1
 8001316:	1aca      	subs	r2, r1, r3
 8001318:	b2d3      	uxtb	r3, r2
 800131a:	3330      	adds	r3, #48	; 0x30
 800131c:	b2db      	uxtb	r3, r3
 800131e:	4618      	mov	r0, r3
 8001320:	f7ff feb8 	bl	8001094 <lcdPutc>

			i /= 10u;
 8001324:	68fb      	ldr	r3, [r7, #12]
 8001326:	4a06      	ldr	r2, [pc, #24]	; (8001340 <lcdNtos+0x64>)
 8001328:	fba2 2303 	umull	r2, r3, r2, r3
 800132c:	08db      	lsrs	r3, r3, #3
 800132e:	60fb      	str	r3, [r7, #12]
		while (i > 0u)	/* Display at least one symbol */
 8001330:	68fb      	ldr	r3, [r7, #12]
 8001332:	2b00      	cmp	r3, #0
 8001334:	d1e3      	bne.n	80012fe <lcdNtos+0x22>
		}
	}
}
 8001336:	bf00      	nop
 8001338:	3710      	adds	r7, #16
 800133a:	46bd      	mov	sp, r7
 800133c:	bd80      	pop	{r7, pc}
 800133e:	bf00      	nop
 8001340:	cccccccd 	.word	0xcccccccd

08001344 <lcdInit>:
#endif

/*!	\brief	Initialize the LCD.
 * 	\note	This library use the 4-bit interface. */
void lcdInit(void)
{
 8001344:	b580      	push	{r7, lr}
 8001346:	af00      	add	r7, sp, #0
	/* GPIO initialization. */
	setAllPinsAsOutputs();
 8001348:	f000 f81d 	bl	8001386 <lcdGpioInit>
	/* LCD initialization. */
	lcdWrite(0x30);
 800134c:	2030      	movs	r0, #48	; 0x30
 800134e:	f7ff fdb7 	bl	8000ec0 <lcdWrite>
	lcd10usDelay(INIT_CYCLE_TIME);
 8001352:	f44f 70c8 	mov.w	r0, #400	; 0x190
 8001356:	f7ff fcd3 	bl	8000d00 <lcd10usDelay>
	lcdWrite(0x30);
 800135a:	2030      	movs	r0, #48	; 0x30
 800135c:	f7ff fdb0 	bl	8000ec0 <lcdWrite>
	lcd10usDelay(INIT_CYCLE_TIME);
 8001360:	f44f 70c8 	mov.w	r0, #400	; 0x190
 8001364:	f7ff fccc 	bl	8000d00 <lcd10usDelay>
	lcdConfig(DEFAULT_DISPLAY_CONFIG);
 8001368:	2028      	movs	r0, #40	; 0x28
 800136a:	f7ff fdc1 	bl	8000ef0 <lcdConfig>
	lcdSetMode(DEFAULT_VIEW_MODE);
 800136e:	200c      	movs	r0, #12
 8001370:	f7ff fe7a 	bl	8001068 <lcdSetMode>
	lcdSetMode(DEFAULT_ENTRY_MODE);
 8001374:	2006      	movs	r0, #6
 8001376:	f7ff fe77 	bl	8001068 <lcdSetMode>
	lcdClrScr();
 800137a:	f7ff fde1 	bl	8000f40 <lcdClrScr>
	lcdReturn();
 800137e:	f7ff fdf1 	bl	8000f64 <lcdReturn>
	#if (USE_PROGRESS_BAR)
		lcdInitBar();
	#endif
}
 8001382:	bf00      	nop
 8001384:	bd80      	pop	{r7, pc}

08001386 <lcdGpioInit>:

void lcdGpioInit(void)
{
 8001386:	b480      	push	{r7}
 8001388:	af00      	add	r7, sp, #0
  	 GPIO_InitStruct.Speed = GPIO_SPEED_FREQ_LOW;
  	 HAL_GPIO_Init(GPIOC, &GPIO_InitStruct);

  	 HAL_GPIO_WritePin(GPIOC, GPIO_PIN_0|GPIO_PIN_1|GPIO_PIN_4|GPIO_PIN_5|GPIO_PIN_6|GPIO_PIN_7, GPIO_PIN_RESET);
	 */
}
 800138a:	bf00      	nop
 800138c:	46bd      	mov	sp, r7
 800138e:	f85d 7b04 	ldr.w	r7, [sp], #4
 8001392:	4770      	bx	lr

08001394 <main>:
/**
  * @brief  The application entry point.
  * @retval int
  */
int main(void)
{
 8001394:	b580      	push	{r7, lr}
 8001396:	b082      	sub	sp, #8
 8001398:	af00      	add	r7, sp, #0
  /* USER CODE END 1 */

  /* MCU Configuration--------------------------------------------------------*/

  /* Reset of all peripherals, Initializes the Flash interface and the Systick. */
  HAL_Init();
 800139a:	f000 fe2b 	bl	8001ff4 <HAL_Init>
  /* USER CODE BEGIN Init */

  /* USER CODE END Init */

  /* Configure the system clock */
  SystemClock_Config();
 800139e:	f000 f867 	bl	8001470 <SystemClock_Config>
  /* USER CODE BEGIN SysInit */

  /* USER CODE END SysInit */

  /* Initialize all configured peripherals */
  MX_GPIO_Init();
 80013a2:	f000 fa21 	bl	80017e8 <MX_GPIO_Init>
  MX_I2C1_Init();
 80013a6:	f000 f965 	bl	8001674 <MX_I2C1_Init>
  MX_ADC1_Init();
 80013aa:	f000 f8bf 	bl	800152c <MX_ADC1_Init>
  MX_TIM4_Init();
 80013ae:	f000 f98f 	bl	80016d0 <MX_TIM4_Init>
  MX_ADC2_Init();
 80013b2:	f000 f90d 	bl	80015d0 <MX_ADC2_Init>
  /* USER CODE BEGIN 2 */
  // temperature-humidity sensor
  SHT2x_Init(&hi2c1);
 80013b6:	4825      	ldr	r0, [pc, #148]	; (800144c <main+0xb8>)
 80013b8:	f000 fb24 	bl	8001a04 <SHT2x_Init>
  SHT2x_SetResolution(RES_14_12);
 80013bc:	2000      	movs	r0, #0
 80013be:	f000 fc1d 	bl	8001bfc <SHT2x_SetResolution>
  SHT2x_SoftReset();
 80013c2:	f000 fb2f 	bl	8001a24 <SHT2x_SoftReset>
  // LCD display
  lcdInit();
 80013c6:	f7ff ffbd 	bl	8001344 <lcdInit>
  // load degree symbol
  lcdLoadChar(deg_sym,6);
 80013ca:	2106      	movs	r1, #6
 80013cc:	4820      	ldr	r0, [pc, #128]	; (8001450 <main+0xbc>)
 80013ce:	f7ff feb0 	bl	8001132 <lcdLoadChar>
  //PWM timer
  HAL_TIM_PWM_Start(&htim4, TIM_CHANNEL_1);
 80013d2:	2100      	movs	r1, #0
 80013d4:	481f      	ldr	r0, [pc, #124]	; (8001454 <main+0xc0>)
 80013d6:	f003 facd 	bl	8004974 <HAL_TIM_PWM_Start>
  HAL_TIM_PWM_Start(&htim4, TIM_CHANNEL_2);
 80013da:	2104      	movs	r1, #4
 80013dc:	481d      	ldr	r0, [pc, #116]	; (8001454 <main+0xc0>)
 80013de:	f003 fac9 	bl	8004974 <HAL_TIM_PWM_Start>
  HAL_TIM_PWM_Start(&htim4, TIM_CHANNEL_3);
 80013e2:	2108      	movs	r1, #8
 80013e4:	481b      	ldr	r0, [pc, #108]	; (8001454 <main+0xc0>)
 80013e6:	f003 fac5 	bl	8004974 <HAL_TIM_PWM_Start>

  /* Infinite loop */

  /* USER CODE BEGIN WHILE */

  HAL_ADC_Start_IT(&hadc1);
 80013ea:	481b      	ldr	r0, [pc, #108]	; (8001458 <main+0xc4>)
 80013ec:	f000 fedc 	bl	80021a8 <HAL_ADC_Start_IT>
  HAL_ADC_Start_IT(&hadc2);
 80013f0:	481a      	ldr	r0, [pc, #104]	; (800145c <main+0xc8>)
 80013f2:	f000 fed9 	bl	80021a8 <HAL_ADC_Start_IT>
//  uint32_t adcValue = 0;
//  volatile HAL_StatusTypeDef adcPoolResult;

  while (1)
  {
	  float cel = SHT2x_GetTemperature(1);
 80013f6:	2001      	movs	r0, #1
 80013f8:	f000 fb7a 	bl	8001af0 <SHT2x_GetTemperature>
 80013fc:	ed87 0a01 	vstr	s0, [r7, #4]
	  float rh = SHT2x_GetRelativeHumidity(1);
 8001400:	2001      	movs	r0, #1
 8001402:	f000 fbbb 	bl	8001b7c <SHT2x_GetRelativeHumidity>
 8001406:	ed87 0a00 	vstr	s0, [r7]

	  lcdClrScr();
 800140a:	f7ff fd99 	bl	8000f40 <lcdClrScr>
	  lcdPuts("Temp: ");
 800140e:	4814      	ldr	r0, [pc, #80]	; (8001460 <main+0xcc>)
 8001410:	f7ff fe58 	bl	80010c4 <lcdPuts>
	  lcdFtos(cel, 3);
 8001414:	2003      	movs	r0, #3
 8001416:	ed97 0a01 	vldr	s0, [r7, #4]
 800141a:	f7ff ff21 	bl	8001260 <lcdFtos>
	  lcdPutc(6);
 800141e:	2006      	movs	r0, #6
 8001420:	f7ff fe38 	bl	8001094 <lcdPutc>
	  lcdPuts("C\n");
 8001424:	480f      	ldr	r0, [pc, #60]	; (8001464 <main+0xd0>)
 8001426:	f7ff fe4d 	bl	80010c4 <lcdPuts>
	  lcdPuts("Hum : ");
 800142a:	480f      	ldr	r0, [pc, #60]	; (8001468 <main+0xd4>)
 800142c:	f7ff fe4a 	bl	80010c4 <lcdPuts>
	  lcdFtos(rh, 3);
 8001430:	2003      	movs	r0, #3
 8001432:	ed97 0a00 	vldr	s0, [r7]
 8001436:	f7ff ff13 	bl	8001260 <lcdFtos>
	  lcdPuts(" %");
 800143a:	480c      	ldr	r0, [pc, #48]	; (800146c <main+0xd8>)
 800143c:	f7ff fe42 	bl	80010c4 <lcdPuts>
	  HAL_Delay(500);
 8001440:	f44f 70fa 	mov.w	r0, #500	; 0x1f4
 8001444:	f000 fe48 	bl	80020d8 <HAL_Delay>
  {
 8001448:	e7d5      	b.n	80013f6 <main+0x62>
 800144a:	bf00      	nop
 800144c:	200000c0 	.word	0x200000c0
 8001450:	20000000 	.word	0x20000000
 8001454:	20000114 	.word	0x20000114
 8001458:	20000030 	.word	0x20000030
 800145c:	20000078 	.word	0x20000078
 8001460:	08005824 	.word	0x08005824
 8001464:	0800582c 	.word	0x0800582c
 8001468:	08005830 	.word	0x08005830
 800146c:	08005838 	.word	0x08005838

08001470 <SystemClock_Config>:
/**
  * @brief System Clock Configuration
  * @retval None
  */
void SystemClock_Config(void)
{
 8001470:	b580      	push	{r7, lr}
 8001472:	b094      	sub	sp, #80	; 0x50
 8001474:	af00      	add	r7, sp, #0
  RCC_OscInitTypeDef RCC_OscInitStruct = {0};
 8001476:	f107 0320 	add.w	r3, r7, #32
 800147a:	2230      	movs	r2, #48	; 0x30
 800147c:	2100      	movs	r1, #0
 800147e:	4618      	mov	r0, r3
 8001480:	f004 f998 	bl	80057b4 <memset>
  RCC_ClkInitTypeDef RCC_ClkInitStruct = {0};
 8001484:	f107 030c 	add.w	r3, r7, #12
 8001488:	2200      	movs	r2, #0
 800148a:	601a      	str	r2, [r3, #0]
 800148c:	605a      	str	r2, [r3, #4]
 800148e:	609a      	str	r2, [r3, #8]
 8001490:	60da      	str	r2, [r3, #12]
 8001492:	611a      	str	r2, [r3, #16]

  /** Configure the main internal regulator output voltage
  */
  __HAL_RCC_PWR_CLK_ENABLE();
 8001494:	2300      	movs	r3, #0
 8001496:	60bb      	str	r3, [r7, #8]
 8001498:	4b22      	ldr	r3, [pc, #136]	; (8001524 <SystemClock_Config+0xb4>)
 800149a:	6c1b      	ldr	r3, [r3, #64]	; 0x40
 800149c:	4a21      	ldr	r2, [pc, #132]	; (8001524 <SystemClock_Config+0xb4>)
 800149e:	f043 5380 	orr.w	r3, r3, #268435456	; 0x10000000
 80014a2:	6413      	str	r3, [r2, #64]	; 0x40
 80014a4:	4b1f      	ldr	r3, [pc, #124]	; (8001524 <SystemClock_Config+0xb4>)
 80014a6:	6c1b      	ldr	r3, [r3, #64]	; 0x40
 80014a8:	f003 5380 	and.w	r3, r3, #268435456	; 0x10000000
 80014ac:	60bb      	str	r3, [r7, #8]
 80014ae:	68bb      	ldr	r3, [r7, #8]
  __HAL_PWR_VOLTAGESCALING_CONFIG(PWR_REGULATOR_VOLTAGE_SCALE1);
 80014b0:	2300      	movs	r3, #0
 80014b2:	607b      	str	r3, [r7, #4]
 80014b4:	4b1c      	ldr	r3, [pc, #112]	; (8001528 <SystemClock_Config+0xb8>)
 80014b6:	681b      	ldr	r3, [r3, #0]
 80014b8:	4a1b      	ldr	r2, [pc, #108]	; (8001528 <SystemClock_Config+0xb8>)
 80014ba:	f443 4380 	orr.w	r3, r3, #16384	; 0x4000
 80014be:	6013      	str	r3, [r2, #0]
 80014c0:	4b19      	ldr	r3, [pc, #100]	; (8001528 <SystemClock_Config+0xb8>)
 80014c2:	681b      	ldr	r3, [r3, #0]
 80014c4:	f403 4380 	and.w	r3, r3, #16384	; 0x4000
 80014c8:	607b      	str	r3, [r7, #4]
 80014ca:	687b      	ldr	r3, [r7, #4]

  /** Initializes the RCC Oscillators according to the specified parameters
  * in the RCC_OscInitTypeDef structure.
  */
  RCC_OscInitStruct.OscillatorType = RCC_OSCILLATORTYPE_HSI;
 80014cc:	2302      	movs	r3, #2
 80014ce:	623b      	str	r3, [r7, #32]
  RCC_OscInitStruct.HSIState = RCC_HSI_ON;
 80014d0:	2301      	movs	r3, #1
 80014d2:	62fb      	str	r3, [r7, #44]	; 0x2c
  RCC_OscInitStruct.HSICalibrationValue = RCC_HSICALIBRATION_DEFAULT;
 80014d4:	2310      	movs	r3, #16
 80014d6:	633b      	str	r3, [r7, #48]	; 0x30
  RCC_OscInitStruct.PLL.PLLState = RCC_PLL_NONE;
 80014d8:	2300      	movs	r3, #0
 80014da:	63bb      	str	r3, [r7, #56]	; 0x38
  if (HAL_RCC_OscConfig(&RCC_OscInitStruct) != HAL_OK)
 80014dc:	f107 0320 	add.w	r3, r7, #32
 80014e0:	4618      	mov	r0, r3
 80014e2:	f002 fd5b 	bl	8003f9c <HAL_RCC_OscConfig>
 80014e6:	4603      	mov	r3, r0
 80014e8:	2b00      	cmp	r3, #0
 80014ea:	d001      	beq.n	80014f0 <SystemClock_Config+0x80>
  {
    Error_Handler();
 80014ec:	f000 fa84 	bl	80019f8 <Error_Handler>
  }

  /** Initializes the CPU, AHB and APB buses clocks
  */
  RCC_ClkInitStruct.ClockType = RCC_CLOCKTYPE_HCLK|RCC_CLOCKTYPE_SYSCLK
 80014f0:	230f      	movs	r3, #15
 80014f2:	60fb      	str	r3, [r7, #12]
                              |RCC_CLOCKTYPE_PCLK1|RCC_CLOCKTYPE_PCLK2;
  RCC_ClkInitStruct.SYSCLKSource = RCC_SYSCLKSOURCE_HSI;
 80014f4:	2300      	movs	r3, #0
 80014f6:	613b      	str	r3, [r7, #16]
  RCC_ClkInitStruct.AHBCLKDivider = RCC_SYSCLK_DIV1;
 80014f8:	2300      	movs	r3, #0
 80014fa:	617b      	str	r3, [r7, #20]
  RCC_ClkInitStruct.APB1CLKDivider = RCC_HCLK_DIV1;
 80014fc:	2300      	movs	r3, #0
 80014fe:	61bb      	str	r3, [r7, #24]
  RCC_ClkInitStruct.APB2CLKDivider = RCC_HCLK_DIV1;
 8001500:	2300      	movs	r3, #0
 8001502:	61fb      	str	r3, [r7, #28]

  if (HAL_RCC_ClockConfig(&RCC_ClkInitStruct, FLASH_LATENCY_0) != HAL_OK)
 8001504:	f107 030c 	add.w	r3, r7, #12
 8001508:	2100      	movs	r1, #0
 800150a:	4618      	mov	r0, r3
 800150c:	f002 ffbe 	bl	800448c <HAL_RCC_ClockConfig>
 8001510:	4603      	mov	r3, r0
 8001512:	2b00      	cmp	r3, #0
 8001514:	d001      	beq.n	800151a <SystemClock_Config+0xaa>
  {
    Error_Handler();
 8001516:	f000 fa6f 	bl	80019f8 <Error_Handler>
  }
}
 800151a:	bf00      	nop
 800151c:	3750      	adds	r7, #80	; 0x50
 800151e:	46bd      	mov	sp, r7
 8001520:	bd80      	pop	{r7, pc}
 8001522:	bf00      	nop
 8001524:	40023800 	.word	0x40023800
 8001528:	40007000 	.word	0x40007000

0800152c <MX_ADC1_Init>:
  * @brief ADC1 Initialization Function
  * @param None
  * @retval None
  */
static void MX_ADC1_Init(void)
{
 800152c:	b580      	push	{r7, lr}
 800152e:	b084      	sub	sp, #16
 8001530:	af00      	add	r7, sp, #0

  /* USER CODE BEGIN ADC1_Init 0 */

  /* USER CODE END ADC1_Init 0 */

  ADC_ChannelConfTypeDef sConfig = {0};
 8001532:	463b      	mov	r3, r7
 8001534:	2200      	movs	r2, #0
 8001536:	601a      	str	r2, [r3, #0]
 8001538:	605a      	str	r2, [r3, #4]
 800153a:	609a      	str	r2, [r3, #8]
 800153c:	60da      	str	r2, [r3, #12]

  /* USER CODE END ADC1_Init 1 */

  /** Configure the global features of the ADC (Clock, Resolution, Data Alignment and number of conversion)
  */
  hadc1.Instance = ADC1;
 800153e:	4b21      	ldr	r3, [pc, #132]	; (80015c4 <MX_ADC1_Init+0x98>)
 8001540:	4a21      	ldr	r2, [pc, #132]	; (80015c8 <MX_ADC1_Init+0x9c>)
 8001542:	601a      	str	r2, [r3, #0]
  hadc1.Init.ClockPrescaler = ADC_CLOCK_SYNC_PCLK_DIV2;
 8001544:	4b1f      	ldr	r3, [pc, #124]	; (80015c4 <MX_ADC1_Init+0x98>)
 8001546:	2200      	movs	r2, #0
 8001548:	605a      	str	r2, [r3, #4]
  hadc1.Init.Resolution = ADC_RESOLUTION_12B;
 800154a:	4b1e      	ldr	r3, [pc, #120]	; (80015c4 <MX_ADC1_Init+0x98>)
 800154c:	2200      	movs	r2, #0
 800154e:	609a      	str	r2, [r3, #8]
  hadc1.Init.ScanConvMode = DISABLE;
 8001550:	4b1c      	ldr	r3, [pc, #112]	; (80015c4 <MX_ADC1_Init+0x98>)
 8001552:	2200      	movs	r2, #0
 8001554:	611a      	str	r2, [r3, #16]
  hadc1.Init.ContinuousConvMode = DISABLE;
 8001556:	4b1b      	ldr	r3, [pc, #108]	; (80015c4 <MX_ADC1_Init+0x98>)
 8001558:	2200      	movs	r2, #0
 800155a:	761a      	strb	r2, [r3, #24]
  hadc1.Init.DiscontinuousConvMode = DISABLE;
 800155c:	4b19      	ldr	r3, [pc, #100]	; (80015c4 <MX_ADC1_Init+0x98>)
 800155e:	2200      	movs	r2, #0
 8001560:	f883 2020 	strb.w	r2, [r3, #32]
  hadc1.Init.ExternalTrigConvEdge = ADC_EXTERNALTRIGCONVEDGE_NONE;
 8001564:	4b17      	ldr	r3, [pc, #92]	; (80015c4 <MX_ADC1_Init+0x98>)
 8001566:	2200      	movs	r2, #0
 8001568:	62da      	str	r2, [r3, #44]	; 0x2c
  hadc1.Init.ExternalTrigConv = ADC_SOFTWARE_START;
 800156a:	4b16      	ldr	r3, [pc, #88]	; (80015c4 <MX_ADC1_Init+0x98>)
 800156c:	4a17      	ldr	r2, [pc, #92]	; (80015cc <MX_ADC1_Init+0xa0>)
 800156e:	629a      	str	r2, [r3, #40]	; 0x28
  hadc1.Init.DataAlign = ADC_DATAALIGN_RIGHT;
 8001570:	4b14      	ldr	r3, [pc, #80]	; (80015c4 <MX_ADC1_Init+0x98>)
 8001572:	2200      	movs	r2, #0
 8001574:	60da      	str	r2, [r3, #12]
  hadc1.Init.NbrOfConversion = 1;
 8001576:	4b13      	ldr	r3, [pc, #76]	; (80015c4 <MX_ADC1_Init+0x98>)
 8001578:	2201      	movs	r2, #1
 800157a:	61da      	str	r2, [r3, #28]
  hadc1.Init.DMAContinuousRequests = DISABLE;
 800157c:	4b11      	ldr	r3, [pc, #68]	; (80015c4 <MX_ADC1_Init+0x98>)
 800157e:	2200      	movs	r2, #0
 8001580:	f883 2030 	strb.w	r2, [r3, #48]	; 0x30
  hadc1.Init.EOCSelection = ADC_EOC_SINGLE_CONV;
 8001584:	4b0f      	ldr	r3, [pc, #60]	; (80015c4 <MX_ADC1_Init+0x98>)
 8001586:	2201      	movs	r2, #1
 8001588:	615a      	str	r2, [r3, #20]
  if (HAL_ADC_Init(&hadc1) != HAL_OK)
 800158a:	480e      	ldr	r0, [pc, #56]	; (80015c4 <MX_ADC1_Init+0x98>)
 800158c:	f000 fdc8 	bl	8002120 <HAL_ADC_Init>
 8001590:	4603      	mov	r3, r0
 8001592:	2b00      	cmp	r3, #0
 8001594:	d001      	beq.n	800159a <MX_ADC1_Init+0x6e>
  {
    Error_Handler();
 8001596:	f000 fa2f 	bl	80019f8 <Error_Handler>
  }

  /** Configure for the selected ADC regular channel its corresponding rank in the sequencer and its sample time.
  */
  sConfig.Channel = ADC_CHANNEL_3;
 800159a:	2303      	movs	r3, #3
 800159c:	603b      	str	r3, [r7, #0]
  sConfig.Rank = 1;
 800159e:	2301      	movs	r3, #1
 80015a0:	607b      	str	r3, [r7, #4]
  sConfig.SamplingTime = ADC_SAMPLETIME_480CYCLES;
 80015a2:	2307      	movs	r3, #7
 80015a4:	60bb      	str	r3, [r7, #8]
  if (HAL_ADC_ConfigChannel(&hadc1, &sConfig) != HAL_OK)
 80015a6:	463b      	mov	r3, r7
 80015a8:	4619      	mov	r1, r3
 80015aa:	4806      	ldr	r0, [pc, #24]	; (80015c4 <MX_ADC1_Init+0x98>)
 80015ac:	f001 f80c 	bl	80025c8 <HAL_ADC_ConfigChannel>
 80015b0:	4603      	mov	r3, r0
 80015b2:	2b00      	cmp	r3, #0
 80015b4:	d001      	beq.n	80015ba <MX_ADC1_Init+0x8e>
  {
    Error_Handler();
 80015b6:	f000 fa1f 	bl	80019f8 <Error_Handler>
  }
  /* USER CODE BEGIN ADC1_Init 2 */

  /* USER CODE END ADC1_Init 2 */

}
 80015ba:	bf00      	nop
 80015bc:	3710      	adds	r7, #16
 80015be:	46bd      	mov	sp, r7
 80015c0:	bd80      	pop	{r7, pc}
 80015c2:	bf00      	nop
 80015c4:	20000030 	.word	0x20000030
 80015c8:	40012000 	.word	0x40012000
 80015cc:	0f000001 	.word	0x0f000001

080015d0 <MX_ADC2_Init>:
  * @brief ADC2 Initialization Function
  * @param None
  * @retval None
  */
static void MX_ADC2_Init(void)
{
 80015d0:	b580      	push	{r7, lr}
 80015d2:	b084      	sub	sp, #16
 80015d4:	af00      	add	r7, sp, #0

  /* USER CODE BEGIN ADC2_Init 0 */

  /* USER CODE END ADC2_Init 0 */

  ADC_ChannelConfTypeDef sConfig = {0};
 80015d6:	463b      	mov	r3, r7
 80015d8:	2200      	movs	r2, #0
 80015da:	601a      	str	r2, [r3, #0]
 80015dc:	605a      	str	r2, [r3, #4]
 80015de:	609a      	str	r2, [r3, #8]
 80015e0:	60da      	str	r2, [r3, #12]

  /* USER CODE END ADC2_Init 1 */

  /** Configure the global features of the ADC (Clock, Resolution, Data Alignment and number of conversion)
  */
  hadc2.Instance = ADC2;
 80015e2:	4b21      	ldr	r3, [pc, #132]	; (8001668 <MX_ADC2_Init+0x98>)
 80015e4:	4a21      	ldr	r2, [pc, #132]	; (800166c <MX_ADC2_Init+0x9c>)
 80015e6:	601a      	str	r2, [r3, #0]
  hadc2.Init.ClockPrescaler = ADC_CLOCK_SYNC_PCLK_DIV2;
 80015e8:	4b1f      	ldr	r3, [pc, #124]	; (8001668 <MX_ADC2_Init+0x98>)
 80015ea:	2200      	movs	r2, #0
 80015ec:	605a      	str	r2, [r3, #4]
  hadc2.Init.Resolution = ADC_RESOLUTION_12B;
 80015ee:	4b1e      	ldr	r3, [pc, #120]	; (8001668 <MX_ADC2_Init+0x98>)
 80015f0:	2200      	movs	r2, #0
 80015f2:	609a      	str	r2, [r3, #8]
  hadc2.Init.ScanConvMode = DISABLE;
 80015f4:	4b1c      	ldr	r3, [pc, #112]	; (8001668 <MX_ADC2_Init+0x98>)
 80015f6:	2200      	movs	r2, #0
 80015f8:	611a      	str	r2, [r3, #16]
  hadc2.Init.ContinuousConvMode = DISABLE;
 80015fa:	4b1b      	ldr	r3, [pc, #108]	; (8001668 <MX_ADC2_Init+0x98>)
 80015fc:	2200      	movs	r2, #0
 80015fe:	761a      	strb	r2, [r3, #24]
  hadc2.Init.DiscontinuousConvMode = DISABLE;
 8001600:	4b19      	ldr	r3, [pc, #100]	; (8001668 <MX_ADC2_Init+0x98>)
 8001602:	2200      	movs	r2, #0
 8001604:	f883 2020 	strb.w	r2, [r3, #32]
  hadc2.Init.ExternalTrigConvEdge = ADC_EXTERNALTRIGCONVEDGE_NONE;
 8001608:	4b17      	ldr	r3, [pc, #92]	; (8001668 <MX_ADC2_Init+0x98>)
 800160a:	2200      	movs	r2, #0
 800160c:	62da      	str	r2, [r3, #44]	; 0x2c
  hadc2.Init.ExternalTrigConv = ADC_SOFTWARE_START;
 800160e:	4b16      	ldr	r3, [pc, #88]	; (8001668 <MX_ADC2_Init+0x98>)
 8001610:	4a17      	ldr	r2, [pc, #92]	; (8001670 <MX_ADC2_Init+0xa0>)
 8001612:	629a      	str	r2, [r3, #40]	; 0x28
  hadc2.Init.DataAlign = ADC_DATAALIGN_RIGHT;
 8001614:	4b14      	ldr	r3, [pc, #80]	; (8001668 <MX_ADC2_Init+0x98>)
 8001616:	2200      	movs	r2, #0
 8001618:	60da      	str	r2, [r3, #12]
  hadc2.Init.NbrOfConversion = 1;
 800161a:	4b13      	ldr	r3, [pc, #76]	; (8001668 <MX_ADC2_Init+0x98>)
 800161c:	2201      	movs	r2, #1
 800161e:	61da      	str	r2, [r3, #28]
  hadc2.Init.DMAContinuousRequests = DISABLE;
 8001620:	4b11      	ldr	r3, [pc, #68]	; (8001668 <MX_ADC2_Init+0x98>)
 8001622:	2200      	movs	r2, #0
 8001624:	f883 2030 	strb.w	r2, [r3, #48]	; 0x30
  hadc2.Init.EOCSelection = ADC_EOC_SINGLE_CONV;
 8001628:	4b0f      	ldr	r3, [pc, #60]	; (8001668 <MX_ADC2_Init+0x98>)
 800162a:	2201      	movs	r2, #1
 800162c:	615a      	str	r2, [r3, #20]
  if (HAL_ADC_Init(&hadc2) != HAL_OK)
 800162e:	480e      	ldr	r0, [pc, #56]	; (8001668 <MX_ADC2_Init+0x98>)
 8001630:	f000 fd76 	bl	8002120 <HAL_ADC_Init>
 8001634:	4603      	mov	r3, r0
 8001636:	2b00      	cmp	r3, #0
 8001638:	d001      	beq.n	800163e <MX_ADC2_Init+0x6e>
  {
    Error_Handler();
 800163a:	f000 f9dd 	bl	80019f8 <Error_Handler>
  }

  /** Configure for the selected ADC regular channel its corresponding rank in the sequencer and its sample time.
  */
  sConfig.Channel = ADC_CHANNEL_0;
 800163e:	2300      	movs	r3, #0
 8001640:	603b      	str	r3, [r7, #0]
  sConfig.Rank = 1;
 8001642:	2301      	movs	r3, #1
 8001644:	607b      	str	r3, [r7, #4]
  sConfig.SamplingTime = ADC_SAMPLETIME_3CYCLES;
 8001646:	2300      	movs	r3, #0
 8001648:	60bb      	str	r3, [r7, #8]
  if (HAL_ADC_ConfigChannel(&hadc2, &sConfig) != HAL_OK)
 800164a:	463b      	mov	r3, r7
 800164c:	4619      	mov	r1, r3
 800164e:	4806      	ldr	r0, [pc, #24]	; (8001668 <MX_ADC2_Init+0x98>)
 8001650:	f000 ffba 	bl	80025c8 <HAL_ADC_ConfigChannel>
 8001654:	4603      	mov	r3, r0
 8001656:	2b00      	cmp	r3, #0
 8001658:	d001      	beq.n	800165e <MX_ADC2_Init+0x8e>
  {
    Error_Handler();
 800165a:	f000 f9cd 	bl	80019f8 <Error_Handler>
  }
  /* USER CODE BEGIN ADC2_Init 2 */

  /* USER CODE END ADC2_Init 2 */

}
 800165e:	bf00      	nop
 8001660:	3710      	adds	r7, #16
 8001662:	46bd      	mov	sp, r7
 8001664:	bd80      	pop	{r7, pc}
 8001666:	bf00      	nop
 8001668:	20000078 	.word	0x20000078
 800166c:	40012100 	.word	0x40012100
 8001670:	0f000001 	.word	0x0f000001

08001674 <MX_I2C1_Init>:
  * @brief I2C1 Initialization Function
  * @param None
  * @retval None
  */
static void MX_I2C1_Init(void)
{
 8001674:	b580      	push	{r7, lr}
 8001676:	af00      	add	r7, sp, #0
  /* USER CODE END I2C1_Init 0 */

  /* USER CODE BEGIN I2C1_Init 1 */

  /* USER CODE END I2C1_Init 1 */
  hi2c1.Instance = I2C1;
 8001678:	4b12      	ldr	r3, [pc, #72]	; (80016c4 <MX_I2C1_Init+0x50>)
 800167a:	4a13      	ldr	r2, [pc, #76]	; (80016c8 <MX_I2C1_Init+0x54>)
 800167c:	601a      	str	r2, [r3, #0]
  hi2c1.Init.ClockSpeed = 100000;
 800167e:	4b11      	ldr	r3, [pc, #68]	; (80016c4 <MX_I2C1_Init+0x50>)
 8001680:	4a12      	ldr	r2, [pc, #72]	; (80016cc <MX_I2C1_Init+0x58>)
 8001682:	605a      	str	r2, [r3, #4]
  hi2c1.Init.DutyCycle = I2C_DUTYCYCLE_2;
 8001684:	4b0f      	ldr	r3, [pc, #60]	; (80016c4 <MX_I2C1_Init+0x50>)
 8001686:	2200      	movs	r2, #0
 8001688:	609a      	str	r2, [r3, #8]
  hi2c1.Init.OwnAddress1 = 0;
 800168a:	4b0e      	ldr	r3, [pc, #56]	; (80016c4 <MX_I2C1_Init+0x50>)
 800168c:	2200      	movs	r2, #0
 800168e:	60da      	str	r2, [r3, #12]
  hi2c1.Init.AddressingMode = I2C_ADDRESSINGMODE_7BIT;
 8001690:	4b0c      	ldr	r3, [pc, #48]	; (80016c4 <MX_I2C1_Init+0x50>)
 8001692:	f44f 4280 	mov.w	r2, #16384	; 0x4000
 8001696:	611a      	str	r2, [r3, #16]
  hi2c1.Init.DualAddressMode = I2C_DUALADDRESS_DISABLE;
 8001698:	4b0a      	ldr	r3, [pc, #40]	; (80016c4 <MX_I2C1_Init+0x50>)
 800169a:	2200      	movs	r2, #0
 800169c:	615a      	str	r2, [r3, #20]
  hi2c1.Init.OwnAddress2 = 0;
 800169e:	4b09      	ldr	r3, [pc, #36]	; (80016c4 <MX_I2C1_Init+0x50>)
 80016a0:	2200      	movs	r2, #0
 80016a2:	619a      	str	r2, [r3, #24]
  hi2c1.Init.GeneralCallMode = I2C_GENERALCALL_DISABLE;
 80016a4:	4b07      	ldr	r3, [pc, #28]	; (80016c4 <MX_I2C1_Init+0x50>)
 80016a6:	2200      	movs	r2, #0
 80016a8:	61da      	str	r2, [r3, #28]
  hi2c1.Init.NoStretchMode = I2C_NOSTRETCH_DISABLE;
 80016aa:	4b06      	ldr	r3, [pc, #24]	; (80016c4 <MX_I2C1_Init+0x50>)
 80016ac:	2200      	movs	r2, #0
 80016ae:	621a      	str	r2, [r3, #32]
  if (HAL_I2C_Init(&hi2c1) != HAL_OK)
 80016b0:	4804      	ldr	r0, [pc, #16]	; (80016c4 <MX_I2C1_Init+0x50>)
 80016b2:	f001 fc79 	bl	8002fa8 <HAL_I2C_Init>
 80016b6:	4603      	mov	r3, r0
 80016b8:	2b00      	cmp	r3, #0
 80016ba:	d001      	beq.n	80016c0 <MX_I2C1_Init+0x4c>
  {
    Error_Handler();
 80016bc:	f000 f99c 	bl	80019f8 <Error_Handler>
  }
  /* USER CODE BEGIN I2C1_Init 2 */

  /* USER CODE END I2C1_Init 2 */

}
 80016c0:	bf00      	nop
 80016c2:	bd80      	pop	{r7, pc}
 80016c4:	200000c0 	.word	0x200000c0
 80016c8:	40005400 	.word	0x40005400
 80016cc:	000186a0 	.word	0x000186a0

080016d0 <MX_TIM4_Init>:
  * @brief TIM4 Initialization Function
  * @param None
  * @retval None
  */
static void MX_TIM4_Init(void)
{
 80016d0:	b580      	push	{r7, lr}
 80016d2:	b08e      	sub	sp, #56	; 0x38
 80016d4:	af00      	add	r7, sp, #0

  /* USER CODE BEGIN TIM4_Init 0 */

  /* USER CODE END TIM4_Init 0 */

  TIM_ClockConfigTypeDef sClockSourceConfig = {0};
 80016d6:	f107 0328 	add.w	r3, r7, #40	; 0x28
 80016da:	2200      	movs	r2, #0
 80016dc:	601a      	str	r2, [r3, #0]
 80016de:	605a      	str	r2, [r3, #4]
 80016e0:	609a      	str	r2, [r3, #8]
 80016e2:	60da      	str	r2, [r3, #12]
  TIM_MasterConfigTypeDef sMasterConfig = {0};
 80016e4:	f107 0320 	add.w	r3, r7, #32
 80016e8:	2200      	movs	r2, #0
 80016ea:	601a      	str	r2, [r3, #0]
 80016ec:	605a      	str	r2, [r3, #4]
  TIM_OC_InitTypeDef sConfigOC = {0};
 80016ee:	1d3b      	adds	r3, r7, #4
 80016f0:	2200      	movs	r2, #0
 80016f2:	601a      	str	r2, [r3, #0]
 80016f4:	605a      	str	r2, [r3, #4]
 80016f6:	609a      	str	r2, [r3, #8]
 80016f8:	60da      	str	r2, [r3, #12]
 80016fa:	611a      	str	r2, [r3, #16]
 80016fc:	615a      	str	r2, [r3, #20]
 80016fe:	619a      	str	r2, [r3, #24]

  /* USER CODE BEGIN TIM4_Init 1 */

  /* USER CODE END TIM4_Init 1 */
  htim4.Instance = TIM4;
 8001700:	4b37      	ldr	r3, [pc, #220]	; (80017e0 <MX_TIM4_Init+0x110>)
 8001702:	4a38      	ldr	r2, [pc, #224]	; (80017e4 <MX_TIM4_Init+0x114>)
 8001704:	601a      	str	r2, [r3, #0]
  htim4.Init.Prescaler = 160;
 8001706:	4b36      	ldr	r3, [pc, #216]	; (80017e0 <MX_TIM4_Init+0x110>)
 8001708:	22a0      	movs	r2, #160	; 0xa0
 800170a:	605a      	str	r2, [r3, #4]
  htim4.Init.CounterMode = TIM_COUNTERMODE_DOWN;
 800170c:	4b34      	ldr	r3, [pc, #208]	; (80017e0 <MX_TIM4_Init+0x110>)
 800170e:	2210      	movs	r2, #16
 8001710:	609a      	str	r2, [r3, #8]
  htim4.Init.Period = 1000;
 8001712:	4b33      	ldr	r3, [pc, #204]	; (80017e0 <MX_TIM4_Init+0x110>)
 8001714:	f44f 727a 	mov.w	r2, #1000	; 0x3e8
 8001718:	60da      	str	r2, [r3, #12]
  htim4.Init.ClockDivision = TIM_CLOCKDIVISION_DIV1;
 800171a:	4b31      	ldr	r3, [pc, #196]	; (80017e0 <MX_TIM4_Init+0x110>)
 800171c:	2200      	movs	r2, #0
 800171e:	611a      	str	r2, [r3, #16]
  htim4.Init.AutoReloadPreload = TIM_AUTORELOAD_PRELOAD_DISABLE;
 8001720:	4b2f      	ldr	r3, [pc, #188]	; (80017e0 <MX_TIM4_Init+0x110>)
 8001722:	2200      	movs	r2, #0
 8001724:	619a      	str	r2, [r3, #24]
  if (HAL_TIM_Base_Init(&htim4) != HAL_OK)
 8001726:	482e      	ldr	r0, [pc, #184]	; (80017e0 <MX_TIM4_Init+0x110>)
 8001728:	f003 f87c 	bl	8004824 <HAL_TIM_Base_Init>
 800172c:	4603      	mov	r3, r0
 800172e:	2b00      	cmp	r3, #0
 8001730:	d001      	beq.n	8001736 <MX_TIM4_Init+0x66>
  {
    Error_Handler();
 8001732:	f000 f961 	bl	80019f8 <Error_Handler>
  }
  sClockSourceConfig.ClockSource = TIM_CLOCKSOURCE_INTERNAL;
 8001736:	f44f 5380 	mov.w	r3, #4096	; 0x1000
 800173a:	62bb      	str	r3, [r7, #40]	; 0x28
  if (HAL_TIM_ConfigClockSource(&htim4, &sClockSourceConfig) != HAL_OK)
 800173c:	f107 0328 	add.w	r3, r7, #40	; 0x28
 8001740:	4619      	mov	r1, r3
 8001742:	4827      	ldr	r0, [pc, #156]	; (80017e0 <MX_TIM4_Init+0x110>)
 8001744:	f003 fb90 	bl	8004e68 <HAL_TIM_ConfigClockSource>
 8001748:	4603      	mov	r3, r0
 800174a:	2b00      	cmp	r3, #0
 800174c:	d001      	beq.n	8001752 <MX_TIM4_Init+0x82>
  {
    Error_Handler();
 800174e:	f000 f953 	bl	80019f8 <Error_Handler>
  }
  if (HAL_TIM_PWM_Init(&htim4) != HAL_OK)
 8001752:	4823      	ldr	r0, [pc, #140]	; (80017e0 <MX_TIM4_Init+0x110>)
 8001754:	f003 f8b5 	bl	80048c2 <HAL_TIM_PWM_Init>
 8001758:	4603      	mov	r3, r0
 800175a:	2b00      	cmp	r3, #0
 800175c:	d001      	beq.n	8001762 <MX_TIM4_Init+0x92>
  {
    Error_Handler();
 800175e:	f000 f94b 	bl	80019f8 <Error_Handler>
  }
  sMasterConfig.MasterOutputTrigger = TIM_TRGO_RESET;
 8001762:	2300      	movs	r3, #0
 8001764:	623b      	str	r3, [r7, #32]
  sMasterConfig.MasterSlaveMode = TIM_MASTERSLAVEMODE_DISABLE;
 8001766:	2300      	movs	r3, #0
 8001768:	627b      	str	r3, [r7, #36]	; 0x24
  if (HAL_TIMEx_MasterConfigSynchronization(&htim4, &sMasterConfig) != HAL_OK)
 800176a:	f107 0320 	add.w	r3, r7, #32
 800176e:	4619      	mov	r1, r3
 8001770:	481b      	ldr	r0, [pc, #108]	; (80017e0 <MX_TIM4_Init+0x110>)
 8001772:	f003 ff8f 	bl	8005694 <HAL_TIMEx_MasterConfigSynchronization>
 8001776:	4603      	mov	r3, r0
 8001778:	2b00      	cmp	r3, #0
 800177a:	d001      	beq.n	8001780 <MX_TIM4_Init+0xb0>
  {
    Error_Handler();
 800177c:	f000 f93c 	bl	80019f8 <Error_Handler>
  }
  sConfigOC.OCMode = TIM_OCMODE_PWM1;
 8001780:	2360      	movs	r3, #96	; 0x60
 8001782:	607b      	str	r3, [r7, #4]
  sConfigOC.Pulse = 0;
 8001784:	2300      	movs	r3, #0
 8001786:	60bb      	str	r3, [r7, #8]
  sConfigOC.OCPolarity = TIM_OCPOLARITY_HIGH;
 8001788:	2300      	movs	r3, #0
 800178a:	60fb      	str	r3, [r7, #12]
  sConfigOC.OCFastMode = TIM_OCFAST_DISABLE;
 800178c:	2300      	movs	r3, #0
 800178e:	617b      	str	r3, [r7, #20]
  if (HAL_TIM_PWM_ConfigChannel(&htim4, &sConfigOC, TIM_CHANNEL_1) != HAL_OK)
 8001790:	1d3b      	adds	r3, r7, #4
 8001792:	2200      	movs	r2, #0
 8001794:	4619      	mov	r1, r3
 8001796:	4812      	ldr	r0, [pc, #72]	; (80017e0 <MX_TIM4_Init+0x110>)
 8001798:	f003 faa4 	bl	8004ce4 <HAL_TIM_PWM_ConfigChannel>
 800179c:	4603      	mov	r3, r0
 800179e:	2b00      	cmp	r3, #0
 80017a0:	d001      	beq.n	80017a6 <MX_TIM4_Init+0xd6>
  {
    Error_Handler();
 80017a2:	f000 f929 	bl	80019f8 <Error_Handler>
  }
  if (HAL_TIM_PWM_ConfigChannel(&htim4, &sConfigOC, TIM_CHANNEL_3) != HAL_OK)
 80017a6:	1d3b      	adds	r3, r7, #4
 80017a8:	2208      	movs	r2, #8
 80017aa:	4619      	mov	r1, r3
 80017ac:	480c      	ldr	r0, [pc, #48]	; (80017e0 <MX_TIM4_Init+0x110>)
 80017ae:	f003 fa99 	bl	8004ce4 <HAL_TIM_PWM_ConfigChannel>
 80017b2:	4603      	mov	r3, r0
 80017b4:	2b00      	cmp	r3, #0
 80017b6:	d001      	beq.n	80017bc <MX_TIM4_Init+0xec>
  {
    Error_Handler();
 80017b8:	f000 f91e 	bl	80019f8 <Error_Handler>
  }
  if (HAL_TIM_PWM_ConfigChannel(&htim4, &sConfigOC, TIM_CHANNEL_4) != HAL_OK)
 80017bc:	1d3b      	adds	r3, r7, #4
 80017be:	220c      	movs	r2, #12
 80017c0:	4619      	mov	r1, r3
 80017c2:	4807      	ldr	r0, [pc, #28]	; (80017e0 <MX_TIM4_Init+0x110>)
 80017c4:	f003 fa8e 	bl	8004ce4 <HAL_TIM_PWM_ConfigChannel>
 80017c8:	4603      	mov	r3, r0
 80017ca:	2b00      	cmp	r3, #0
 80017cc:	d001      	beq.n	80017d2 <MX_TIM4_Init+0x102>
  {
    Error_Handler();
 80017ce:	f000 f913 	bl	80019f8 <Error_Handler>
  }
  /* USER CODE BEGIN TIM4_Init 2 */

  /* USER CODE END TIM4_Init 2 */
  HAL_TIM_MspPostInit(&htim4);
 80017d2:	4803      	ldr	r0, [pc, #12]	; (80017e0 <MX_TIM4_Init+0x110>)
 80017d4:	f000 fb56 	bl	8001e84 <HAL_TIM_MspPostInit>

}
 80017d8:	bf00      	nop
 80017da:	3738      	adds	r7, #56	; 0x38
 80017dc:	46bd      	mov	sp, r7
 80017de:	bd80      	pop	{r7, pc}
 80017e0:	20000114 	.word	0x20000114
 80017e4:	40000800 	.word	0x40000800

080017e8 <MX_GPIO_Init>:
  * @brief GPIO Initialization Function
  * @param None
  * @retval None
  */
static void MX_GPIO_Init(void)
{
 80017e8:	b580      	push	{r7, lr}
 80017ea:	b08a      	sub	sp, #40	; 0x28
 80017ec:	af00      	add	r7, sp, #0
  GPIO_InitTypeDef GPIO_InitStruct = {0};
 80017ee:	f107 0314 	add.w	r3, r7, #20
 80017f2:	2200      	movs	r2, #0
 80017f4:	601a      	str	r2, [r3, #0]
 80017f6:	605a      	str	r2, [r3, #4]
 80017f8:	609a      	str	r2, [r3, #8]
 80017fa:	60da      	str	r2, [r3, #12]
 80017fc:	611a      	str	r2, [r3, #16]
/* USER CODE BEGIN MX_GPIO_Init_1 */
/* USER CODE END MX_GPIO_Init_1 */

  /* GPIO Ports Clock Enable */
  __HAL_RCC_GPIOA_CLK_ENABLE();
 80017fe:	2300      	movs	r3, #0
 8001800:	613b      	str	r3, [r7, #16]
 8001802:	4b32      	ldr	r3, [pc, #200]	; (80018cc <MX_GPIO_Init+0xe4>)
 8001804:	6b1b      	ldr	r3, [r3, #48]	; 0x30
 8001806:	4a31      	ldr	r2, [pc, #196]	; (80018cc <MX_GPIO_Init+0xe4>)
 8001808:	f043 0301 	orr.w	r3, r3, #1
 800180c:	6313      	str	r3, [r2, #48]	; 0x30
 800180e:	4b2f      	ldr	r3, [pc, #188]	; (80018cc <MX_GPIO_Init+0xe4>)
 8001810:	6b1b      	ldr	r3, [r3, #48]	; 0x30
 8001812:	f003 0301 	and.w	r3, r3, #1
 8001816:	613b      	str	r3, [r7, #16]
 8001818:	693b      	ldr	r3, [r7, #16]
  __HAL_RCC_GPIOE_CLK_ENABLE();
 800181a:	2300      	movs	r3, #0
 800181c:	60fb      	str	r3, [r7, #12]
 800181e:	4b2b      	ldr	r3, [pc, #172]	; (80018cc <MX_GPIO_Init+0xe4>)
 8001820:	6b1b      	ldr	r3, [r3, #48]	; 0x30
 8001822:	4a2a      	ldr	r2, [pc, #168]	; (80018cc <MX_GPIO_Init+0xe4>)
 8001824:	f043 0310 	orr.w	r3, r3, #16
 8001828:	6313      	str	r3, [r2, #48]	; 0x30
 800182a:	4b28      	ldr	r3, [pc, #160]	; (80018cc <MX_GPIO_Init+0xe4>)
 800182c:	6b1b      	ldr	r3, [r3, #48]	; 0x30
 800182e:	f003 0310 	and.w	r3, r3, #16
 8001832:	60fb      	str	r3, [r7, #12]
 8001834:	68fb      	ldr	r3, [r7, #12]
  __HAL_RCC_GPIOD_CLK_ENABLE();
 8001836:	2300      	movs	r3, #0
 8001838:	60bb      	str	r3, [r7, #8]
 800183a:	4b24      	ldr	r3, [pc, #144]	; (80018cc <MX_GPIO_Init+0xe4>)
 800183c:	6b1b      	ldr	r3, [r3, #48]	; 0x30
 800183e:	4a23      	ldr	r2, [pc, #140]	; (80018cc <MX_GPIO_Init+0xe4>)
 8001840:	f043 0308 	orr.w	r3, r3, #8
 8001844:	6313      	str	r3, [r2, #48]	; 0x30
 8001846:	4b21      	ldr	r3, [pc, #132]	; (80018cc <MX_GPIO_Init+0xe4>)
 8001848:	6b1b      	ldr	r3, [r3, #48]	; 0x30
 800184a:	f003 0308 	and.w	r3, r3, #8
 800184e:	60bb      	str	r3, [r7, #8]
 8001850:	68bb      	ldr	r3, [r7, #8]
  __HAL_RCC_GPIOB_CLK_ENABLE();
 8001852:	2300      	movs	r3, #0
 8001854:	607b      	str	r3, [r7, #4]
 8001856:	4b1d      	ldr	r3, [pc, #116]	; (80018cc <MX_GPIO_Init+0xe4>)
 8001858:	6b1b      	ldr	r3, [r3, #48]	; 0x30
 800185a:	4a1c      	ldr	r2, [pc, #112]	; (80018cc <MX_GPIO_Init+0xe4>)
 800185c:	f043 0302 	orr.w	r3, r3, #2
 8001860:	6313      	str	r3, [r2, #48]	; 0x30
 8001862:	4b1a      	ldr	r3, [pc, #104]	; (80018cc <MX_GPIO_Init+0xe4>)
 8001864:	6b1b      	ldr	r3, [r3, #48]	; 0x30
 8001866:	f003 0302 	and.w	r3, r3, #2
 800186a:	607b      	str	r3, [r7, #4]
 800186c:	687b      	ldr	r3, [r7, #4]

  /*Configure GPIO pin Output Level */
  HAL_GPIO_WritePin(GPIOE, LCD_RS_Pin|LCD_RW_Pin|LCD_E_Pin|LCD_D4_Pin
 800186e:	2200      	movs	r2, #0
 8001870:	f64f 4180 	movw	r1, #64640	; 0xfc80
 8001874:	4816      	ldr	r0, [pc, #88]	; (80018d0 <MX_GPIO_Init+0xe8>)
 8001876:	f001 fb7d 	bl	8002f74 <HAL_GPIO_WritePin>
                          |LCD_D5_Pin|LCD_D6_Pin|LCD_D7_Pin, GPIO_PIN_RESET);

  /*Configure GPIO pin Output Level */
  HAL_GPIO_WritePin(GPIOD, GPIO_PIN_13, GPIO_PIN_RESET);
 800187a:	2200      	movs	r2, #0
 800187c:	f44f 5100 	mov.w	r1, #8192	; 0x2000
 8001880:	4814      	ldr	r0, [pc, #80]	; (80018d4 <MX_GPIO_Init+0xec>)
 8001882:	f001 fb77 	bl	8002f74 <HAL_GPIO_WritePin>

  /*Configure GPIO pins : LCD_RS_Pin LCD_RW_Pin LCD_E_Pin LCD_D4_Pin
                           LCD_D5_Pin LCD_D6_Pin LCD_D7_Pin */
  GPIO_InitStruct.Pin = LCD_RS_Pin|LCD_RW_Pin|LCD_E_Pin|LCD_D4_Pin
 8001886:	f64f 4380 	movw	r3, #64640	; 0xfc80
 800188a:	617b      	str	r3, [r7, #20]
                          |LCD_D5_Pin|LCD_D6_Pin|LCD_D7_Pin;
  GPIO_InitStruct.Mode = GPIO_MODE_OUTPUT_PP;
 800188c:	2301      	movs	r3, #1
 800188e:	61bb      	str	r3, [r7, #24]
  GPIO_InitStruct.Pull = GPIO_NOPULL;
 8001890:	2300      	movs	r3, #0
 8001892:	61fb      	str	r3, [r7, #28]
  GPIO_InitStruct.Speed = GPIO_SPEED_FREQ_LOW;
 8001894:	2300      	movs	r3, #0
 8001896:	623b      	str	r3, [r7, #32]
  HAL_GPIO_Init(GPIOE, &GPIO_InitStruct);
 8001898:	f107 0314 	add.w	r3, r7, #20
 800189c:	4619      	mov	r1, r3
 800189e:	480c      	ldr	r0, [pc, #48]	; (80018d0 <MX_GPIO_Init+0xe8>)
 80018a0:	f001 f9cc 	bl	8002c3c <HAL_GPIO_Init>

  /*Configure GPIO pin : PD13 */
  GPIO_InitStruct.Pin = GPIO_PIN_13;
 80018a4:	f44f 5300 	mov.w	r3, #8192	; 0x2000
 80018a8:	617b      	str	r3, [r7, #20]
  GPIO_InitStruct.Mode = GPIO_MODE_OUTPUT_PP;
 80018aa:	2301      	movs	r3, #1
 80018ac:	61bb      	str	r3, [r7, #24]
  GPIO_InitStruct.Pull = GPIO_NOPULL;
 80018ae:	2300      	movs	r3, #0
 80018b0:	61fb      	str	r3, [r7, #28]
  GPIO_InitStruct.Speed = GPIO_SPEED_FREQ_LOW;
 80018b2:	2300      	movs	r3, #0
 80018b4:	623b      	str	r3, [r7, #32]
  HAL_GPIO_Init(GPIOD, &GPIO_InitStruct);
 80018b6:	f107 0314 	add.w	r3, r7, #20
 80018ba:	4619      	mov	r1, r3
 80018bc:	4805      	ldr	r0, [pc, #20]	; (80018d4 <MX_GPIO_Init+0xec>)
 80018be:	f001 f9bd 	bl	8002c3c <HAL_GPIO_Init>

/* USER CODE BEGIN MX_GPIO_Init_2 */
/* USER CODE END MX_GPIO_Init_2 */
}
 80018c2:	bf00      	nop
 80018c4:	3728      	adds	r7, #40	; 0x28
 80018c6:	46bd      	mov	sp, r7
 80018c8:	bd80      	pop	{r7, pc}
 80018ca:	bf00      	nop
 80018cc:	40023800 	.word	0x40023800
 80018d0:	40021000 	.word	0x40021000
 80018d4:	40020c00 	.word	0x40020c00

080018d8 <HAL_ADC_ConvCpltCallback>:

/* USER CODE BEGIN 4 */

void HAL_ADC_ConvCpltCallback(ADC_HandleTypeDef* hadc)
{
 80018d8:	b580      	push	{r7, lr}
 80018da:	b088      	sub	sp, #32
 80018dc:	af00      	add	r7, sp, #0
 80018de:	6078      	str	r0, [r7, #4]
  uint32_t adcValue;

  //uint32_t adc2Value;

  if(hadc->Instance == ADC1)
 80018e0:	687b      	ldr	r3, [r7, #4]
 80018e2:	681b      	ldr	r3, [r3, #0]
 80018e4:	4a39      	ldr	r2, [pc, #228]	; (80019cc <HAL_ADC_ConvCpltCallback+0xf4>)
 80018e6:	4293      	cmp	r3, r2
 80018e8:	d14a      	bne.n	8001980 <HAL_ADC_ConvCpltCallback+0xa8>
  {
        adcValue = HAL_ADC_GetValue(&hadc1);
 80018ea:	4839      	ldr	r0, [pc, #228]	; (80019d0 <HAL_ADC_ConvCpltCallback+0xf8>)
 80018ec:	f000 fe4a 	bl	8002584 <HAL_ADC_GetValue>
 80018f0:	61f8      	str	r0, [r7, #28]

        float volts = adcValue * 5.0 / 4096.0;
 80018f2:	69f8      	ldr	r0, [r7, #28]
 80018f4:	f7fe fdaa 	bl	800044c <__aeabi_ui2d>
 80018f8:	f04f 0200 	mov.w	r2, #0
 80018fc:	4b35      	ldr	r3, [pc, #212]	; (80019d4 <HAL_ADC_ConvCpltCallback+0xfc>)
 80018fe:	f7fe fe1f 	bl	8000540 <__aeabi_dmul>
 8001902:	4602      	mov	r2, r0
 8001904:	460b      	mov	r3, r1
 8001906:	4610      	mov	r0, r2
 8001908:	4619      	mov	r1, r3
 800190a:	f04f 0200 	mov.w	r2, #0
 800190e:	4b32      	ldr	r3, [pc, #200]	; (80019d8 <HAL_ADC_ConvCpltCallback+0x100>)
 8001910:	f7fe ff40 	bl	8000794 <__aeabi_ddiv>
 8001914:	4602      	mov	r2, r0
 8001916:	460b      	mov	r3, r1
 8001918:	4610      	mov	r0, r2
 800191a:	4619      	mov	r1, r3
 800191c:	f7ff f822 	bl	8000964 <__aeabi_d2f>
 8001920:	4603      	mov	r3, r0
 8001922:	61bb      	str	r3, [r7, #24]
        float amps = volts / 10000.0;  // across 10,000 Ohms
 8001924:	ed97 7a06 	vldr	s14, [r7, #24]
 8001928:	eddf 6a2c 	vldr	s13, [pc, #176]	; 80019dc <HAL_ADC_ConvCpltCallback+0x104>
 800192c:	eec7 7a26 	vdiv.f32	s15, s14, s13
 8001930:	edc7 7a05 	vstr	s15, [r7, #20]
        float microamps = amps * 1000000;
 8001934:	edd7 7a05 	vldr	s15, [r7, #20]
 8001938:	ed9f 7a29 	vldr	s14, [pc, #164]	; 80019e0 <HAL_ADC_ConvCpltCallback+0x108>
 800193c:	ee67 7a87 	vmul.f32	s15, s15, s14
 8001940:	edc7 7a04 	vstr	s15, [r7, #16]
        float lux = microamps * 2.0;
 8001944:	edd7 7a04 	vldr	s15, [r7, #16]
 8001948:	ee77 7aa7 	vadd.f32	s15, s15, s15
 800194c:	edc7 7a03 	vstr	s15, [r7, #12]

        uint32_t dutyCycle = 1000 - lux;
 8001950:	ed9f 7a24 	vldr	s14, [pc, #144]	; 80019e4 <HAL_ADC_ConvCpltCallback+0x10c>
 8001954:	edd7 7a03 	vldr	s15, [r7, #12]
 8001958:	ee77 7a67 	vsub.f32	s15, s14, s15
 800195c:	eefc 7ae7 	vcvt.u32.f32	s15, s15
 8001960:	ee17 3a90 	vmov	r3, s15
 8001964:	60bb      	str	r3, [r7, #8]

        TIM4->CCR1=dutyCycle;
 8001966:	4a20      	ldr	r2, [pc, #128]	; (80019e8 <HAL_ADC_ConvCpltCallback+0x110>)
 8001968:	68bb      	ldr	r3, [r7, #8]
 800196a:	6353      	str	r3, [r2, #52]	; 0x34
        TIM4->CCR2=dutyCycle;
 800196c:	4a1e      	ldr	r2, [pc, #120]	; (80019e8 <HAL_ADC_ConvCpltCallback+0x110>)
 800196e:	68bb      	ldr	r3, [r7, #8]
 8001970:	6393      	str	r3, [r2, #56]	; 0x38
        TIM4->CCR3=dutyCycle;
 8001972:	4a1d      	ldr	r2, [pc, #116]	; (80019e8 <HAL_ADC_ConvCpltCallback+0x110>)
 8001974:	68bb      	ldr	r3, [r7, #8]
 8001976:	63d3      	str	r3, [r2, #60]	; 0x3c


        HAL_ADC_Start_IT(&hadc1);
 8001978:	4815      	ldr	r0, [pc, #84]	; (80019d0 <HAL_ADC_ConvCpltCallback+0xf8>)
 800197a:	f000 fc15 	bl	80021a8 <HAL_ADC_Start_IT>
		{
			HAL_GPIO_WritePin(GPIOD, GPIO_PIN_13, GPIO_PIN_SET);
		}
	  HAL_ADC_Start_IT(&hadc2);
  }
}
 800197e:	e020      	b.n	80019c2 <HAL_ADC_ConvCpltCallback+0xea>
  	  } else if (hadc->Instance == ADC2) {
 8001980:	687b      	ldr	r3, [r7, #4]
 8001982:	681b      	ldr	r3, [r3, #0]
 8001984:	4a19      	ldr	r2, [pc, #100]	; (80019ec <HAL_ADC_ConvCpltCallback+0x114>)
 8001986:	4293      	cmp	r3, r2
 8001988:	d11b      	bne.n	80019c2 <HAL_ADC_ConvCpltCallback+0xea>
	  adcValue = HAL_ADC_GetValue(&hadc2);
 800198a:	4819      	ldr	r0, [pc, #100]	; (80019f0 <HAL_ADC_ConvCpltCallback+0x118>)
 800198c:	f000 fdfa 	bl	8002584 <HAL_ADC_GetValue>
 8001990:	61f8      	str	r0, [r7, #28]
	  if (adcValue < 2048)
 8001992:	69fb      	ldr	r3, [r7, #28]
 8001994:	f5b3 6f00 	cmp.w	r3, #2048	; 0x800
 8001998:	d206      	bcs.n	80019a8 <HAL_ADC_ConvCpltCallback+0xd0>
			HAL_GPIO_WritePin(GPIOD, GPIO_PIN_13, GPIO_PIN_RESET);
 800199a:	2200      	movs	r2, #0
 800199c:	f44f 5100 	mov.w	r1, #8192	; 0x2000
 80019a0:	4814      	ldr	r0, [pc, #80]	; (80019f4 <HAL_ADC_ConvCpltCallback+0x11c>)
 80019a2:	f001 fae7 	bl	8002f74 <HAL_GPIO_WritePin>
 80019a6:	e009      	b.n	80019bc <HAL_ADC_ConvCpltCallback+0xe4>
		else if (adcValue >= 2048)
 80019a8:	69fb      	ldr	r3, [r7, #28]
 80019aa:	f5b3 6f00 	cmp.w	r3, #2048	; 0x800
 80019ae:	d305      	bcc.n	80019bc <HAL_ADC_ConvCpltCallback+0xe4>
			HAL_GPIO_WritePin(GPIOD, GPIO_PIN_13, GPIO_PIN_SET);
 80019b0:	2201      	movs	r2, #1
 80019b2:	f44f 5100 	mov.w	r1, #8192	; 0x2000
 80019b6:	480f      	ldr	r0, [pc, #60]	; (80019f4 <HAL_ADC_ConvCpltCallback+0x11c>)
 80019b8:	f001 fadc 	bl	8002f74 <HAL_GPIO_WritePin>
	  HAL_ADC_Start_IT(&hadc2);
 80019bc:	480c      	ldr	r0, [pc, #48]	; (80019f0 <HAL_ADC_ConvCpltCallback+0x118>)
 80019be:	f000 fbf3 	bl	80021a8 <HAL_ADC_Start_IT>
}
 80019c2:	bf00      	nop
 80019c4:	3720      	adds	r7, #32
 80019c6:	46bd      	mov	sp, r7
 80019c8:	bd80      	pop	{r7, pc}
 80019ca:	bf00      	nop
 80019cc:	40012000 	.word	0x40012000
 80019d0:	20000030 	.word	0x20000030
 80019d4:	40140000 	.word	0x40140000
 80019d8:	40b00000 	.word	0x40b00000
 80019dc:	461c4000 	.word	0x461c4000
 80019e0:	49742400 	.word	0x49742400
 80019e4:	447a0000 	.word	0x447a0000
 80019e8:	40000800 	.word	0x40000800
 80019ec:	40012100 	.word	0x40012100
 80019f0:	20000078 	.word	0x20000078
 80019f4:	40020c00 	.word	0x40020c00

080019f8 <Error_Handler>:
/**
  * @brief  This function is executed in case of error occurrence.
  * @retval None
  */
void Error_Handler(void)
{
 80019f8:	b480      	push	{r7}
 80019fa:	af00      	add	r7, sp, #0
  \details Disables IRQ interrupts by setting special-purpose register PRIMASK.
           Can only be executed in Privileged modes.
 */
__STATIC_FORCEINLINE void __disable_irq(void)
{
  __ASM volatile ("cpsid i" : : : "memory");
 80019fc:	b672      	cpsid	i
}
 80019fe:	bf00      	nop
  /* USER CODE BEGIN Error_Handler_Debug */
  /* User can add his own implementation to report the HAL error return state */
  __disable_irq();
  while (1)
 8001a00:	e7fe      	b.n	8001a00 <Error_Handler+0x8>
	...

08001a04 <SHT2x_Init>:
	
/**
 * @brief Initializes the SHT2x temperature/humidity sensor.
 * @param hi2c User I2C handle pointer.
 */
void SHT2x_Init(I2C_HandleTypeDef *hi2c) {
 8001a04:	b480      	push	{r7}
 8001a06:	b083      	sub	sp, #12
 8001a08:	af00      	add	r7, sp, #0
 8001a0a:	6078      	str	r0, [r7, #4]
	_sht2x_ui2c = hi2c;
 8001a0c:	4a04      	ldr	r2, [pc, #16]	; (8001a20 <SHT2x_Init+0x1c>)
 8001a0e:	687b      	ldr	r3, [r7, #4]
 8001a10:	6013      	str	r3, [r2, #0]
}
 8001a12:	bf00      	nop
 8001a14:	370c      	adds	r7, #12
 8001a16:	46bd      	mov	sp, r7
 8001a18:	f85d 7b04 	ldr.w	r7, [sp], #4
 8001a1c:	4770      	bx	lr
 8001a1e:	bf00      	nop
 8001a20:	2000015c 	.word	0x2000015c

08001a24 <SHT2x_SoftReset>:

/**
 *  @brief Performs a soft reset.
 */
void SHT2x_SoftReset(void){
 8001a24:	b580      	push	{r7, lr}
 8001a26:	b084      	sub	sp, #16
 8001a28:	af02      	add	r7, sp, #8
	uint8_t cmd = SHT2x_SOFT_RESET;
 8001a2a:	23fe      	movs	r3, #254	; 0xfe
 8001a2c:	71fb      	strb	r3, [r7, #7]
	HAL_I2C_Master_Transmit(_sht2x_ui2c, SHT2x_I2C_ADDR << 1, &cmd, 1, SHT2x_TIMEOUT);
 8001a2e:	4b07      	ldr	r3, [pc, #28]	; (8001a4c <SHT2x_SoftReset+0x28>)
 8001a30:	6818      	ldr	r0, [r3, #0]
 8001a32:	1dfa      	adds	r2, r7, #7
 8001a34:	f44f 737a 	mov.w	r3, #1000	; 0x3e8
 8001a38:	9300      	str	r3, [sp, #0]
 8001a3a:	2301      	movs	r3, #1
 8001a3c:	2180      	movs	r1, #128	; 0x80
 8001a3e:	f001 fbf7 	bl	8003230 <HAL_I2C_Master_Transmit>
}
 8001a42:	bf00      	nop
 8001a44:	3708      	adds	r7, #8
 8001a46:	46bd      	mov	sp, r7
 8001a48:	bd80      	pop	{r7, pc}
 8001a4a:	bf00      	nop
 8001a4c:	2000015c 	.word	0x2000015c

08001a50 <SHT2x_ReadUserReg>:

/**
 * @brief Gets the value stored in user register.
 * @return 8-bit value stored in user register, 0 to 255.
 */
uint8_t SHT2x_ReadUserReg(void) {
 8001a50:	b580      	push	{r7, lr}
 8001a52:	b084      	sub	sp, #16
 8001a54:	af02      	add	r7, sp, #8
	uint8_t val;
	uint8_t cmd = SHT2x_READ_REG;
 8001a56:	23e7      	movs	r3, #231	; 0xe7
 8001a58:	71bb      	strb	r3, [r7, #6]
	HAL_I2C_Master_Transmit(_sht2x_ui2c, SHT2x_I2C_ADDR << 1, &cmd, 1, SHT2x_TIMEOUT);
 8001a5a:	4b0c      	ldr	r3, [pc, #48]	; (8001a8c <SHT2x_ReadUserReg+0x3c>)
 8001a5c:	6818      	ldr	r0, [r3, #0]
 8001a5e:	1dba      	adds	r2, r7, #6
 8001a60:	f44f 737a 	mov.w	r3, #1000	; 0x3e8
 8001a64:	9300      	str	r3, [sp, #0]
 8001a66:	2301      	movs	r3, #1
 8001a68:	2180      	movs	r1, #128	; 0x80
 8001a6a:	f001 fbe1 	bl	8003230 <HAL_I2C_Master_Transmit>
	HAL_I2C_Master_Receive(_sht2x_ui2c, SHT2x_I2C_ADDR << 1, &val, 1, SHT2x_TIMEOUT);
 8001a6e:	4b07      	ldr	r3, [pc, #28]	; (8001a8c <SHT2x_ReadUserReg+0x3c>)
 8001a70:	6818      	ldr	r0, [r3, #0]
 8001a72:	1dfa      	adds	r2, r7, #7
 8001a74:	f44f 737a 	mov.w	r3, #1000	; 0x3e8
 8001a78:	9300      	str	r3, [sp, #0]
 8001a7a:	2301      	movs	r3, #1
 8001a7c:	2180      	movs	r1, #128	; 0x80
 8001a7e:	f001 fcd5 	bl	800342c <HAL_I2C_Master_Receive>
	return val;
 8001a82:	79fb      	ldrb	r3, [r7, #7]
}
 8001a84:	4618      	mov	r0, r3
 8001a86:	3708      	adds	r7, #8
 8001a88:	46bd      	mov	sp, r7
 8001a8a:	bd80      	pop	{r7, pc}
 8001a8c:	2000015c 	.word	0x2000015c

08001a90 <SHT2x_GetRaw>:
/**
 * @brief Sends the designated command to sensor and read a 16-bit raw value.
 * @param cmd Command to send to sensor.
 * @return 16-bit raw value, 0 to 65535.
 */
uint16_t SHT2x_GetRaw(uint8_t cmd) {
 8001a90:	b580      	push	{r7, lr}
 8001a92:	b086      	sub	sp, #24
 8001a94:	af02      	add	r7, sp, #8
 8001a96:	4603      	mov	r3, r0
 8001a98:	71fb      	strb	r3, [r7, #7]
	uint8_t val[3] = { 0 };
 8001a9a:	4b13      	ldr	r3, [pc, #76]	; (8001ae8 <SHT2x_GetRaw+0x58>)
 8001a9c:	881b      	ldrh	r3, [r3, #0]
 8001a9e:	81bb      	strh	r3, [r7, #12]
 8001aa0:	2300      	movs	r3, #0
 8001aa2:	73bb      	strb	r3, [r7, #14]
	HAL_I2C_Master_Transmit(_sht2x_ui2c, SHT2x_I2C_ADDR << 1, &cmd, 1, SHT2x_TIMEOUT);
 8001aa4:	4b11      	ldr	r3, [pc, #68]	; (8001aec <SHT2x_GetRaw+0x5c>)
 8001aa6:	6818      	ldr	r0, [r3, #0]
 8001aa8:	1dfa      	adds	r2, r7, #7
 8001aaa:	f44f 737a 	mov.w	r3, #1000	; 0x3e8
 8001aae:	9300      	str	r3, [sp, #0]
 8001ab0:	2301      	movs	r3, #1
 8001ab2:	2180      	movs	r1, #128	; 0x80
 8001ab4:	f001 fbbc 	bl	8003230 <HAL_I2C_Master_Transmit>
	HAL_I2C_Master_Receive(_sht2x_ui2c, SHT2x_I2C_ADDR << 1, val, 3, SHT2x_TIMEOUT);
 8001ab8:	4b0c      	ldr	r3, [pc, #48]	; (8001aec <SHT2x_GetRaw+0x5c>)
 8001aba:	6818      	ldr	r0, [r3, #0]
 8001abc:	f107 020c 	add.w	r2, r7, #12
 8001ac0:	f44f 737a 	mov.w	r3, #1000	; 0x3e8
 8001ac4:	9300      	str	r3, [sp, #0]
 8001ac6:	2303      	movs	r3, #3
 8001ac8:	2180      	movs	r1, #128	; 0x80
 8001aca:	f001 fcaf 	bl	800342c <HAL_I2C_Master_Receive>
	return val[0] << 8 | val[1];
 8001ace:	7b3b      	ldrb	r3, [r7, #12]
 8001ad0:	021b      	lsls	r3, r3, #8
 8001ad2:	b21a      	sxth	r2, r3
 8001ad4:	7b7b      	ldrb	r3, [r7, #13]
 8001ad6:	b21b      	sxth	r3, r3
 8001ad8:	4313      	orrs	r3, r2
 8001ada:	b21b      	sxth	r3, r3
 8001adc:	b29b      	uxth	r3, r3
}
 8001ade:	4618      	mov	r0, r3
 8001ae0:	3710      	adds	r7, #16
 8001ae2:	46bd      	mov	sp, r7
 8001ae4:	bd80      	pop	{r7, pc}
 8001ae6:	bf00      	nop
 8001ae8:	0800583c 	.word	0x0800583c
 8001aec:	2000015c 	.word	0x2000015c

08001af0 <SHT2x_GetTemperature>:
/**
 * @brief Measures and gets the current temperature.
 * @param hold Holding mode, 0 for no hold master, 1 for hold master.
 * @return Floating point temperature value.
 */
float SHT2x_GetTemperature(uint8_t hold) {
 8001af0:	b580      	push	{r7, lr}
 8001af2:	b084      	sub	sp, #16
 8001af4:	af00      	add	r7, sp, #0
 8001af6:	4603      	mov	r3, r0
 8001af8:	71fb      	strb	r3, [r7, #7]
	uint8_t cmd = (hold ? SHT2x_READ_TEMP_HOLD : SHT2x_READ_TEMP_NOHOLD);
 8001afa:	79fb      	ldrb	r3, [r7, #7]
 8001afc:	2b00      	cmp	r3, #0
 8001afe:	d001      	beq.n	8001b04 <SHT2x_GetTemperature+0x14>
 8001b00:	23e3      	movs	r3, #227	; 0xe3
 8001b02:	e000      	b.n	8001b06 <SHT2x_GetTemperature+0x16>
 8001b04:	23f3      	movs	r3, #243	; 0xf3
 8001b06:	73fb      	strb	r3, [r7, #15]
	return -46.85 + 175.72 * (SHT2x_GetRaw(cmd) / 65536.0);
 8001b08:	7bfb      	ldrb	r3, [r7, #15]
 8001b0a:	4618      	mov	r0, r3
 8001b0c:	f7ff ffc0 	bl	8001a90 <SHT2x_GetRaw>
 8001b10:	4603      	mov	r3, r0
 8001b12:	4618      	mov	r0, r3
 8001b14:	f7fe fcaa 	bl	800046c <__aeabi_i2d>
 8001b18:	f04f 0200 	mov.w	r2, #0
 8001b1c:	4b16      	ldr	r3, [pc, #88]	; (8001b78 <SHT2x_GetTemperature+0x88>)
 8001b1e:	f7fe fe39 	bl	8000794 <__aeabi_ddiv>
 8001b22:	4602      	mov	r2, r0
 8001b24:	460b      	mov	r3, r1
 8001b26:	4610      	mov	r0, r2
 8001b28:	4619      	mov	r1, r3
 8001b2a:	a30f      	add	r3, pc, #60	; (adr r3, 8001b68 <SHT2x_GetTemperature+0x78>)
 8001b2c:	e9d3 2300 	ldrd	r2, r3, [r3]
 8001b30:	f7fe fd06 	bl	8000540 <__aeabi_dmul>
 8001b34:	4602      	mov	r2, r0
 8001b36:	460b      	mov	r3, r1
 8001b38:	4610      	mov	r0, r2
 8001b3a:	4619      	mov	r1, r3
 8001b3c:	a30c      	add	r3, pc, #48	; (adr r3, 8001b70 <SHT2x_GetTemperature+0x80>)
 8001b3e:	e9d3 2300 	ldrd	r2, r3, [r3]
 8001b42:	f7fe fb45 	bl	80001d0 <__aeabi_dsub>
 8001b46:	4602      	mov	r2, r0
 8001b48:	460b      	mov	r3, r1
 8001b4a:	4610      	mov	r0, r2
 8001b4c:	4619      	mov	r1, r3
 8001b4e:	f7fe ff09 	bl	8000964 <__aeabi_d2f>
 8001b52:	4603      	mov	r3, r0
 8001b54:	ee07 3a90 	vmov	s15, r3
}
 8001b58:	eeb0 0a67 	vmov.f32	s0, s15
 8001b5c:	3710      	adds	r7, #16
 8001b5e:	46bd      	mov	sp, r7
 8001b60:	bd80      	pop	{r7, pc}
 8001b62:	bf00      	nop
 8001b64:	f3af 8000 	nop.w
 8001b68:	3d70a3d7 	.word	0x3d70a3d7
 8001b6c:	4065f70a 	.word	0x4065f70a
 8001b70:	cccccccd 	.word	0xcccccccd
 8001b74:	40476ccc 	.word	0x40476ccc
 8001b78:	40f00000 	.word	0x40f00000

08001b7c <SHT2x_GetRelativeHumidity>:
/**
 * @brief Measures and gets the current relative humidity.
 * @param hold Holding mode, 0 for no hold master, 1 for hold master.
 * @return Floating point relative humidity value.
 */
float SHT2x_GetRelativeHumidity(uint8_t hold) {
 8001b7c:	b580      	push	{r7, lr}
 8001b7e:	b084      	sub	sp, #16
 8001b80:	af00      	add	r7, sp, #0
 8001b82:	4603      	mov	r3, r0
 8001b84:	71fb      	strb	r3, [r7, #7]
	uint8_t cmd = (hold ? SHT2x_READ_RH_HOLD : SHT2x_READ_RH_NOHOLD);
 8001b86:	79fb      	ldrb	r3, [r7, #7]
 8001b88:	2b00      	cmp	r3, #0
 8001b8a:	d001      	beq.n	8001b90 <SHT2x_GetRelativeHumidity+0x14>
 8001b8c:	23e5      	movs	r3, #229	; 0xe5
 8001b8e:	e000      	b.n	8001b92 <SHT2x_GetRelativeHumidity+0x16>
 8001b90:	23f5      	movs	r3, #245	; 0xf5
 8001b92:	73fb      	strb	r3, [r7, #15]
	return -6 + 125.00 * (SHT2x_GetRaw(cmd) / 65536.0);
 8001b94:	7bfb      	ldrb	r3, [r7, #15]
 8001b96:	4618      	mov	r0, r3
 8001b98:	f7ff ff7a 	bl	8001a90 <SHT2x_GetRaw>
 8001b9c:	4603      	mov	r3, r0
 8001b9e:	4618      	mov	r0, r3
 8001ba0:	f7fe fc64 	bl	800046c <__aeabi_i2d>
 8001ba4:	f04f 0200 	mov.w	r2, #0
 8001ba8:	4b11      	ldr	r3, [pc, #68]	; (8001bf0 <SHT2x_GetRelativeHumidity+0x74>)
 8001baa:	f7fe fdf3 	bl	8000794 <__aeabi_ddiv>
 8001bae:	4602      	mov	r2, r0
 8001bb0:	460b      	mov	r3, r1
 8001bb2:	4610      	mov	r0, r2
 8001bb4:	4619      	mov	r1, r3
 8001bb6:	f04f 0200 	mov.w	r2, #0
 8001bba:	4b0e      	ldr	r3, [pc, #56]	; (8001bf4 <SHT2x_GetRelativeHumidity+0x78>)
 8001bbc:	f7fe fcc0 	bl	8000540 <__aeabi_dmul>
 8001bc0:	4602      	mov	r2, r0
 8001bc2:	460b      	mov	r3, r1
 8001bc4:	4610      	mov	r0, r2
 8001bc6:	4619      	mov	r1, r3
 8001bc8:	f04f 0200 	mov.w	r2, #0
 8001bcc:	4b0a      	ldr	r3, [pc, #40]	; (8001bf8 <SHT2x_GetRelativeHumidity+0x7c>)
 8001bce:	f7fe faff 	bl	80001d0 <__aeabi_dsub>
 8001bd2:	4602      	mov	r2, r0
 8001bd4:	460b      	mov	r3, r1
 8001bd6:	4610      	mov	r0, r2
 8001bd8:	4619      	mov	r1, r3
 8001bda:	f7fe fec3 	bl	8000964 <__aeabi_d2f>
 8001bde:	4603      	mov	r3, r0
 8001be0:	ee07 3a90 	vmov	s15, r3
}
 8001be4:	eeb0 0a67 	vmov.f32	s0, s15
 8001be8:	3710      	adds	r7, #16
 8001bea:	46bd      	mov	sp, r7
 8001bec:	bd80      	pop	{r7, pc}
 8001bee:	bf00      	nop
 8001bf0:	40f00000 	.word	0x40f00000
 8001bf4:	405f4000 	.word	0x405f4000
 8001bf8:	40180000 	.word	0x40180000

08001bfc <SHT2x_SetResolution>:
 * @brief Sets the measurement resolution.
 * @param res Enum resolution.
 * @note Available resolutions: RES_14_12, RES_12_8, RES_13_10, RES_11_11.
 * @note RES_14_12 = 14-bit temperature and 12-bit RH resolution, etc.
 */
void SHT2x_SetResolution(SHT2x_Resolution res) {
 8001bfc:	b580      	push	{r7, lr}
 8001bfe:	b086      	sub	sp, #24
 8001c00:	af02      	add	r7, sp, #8
 8001c02:	4603      	mov	r3, r0
 8001c04:	71fb      	strb	r3, [r7, #7]
	uint8_t val = SHT2x_ReadUserReg();
 8001c06:	f7ff ff23 	bl	8001a50 <SHT2x_ReadUserReg>
 8001c0a:	4603      	mov	r3, r0
 8001c0c:	73fb      	strb	r3, [r7, #15]
	val = (val & 0x7e) | res;
 8001c0e:	f997 300f 	ldrsb.w	r3, [r7, #15]
 8001c12:	f003 037e 	and.w	r3, r3, #126	; 0x7e
 8001c16:	b25a      	sxtb	r2, r3
 8001c18:	f997 3007 	ldrsb.w	r3, [r7, #7]
 8001c1c:	4313      	orrs	r3, r2
 8001c1e:	b25b      	sxtb	r3, r3
 8001c20:	73fb      	strb	r3, [r7, #15]
	uint8_t temp[2] = { SHT2x_WRITE_REG, val };
 8001c22:	23e6      	movs	r3, #230	; 0xe6
 8001c24:	733b      	strb	r3, [r7, #12]
 8001c26:	7bfb      	ldrb	r3, [r7, #15]
 8001c28:	737b      	strb	r3, [r7, #13]
	HAL_I2C_Master_Transmit(_sht2x_ui2c, SHT2x_I2C_ADDR << 1, temp, 2, SHT2x_TIMEOUT);
 8001c2a:	4b07      	ldr	r3, [pc, #28]	; (8001c48 <SHT2x_SetResolution+0x4c>)
 8001c2c:	6818      	ldr	r0, [r3, #0]
 8001c2e:	f107 020c 	add.w	r2, r7, #12
 8001c32:	f44f 737a 	mov.w	r3, #1000	; 0x3e8
 8001c36:	9300      	str	r3, [sp, #0]
 8001c38:	2302      	movs	r3, #2
 8001c3a:	2180      	movs	r1, #128	; 0x80
 8001c3c:	f001 faf8 	bl	8003230 <HAL_I2C_Master_Transmit>
}
 8001c40:	bf00      	nop
 8001c42:	3710      	adds	r7, #16
 8001c44:	46bd      	mov	sp, r7
 8001c46:	bd80      	pop	{r7, pc}
 8001c48:	2000015c 	.word	0x2000015c

08001c4c <HAL_MspInit>:
void HAL_TIM_MspPostInit(TIM_HandleTypeDef *htim);
                    /**
  * Initializes the Global MSP.
  */
void HAL_MspInit(void)
{
 8001c4c:	b480      	push	{r7}
 8001c4e:	b083      	sub	sp, #12
 8001c50:	af00      	add	r7, sp, #0
  /* USER CODE BEGIN MspInit 0 */

  /* USER CODE END MspInit 0 */

  __HAL_RCC_SYSCFG_CLK_ENABLE();
 8001c52:	2300      	movs	r3, #0
 8001c54:	607b      	str	r3, [r7, #4]
 8001c56:	4b10      	ldr	r3, [pc, #64]	; (8001c98 <HAL_MspInit+0x4c>)
 8001c58:	6c5b      	ldr	r3, [r3, #68]	; 0x44
 8001c5a:	4a0f      	ldr	r2, [pc, #60]	; (8001c98 <HAL_MspInit+0x4c>)
 8001c5c:	f443 4380 	orr.w	r3, r3, #16384	; 0x4000
 8001c60:	6453      	str	r3, [r2, #68]	; 0x44
 8001c62:	4b0d      	ldr	r3, [pc, #52]	; (8001c98 <HAL_MspInit+0x4c>)
 8001c64:	6c5b      	ldr	r3, [r3, #68]	; 0x44
 8001c66:	f403 4380 	and.w	r3, r3, #16384	; 0x4000
 8001c6a:	607b      	str	r3, [r7, #4]
 8001c6c:	687b      	ldr	r3, [r7, #4]
  __HAL_RCC_PWR_CLK_ENABLE();
 8001c6e:	2300      	movs	r3, #0
 8001c70:	603b      	str	r3, [r7, #0]
 8001c72:	4b09      	ldr	r3, [pc, #36]	; (8001c98 <HAL_MspInit+0x4c>)
 8001c74:	6c1b      	ldr	r3, [r3, #64]	; 0x40
 8001c76:	4a08      	ldr	r2, [pc, #32]	; (8001c98 <HAL_MspInit+0x4c>)
 8001c78:	f043 5380 	orr.w	r3, r3, #268435456	; 0x10000000
 8001c7c:	6413      	str	r3, [r2, #64]	; 0x40
 8001c7e:	4b06      	ldr	r3, [pc, #24]	; (8001c98 <HAL_MspInit+0x4c>)
 8001c80:	6c1b      	ldr	r3, [r3, #64]	; 0x40
 8001c82:	f003 5380 	and.w	r3, r3, #268435456	; 0x10000000
 8001c86:	603b      	str	r3, [r7, #0]
 8001c88:	683b      	ldr	r3, [r7, #0]
  /* System interrupt init*/

  /* USER CODE BEGIN MspInit 1 */

  /* USER CODE END MspInit 1 */
}
 8001c8a:	bf00      	nop
 8001c8c:	370c      	adds	r7, #12
 8001c8e:	46bd      	mov	sp, r7
 8001c90:	f85d 7b04 	ldr.w	r7, [sp], #4
 8001c94:	4770      	bx	lr
 8001c96:	bf00      	nop
 8001c98:	40023800 	.word	0x40023800

08001c9c <HAL_ADC_MspInit>:
* This function configures the hardware resources used in this example
* @param hadc: ADC handle pointer
* @retval None
*/
void HAL_ADC_MspInit(ADC_HandleTypeDef* hadc)
{
 8001c9c:	b580      	push	{r7, lr}
 8001c9e:	b08c      	sub	sp, #48	; 0x30
 8001ca0:	af00      	add	r7, sp, #0
 8001ca2:	6078      	str	r0, [r7, #4]
  GPIO_InitTypeDef GPIO_InitStruct = {0};
 8001ca4:	f107 031c 	add.w	r3, r7, #28
 8001ca8:	2200      	movs	r2, #0
 8001caa:	601a      	str	r2, [r3, #0]
 8001cac:	605a      	str	r2, [r3, #4]
 8001cae:	609a      	str	r2, [r3, #8]
 8001cb0:	60da      	str	r2, [r3, #12]
 8001cb2:	611a      	str	r2, [r3, #16]
  if(hadc->Instance==ADC1)
 8001cb4:	687b      	ldr	r3, [r7, #4]
 8001cb6:	681b      	ldr	r3, [r3, #0]
 8001cb8:	4a36      	ldr	r2, [pc, #216]	; (8001d94 <HAL_ADC_MspInit+0xf8>)
 8001cba:	4293      	cmp	r3, r2
 8001cbc:	d130      	bne.n	8001d20 <HAL_ADC_MspInit+0x84>
  {
  /* USER CODE BEGIN ADC1_MspInit 0 */

  /* USER CODE END ADC1_MspInit 0 */
    /* Peripheral clock enable */
    __HAL_RCC_ADC1_CLK_ENABLE();
 8001cbe:	2300      	movs	r3, #0
 8001cc0:	61bb      	str	r3, [r7, #24]
 8001cc2:	4b35      	ldr	r3, [pc, #212]	; (8001d98 <HAL_ADC_MspInit+0xfc>)
 8001cc4:	6c5b      	ldr	r3, [r3, #68]	; 0x44
 8001cc6:	4a34      	ldr	r2, [pc, #208]	; (8001d98 <HAL_ADC_MspInit+0xfc>)
 8001cc8:	f443 7380 	orr.w	r3, r3, #256	; 0x100
 8001ccc:	6453      	str	r3, [r2, #68]	; 0x44
 8001cce:	4b32      	ldr	r3, [pc, #200]	; (8001d98 <HAL_ADC_MspInit+0xfc>)
 8001cd0:	6c5b      	ldr	r3, [r3, #68]	; 0x44
 8001cd2:	f403 7380 	and.w	r3, r3, #256	; 0x100
 8001cd6:	61bb      	str	r3, [r7, #24]
 8001cd8:	69bb      	ldr	r3, [r7, #24]

    __HAL_RCC_GPIOA_CLK_ENABLE();
 8001cda:	2300      	movs	r3, #0
 8001cdc:	617b      	str	r3, [r7, #20]
 8001cde:	4b2e      	ldr	r3, [pc, #184]	; (8001d98 <HAL_ADC_MspInit+0xfc>)
 8001ce0:	6b1b      	ldr	r3, [r3, #48]	; 0x30
 8001ce2:	4a2d      	ldr	r2, [pc, #180]	; (8001d98 <HAL_ADC_MspInit+0xfc>)
 8001ce4:	f043 0301 	orr.w	r3, r3, #1
 8001ce8:	6313      	str	r3, [r2, #48]	; 0x30
 8001cea:	4b2b      	ldr	r3, [pc, #172]	; (8001d98 <HAL_ADC_MspInit+0xfc>)
 8001cec:	6b1b      	ldr	r3, [r3, #48]	; 0x30
 8001cee:	f003 0301 	and.w	r3, r3, #1
 8001cf2:	617b      	str	r3, [r7, #20]
 8001cf4:	697b      	ldr	r3, [r7, #20]
    /**ADC1 GPIO Configuration
    PA3     ------> ADC1_IN3
    */
    GPIO_InitStruct.Pin = GPIO_PIN_3;
 8001cf6:	2308      	movs	r3, #8
 8001cf8:	61fb      	str	r3, [r7, #28]
    GPIO_InitStruct.Mode = GPIO_MODE_ANALOG;
 8001cfa:	2303      	movs	r3, #3
 8001cfc:	623b      	str	r3, [r7, #32]
    GPIO_InitStruct.Pull = GPIO_NOPULL;
 8001cfe:	2300      	movs	r3, #0
 8001d00:	627b      	str	r3, [r7, #36]	; 0x24
    HAL_GPIO_Init(GPIOA, &GPIO_InitStruct);
 8001d02:	f107 031c 	add.w	r3, r7, #28
 8001d06:	4619      	mov	r1, r3
 8001d08:	4824      	ldr	r0, [pc, #144]	; (8001d9c <HAL_ADC_MspInit+0x100>)
 8001d0a:	f000 ff97 	bl	8002c3c <HAL_GPIO_Init>

    /* ADC1 interrupt Init */
    HAL_NVIC_SetPriority(ADC_IRQn, 0, 0);
 8001d0e:	2200      	movs	r2, #0
 8001d10:	2100      	movs	r1, #0
 8001d12:	2012      	movs	r0, #18
 8001d14:	f000 ff5b 	bl	8002bce <HAL_NVIC_SetPriority>
    HAL_NVIC_EnableIRQ(ADC_IRQn);
 8001d18:	2012      	movs	r0, #18
 8001d1a:	f000 ff74 	bl	8002c06 <HAL_NVIC_EnableIRQ>
  /* USER CODE BEGIN ADC2_MspInit 1 */

  /* USER CODE END ADC2_MspInit 1 */
  }

}
 8001d1e:	e034      	b.n	8001d8a <HAL_ADC_MspInit+0xee>
  else if(hadc->Instance==ADC2)
 8001d20:	687b      	ldr	r3, [r7, #4]
 8001d22:	681b      	ldr	r3, [r3, #0]
 8001d24:	4a1e      	ldr	r2, [pc, #120]	; (8001da0 <HAL_ADC_MspInit+0x104>)
 8001d26:	4293      	cmp	r3, r2
 8001d28:	d12f      	bne.n	8001d8a <HAL_ADC_MspInit+0xee>
    __HAL_RCC_ADC2_CLK_ENABLE();
 8001d2a:	2300      	movs	r3, #0
 8001d2c:	613b      	str	r3, [r7, #16]
 8001d2e:	4b1a      	ldr	r3, [pc, #104]	; (8001d98 <HAL_ADC_MspInit+0xfc>)
 8001d30:	6c5b      	ldr	r3, [r3, #68]	; 0x44
 8001d32:	4a19      	ldr	r2, [pc, #100]	; (8001d98 <HAL_ADC_MspInit+0xfc>)
 8001d34:	f443 7300 	orr.w	r3, r3, #512	; 0x200
 8001d38:	6453      	str	r3, [r2, #68]	; 0x44
 8001d3a:	4b17      	ldr	r3, [pc, #92]	; (8001d98 <HAL_ADC_MspInit+0xfc>)
 8001d3c:	6c5b      	ldr	r3, [r3, #68]	; 0x44
 8001d3e:	f403 7300 	and.w	r3, r3, #512	; 0x200
 8001d42:	613b      	str	r3, [r7, #16]
 8001d44:	693b      	ldr	r3, [r7, #16]
    __HAL_RCC_GPIOA_CLK_ENABLE();
 8001d46:	2300      	movs	r3, #0
 8001d48:	60fb      	str	r3, [r7, #12]
 8001d4a:	4b13      	ldr	r3, [pc, #76]	; (8001d98 <HAL_ADC_MspInit+0xfc>)
 8001d4c:	6b1b      	ldr	r3, [r3, #48]	; 0x30
 8001d4e:	4a12      	ldr	r2, [pc, #72]	; (8001d98 <HAL_ADC_MspInit+0xfc>)
 8001d50:	f043 0301 	orr.w	r3, r3, #1
 8001d54:	6313      	str	r3, [r2, #48]	; 0x30
 8001d56:	4b10      	ldr	r3, [pc, #64]	; (8001d98 <HAL_ADC_MspInit+0xfc>)
 8001d58:	6b1b      	ldr	r3, [r3, #48]	; 0x30
 8001d5a:	f003 0301 	and.w	r3, r3, #1
 8001d5e:	60fb      	str	r3, [r7, #12]
 8001d60:	68fb      	ldr	r3, [r7, #12]
    GPIO_InitStruct.Pin = GPIO_PIN_0;
 8001d62:	2301      	movs	r3, #1
 8001d64:	61fb      	str	r3, [r7, #28]
    GPIO_InitStruct.Mode = GPIO_MODE_ANALOG;
 8001d66:	2303      	movs	r3, #3
 8001d68:	623b      	str	r3, [r7, #32]
    GPIO_InitStruct.Pull = GPIO_NOPULL;
 8001d6a:	2300      	movs	r3, #0
 8001d6c:	627b      	str	r3, [r7, #36]	; 0x24
    HAL_GPIO_Init(GPIOA, &GPIO_InitStruct);
 8001d6e:	f107 031c 	add.w	r3, r7, #28
 8001d72:	4619      	mov	r1, r3
 8001d74:	4809      	ldr	r0, [pc, #36]	; (8001d9c <HAL_ADC_MspInit+0x100>)
 8001d76:	f000 ff61 	bl	8002c3c <HAL_GPIO_Init>
    HAL_NVIC_SetPriority(ADC_IRQn, 0, 0);
 8001d7a:	2200      	movs	r2, #0
 8001d7c:	2100      	movs	r1, #0
 8001d7e:	2012      	movs	r0, #18
 8001d80:	f000 ff25 	bl	8002bce <HAL_NVIC_SetPriority>
    HAL_NVIC_EnableIRQ(ADC_IRQn);
 8001d84:	2012      	movs	r0, #18
 8001d86:	f000 ff3e 	bl	8002c06 <HAL_NVIC_EnableIRQ>
}
 8001d8a:	bf00      	nop
 8001d8c:	3730      	adds	r7, #48	; 0x30
 8001d8e:	46bd      	mov	sp, r7
 8001d90:	bd80      	pop	{r7, pc}
 8001d92:	bf00      	nop
 8001d94:	40012000 	.word	0x40012000
 8001d98:	40023800 	.word	0x40023800
 8001d9c:	40020000 	.word	0x40020000
 8001da0:	40012100 	.word	0x40012100

08001da4 <HAL_I2C_MspInit>:
* This function configures the hardware resources used in this example
* @param hi2c: I2C handle pointer
* @retval None
*/
void HAL_I2C_MspInit(I2C_HandleTypeDef* hi2c)
{
 8001da4:	b580      	push	{r7, lr}
 8001da6:	b08a      	sub	sp, #40	; 0x28
 8001da8:	af00      	add	r7, sp, #0
 8001daa:	6078      	str	r0, [r7, #4]
  GPIO_InitTypeDef GPIO_InitStruct = {0};
 8001dac:	f107 0314 	add.w	r3, r7, #20
 8001db0:	2200      	movs	r2, #0
 8001db2:	601a      	str	r2, [r3, #0]
 8001db4:	605a      	str	r2, [r3, #4]
 8001db6:	609a      	str	r2, [r3, #8]
 8001db8:	60da      	str	r2, [r3, #12]
 8001dba:	611a      	str	r2, [r3, #16]
  if(hi2c->Instance==I2C1)
 8001dbc:	687b      	ldr	r3, [r7, #4]
 8001dbe:	681b      	ldr	r3, [r3, #0]
 8001dc0:	4a19      	ldr	r2, [pc, #100]	; (8001e28 <HAL_I2C_MspInit+0x84>)
 8001dc2:	4293      	cmp	r3, r2
 8001dc4:	d12b      	bne.n	8001e1e <HAL_I2C_MspInit+0x7a>
  {
  /* USER CODE BEGIN I2C1_MspInit 0 */

  /* USER CODE END I2C1_MspInit 0 */

    __HAL_RCC_GPIOB_CLK_ENABLE();
 8001dc6:	2300      	movs	r3, #0
 8001dc8:	613b      	str	r3, [r7, #16]
 8001dca:	4b18      	ldr	r3, [pc, #96]	; (8001e2c <HAL_I2C_MspInit+0x88>)
 8001dcc:	6b1b      	ldr	r3, [r3, #48]	; 0x30
 8001dce:	4a17      	ldr	r2, [pc, #92]	; (8001e2c <HAL_I2C_MspInit+0x88>)
 8001dd0:	f043 0302 	orr.w	r3, r3, #2
 8001dd4:	6313      	str	r3, [r2, #48]	; 0x30
 8001dd6:	4b15      	ldr	r3, [pc, #84]	; (8001e2c <HAL_I2C_MspInit+0x88>)
 8001dd8:	6b1b      	ldr	r3, [r3, #48]	; 0x30
 8001dda:	f003 0302 	and.w	r3, r3, #2
 8001dde:	613b      	str	r3, [r7, #16]
 8001de0:	693b      	ldr	r3, [r7, #16]
    /**I2C1 GPIO Configuration
    PB6     ------> I2C1_SCL
    PB7     ------> I2C1_SDA
    */
    GPIO_InitStruct.Pin = GPIO_PIN_6|GPIO_PIN_7;
 8001de2:	23c0      	movs	r3, #192	; 0xc0
 8001de4:	617b      	str	r3, [r7, #20]
    GPIO_InitStruct.Mode = GPIO_MODE_AF_OD;
 8001de6:	2312      	movs	r3, #18
 8001de8:	61bb      	str	r3, [r7, #24]
    GPIO_InitStruct.Pull = GPIO_NOPULL;
 8001dea:	2300      	movs	r3, #0
 8001dec:	61fb      	str	r3, [r7, #28]
    GPIO_InitStruct.Speed = GPIO_SPEED_FREQ_VERY_HIGH;
 8001dee:	2303      	movs	r3, #3
 8001df0:	623b      	str	r3, [r7, #32]
    GPIO_InitStruct.Alternate = GPIO_AF4_I2C1;
 8001df2:	2304      	movs	r3, #4
 8001df4:	627b      	str	r3, [r7, #36]	; 0x24
    HAL_GPIO_Init(GPIOB, &GPIO_InitStruct);
 8001df6:	f107 0314 	add.w	r3, r7, #20
 8001dfa:	4619      	mov	r1, r3
 8001dfc:	480c      	ldr	r0, [pc, #48]	; (8001e30 <HAL_I2C_MspInit+0x8c>)
 8001dfe:	f000 ff1d 	bl	8002c3c <HAL_GPIO_Init>

    /* Peripheral clock enable */
    __HAL_RCC_I2C1_CLK_ENABLE();
 8001e02:	2300      	movs	r3, #0
 8001e04:	60fb      	str	r3, [r7, #12]
 8001e06:	4b09      	ldr	r3, [pc, #36]	; (8001e2c <HAL_I2C_MspInit+0x88>)
 8001e08:	6c1b      	ldr	r3, [r3, #64]	; 0x40
 8001e0a:	4a08      	ldr	r2, [pc, #32]	; (8001e2c <HAL_I2C_MspInit+0x88>)
 8001e0c:	f443 1300 	orr.w	r3, r3, #2097152	; 0x200000
 8001e10:	6413      	str	r3, [r2, #64]	; 0x40
 8001e12:	4b06      	ldr	r3, [pc, #24]	; (8001e2c <HAL_I2C_MspInit+0x88>)
 8001e14:	6c1b      	ldr	r3, [r3, #64]	; 0x40
 8001e16:	f403 1300 	and.w	r3, r3, #2097152	; 0x200000
 8001e1a:	60fb      	str	r3, [r7, #12]
 8001e1c:	68fb      	ldr	r3, [r7, #12]
  /* USER CODE BEGIN I2C1_MspInit 1 */

  /* USER CODE END I2C1_MspInit 1 */
  }

}
 8001e1e:	bf00      	nop
 8001e20:	3728      	adds	r7, #40	; 0x28
 8001e22:	46bd      	mov	sp, r7
 8001e24:	bd80      	pop	{r7, pc}
 8001e26:	bf00      	nop
 8001e28:	40005400 	.word	0x40005400
 8001e2c:	40023800 	.word	0x40023800
 8001e30:	40020400 	.word	0x40020400

08001e34 <HAL_TIM_Base_MspInit>:
* This function configures the hardware resources used in this example
* @param htim_base: TIM_Base handle pointer
* @retval None
*/
void HAL_TIM_Base_MspInit(TIM_HandleTypeDef* htim_base)
{
 8001e34:	b580      	push	{r7, lr}
 8001e36:	b084      	sub	sp, #16
 8001e38:	af00      	add	r7, sp, #0
 8001e3a:	6078      	str	r0, [r7, #4]
  if(htim_base->Instance==TIM4)
 8001e3c:	687b      	ldr	r3, [r7, #4]
 8001e3e:	681b      	ldr	r3, [r3, #0]
 8001e40:	4a0e      	ldr	r2, [pc, #56]	; (8001e7c <HAL_TIM_Base_MspInit+0x48>)
 8001e42:	4293      	cmp	r3, r2
 8001e44:	d115      	bne.n	8001e72 <HAL_TIM_Base_MspInit+0x3e>
  {
  /* USER CODE BEGIN TIM4_MspInit 0 */

  /* USER CODE END TIM4_MspInit 0 */
    /* Peripheral clock enable */
    __HAL_RCC_TIM4_CLK_ENABLE();
 8001e46:	2300      	movs	r3, #0
 8001e48:	60fb      	str	r3, [r7, #12]
 8001e4a:	4b0d      	ldr	r3, [pc, #52]	; (8001e80 <HAL_TIM_Base_MspInit+0x4c>)
 8001e4c:	6c1b      	ldr	r3, [r3, #64]	; 0x40
 8001e4e:	4a0c      	ldr	r2, [pc, #48]	; (8001e80 <HAL_TIM_Base_MspInit+0x4c>)
 8001e50:	f043 0304 	orr.w	r3, r3, #4
 8001e54:	6413      	str	r3, [r2, #64]	; 0x40
 8001e56:	4b0a      	ldr	r3, [pc, #40]	; (8001e80 <HAL_TIM_Base_MspInit+0x4c>)
 8001e58:	6c1b      	ldr	r3, [r3, #64]	; 0x40
 8001e5a:	f003 0304 	and.w	r3, r3, #4
 8001e5e:	60fb      	str	r3, [r7, #12]
 8001e60:	68fb      	ldr	r3, [r7, #12]
    /* TIM4 interrupt Init */
    HAL_NVIC_SetPriority(TIM4_IRQn, 0, 0);
 8001e62:	2200      	movs	r2, #0
 8001e64:	2100      	movs	r1, #0
 8001e66:	201e      	movs	r0, #30
 8001e68:	f000 feb1 	bl	8002bce <HAL_NVIC_SetPriority>
    HAL_NVIC_EnableIRQ(TIM4_IRQn);
 8001e6c:	201e      	movs	r0, #30
 8001e6e:	f000 feca 	bl	8002c06 <HAL_NVIC_EnableIRQ>
  /* USER CODE BEGIN TIM4_MspInit 1 */

  /* USER CODE END TIM4_MspInit 1 */
  }

}
 8001e72:	bf00      	nop
 8001e74:	3710      	adds	r7, #16
 8001e76:	46bd      	mov	sp, r7
 8001e78:	bd80      	pop	{r7, pc}
 8001e7a:	bf00      	nop
 8001e7c:	40000800 	.word	0x40000800
 8001e80:	40023800 	.word	0x40023800

08001e84 <HAL_TIM_MspPostInit>:

void HAL_TIM_MspPostInit(TIM_HandleTypeDef* htim)
{
 8001e84:	b580      	push	{r7, lr}
 8001e86:	b088      	sub	sp, #32
 8001e88:	af00      	add	r7, sp, #0
 8001e8a:	6078      	str	r0, [r7, #4]
  GPIO_InitTypeDef GPIO_InitStruct = {0};
 8001e8c:	f107 030c 	add.w	r3, r7, #12
 8001e90:	2200      	movs	r2, #0
 8001e92:	601a      	str	r2, [r3, #0]
 8001e94:	605a      	str	r2, [r3, #4]
 8001e96:	609a      	str	r2, [r3, #8]
 8001e98:	60da      	str	r2, [r3, #12]
 8001e9a:	611a      	str	r2, [r3, #16]
  if(htim->Instance==TIM4)
 8001e9c:	687b      	ldr	r3, [r7, #4]
 8001e9e:	681b      	ldr	r3, [r3, #0]
 8001ea0:	4a12      	ldr	r2, [pc, #72]	; (8001eec <HAL_TIM_MspPostInit+0x68>)
 8001ea2:	4293      	cmp	r3, r2
 8001ea4:	d11e      	bne.n	8001ee4 <HAL_TIM_MspPostInit+0x60>
  {
  /* USER CODE BEGIN TIM4_MspPostInit 0 */

  /* USER CODE END TIM4_MspPostInit 0 */

    __HAL_RCC_GPIOD_CLK_ENABLE();
 8001ea6:	2300      	movs	r3, #0
 8001ea8:	60bb      	str	r3, [r7, #8]
 8001eaa:	4b11      	ldr	r3, [pc, #68]	; (8001ef0 <HAL_TIM_MspPostInit+0x6c>)
 8001eac:	6b1b      	ldr	r3, [r3, #48]	; 0x30
 8001eae:	4a10      	ldr	r2, [pc, #64]	; (8001ef0 <HAL_TIM_MspPostInit+0x6c>)
 8001eb0:	f043 0308 	orr.w	r3, r3, #8
 8001eb4:	6313      	str	r3, [r2, #48]	; 0x30
 8001eb6:	4b0e      	ldr	r3, [pc, #56]	; (8001ef0 <HAL_TIM_MspPostInit+0x6c>)
 8001eb8:	6b1b      	ldr	r3, [r3, #48]	; 0x30
 8001eba:	f003 0308 	and.w	r3, r3, #8
 8001ebe:	60bb      	str	r3, [r7, #8]
 8001ec0:	68bb      	ldr	r3, [r7, #8]
    /**TIM4 GPIO Configuration
    PD12     ------> TIM4_CH1
    PD14     ------> TIM4_CH3
    PD15     ------> TIM4_CH4
    */
    GPIO_InitStruct.Pin = GPIO_PIN_12|GPIO_PIN_14|GPIO_PIN_15;
 8001ec2:	f44f 4350 	mov.w	r3, #53248	; 0xd000
 8001ec6:	60fb      	str	r3, [r7, #12]
    GPIO_InitStruct.Mode = GPIO_MODE_AF_PP;
 8001ec8:	2302      	movs	r3, #2
 8001eca:	613b      	str	r3, [r7, #16]
    GPIO_InitStruct.Pull = GPIO_NOPULL;
 8001ecc:	2300      	movs	r3, #0
 8001ece:	617b      	str	r3, [r7, #20]
    GPIO_InitStruct.Speed = GPIO_SPEED_FREQ_LOW;
 8001ed0:	2300      	movs	r3, #0
 8001ed2:	61bb      	str	r3, [r7, #24]
    GPIO_InitStruct.Alternate = GPIO_AF2_TIM4;
 8001ed4:	2302      	movs	r3, #2
 8001ed6:	61fb      	str	r3, [r7, #28]
    HAL_GPIO_Init(GPIOD, &GPIO_InitStruct);
 8001ed8:	f107 030c 	add.w	r3, r7, #12
 8001edc:	4619      	mov	r1, r3
 8001ede:	4805      	ldr	r0, [pc, #20]	; (8001ef4 <HAL_TIM_MspPostInit+0x70>)
 8001ee0:	f000 feac 	bl	8002c3c <HAL_GPIO_Init>
  /* USER CODE BEGIN TIM4_MspPostInit 1 */

  /* USER CODE END TIM4_MspPostInit 1 */
  }

}
 8001ee4:	bf00      	nop
 8001ee6:	3720      	adds	r7, #32
 8001ee8:	46bd      	mov	sp, r7
 8001eea:	bd80      	pop	{r7, pc}
 8001eec:	40000800 	.word	0x40000800
 8001ef0:	40023800 	.word	0x40023800
 8001ef4:	40020c00 	.word	0x40020c00

08001ef8 <NMI_Handler>:
/******************************************************************************/
/**
  * @brief This function handles Non maskable interrupt.
  */
void NMI_Handler(void)
{
 8001ef8:	b480      	push	{r7}
 8001efa:	af00      	add	r7, sp, #0
  /* USER CODE BEGIN NonMaskableInt_IRQn 0 */

  /* USER CODE END NonMaskableInt_IRQn 0 */
  /* USER CODE BEGIN NonMaskableInt_IRQn 1 */
   while (1)
 8001efc:	e7fe      	b.n	8001efc <NMI_Handler+0x4>

08001efe <HardFault_Handler>:

/**
  * @brief This function handles Hard fault interrupt.
  */
void HardFault_Handler(void)
{
 8001efe:	b480      	push	{r7}
 8001f00:	af00      	add	r7, sp, #0
  /* USER CODE BEGIN HardFault_IRQn 0 */

  /* USER CODE END HardFault_IRQn 0 */
  while (1)
 8001f02:	e7fe      	b.n	8001f02 <HardFault_Handler+0x4>

08001f04 <MemManage_Handler>:

/**
  * @brief This function handles Memory management fault.
  */
void MemManage_Handler(void)
{
 8001f04:	b480      	push	{r7}
 8001f06:	af00      	add	r7, sp, #0
  /* USER CODE BEGIN MemoryManagement_IRQn 0 */

  /* USER CODE END MemoryManagement_IRQn 0 */
  while (1)
 8001f08:	e7fe      	b.n	8001f08 <MemManage_Handler+0x4>

08001f0a <BusFault_Handler>:

/**
  * @brief This function handles Pre-fetch fault, memory access fault.
  */
void BusFault_Handler(void)
{
 8001f0a:	b480      	push	{r7}
 8001f0c:	af00      	add	r7, sp, #0
  /* USER CODE BEGIN BusFault_IRQn 0 */

  /* USER CODE END BusFault_IRQn 0 */
  while (1)
 8001f0e:	e7fe      	b.n	8001f0e <BusFault_Handler+0x4>

08001f10 <UsageFault_Handler>:

/**
  * @brief This function handles Undefined instruction or illegal state.
  */
void UsageFault_Handler(void)
{
 8001f10:	b480      	push	{r7}
 8001f12:	af00      	add	r7, sp, #0
  /* USER CODE BEGIN UsageFault_IRQn 0 */

  /* USER CODE END UsageFault_IRQn 0 */
  while (1)
 8001f14:	e7fe      	b.n	8001f14 <UsageFault_Handler+0x4>

08001f16 <SVC_Handler>:

/**
  * @brief This function handles System service call via SWI instruction.
  */
void SVC_Handler(void)
{
 8001f16:	b480      	push	{r7}
 8001f18:	af00      	add	r7, sp, #0

  /* USER CODE END SVCall_IRQn 0 */
  /* USER CODE BEGIN SVCall_IRQn 1 */

  /* USER CODE END SVCall_IRQn 1 */
}
 8001f1a:	bf00      	nop
 8001f1c:	46bd      	mov	sp, r7
 8001f1e:	f85d 7b04 	ldr.w	r7, [sp], #4
 8001f22:	4770      	bx	lr

08001f24 <DebugMon_Handler>:

/**
  * @brief This function handles Debug monitor.
  */
void DebugMon_Handler(void)
{
 8001f24:	b480      	push	{r7}
 8001f26:	af00      	add	r7, sp, #0

  /* USER CODE END DebugMonitor_IRQn 0 */
  /* USER CODE BEGIN DebugMonitor_IRQn 1 */

  /* USER CODE END DebugMonitor_IRQn 1 */
}
 8001f28:	bf00      	nop
 8001f2a:	46bd      	mov	sp, r7
 8001f2c:	f85d 7b04 	ldr.w	r7, [sp], #4
 8001f30:	4770      	bx	lr

08001f32 <PendSV_Handler>:

/**
  * @brief This function handles Pendable request for system service.
  */
void PendSV_Handler(void)
{
 8001f32:	b480      	push	{r7}
 8001f34:	af00      	add	r7, sp, #0

  /* USER CODE END PendSV_IRQn 0 */
  /* USER CODE BEGIN PendSV_IRQn 1 */

  /* USER CODE END PendSV_IRQn 1 */
}
 8001f36:	bf00      	nop
 8001f38:	46bd      	mov	sp, r7
 8001f3a:	f85d 7b04 	ldr.w	r7, [sp], #4
 8001f3e:	4770      	bx	lr

08001f40 <SysTick_Handler>:

/**
  * @brief This function handles System tick timer.
  */
void SysTick_Handler(void)
{
 8001f40:	b580      	push	{r7, lr}
 8001f42:	af00      	add	r7, sp, #0
  /* USER CODE BEGIN SysTick_IRQn 0 */

  /* USER CODE END SysTick_IRQn 0 */
  HAL_IncTick();
 8001f44:	f000 f8a8 	bl	8002098 <HAL_IncTick>
  /* USER CODE BEGIN SysTick_IRQn 1 */

  /* USER CODE END SysTick_IRQn 1 */
}
 8001f48:	bf00      	nop
 8001f4a:	bd80      	pop	{r7, pc}

08001f4c <ADC_IRQHandler>:

/**
  * @brief This function handles ADC1, ADC2 and ADC3 global interrupts.
  */
void ADC_IRQHandler(void)
{
 8001f4c:	b580      	push	{r7, lr}
 8001f4e:	af00      	add	r7, sp, #0
  /* USER CODE BEGIN ADC_IRQn 0 */

  /* USER CODE END ADC_IRQn 0 */
  HAL_ADC_IRQHandler(&hadc1);
 8001f50:	4803      	ldr	r0, [pc, #12]	; (8001f60 <ADC_IRQHandler+0x14>)
 8001f52:	f000 fa07 	bl	8002364 <HAL_ADC_IRQHandler>
  HAL_ADC_IRQHandler(&hadc2);
 8001f56:	4803      	ldr	r0, [pc, #12]	; (8001f64 <ADC_IRQHandler+0x18>)
 8001f58:	f000 fa04 	bl	8002364 <HAL_ADC_IRQHandler>
  /* USER CODE BEGIN ADC_IRQn 1 */

  /* USER CODE END ADC_IRQn 1 */
}
 8001f5c:	bf00      	nop
 8001f5e:	bd80      	pop	{r7, pc}
 8001f60:	20000030 	.word	0x20000030
 8001f64:	20000078 	.word	0x20000078

08001f68 <TIM4_IRQHandler>:

/**
  * @brief This function handles TIM4 global interrupt.
  */
void TIM4_IRQHandler(void)
{
 8001f68:	b580      	push	{r7, lr}
 8001f6a:	af00      	add	r7, sp, #0
  /* USER CODE BEGIN TIM4_IRQn 0 */

  /* USER CODE END TIM4_IRQn 0 */
  HAL_TIM_IRQHandler(&htim4);
 8001f6c:	4802      	ldr	r0, [pc, #8]	; (8001f78 <TIM4_IRQHandler+0x10>)
 8001f6e:	f002 fdc9 	bl	8004b04 <HAL_TIM_IRQHandler>
  /* USER CODE BEGIN TIM4_IRQn 1 */

  /* USER CODE END TIM4_IRQn 1 */
}
 8001f72:	bf00      	nop
 8001f74:	bd80      	pop	{r7, pc}
 8001f76:	bf00      	nop
 8001f78:	20000114 	.word	0x20000114

08001f7c <SystemInit>:
  *         configuration.
  * @param  None
  * @retval None
  */
void SystemInit(void)
{
 8001f7c:	b480      	push	{r7}
 8001f7e:	af00      	add	r7, sp, #0
  /* FPU settings ------------------------------------------------------------*/
  #if (__FPU_PRESENT == 1) && (__FPU_USED == 1)
    SCB->CPACR |= ((3UL << 10*2)|(3UL << 11*2));  /* set CP10 and CP11 Full Access */
 8001f80:	4b06      	ldr	r3, [pc, #24]	; (8001f9c <SystemInit+0x20>)
 8001f82:	f8d3 3088 	ldr.w	r3, [r3, #136]	; 0x88
 8001f86:	4a05      	ldr	r2, [pc, #20]	; (8001f9c <SystemInit+0x20>)
 8001f88:	f443 0370 	orr.w	r3, r3, #15728640	; 0xf00000
 8001f8c:	f8c2 3088 	str.w	r3, [r2, #136]	; 0x88

  /* Configure the Vector Table location -------------------------------------*/
#if defined(USER_VECT_TAB_ADDRESS)
  SCB->VTOR = VECT_TAB_BASE_ADDRESS | VECT_TAB_OFFSET; /* Vector Table Relocation in Internal SRAM */
#endif /* USER_VECT_TAB_ADDRESS */
}
 8001f90:	bf00      	nop
 8001f92:	46bd      	mov	sp, r7
 8001f94:	f85d 7b04 	ldr.w	r7, [sp], #4
 8001f98:	4770      	bx	lr
 8001f9a:	bf00      	nop
 8001f9c:	e000ed00 	.word	0xe000ed00

08001fa0 <Reset_Handler>:

    .section  .text.Reset_Handler
  .weak  Reset_Handler
  .type  Reset_Handler, %function
Reset_Handler:  
  ldr   sp, =_estack     /* set stack pointer */
 8001fa0:	f8df d034 	ldr.w	sp, [pc, #52]	; 8001fd8 <LoopFillZerobss+0xe>
  
/* Call the clock system initialization function.*/
  bl  SystemInit  
 8001fa4:	f7ff ffea 	bl	8001f7c <SystemInit>

/* Copy the data segment initializers from flash to SRAM */  
  ldr r0, =_sdata
 8001fa8:	480c      	ldr	r0, [pc, #48]	; (8001fdc <LoopFillZerobss+0x12>)
  ldr r1, =_edata
 8001faa:	490d      	ldr	r1, [pc, #52]	; (8001fe0 <LoopFillZerobss+0x16>)
  ldr r2, =_sidata
 8001fac:	4a0d      	ldr	r2, [pc, #52]	; (8001fe4 <LoopFillZerobss+0x1a>)
  movs r3, #0
 8001fae:	2300      	movs	r3, #0
  b LoopCopyDataInit
 8001fb0:	e002      	b.n	8001fb8 <LoopCopyDataInit>

08001fb2 <CopyDataInit>:

CopyDataInit:
  ldr r4, [r2, r3]
 8001fb2:	58d4      	ldr	r4, [r2, r3]
  str r4, [r0, r3]
 8001fb4:	50c4      	str	r4, [r0, r3]
  adds r3, r3, #4
 8001fb6:	3304      	adds	r3, #4

08001fb8 <LoopCopyDataInit>:

LoopCopyDataInit:
  adds r4, r0, r3
 8001fb8:	18c4      	adds	r4, r0, r3
  cmp r4, r1
 8001fba:	428c      	cmp	r4, r1
  bcc CopyDataInit
 8001fbc:	d3f9      	bcc.n	8001fb2 <CopyDataInit>
  
/* Zero fill the bss segment. */
  ldr r2, =_sbss
 8001fbe:	4a0a      	ldr	r2, [pc, #40]	; (8001fe8 <LoopFillZerobss+0x1e>)
  ldr r4, =_ebss
 8001fc0:	4c0a      	ldr	r4, [pc, #40]	; (8001fec <LoopFillZerobss+0x22>)
  movs r3, #0
 8001fc2:	2300      	movs	r3, #0
  b LoopFillZerobss
 8001fc4:	e001      	b.n	8001fca <LoopFillZerobss>

08001fc6 <FillZerobss>:

FillZerobss:
  str  r3, [r2]
 8001fc6:	6013      	str	r3, [r2, #0]
  adds r2, r2, #4
 8001fc8:	3204      	adds	r2, #4

08001fca <LoopFillZerobss>:

LoopFillZerobss:
  cmp r2, r4
 8001fca:	42a2      	cmp	r2, r4
  bcc FillZerobss
 8001fcc:	d3fb      	bcc.n	8001fc6 <FillZerobss>

/* Call static constructors */
    bl __libc_init_array
 8001fce:	f003 fbf9 	bl	80057c4 <__libc_init_array>
/* Call the application's entry point.*/
  bl  main
 8001fd2:	f7ff f9df 	bl	8001394 <main>
  bx  lr    
 8001fd6:	4770      	bx	lr
  ldr   sp, =_estack     /* set stack pointer */
 8001fd8:	20020000 	.word	0x20020000
  ldr r0, =_sdata
 8001fdc:	20000000 	.word	0x20000000
  ldr r1, =_edata
 8001fe0:	20000014 	.word	0x20000014
  ldr r2, =_sidata
 8001fe4:	08005868 	.word	0x08005868
  ldr r2, =_sbss
 8001fe8:	20000014 	.word	0x20000014
  ldr r4, =_ebss
 8001fec:	20000164 	.word	0x20000164

08001ff0 <CAN1_RX0_IRQHandler>:
 * @retval None       
*/
    .section  .text.Default_Handler,"ax",%progbits
Default_Handler:
Infinite_Loop:
  b  Infinite_Loop
 8001ff0:	e7fe      	b.n	8001ff0 <CAN1_RX0_IRQHandler>
	...

08001ff4 <HAL_Init>:
  *         need to ensure that the SysTick time base is always set to 1 millisecond
  *         to have correct HAL operation.
  * @retval HAL status
  */
HAL_StatusTypeDef HAL_Init(void)
{
 8001ff4:	b580      	push	{r7, lr}
 8001ff6:	af00      	add	r7, sp, #0
  /* Configure Flash prefetch, Instruction cache, Data cache */ 
#if (INSTRUCTION_CACHE_ENABLE != 0U)
  __HAL_FLASH_INSTRUCTION_CACHE_ENABLE();
 8001ff8:	4b0e      	ldr	r3, [pc, #56]	; (8002034 <HAL_Init+0x40>)
 8001ffa:	681b      	ldr	r3, [r3, #0]
 8001ffc:	4a0d      	ldr	r2, [pc, #52]	; (8002034 <HAL_Init+0x40>)
 8001ffe:	f443 7300 	orr.w	r3, r3, #512	; 0x200
 8002002:	6013      	str	r3, [r2, #0]
#endif /* INSTRUCTION_CACHE_ENABLE */

#if (DATA_CACHE_ENABLE != 0U)
  __HAL_FLASH_DATA_CACHE_ENABLE();
 8002004:	4b0b      	ldr	r3, [pc, #44]	; (8002034 <HAL_Init+0x40>)
 8002006:	681b      	ldr	r3, [r3, #0]
 8002008:	4a0a      	ldr	r2, [pc, #40]	; (8002034 <HAL_Init+0x40>)
 800200a:	f443 6380 	orr.w	r3, r3, #1024	; 0x400
 800200e:	6013      	str	r3, [r2, #0]
#endif /* DATA_CACHE_ENABLE */

#if (PREFETCH_ENABLE != 0U)
  __HAL_FLASH_PREFETCH_BUFFER_ENABLE();
 8002010:	4b08      	ldr	r3, [pc, #32]	; (8002034 <HAL_Init+0x40>)
 8002012:	681b      	ldr	r3, [r3, #0]
 8002014:	4a07      	ldr	r2, [pc, #28]	; (8002034 <HAL_Init+0x40>)
 8002016:	f443 7380 	orr.w	r3, r3, #256	; 0x100
 800201a:	6013      	str	r3, [r2, #0]
#endif /* PREFETCH_ENABLE */

  /* Set Interrupt Group Priority */
  HAL_NVIC_SetPriorityGrouping(NVIC_PRIORITYGROUP_4);
 800201c:	2003      	movs	r0, #3
 800201e:	f000 fdcb 	bl	8002bb8 <HAL_NVIC_SetPriorityGrouping>

  /* Use systick as time base source and configure 1ms tick (default clock after Reset is HSI) */
  HAL_InitTick(TICK_INT_PRIORITY);
 8002022:	200f      	movs	r0, #15
 8002024:	f000 f808 	bl	8002038 <HAL_InitTick>

  /* Init the low level hardware */
  HAL_MspInit();
 8002028:	f7ff fe10 	bl	8001c4c <HAL_MspInit>

  /* Return function status */
  return HAL_OK;
 800202c:	2300      	movs	r3, #0
}
 800202e:	4618      	mov	r0, r3
 8002030:	bd80      	pop	{r7, pc}
 8002032:	bf00      	nop
 8002034:	40023c00 	.word	0x40023c00

08002038 <HAL_InitTick>:
  *       implementation  in user file.
  * @param TickPriority Tick interrupt priority.
  * @retval HAL status
  */
__weak HAL_StatusTypeDef HAL_InitTick(uint32_t TickPriority)
{
 8002038:	b580      	push	{r7, lr}
 800203a:	b082      	sub	sp, #8
 800203c:	af00      	add	r7, sp, #0
 800203e:	6078      	str	r0, [r7, #4]
  /* Configure the SysTick to have interrupt in 1ms time basis*/
  if (HAL_SYSTICK_Config(SystemCoreClock / (1000U / uwTickFreq)) > 0U)
 8002040:	4b12      	ldr	r3, [pc, #72]	; (800208c <HAL_InitTick+0x54>)
 8002042:	681a      	ldr	r2, [r3, #0]
 8002044:	4b12      	ldr	r3, [pc, #72]	; (8002090 <HAL_InitTick+0x58>)
 8002046:	781b      	ldrb	r3, [r3, #0]
 8002048:	4619      	mov	r1, r3
 800204a:	f44f 737a 	mov.w	r3, #1000	; 0x3e8
 800204e:	fbb3 f3f1 	udiv	r3, r3, r1
 8002052:	fbb2 f3f3 	udiv	r3, r2, r3
 8002056:	4618      	mov	r0, r3
 8002058:	f000 fde3 	bl	8002c22 <HAL_SYSTICK_Config>
 800205c:	4603      	mov	r3, r0
 800205e:	2b00      	cmp	r3, #0
 8002060:	d001      	beq.n	8002066 <HAL_InitTick+0x2e>
  {
    return HAL_ERROR;
 8002062:	2301      	movs	r3, #1
 8002064:	e00e      	b.n	8002084 <HAL_InitTick+0x4c>
  }

  /* Configure the SysTick IRQ priority */
  if (TickPriority < (1UL << __NVIC_PRIO_BITS))
 8002066:	687b      	ldr	r3, [r7, #4]
 8002068:	2b0f      	cmp	r3, #15
 800206a:	d80a      	bhi.n	8002082 <HAL_InitTick+0x4a>
  {
    HAL_NVIC_SetPriority(SysTick_IRQn, TickPriority, 0U);
 800206c:	2200      	movs	r2, #0
 800206e:	6879      	ldr	r1, [r7, #4]
 8002070:	f04f 30ff 	mov.w	r0, #4294967295
 8002074:	f000 fdab 	bl	8002bce <HAL_NVIC_SetPriority>
    uwTickPrio = TickPriority;
 8002078:	4a06      	ldr	r2, [pc, #24]	; (8002094 <HAL_InitTick+0x5c>)
 800207a:	687b      	ldr	r3, [r7, #4]
 800207c:	6013      	str	r3, [r2, #0]
  {
    return HAL_ERROR;
  }

  /* Return function status */
  return HAL_OK;
 800207e:	2300      	movs	r3, #0
 8002080:	e000      	b.n	8002084 <HAL_InitTick+0x4c>
    return HAL_ERROR;
 8002082:	2301      	movs	r3, #1
}
 8002084:	4618      	mov	r0, r3
 8002086:	3708      	adds	r7, #8
 8002088:	46bd      	mov	sp, r7
 800208a:	bd80      	pop	{r7, pc}
 800208c:	20000008 	.word	0x20000008
 8002090:	20000010 	.word	0x20000010
 8002094:	2000000c 	.word	0x2000000c

08002098 <HAL_IncTick>:
 * @note This function is declared as __weak to be overwritten in case of other 
  *      implementations in user file.
  * @retval None
  */
__weak void HAL_IncTick(void)
{
 8002098:	b480      	push	{r7}
 800209a:	af00      	add	r7, sp, #0
  uwTick += uwTickFreq;
 800209c:	4b06      	ldr	r3, [pc, #24]	; (80020b8 <HAL_IncTick+0x20>)
 800209e:	781b      	ldrb	r3, [r3, #0]
 80020a0:	461a      	mov	r2, r3
 80020a2:	4b06      	ldr	r3, [pc, #24]	; (80020bc <HAL_IncTick+0x24>)
 80020a4:	681b      	ldr	r3, [r3, #0]
 80020a6:	4413      	add	r3, r2
 80020a8:	4a04      	ldr	r2, [pc, #16]	; (80020bc <HAL_IncTick+0x24>)
 80020aa:	6013      	str	r3, [r2, #0]
}
 80020ac:	bf00      	nop
 80020ae:	46bd      	mov	sp, r7
 80020b0:	f85d 7b04 	ldr.w	r7, [sp], #4
 80020b4:	4770      	bx	lr
 80020b6:	bf00      	nop
 80020b8:	20000010 	.word	0x20000010
 80020bc:	20000160 	.word	0x20000160

080020c0 <HAL_GetTick>:
  * @note This function is declared as __weak to be overwritten in case of other 
  *       implementations in user file.
  * @retval tick value
  */
__weak uint32_t HAL_GetTick(void)
{
 80020c0:	b480      	push	{r7}
 80020c2:	af00      	add	r7, sp, #0
  return uwTick;
 80020c4:	4b03      	ldr	r3, [pc, #12]	; (80020d4 <HAL_GetTick+0x14>)
 80020c6:	681b      	ldr	r3, [r3, #0]
}
 80020c8:	4618      	mov	r0, r3
 80020ca:	46bd      	mov	sp, r7
 80020cc:	f85d 7b04 	ldr.w	r7, [sp], #4
 80020d0:	4770      	bx	lr
 80020d2:	bf00      	nop
 80020d4:	20000160 	.word	0x20000160

080020d8 <HAL_Delay>:
  *       implementations in user file.
  * @param Delay specifies the delay time length, in milliseconds.
  * @retval None
  */
__weak void HAL_Delay(uint32_t Delay)
{
 80020d8:	b580      	push	{r7, lr}
 80020da:	b084      	sub	sp, #16
 80020dc:	af00      	add	r7, sp, #0
 80020de:	6078      	str	r0, [r7, #4]
  uint32_t tickstart = HAL_GetTick();
 80020e0:	f7ff ffee 	bl	80020c0 <HAL_GetTick>
 80020e4:	60b8      	str	r0, [r7, #8]
  uint32_t wait = Delay;
 80020e6:	687b      	ldr	r3, [r7, #4]
 80020e8:	60fb      	str	r3, [r7, #12]

  /* Add a freq to guarantee minimum wait */
  if (wait < HAL_MAX_DELAY)
 80020ea:	68fb      	ldr	r3, [r7, #12]
 80020ec:	f1b3 3fff 	cmp.w	r3, #4294967295
 80020f0:	d005      	beq.n	80020fe <HAL_Delay+0x26>
  {
    wait += (uint32_t)(uwTickFreq);
 80020f2:	4b0a      	ldr	r3, [pc, #40]	; (800211c <HAL_Delay+0x44>)
 80020f4:	781b      	ldrb	r3, [r3, #0]
 80020f6:	461a      	mov	r2, r3
 80020f8:	68fb      	ldr	r3, [r7, #12]
 80020fa:	4413      	add	r3, r2
 80020fc:	60fb      	str	r3, [r7, #12]
  }

  while((HAL_GetTick() - tickstart) < wait)
 80020fe:	bf00      	nop
 8002100:	f7ff ffde 	bl	80020c0 <HAL_GetTick>
 8002104:	4602      	mov	r2, r0
 8002106:	68bb      	ldr	r3, [r7, #8]
 8002108:	1ad3      	subs	r3, r2, r3
 800210a:	68fa      	ldr	r2, [r7, #12]
 800210c:	429a      	cmp	r2, r3
 800210e:	d8f7      	bhi.n	8002100 <HAL_Delay+0x28>
  {
  }
}
 8002110:	bf00      	nop
 8002112:	bf00      	nop
 8002114:	3710      	adds	r7, #16
 8002116:	46bd      	mov	sp, r7
 8002118:	bd80      	pop	{r7, pc}
 800211a:	bf00      	nop
 800211c:	20000010 	.word	0x20000010

08002120 <HAL_ADC_Init>:
  * @param  hadc pointer to a ADC_HandleTypeDef structure that contains
  *         the configuration information for the specified ADC.
  * @retval HAL status
  */
HAL_StatusTypeDef HAL_ADC_Init(ADC_HandleTypeDef *hadc)
{
 8002120:	b580      	push	{r7, lr}
 8002122:	b084      	sub	sp, #16
 8002124:	af00      	add	r7, sp, #0
 8002126:	6078      	str	r0, [r7, #4]
  HAL_StatusTypeDef tmp_hal_status = HAL_OK;
 8002128:	2300      	movs	r3, #0
 800212a:	73fb      	strb	r3, [r7, #15]

  /* Check ADC handle */
  if (hadc == NULL)
 800212c:	687b      	ldr	r3, [r7, #4]
 800212e:	2b00      	cmp	r3, #0
 8002130:	d101      	bne.n	8002136 <HAL_ADC_Init+0x16>
  {
    return HAL_ERROR;
 8002132:	2301      	movs	r3, #1
 8002134:	e033      	b.n	800219e <HAL_ADC_Init+0x7e>
  if (hadc->Init.ExternalTrigConv != ADC_SOFTWARE_START)
  {
    assert_param(IS_ADC_EXT_TRIG_EDGE(hadc->Init.ExternalTrigConvEdge));
  }

  if (hadc->State == HAL_ADC_STATE_RESET)
 8002136:	687b      	ldr	r3, [r7, #4]
 8002138:	6c1b      	ldr	r3, [r3, #64]	; 0x40
 800213a:	2b00      	cmp	r3, #0
 800213c:	d109      	bne.n	8002152 <HAL_ADC_Init+0x32>

    /* Init the low level hardware */
    hadc->MspInitCallback(hadc);
#else
    /* Init the low level hardware */
    HAL_ADC_MspInit(hadc);
 800213e:	6878      	ldr	r0, [r7, #4]
 8002140:	f7ff fdac 	bl	8001c9c <HAL_ADC_MspInit>
#endif /* USE_HAL_ADC_REGISTER_CALLBACKS */

    /* Initialize ADC error code */
    ADC_CLEAR_ERRORCODE(hadc);
 8002144:	687b      	ldr	r3, [r7, #4]
 8002146:	2200      	movs	r2, #0
 8002148:	645a      	str	r2, [r3, #68]	; 0x44

    /* Allocate lock resource and initialize it */
    hadc->Lock = HAL_UNLOCKED;
 800214a:	687b      	ldr	r3, [r7, #4]
 800214c:	2200      	movs	r2, #0
 800214e:	f883 203c 	strb.w	r2, [r3, #60]	; 0x3c
  }

  /* Configuration of ADC parameters if previous preliminary actions are      */
  /* correctly completed.                                                     */
  if (HAL_IS_BIT_CLR(hadc->State, HAL_ADC_STATE_ERROR_INTERNAL))
 8002152:	687b      	ldr	r3, [r7, #4]
 8002154:	6c1b      	ldr	r3, [r3, #64]	; 0x40
 8002156:	f003 0310 	and.w	r3, r3, #16
 800215a:	2b00      	cmp	r3, #0
 800215c:	d118      	bne.n	8002190 <HAL_ADC_Init+0x70>
  {
    /* Set ADC state */
    ADC_STATE_CLR_SET(hadc->State,
 800215e:	687b      	ldr	r3, [r7, #4]
 8002160:	6c1b      	ldr	r3, [r3, #64]	; 0x40
 8002162:	f423 5388 	bic.w	r3, r3, #4352	; 0x1100
 8002166:	f023 0302 	bic.w	r3, r3, #2
 800216a:	f043 0202 	orr.w	r2, r3, #2
 800216e:	687b      	ldr	r3, [r7, #4]
 8002170:	641a      	str	r2, [r3, #64]	; 0x40
                      HAL_ADC_STATE_REG_BUSY | HAL_ADC_STATE_INJ_BUSY,
                      HAL_ADC_STATE_BUSY_INTERNAL);

    /* Set ADC parameters */
    ADC_Init(hadc);
 8002172:	6878      	ldr	r0, [r7, #4]
 8002174:	f000 fb4a 	bl	800280c <ADC_Init>

    /* Set ADC error code to none */
    ADC_CLEAR_ERRORCODE(hadc);
 8002178:	687b      	ldr	r3, [r7, #4]
 800217a:	2200      	movs	r2, #0
 800217c:	645a      	str	r2, [r3, #68]	; 0x44

    /* Set the ADC state */
    ADC_STATE_CLR_SET(hadc->State,
 800217e:	687b      	ldr	r3, [r7, #4]
 8002180:	6c1b      	ldr	r3, [r3, #64]	; 0x40
 8002182:	f023 0303 	bic.w	r3, r3, #3
 8002186:	f043 0201 	orr.w	r2, r3, #1
 800218a:	687b      	ldr	r3, [r7, #4]
 800218c:	641a      	str	r2, [r3, #64]	; 0x40
 800218e:	e001      	b.n	8002194 <HAL_ADC_Init+0x74>
                      HAL_ADC_STATE_BUSY_INTERNAL,
                      HAL_ADC_STATE_READY);
  }
  else
  {
    tmp_hal_status = HAL_ERROR;
 8002190:	2301      	movs	r3, #1
 8002192:	73fb      	strb	r3, [r7, #15]
  }

  /* Release Lock */
  __HAL_UNLOCK(hadc);
 8002194:	687b      	ldr	r3, [r7, #4]
 8002196:	2200      	movs	r2, #0
 8002198:	f883 203c 	strb.w	r2, [r3, #60]	; 0x3c

  /* Return function status */
  return tmp_hal_status;
 800219c:	7bfb      	ldrb	r3, [r7, #15]
}
 800219e:	4618      	mov	r0, r3
 80021a0:	3710      	adds	r7, #16
 80021a2:	46bd      	mov	sp, r7
 80021a4:	bd80      	pop	{r7, pc}
	...

080021a8 <HAL_ADC_Start_IT>:
  * @param  hadc pointer to a ADC_HandleTypeDef structure that contains
  *         the configuration information for the specified ADC.
  * @retval HAL status.
  */
HAL_StatusTypeDef HAL_ADC_Start_IT(ADC_HandleTypeDef *hadc)
{
 80021a8:	b480      	push	{r7}
 80021aa:	b085      	sub	sp, #20
 80021ac:	af00      	add	r7, sp, #0
 80021ae:	6078      	str	r0, [r7, #4]
  __IO uint32_t counter = 0U;
 80021b0:	2300      	movs	r3, #0
 80021b2:	60bb      	str	r3, [r7, #8]
  /* Check the parameters */
  assert_param(IS_FUNCTIONAL_STATE(hadc->Init.ContinuousConvMode));
  assert_param(IS_ADC_EXT_TRIG_EDGE(hadc->Init.ExternalTrigConvEdge));

  /* Process locked */
  __HAL_LOCK(hadc);
 80021b4:	687b      	ldr	r3, [r7, #4]
 80021b6:	f893 303c 	ldrb.w	r3, [r3, #60]	; 0x3c
 80021ba:	2b01      	cmp	r3, #1
 80021bc:	d101      	bne.n	80021c2 <HAL_ADC_Start_IT+0x1a>
 80021be:	2302      	movs	r3, #2
 80021c0:	e0bd      	b.n	800233e <HAL_ADC_Start_IT+0x196>
 80021c2:	687b      	ldr	r3, [r7, #4]
 80021c4:	2201      	movs	r2, #1
 80021c6:	f883 203c 	strb.w	r2, [r3, #60]	; 0x3c

  /* Enable the ADC peripheral */
  /* Check if ADC peripheral is disabled in order to enable it and wait during
  Tstab time the ADC's stabilization */
  if ((hadc->Instance->CR2 & ADC_CR2_ADON) != ADC_CR2_ADON)
 80021ca:	687b      	ldr	r3, [r7, #4]
 80021cc:	681b      	ldr	r3, [r3, #0]
 80021ce:	689b      	ldr	r3, [r3, #8]
 80021d0:	f003 0301 	and.w	r3, r3, #1
 80021d4:	2b01      	cmp	r3, #1
 80021d6:	d018      	beq.n	800220a <HAL_ADC_Start_IT+0x62>
  {
    /* Enable the Peripheral */
    __HAL_ADC_ENABLE(hadc);
 80021d8:	687b      	ldr	r3, [r7, #4]
 80021da:	681b      	ldr	r3, [r3, #0]
 80021dc:	689a      	ldr	r2, [r3, #8]
 80021de:	687b      	ldr	r3, [r7, #4]
 80021e0:	681b      	ldr	r3, [r3, #0]
 80021e2:	f042 0201 	orr.w	r2, r2, #1
 80021e6:	609a      	str	r2, [r3, #8]

    /* Delay for ADC stabilization time */
    /* Compute number of CPU cycles to wait for */
    counter = (ADC_STAB_DELAY_US * (SystemCoreClock / 1000000U));
 80021e8:	4b58      	ldr	r3, [pc, #352]	; (800234c <HAL_ADC_Start_IT+0x1a4>)
 80021ea:	681b      	ldr	r3, [r3, #0]
 80021ec:	4a58      	ldr	r2, [pc, #352]	; (8002350 <HAL_ADC_Start_IT+0x1a8>)
 80021ee:	fba2 2303 	umull	r2, r3, r2, r3
 80021f2:	0c9a      	lsrs	r2, r3, #18
 80021f4:	4613      	mov	r3, r2
 80021f6:	005b      	lsls	r3, r3, #1
 80021f8:	4413      	add	r3, r2
 80021fa:	60bb      	str	r3, [r7, #8]
    while (counter != 0U)
 80021fc:	e002      	b.n	8002204 <HAL_ADC_Start_IT+0x5c>
    {
      counter--;
 80021fe:	68bb      	ldr	r3, [r7, #8]
 8002200:	3b01      	subs	r3, #1
 8002202:	60bb      	str	r3, [r7, #8]
    while (counter != 0U)
 8002204:	68bb      	ldr	r3, [r7, #8]
 8002206:	2b00      	cmp	r3, #0
 8002208:	d1f9      	bne.n	80021fe <HAL_ADC_Start_IT+0x56>
    }
  }

  /* Start conversion if ADC is effectively enabled */
  if (HAL_IS_BIT_SET(hadc->Instance->CR2, ADC_CR2_ADON))
 800220a:	687b      	ldr	r3, [r7, #4]
 800220c:	681b      	ldr	r3, [r3, #0]
 800220e:	689b      	ldr	r3, [r3, #8]
 8002210:	f003 0301 	and.w	r3, r3, #1
 8002214:	2b01      	cmp	r3, #1
 8002216:	f040 8085 	bne.w	8002324 <HAL_ADC_Start_IT+0x17c>
  {
    /* Set ADC state                                                          */
    /* - Clear state bitfield related to regular group conversion results     */
    /* - Set state bitfield related to regular group operation                */
    ADC_STATE_CLR_SET(hadc->State,
 800221a:	687b      	ldr	r3, [r7, #4]
 800221c:	6c1b      	ldr	r3, [r3, #64]	; 0x40
 800221e:	f423 63e0 	bic.w	r3, r3, #1792	; 0x700
 8002222:	f023 0301 	bic.w	r3, r3, #1
 8002226:	f443 7280 	orr.w	r2, r3, #256	; 0x100
 800222a:	687b      	ldr	r3, [r7, #4]
 800222c:	641a      	str	r2, [r3, #64]	; 0x40
                      HAL_ADC_STATE_READY | HAL_ADC_STATE_REG_EOC | HAL_ADC_STATE_REG_OVR,
                      HAL_ADC_STATE_REG_BUSY);

    /* If conversions on group regular are also triggering group injected,    */
    /* update ADC state.                                                      */
    if (READ_BIT(hadc->Instance->CR1, ADC_CR1_JAUTO) != RESET)
 800222e:	687b      	ldr	r3, [r7, #4]
 8002230:	681b      	ldr	r3, [r3, #0]
 8002232:	685b      	ldr	r3, [r3, #4]
 8002234:	f403 6380 	and.w	r3, r3, #1024	; 0x400
 8002238:	2b00      	cmp	r3, #0
 800223a:	d007      	beq.n	800224c <HAL_ADC_Start_IT+0xa4>
    {
      ADC_STATE_CLR_SET(hadc->State, HAL_ADC_STATE_INJ_EOC, HAL_ADC_STATE_INJ_BUSY);
 800223c:	687b      	ldr	r3, [r7, #4]
 800223e:	6c1b      	ldr	r3, [r3, #64]	; 0x40
 8002240:	f423 5340 	bic.w	r3, r3, #12288	; 0x3000
 8002244:	f443 5280 	orr.w	r2, r3, #4096	; 0x1000
 8002248:	687b      	ldr	r3, [r7, #4]
 800224a:	641a      	str	r2, [r3, #64]	; 0x40
    }

    /* State machine update: Check if an injected conversion is ongoing */
    if (HAL_IS_BIT_SET(hadc->State, HAL_ADC_STATE_INJ_BUSY))
 800224c:	687b      	ldr	r3, [r7, #4]
 800224e:	6c1b      	ldr	r3, [r3, #64]	; 0x40
 8002250:	f403 5380 	and.w	r3, r3, #4096	; 0x1000
 8002254:	f5b3 5f80 	cmp.w	r3, #4096	; 0x1000
 8002258:	d106      	bne.n	8002268 <HAL_ADC_Start_IT+0xc0>
    {
      /* Reset ADC error code fields related to conversions on group regular */
      CLEAR_BIT(hadc->ErrorCode, (HAL_ADC_ERROR_OVR | HAL_ADC_ERROR_DMA));
 800225a:	687b      	ldr	r3, [r7, #4]
 800225c:	6c5b      	ldr	r3, [r3, #68]	; 0x44
 800225e:	f023 0206 	bic.w	r2, r3, #6
 8002262:	687b      	ldr	r3, [r7, #4]
 8002264:	645a      	str	r2, [r3, #68]	; 0x44
 8002266:	e002      	b.n	800226e <HAL_ADC_Start_IT+0xc6>
    }
    else
    {
      /* Reset ADC all error code fields */
      ADC_CLEAR_ERRORCODE(hadc);
 8002268:	687b      	ldr	r3, [r7, #4]
 800226a:	2200      	movs	r2, #0
 800226c:	645a      	str	r2, [r3, #68]	; 0x44
    }

    /* Process unlocked */
    /* Unlock before starting ADC conversions: in case of potential           */
    /* interruption, to let the process to ADC IRQ Handler.                   */
    __HAL_UNLOCK(hadc);
 800226e:	687b      	ldr	r3, [r7, #4]
 8002270:	2200      	movs	r2, #0
 8002272:	f883 203c 	strb.w	r2, [r3, #60]	; 0x3c

    /* Pointer to the common control register to which is belonging hadc    */
    /* (Depending on STM32F4 product, there may be up to 3 ADCs and 1 common */
    /* control register)                                                    */
    tmpADC_Common = ADC_COMMON_REGISTER(hadc);
 8002276:	4b37      	ldr	r3, [pc, #220]	; (8002354 <HAL_ADC_Start_IT+0x1ac>)
 8002278:	60fb      	str	r3, [r7, #12]

    /* Clear regular group conversion flag and overrun flag */
    /* (To ensure of no unknown state from potential previous ADC operations) */
    __HAL_ADC_CLEAR_FLAG(hadc, ADC_FLAG_EOC | ADC_FLAG_OVR);
 800227a:	687b      	ldr	r3, [r7, #4]
 800227c:	681b      	ldr	r3, [r3, #0]
 800227e:	f06f 0222 	mvn.w	r2, #34	; 0x22
 8002282:	601a      	str	r2, [r3, #0]

    /* Enable end of conversion interrupt for regular group */
    __HAL_ADC_ENABLE_IT(hadc, (ADC_IT_EOC | ADC_IT_OVR));
 8002284:	687b      	ldr	r3, [r7, #4]
 8002286:	681b      	ldr	r3, [r3, #0]
 8002288:	685b      	ldr	r3, [r3, #4]
 800228a:	687a      	ldr	r2, [r7, #4]
 800228c:	6812      	ldr	r2, [r2, #0]
 800228e:	f043 6380 	orr.w	r3, r3, #67108864	; 0x4000000
 8002292:	f043 0320 	orr.w	r3, r3, #32
 8002296:	6053      	str	r3, [r2, #4]

    /* Check if Multimode enabled */
    if (HAL_IS_BIT_CLR(tmpADC_Common->CCR, ADC_CCR_MULTI))
 8002298:	68fb      	ldr	r3, [r7, #12]
 800229a:	685b      	ldr	r3, [r3, #4]
 800229c:	f003 031f 	and.w	r3, r3, #31
 80022a0:	2b00      	cmp	r3, #0
 80022a2:	d12a      	bne.n	80022fa <HAL_ADC_Start_IT+0x152>
    {
#if defined(ADC2) && defined(ADC3)
      if ((hadc->Instance == ADC1) || ((hadc->Instance == ADC2) && ((ADC->CCR & ADC_CCR_MULTI_Msk) < ADC_CCR_MULTI_0)) \
 80022a4:	687b      	ldr	r3, [r7, #4]
 80022a6:	681b      	ldr	r3, [r3, #0]
 80022a8:	4a2b      	ldr	r2, [pc, #172]	; (8002358 <HAL_ADC_Start_IT+0x1b0>)
 80022aa:	4293      	cmp	r3, r2
 80022ac:	d015      	beq.n	80022da <HAL_ADC_Start_IT+0x132>
 80022ae:	687b      	ldr	r3, [r7, #4]
 80022b0:	681b      	ldr	r3, [r3, #0]
 80022b2:	4a2a      	ldr	r2, [pc, #168]	; (800235c <HAL_ADC_Start_IT+0x1b4>)
 80022b4:	4293      	cmp	r3, r2
 80022b6:	d105      	bne.n	80022c4 <HAL_ADC_Start_IT+0x11c>
 80022b8:	4b26      	ldr	r3, [pc, #152]	; (8002354 <HAL_ADC_Start_IT+0x1ac>)
 80022ba:	685b      	ldr	r3, [r3, #4]
 80022bc:	f003 031f 	and.w	r3, r3, #31
 80022c0:	2b00      	cmp	r3, #0
 80022c2:	d00a      	beq.n	80022da <HAL_ADC_Start_IT+0x132>
          || ((hadc->Instance == ADC3) && ((ADC->CCR & ADC_CCR_MULTI_Msk) < ADC_CCR_MULTI_4)))
 80022c4:	687b      	ldr	r3, [r7, #4]
 80022c6:	681b      	ldr	r3, [r3, #0]
 80022c8:	4a25      	ldr	r2, [pc, #148]	; (8002360 <HAL_ADC_Start_IT+0x1b8>)
 80022ca:	4293      	cmp	r3, r2
 80022cc:	d136      	bne.n	800233c <HAL_ADC_Start_IT+0x194>
 80022ce:	4b21      	ldr	r3, [pc, #132]	; (8002354 <HAL_ADC_Start_IT+0x1ac>)
 80022d0:	685b      	ldr	r3, [r3, #4]
 80022d2:	f003 0310 	and.w	r3, r3, #16
 80022d6:	2b00      	cmp	r3, #0
 80022d8:	d130      	bne.n	800233c <HAL_ADC_Start_IT+0x194>
      {
#endif /* ADC2 || ADC3 */
        /* if no external trigger present enable software conversion of regular channels */
        if ((hadc->Instance->CR2 & ADC_CR2_EXTEN) == RESET)
 80022da:	687b      	ldr	r3, [r7, #4]
 80022dc:	681b      	ldr	r3, [r3, #0]
 80022de:	689b      	ldr	r3, [r3, #8]
 80022e0:	f003 5340 	and.w	r3, r3, #805306368	; 0x30000000
 80022e4:	2b00      	cmp	r3, #0
 80022e6:	d129      	bne.n	800233c <HAL_ADC_Start_IT+0x194>
        {
          /* Enable the selected ADC software conversion for regular group */
          hadc->Instance->CR2 |= (uint32_t)ADC_CR2_SWSTART;
 80022e8:	687b      	ldr	r3, [r7, #4]
 80022ea:	681b      	ldr	r3, [r3, #0]
 80022ec:	689a      	ldr	r2, [r3, #8]
 80022ee:	687b      	ldr	r3, [r7, #4]
 80022f0:	681b      	ldr	r3, [r3, #0]
 80022f2:	f042 4280 	orr.w	r2, r2, #1073741824	; 0x40000000
 80022f6:	609a      	str	r2, [r3, #8]
 80022f8:	e020      	b.n	800233c <HAL_ADC_Start_IT+0x194>
#endif /* ADC2 || ADC3 */
    }
    else
    {
      /* if instance of handle correspond to ADC1 and  no external trigger present enable software conversion of regular channels */
      if ((hadc->Instance == ADC1) && ((hadc->Instance->CR2 & ADC_CR2_EXTEN) == RESET))
 80022fa:	687b      	ldr	r3, [r7, #4]
 80022fc:	681b      	ldr	r3, [r3, #0]
 80022fe:	4a16      	ldr	r2, [pc, #88]	; (8002358 <HAL_ADC_Start_IT+0x1b0>)
 8002300:	4293      	cmp	r3, r2
 8002302:	d11b      	bne.n	800233c <HAL_ADC_Start_IT+0x194>
 8002304:	687b      	ldr	r3, [r7, #4]
 8002306:	681b      	ldr	r3, [r3, #0]
 8002308:	689b      	ldr	r3, [r3, #8]
 800230a:	f003 5340 	and.w	r3, r3, #805306368	; 0x30000000
 800230e:	2b00      	cmp	r3, #0
 8002310:	d114      	bne.n	800233c <HAL_ADC_Start_IT+0x194>
      {
        /* Enable the selected ADC software conversion for regular group */
        hadc->Instance->CR2 |= (uint32_t)ADC_CR2_SWSTART;
 8002312:	687b      	ldr	r3, [r7, #4]
 8002314:	681b      	ldr	r3, [r3, #0]
 8002316:	689a      	ldr	r2, [r3, #8]
 8002318:	687b      	ldr	r3, [r7, #4]
 800231a:	681b      	ldr	r3, [r3, #0]
 800231c:	f042 4280 	orr.w	r2, r2, #1073741824	; 0x40000000
 8002320:	609a      	str	r2, [r3, #8]
 8002322:	e00b      	b.n	800233c <HAL_ADC_Start_IT+0x194>
    }
  }
  else
  {
    /* Update ADC state machine to error */
    SET_BIT(hadc->State, HAL_ADC_STATE_ERROR_INTERNAL);
 8002324:	687b      	ldr	r3, [r7, #4]
 8002326:	6c1b      	ldr	r3, [r3, #64]	; 0x40
 8002328:	f043 0210 	orr.w	r2, r3, #16
 800232c:	687b      	ldr	r3, [r7, #4]
 800232e:	641a      	str	r2, [r3, #64]	; 0x40

    /* Set ADC error code to ADC IP internal error */
    SET_BIT(hadc->ErrorCode, HAL_ADC_ERROR_INTERNAL);
 8002330:	687b      	ldr	r3, [r7, #4]
 8002332:	6c5b      	ldr	r3, [r3, #68]	; 0x44
 8002334:	f043 0201 	orr.w	r2, r3, #1
 8002338:	687b      	ldr	r3, [r7, #4]
 800233a:	645a      	str	r2, [r3, #68]	; 0x44
  }

  /* Return function status */
  return HAL_OK;
 800233c:	2300      	movs	r3, #0
}
 800233e:	4618      	mov	r0, r3
 8002340:	3714      	adds	r7, #20
 8002342:	46bd      	mov	sp, r7
 8002344:	f85d 7b04 	ldr.w	r7, [sp], #4
 8002348:	4770      	bx	lr
 800234a:	bf00      	nop
 800234c:	20000008 	.word	0x20000008
 8002350:	431bde83 	.word	0x431bde83
 8002354:	40012300 	.word	0x40012300
 8002358:	40012000 	.word	0x40012000
 800235c:	40012100 	.word	0x40012100
 8002360:	40012200 	.word	0x40012200

08002364 <HAL_ADC_IRQHandler>:
  * @param  hadc pointer to a ADC_HandleTypeDef structure that contains
  *         the configuration information for the specified ADC.
  * @retval None
  */
void HAL_ADC_IRQHandler(ADC_HandleTypeDef *hadc)
{
 8002364:	b580      	push	{r7, lr}
 8002366:	b086      	sub	sp, #24
 8002368:	af00      	add	r7, sp, #0
 800236a:	6078      	str	r0, [r7, #4]
  uint32_t tmp1 = 0U, tmp2 = 0U;
 800236c:	2300      	movs	r3, #0
 800236e:	617b      	str	r3, [r7, #20]
 8002370:	2300      	movs	r3, #0
 8002372:	613b      	str	r3, [r7, #16]

  uint32_t tmp_sr = hadc->Instance->SR;
 8002374:	687b      	ldr	r3, [r7, #4]
 8002376:	681b      	ldr	r3, [r3, #0]
 8002378:	681b      	ldr	r3, [r3, #0]
 800237a:	60fb      	str	r3, [r7, #12]
  uint32_t tmp_cr1 = hadc->Instance->CR1;
 800237c:	687b      	ldr	r3, [r7, #4]
 800237e:	681b      	ldr	r3, [r3, #0]
 8002380:	685b      	ldr	r3, [r3, #4]
 8002382:	60bb      	str	r3, [r7, #8]
  /* Check the parameters */
  assert_param(IS_FUNCTIONAL_STATE(hadc->Init.ContinuousConvMode));
  assert_param(IS_ADC_REGULAR_LENGTH(hadc->Init.NbrOfConversion));
  assert_param(IS_ADC_EOCSelection(hadc->Init.EOCSelection));

  tmp1 = tmp_sr & ADC_FLAG_EOC;
 8002384:	68fb      	ldr	r3, [r7, #12]
 8002386:	f003 0302 	and.w	r3, r3, #2
 800238a:	617b      	str	r3, [r7, #20]
  tmp2 = tmp_cr1 & ADC_IT_EOC;
 800238c:	68bb      	ldr	r3, [r7, #8]
 800238e:	f003 0320 	and.w	r3, r3, #32
 8002392:	613b      	str	r3, [r7, #16]
  /* Check End of conversion flag for regular channels */
  if (tmp1 && tmp2)
 8002394:	697b      	ldr	r3, [r7, #20]
 8002396:	2b00      	cmp	r3, #0
 8002398:	d049      	beq.n	800242e <HAL_ADC_IRQHandler+0xca>
 800239a:	693b      	ldr	r3, [r7, #16]
 800239c:	2b00      	cmp	r3, #0
 800239e:	d046      	beq.n	800242e <HAL_ADC_IRQHandler+0xca>
  {
    /* Update state machine on conversion status if not in error state */
    if (HAL_IS_BIT_CLR(hadc->State, HAL_ADC_STATE_ERROR_INTERNAL))
 80023a0:	687b      	ldr	r3, [r7, #4]
 80023a2:	6c1b      	ldr	r3, [r3, #64]	; 0x40
 80023a4:	f003 0310 	and.w	r3, r3, #16
 80023a8:	2b00      	cmp	r3, #0
 80023aa:	d105      	bne.n	80023b8 <HAL_ADC_IRQHandler+0x54>
    {
      /* Set ADC state */
      SET_BIT(hadc->State, HAL_ADC_STATE_REG_EOC);
 80023ac:	687b      	ldr	r3, [r7, #4]
 80023ae:	6c1b      	ldr	r3, [r3, #64]	; 0x40
 80023b0:	f443 7200 	orr.w	r2, r3, #512	; 0x200
 80023b4:	687b      	ldr	r3, [r7, #4]
 80023b6:	641a      	str	r2, [r3, #64]	; 0x40
    /* by external trigger, continuous mode or scan sequence on going.      */
    /* Note: On STM32F4, there is no independent flag of end of sequence.   */
    /*       The test of scan sequence on going is done either with scan    */
    /*       sequence disabled or with end of conversion flag set to        */
    /*       of end of sequence.                                            */
    if (ADC_IS_SOFTWARE_START_REGULAR(hadc)                   &&
 80023b8:	687b      	ldr	r3, [r7, #4]
 80023ba:	681b      	ldr	r3, [r3, #0]
 80023bc:	689b      	ldr	r3, [r3, #8]
 80023be:	f003 5340 	and.w	r3, r3, #805306368	; 0x30000000
 80023c2:	2b00      	cmp	r3, #0
 80023c4:	d12b      	bne.n	800241e <HAL_ADC_IRQHandler+0xba>
        (hadc->Init.ContinuousConvMode == DISABLE)            &&
 80023c6:	687b      	ldr	r3, [r7, #4]
 80023c8:	7e1b      	ldrb	r3, [r3, #24]
    if (ADC_IS_SOFTWARE_START_REGULAR(hadc)                   &&
 80023ca:	2b00      	cmp	r3, #0
 80023cc:	d127      	bne.n	800241e <HAL_ADC_IRQHandler+0xba>
        (HAL_IS_BIT_CLR(hadc->Instance->SQR1, ADC_SQR1_L) ||
 80023ce:	687b      	ldr	r3, [r7, #4]
 80023d0:	681b      	ldr	r3, [r3, #0]
 80023d2:	6adb      	ldr	r3, [r3, #44]	; 0x2c
 80023d4:	f403 0370 	and.w	r3, r3, #15728640	; 0xf00000
        (hadc->Init.ContinuousConvMode == DISABLE)            &&
 80023d8:	2b00      	cmp	r3, #0
 80023da:	d006      	beq.n	80023ea <HAL_ADC_IRQHandler+0x86>
         HAL_IS_BIT_CLR(hadc->Instance->CR2, ADC_CR2_EOCS)))
 80023dc:	687b      	ldr	r3, [r7, #4]
 80023de:	681b      	ldr	r3, [r3, #0]
 80023e0:	689b      	ldr	r3, [r3, #8]
 80023e2:	f403 6380 	and.w	r3, r3, #1024	; 0x400
        (HAL_IS_BIT_CLR(hadc->Instance->SQR1, ADC_SQR1_L) ||
 80023e6:	2b00      	cmp	r3, #0
 80023e8:	d119      	bne.n	800241e <HAL_ADC_IRQHandler+0xba>
    {
      /* Disable ADC end of single conversion interrupt on group regular */
      /* Note: Overrun interrupt was enabled with EOC interrupt in          */
      /* HAL_ADC_Start_IT(), but is not disabled here because can be used   */
      /* by overrun IRQ process below.                                      */
      __HAL_ADC_DISABLE_IT(hadc, ADC_IT_EOC);
 80023ea:	687b      	ldr	r3, [r7, #4]
 80023ec:	681b      	ldr	r3, [r3, #0]
 80023ee:	685a      	ldr	r2, [r3, #4]
 80023f0:	687b      	ldr	r3, [r7, #4]
 80023f2:	681b      	ldr	r3, [r3, #0]
 80023f4:	f022 0220 	bic.w	r2, r2, #32
 80023f8:	605a      	str	r2, [r3, #4]

      /* Set ADC state */
      CLEAR_BIT(hadc->State, HAL_ADC_STATE_REG_BUSY);
 80023fa:	687b      	ldr	r3, [r7, #4]
 80023fc:	6c1b      	ldr	r3, [r3, #64]	; 0x40
 80023fe:	f423 7280 	bic.w	r2, r3, #256	; 0x100
 8002402:	687b      	ldr	r3, [r7, #4]
 8002404:	641a      	str	r2, [r3, #64]	; 0x40

      if (HAL_IS_BIT_CLR(hadc->State, HAL_ADC_STATE_INJ_BUSY))
 8002406:	687b      	ldr	r3, [r7, #4]
 8002408:	6c1b      	ldr	r3, [r3, #64]	; 0x40
 800240a:	f403 5380 	and.w	r3, r3, #4096	; 0x1000
 800240e:	2b00      	cmp	r3, #0
 8002410:	d105      	bne.n	800241e <HAL_ADC_IRQHandler+0xba>
      {
        SET_BIT(hadc->State, HAL_ADC_STATE_READY);
 8002412:	687b      	ldr	r3, [r7, #4]
 8002414:	6c1b      	ldr	r3, [r3, #64]	; 0x40
 8002416:	f043 0201 	orr.w	r2, r3, #1
 800241a:	687b      	ldr	r3, [r7, #4]
 800241c:	641a      	str	r2, [r3, #64]	; 0x40

    /* Conversion complete callback */
#if (USE_HAL_ADC_REGISTER_CALLBACKS == 1)
    hadc->ConvCpltCallback(hadc);
#else
    HAL_ADC_ConvCpltCallback(hadc);
 800241e:	6878      	ldr	r0, [r7, #4]
 8002420:	f7ff fa5a 	bl	80018d8 <HAL_ADC_ConvCpltCallback>
#endif /* USE_HAL_ADC_REGISTER_CALLBACKS */

    /* Clear regular group conversion flag */
    __HAL_ADC_CLEAR_FLAG(hadc, ADC_FLAG_STRT | ADC_FLAG_EOC);
 8002424:	687b      	ldr	r3, [r7, #4]
 8002426:	681b      	ldr	r3, [r3, #0]
 8002428:	f06f 0212 	mvn.w	r2, #18
 800242c:	601a      	str	r2, [r3, #0]
  }

  tmp1 = tmp_sr & ADC_FLAG_JEOC;
 800242e:	68fb      	ldr	r3, [r7, #12]
 8002430:	f003 0304 	and.w	r3, r3, #4
 8002434:	617b      	str	r3, [r7, #20]
  tmp2 = tmp_cr1 & ADC_IT_JEOC;
 8002436:	68bb      	ldr	r3, [r7, #8]
 8002438:	f003 0380 	and.w	r3, r3, #128	; 0x80
 800243c:	613b      	str	r3, [r7, #16]
  /* Check End of conversion flag for injected channels */
  if (tmp1 && tmp2)
 800243e:	697b      	ldr	r3, [r7, #20]
 8002440:	2b00      	cmp	r3, #0
 8002442:	d057      	beq.n	80024f4 <HAL_ADC_IRQHandler+0x190>
 8002444:	693b      	ldr	r3, [r7, #16]
 8002446:	2b00      	cmp	r3, #0
 8002448:	d054      	beq.n	80024f4 <HAL_ADC_IRQHandler+0x190>
  {
    /* Update state machine on conversion status if not in error state */
    if (HAL_IS_BIT_CLR(hadc->State, HAL_ADC_STATE_ERROR_INTERNAL))
 800244a:	687b      	ldr	r3, [r7, #4]
 800244c:	6c1b      	ldr	r3, [r3, #64]	; 0x40
 800244e:	f003 0310 	and.w	r3, r3, #16
 8002452:	2b00      	cmp	r3, #0
 8002454:	d105      	bne.n	8002462 <HAL_ADC_IRQHandler+0xfe>
    {
      /* Set ADC state */
      SET_BIT(hadc->State, HAL_ADC_STATE_INJ_EOC);
 8002456:	687b      	ldr	r3, [r7, #4]
 8002458:	6c1b      	ldr	r3, [r3, #64]	; 0x40
 800245a:	f443 5200 	orr.w	r2, r3, #8192	; 0x2000
 800245e:	687b      	ldr	r3, [r7, #4]
 8002460:	641a      	str	r2, [r3, #64]	; 0x40

    /* Determine whether any further conversion upcoming on group injected  */
    /* by external trigger, scan sequence on going or by automatic injected */
    /* conversion from group regular (same conditions as group regular      */
    /* interruption disabling above).                                       */
    if (ADC_IS_SOFTWARE_START_INJECTED(hadc)                    &&
 8002462:	687b      	ldr	r3, [r7, #4]
 8002464:	681b      	ldr	r3, [r3, #0]
 8002466:	689b      	ldr	r3, [r3, #8]
 8002468:	f403 1340 	and.w	r3, r3, #3145728	; 0x300000
 800246c:	2b00      	cmp	r3, #0
 800246e:	d139      	bne.n	80024e4 <HAL_ADC_IRQHandler+0x180>
        (HAL_IS_BIT_CLR(hadc->Instance->JSQR, ADC_JSQR_JL)  ||
 8002470:	687b      	ldr	r3, [r7, #4]
 8002472:	681b      	ldr	r3, [r3, #0]
 8002474:	6b9b      	ldr	r3, [r3, #56]	; 0x38
 8002476:	f403 1340 	and.w	r3, r3, #3145728	; 0x300000
    if (ADC_IS_SOFTWARE_START_INJECTED(hadc)                    &&
 800247a:	2b00      	cmp	r3, #0
 800247c:	d006      	beq.n	800248c <HAL_ADC_IRQHandler+0x128>
         HAL_IS_BIT_CLR(hadc->Instance->CR2, ADC_CR2_EOCS)) &&
 800247e:	687b      	ldr	r3, [r7, #4]
 8002480:	681b      	ldr	r3, [r3, #0]
 8002482:	689b      	ldr	r3, [r3, #8]
 8002484:	f403 6380 	and.w	r3, r3, #1024	; 0x400
        (HAL_IS_BIT_CLR(hadc->Instance->JSQR, ADC_JSQR_JL)  ||
 8002488:	2b00      	cmp	r3, #0
 800248a:	d12b      	bne.n	80024e4 <HAL_ADC_IRQHandler+0x180>
        (HAL_IS_BIT_CLR(hadc->Instance->CR1, ADC_CR1_JAUTO) &&
 800248c:	687b      	ldr	r3, [r7, #4]
 800248e:	681b      	ldr	r3, [r3, #0]
 8002490:	685b      	ldr	r3, [r3, #4]
 8002492:	f403 6380 	and.w	r3, r3, #1024	; 0x400
         HAL_IS_BIT_CLR(hadc->Instance->CR2, ADC_CR2_EOCS)) &&
 8002496:	2b00      	cmp	r3, #0
 8002498:	d124      	bne.n	80024e4 <HAL_ADC_IRQHandler+0x180>
         (ADC_IS_SOFTWARE_START_REGULAR(hadc)       &&
 800249a:	687b      	ldr	r3, [r7, #4]
 800249c:	681b      	ldr	r3, [r3, #0]
 800249e:	689b      	ldr	r3, [r3, #8]
 80024a0:	f003 5340 	and.w	r3, r3, #805306368	; 0x30000000
        (HAL_IS_BIT_CLR(hadc->Instance->CR1, ADC_CR1_JAUTO) &&
 80024a4:	2b00      	cmp	r3, #0
 80024a6:	d11d      	bne.n	80024e4 <HAL_ADC_IRQHandler+0x180>
          (hadc->Init.ContinuousConvMode == DISABLE))))
 80024a8:	687b      	ldr	r3, [r7, #4]
 80024aa:	7e1b      	ldrb	r3, [r3, #24]
         (ADC_IS_SOFTWARE_START_REGULAR(hadc)       &&
 80024ac:	2b00      	cmp	r3, #0
 80024ae:	d119      	bne.n	80024e4 <HAL_ADC_IRQHandler+0x180>
    {
      /* Disable ADC end of single conversion interrupt on group injected */
      __HAL_ADC_DISABLE_IT(hadc, ADC_IT_JEOC);
 80024b0:	687b      	ldr	r3, [r7, #4]
 80024b2:	681b      	ldr	r3, [r3, #0]
 80024b4:	685a      	ldr	r2, [r3, #4]
 80024b6:	687b      	ldr	r3, [r7, #4]
 80024b8:	681b      	ldr	r3, [r3, #0]
 80024ba:	f022 0280 	bic.w	r2, r2, #128	; 0x80
 80024be:	605a      	str	r2, [r3, #4]

      /* Set ADC state */
      CLEAR_BIT(hadc->State, HAL_ADC_STATE_INJ_BUSY);
 80024c0:	687b      	ldr	r3, [r7, #4]
 80024c2:	6c1b      	ldr	r3, [r3, #64]	; 0x40
 80024c4:	f423 5280 	bic.w	r2, r3, #4096	; 0x1000
 80024c8:	687b      	ldr	r3, [r7, #4]
 80024ca:	641a      	str	r2, [r3, #64]	; 0x40

      if (HAL_IS_BIT_CLR(hadc->State, HAL_ADC_STATE_REG_BUSY))
 80024cc:	687b      	ldr	r3, [r7, #4]
 80024ce:	6c1b      	ldr	r3, [r3, #64]	; 0x40
 80024d0:	f403 7380 	and.w	r3, r3, #256	; 0x100
 80024d4:	2b00      	cmp	r3, #0
 80024d6:	d105      	bne.n	80024e4 <HAL_ADC_IRQHandler+0x180>
      {
        SET_BIT(hadc->State, HAL_ADC_STATE_READY);
 80024d8:	687b      	ldr	r3, [r7, #4]
 80024da:	6c1b      	ldr	r3, [r3, #64]	; 0x40
 80024dc:	f043 0201 	orr.w	r2, r3, #1
 80024e0:	687b      	ldr	r3, [r7, #4]
 80024e2:	641a      	str	r2, [r3, #64]	; 0x40
    /* Conversion complete callback */
    /* Conversion complete callback */
#if (USE_HAL_ADC_REGISTER_CALLBACKS == 1)
    hadc->InjectedConvCpltCallback(hadc);
#else
    HAL_ADCEx_InjectedConvCpltCallback(hadc);
 80024e4:	6878      	ldr	r0, [r7, #4]
 80024e6:	f000 fa8d 	bl	8002a04 <HAL_ADCEx_InjectedConvCpltCallback>
#endif /* USE_HAL_ADC_REGISTER_CALLBACKS */

    /* Clear injected group conversion flag */
    __HAL_ADC_CLEAR_FLAG(hadc, (ADC_FLAG_JSTRT | ADC_FLAG_JEOC));
 80024ea:	687b      	ldr	r3, [r7, #4]
 80024ec:	681b      	ldr	r3, [r3, #0]
 80024ee:	f06f 020c 	mvn.w	r2, #12
 80024f2:	601a      	str	r2, [r3, #0]
  }

  tmp1 = tmp_sr & ADC_FLAG_AWD;
 80024f4:	68fb      	ldr	r3, [r7, #12]
 80024f6:	f003 0301 	and.w	r3, r3, #1
 80024fa:	617b      	str	r3, [r7, #20]
  tmp2 = tmp_cr1 & ADC_IT_AWD;
 80024fc:	68bb      	ldr	r3, [r7, #8]
 80024fe:	f003 0340 	and.w	r3, r3, #64	; 0x40
 8002502:	613b      	str	r3, [r7, #16]
  /* Check Analog watchdog flag */
  if (tmp1 && tmp2)
 8002504:	697b      	ldr	r3, [r7, #20]
 8002506:	2b00      	cmp	r3, #0
 8002508:	d017      	beq.n	800253a <HAL_ADC_IRQHandler+0x1d6>
 800250a:	693b      	ldr	r3, [r7, #16]
 800250c:	2b00      	cmp	r3, #0
 800250e:	d014      	beq.n	800253a <HAL_ADC_IRQHandler+0x1d6>
  {
    if (__HAL_ADC_GET_FLAG(hadc, ADC_FLAG_AWD))
 8002510:	687b      	ldr	r3, [r7, #4]
 8002512:	681b      	ldr	r3, [r3, #0]
 8002514:	681b      	ldr	r3, [r3, #0]
 8002516:	f003 0301 	and.w	r3, r3, #1
 800251a:	2b01      	cmp	r3, #1
 800251c:	d10d      	bne.n	800253a <HAL_ADC_IRQHandler+0x1d6>
    {
      /* Set ADC state */
      SET_BIT(hadc->State, HAL_ADC_STATE_AWD1);
 800251e:	687b      	ldr	r3, [r7, #4]
 8002520:	6c1b      	ldr	r3, [r3, #64]	; 0x40
 8002522:	f443 3280 	orr.w	r2, r3, #65536	; 0x10000
 8002526:	687b      	ldr	r3, [r7, #4]
 8002528:	641a      	str	r2, [r3, #64]	; 0x40

      /* Level out of window callback */
#if (USE_HAL_ADC_REGISTER_CALLBACKS == 1)
      hadc->LevelOutOfWindowCallback(hadc);
#else
      HAL_ADC_LevelOutOfWindowCallback(hadc);
 800252a:	6878      	ldr	r0, [r7, #4]
 800252c:	f000 f837 	bl	800259e <HAL_ADC_LevelOutOfWindowCallback>
#endif /* USE_HAL_ADC_REGISTER_CALLBACKS */

      /* Clear the ADC analog watchdog flag */
      __HAL_ADC_CLEAR_FLAG(hadc, ADC_FLAG_AWD);
 8002530:	687b      	ldr	r3, [r7, #4]
 8002532:	681b      	ldr	r3, [r3, #0]
 8002534:	f06f 0201 	mvn.w	r2, #1
 8002538:	601a      	str	r2, [r3, #0]
    }
  }

  tmp1 = tmp_sr & ADC_FLAG_OVR;
 800253a:	68fb      	ldr	r3, [r7, #12]
 800253c:	f003 0320 	and.w	r3, r3, #32
 8002540:	617b      	str	r3, [r7, #20]
  tmp2 = tmp_cr1 & ADC_IT_OVR;
 8002542:	68bb      	ldr	r3, [r7, #8]
 8002544:	f003 6380 	and.w	r3, r3, #67108864	; 0x4000000
 8002548:	613b      	str	r3, [r7, #16]
  /* Check Overrun flag */
  if (tmp1 && tmp2)
 800254a:	697b      	ldr	r3, [r7, #20]
 800254c:	2b00      	cmp	r3, #0
 800254e:	d015      	beq.n	800257c <HAL_ADC_IRQHandler+0x218>
 8002550:	693b      	ldr	r3, [r7, #16]
 8002552:	2b00      	cmp	r3, #0
 8002554:	d012      	beq.n	800257c <HAL_ADC_IRQHandler+0x218>
    /* Note: On STM32F4, ADC overrun can be set through other parameters    */
    /*       refer to description of parameter "EOCSelection" for more      */
    /*       details.                                                       */

    /* Set ADC error code to overrun */
    SET_BIT(hadc->ErrorCode, HAL_ADC_ERROR_OVR);
 8002556:	687b      	ldr	r3, [r7, #4]
 8002558:	6c5b      	ldr	r3, [r3, #68]	; 0x44
 800255a:	f043 0202 	orr.w	r2, r3, #2
 800255e:	687b      	ldr	r3, [r7, #4]
 8002560:	645a      	str	r2, [r3, #68]	; 0x44

    /* Clear ADC overrun flag */
    __HAL_ADC_CLEAR_FLAG(hadc, ADC_FLAG_OVR);
 8002562:	687b      	ldr	r3, [r7, #4]
 8002564:	681b      	ldr	r3, [r3, #0]
 8002566:	f06f 0220 	mvn.w	r2, #32
 800256a:	601a      	str	r2, [r3, #0]

    /* Error callback */
#if (USE_HAL_ADC_REGISTER_CALLBACKS == 1)
    hadc->ErrorCallback(hadc);
#else
    HAL_ADC_ErrorCallback(hadc);
 800256c:	6878      	ldr	r0, [r7, #4]
 800256e:	f000 f820 	bl	80025b2 <HAL_ADC_ErrorCallback>
#endif /* USE_HAL_ADC_REGISTER_CALLBACKS */

    /* Clear the Overrun flag */
    __HAL_ADC_CLEAR_FLAG(hadc, ADC_FLAG_OVR);
 8002572:	687b      	ldr	r3, [r7, #4]
 8002574:	681b      	ldr	r3, [r3, #0]
 8002576:	f06f 0220 	mvn.w	r2, #32
 800257a:	601a      	str	r2, [r3, #0]
  }
}
 800257c:	bf00      	nop
 800257e:	3718      	adds	r7, #24
 8002580:	46bd      	mov	sp, r7
 8002582:	bd80      	pop	{r7, pc}

08002584 <HAL_ADC_GetValue>:
  * @param  hadc pointer to a ADC_HandleTypeDef structure that contains
  *         the configuration information for the specified ADC.
  * @retval Converted value
  */
uint32_t HAL_ADC_GetValue(ADC_HandleTypeDef *hadc)
{
 8002584:	b480      	push	{r7}
 8002586:	b083      	sub	sp, #12
 8002588:	af00      	add	r7, sp, #0
 800258a:	6078      	str	r0, [r7, #4]
  /* Return the selected ADC converted value */
  return hadc->Instance->DR;
 800258c:	687b      	ldr	r3, [r7, #4]
 800258e:	681b      	ldr	r3, [r3, #0]
 8002590:	6cdb      	ldr	r3, [r3, #76]	; 0x4c
}
 8002592:	4618      	mov	r0, r3
 8002594:	370c      	adds	r7, #12
 8002596:	46bd      	mov	sp, r7
 8002598:	f85d 7b04 	ldr.w	r7, [sp], #4
 800259c:	4770      	bx	lr

0800259e <HAL_ADC_LevelOutOfWindowCallback>:
  * @param  hadc pointer to a ADC_HandleTypeDef structure that contains
  *         the configuration information for the specified ADC.
  * @retval None
  */
__weak void HAL_ADC_LevelOutOfWindowCallback(ADC_HandleTypeDef *hadc)
{
 800259e:	b480      	push	{r7}
 80025a0:	b083      	sub	sp, #12
 80025a2:	af00      	add	r7, sp, #0
 80025a4:	6078      	str	r0, [r7, #4]
  /* Prevent unused argument(s) compilation warning */
  UNUSED(hadc);
  /* NOTE : This function Should not be modified, when the callback is needed,
            the HAL_ADC_LevelOoutOfWindowCallback could be implemented in the user file
   */
}
 80025a6:	bf00      	nop
 80025a8:	370c      	adds	r7, #12
 80025aa:	46bd      	mov	sp, r7
 80025ac:	f85d 7b04 	ldr.w	r7, [sp], #4
 80025b0:	4770      	bx	lr

080025b2 <HAL_ADC_ErrorCallback>:
  * @param  hadc pointer to a ADC_HandleTypeDef structure that contains
  *         the configuration information for the specified ADC.
  * @retval None
  */
__weak void HAL_ADC_ErrorCallback(ADC_HandleTypeDef *hadc)
{
 80025b2:	b480      	push	{r7}
 80025b4:	b083      	sub	sp, #12
 80025b6:	af00      	add	r7, sp, #0
 80025b8:	6078      	str	r0, [r7, #4]
  /* Prevent unused argument(s) compilation warning */
  UNUSED(hadc);
  /* NOTE : This function Should not be modified, when the callback is needed,
            the HAL_ADC_ErrorCallback could be implemented in the user file
   */
}
 80025ba:	bf00      	nop
 80025bc:	370c      	adds	r7, #12
 80025be:	46bd      	mov	sp, r7
 80025c0:	f85d 7b04 	ldr.w	r7, [sp], #4
 80025c4:	4770      	bx	lr
	...

080025c8 <HAL_ADC_ConfigChannel>:
*         the configuration information for the specified ADC.
* @param  sConfig ADC configuration structure.
* @retval HAL status
*/
HAL_StatusTypeDef HAL_ADC_ConfigChannel(ADC_HandleTypeDef *hadc, ADC_ChannelConfTypeDef *sConfig)
{
 80025c8:	b480      	push	{r7}
 80025ca:	b085      	sub	sp, #20
 80025cc:	af00      	add	r7, sp, #0
 80025ce:	6078      	str	r0, [r7, #4]
 80025d0:	6039      	str	r1, [r7, #0]
  __IO uint32_t counter = 0U;
 80025d2:	2300      	movs	r3, #0
 80025d4:	60bb      	str	r3, [r7, #8]
  assert_param(IS_ADC_CHANNEL(sConfig->Channel));
  assert_param(IS_ADC_REGULAR_RANK(sConfig->Rank));
  assert_param(IS_ADC_SAMPLE_TIME(sConfig->SamplingTime));

  /* Process locked */
  __HAL_LOCK(hadc);
 80025d6:	687b      	ldr	r3, [r7, #4]
 80025d8:	f893 303c 	ldrb.w	r3, [r3, #60]	; 0x3c
 80025dc:	2b01      	cmp	r3, #1
 80025de:	d101      	bne.n	80025e4 <HAL_ADC_ConfigChannel+0x1c>
 80025e0:	2302      	movs	r3, #2
 80025e2:	e105      	b.n	80027f0 <HAL_ADC_ConfigChannel+0x228>
 80025e4:	687b      	ldr	r3, [r7, #4]
 80025e6:	2201      	movs	r2, #1
 80025e8:	f883 203c 	strb.w	r2, [r3, #60]	; 0x3c

  /* if ADC_Channel_10 ... ADC_Channel_18 is selected */
  if (sConfig->Channel > ADC_CHANNEL_9)
 80025ec:	683b      	ldr	r3, [r7, #0]
 80025ee:	681b      	ldr	r3, [r3, #0]
 80025f0:	2b09      	cmp	r3, #9
 80025f2:	d925      	bls.n	8002640 <HAL_ADC_ConfigChannel+0x78>
  {
    /* Clear the old sample time */
    hadc->Instance->SMPR1 &= ~ADC_SMPR1(ADC_SMPR1_SMP10, sConfig->Channel);
 80025f4:	687b      	ldr	r3, [r7, #4]
 80025f6:	681b      	ldr	r3, [r3, #0]
 80025f8:	68d9      	ldr	r1, [r3, #12]
 80025fa:	683b      	ldr	r3, [r7, #0]
 80025fc:	681b      	ldr	r3, [r3, #0]
 80025fe:	b29b      	uxth	r3, r3
 8002600:	461a      	mov	r2, r3
 8002602:	4613      	mov	r3, r2
 8002604:	005b      	lsls	r3, r3, #1
 8002606:	4413      	add	r3, r2
 8002608:	3b1e      	subs	r3, #30
 800260a:	2207      	movs	r2, #7
 800260c:	fa02 f303 	lsl.w	r3, r2, r3
 8002610:	43da      	mvns	r2, r3
 8002612:	687b      	ldr	r3, [r7, #4]
 8002614:	681b      	ldr	r3, [r3, #0]
 8002616:	400a      	ands	r2, r1
 8002618:	60da      	str	r2, [r3, #12]

    /* Set the new sample time */
    hadc->Instance->SMPR1 |= ADC_SMPR1(sConfig->SamplingTime, sConfig->Channel);
 800261a:	687b      	ldr	r3, [r7, #4]
 800261c:	681b      	ldr	r3, [r3, #0]
 800261e:	68d9      	ldr	r1, [r3, #12]
 8002620:	683b      	ldr	r3, [r7, #0]
 8002622:	689a      	ldr	r2, [r3, #8]
 8002624:	683b      	ldr	r3, [r7, #0]
 8002626:	681b      	ldr	r3, [r3, #0]
 8002628:	b29b      	uxth	r3, r3
 800262a:	4618      	mov	r0, r3
 800262c:	4603      	mov	r3, r0
 800262e:	005b      	lsls	r3, r3, #1
 8002630:	4403      	add	r3, r0
 8002632:	3b1e      	subs	r3, #30
 8002634:	409a      	lsls	r2, r3
 8002636:	687b      	ldr	r3, [r7, #4]
 8002638:	681b      	ldr	r3, [r3, #0]
 800263a:	430a      	orrs	r2, r1
 800263c:	60da      	str	r2, [r3, #12]
 800263e:	e022      	b.n	8002686 <HAL_ADC_ConfigChannel+0xbe>
  }
  else /* ADC_Channel include in ADC_Channel_[0..9] */
  {
    /* Clear the old sample time */
    hadc->Instance->SMPR2 &= ~ADC_SMPR2(ADC_SMPR2_SMP0, sConfig->Channel);
 8002640:	687b      	ldr	r3, [r7, #4]
 8002642:	681b      	ldr	r3, [r3, #0]
 8002644:	6919      	ldr	r1, [r3, #16]
 8002646:	683b      	ldr	r3, [r7, #0]
 8002648:	681b      	ldr	r3, [r3, #0]
 800264a:	b29b      	uxth	r3, r3
 800264c:	461a      	mov	r2, r3
 800264e:	4613      	mov	r3, r2
 8002650:	005b      	lsls	r3, r3, #1
 8002652:	4413      	add	r3, r2
 8002654:	2207      	movs	r2, #7
 8002656:	fa02 f303 	lsl.w	r3, r2, r3
 800265a:	43da      	mvns	r2, r3
 800265c:	687b      	ldr	r3, [r7, #4]
 800265e:	681b      	ldr	r3, [r3, #0]
 8002660:	400a      	ands	r2, r1
 8002662:	611a      	str	r2, [r3, #16]

    /* Set the new sample time */
    hadc->Instance->SMPR2 |= ADC_SMPR2(sConfig->SamplingTime, sConfig->Channel);
 8002664:	687b      	ldr	r3, [r7, #4]
 8002666:	681b      	ldr	r3, [r3, #0]
 8002668:	6919      	ldr	r1, [r3, #16]
 800266a:	683b      	ldr	r3, [r7, #0]
 800266c:	689a      	ldr	r2, [r3, #8]
 800266e:	683b      	ldr	r3, [r7, #0]
 8002670:	681b      	ldr	r3, [r3, #0]
 8002672:	b29b      	uxth	r3, r3
 8002674:	4618      	mov	r0, r3
 8002676:	4603      	mov	r3, r0
 8002678:	005b      	lsls	r3, r3, #1
 800267a:	4403      	add	r3, r0
 800267c:	409a      	lsls	r2, r3
 800267e:	687b      	ldr	r3, [r7, #4]
 8002680:	681b      	ldr	r3, [r3, #0]
 8002682:	430a      	orrs	r2, r1
 8002684:	611a      	str	r2, [r3, #16]
  }

  /* For Rank 1 to 6 */
  if (sConfig->Rank < 7U)
 8002686:	683b      	ldr	r3, [r7, #0]
 8002688:	685b      	ldr	r3, [r3, #4]
 800268a:	2b06      	cmp	r3, #6
 800268c:	d824      	bhi.n	80026d8 <HAL_ADC_ConfigChannel+0x110>
  {
    /* Clear the old SQx bits for the selected rank */
    hadc->Instance->SQR3 &= ~ADC_SQR3_RK(ADC_SQR3_SQ1, sConfig->Rank);
 800268e:	687b      	ldr	r3, [r7, #4]
 8002690:	681b      	ldr	r3, [r3, #0]
 8002692:	6b59      	ldr	r1, [r3, #52]	; 0x34
 8002694:	683b      	ldr	r3, [r7, #0]
 8002696:	685a      	ldr	r2, [r3, #4]
 8002698:	4613      	mov	r3, r2
 800269a:	009b      	lsls	r3, r3, #2
 800269c:	4413      	add	r3, r2
 800269e:	3b05      	subs	r3, #5
 80026a0:	221f      	movs	r2, #31
 80026a2:	fa02 f303 	lsl.w	r3, r2, r3
 80026a6:	43da      	mvns	r2, r3
 80026a8:	687b      	ldr	r3, [r7, #4]
 80026aa:	681b      	ldr	r3, [r3, #0]
 80026ac:	400a      	ands	r2, r1
 80026ae:	635a      	str	r2, [r3, #52]	; 0x34

    /* Set the SQx bits for the selected rank */
    hadc->Instance->SQR3 |= ADC_SQR3_RK(sConfig->Channel, sConfig->Rank);
 80026b0:	687b      	ldr	r3, [r7, #4]
 80026b2:	681b      	ldr	r3, [r3, #0]
 80026b4:	6b59      	ldr	r1, [r3, #52]	; 0x34
 80026b6:	683b      	ldr	r3, [r7, #0]
 80026b8:	681b      	ldr	r3, [r3, #0]
 80026ba:	b29b      	uxth	r3, r3
 80026bc:	4618      	mov	r0, r3
 80026be:	683b      	ldr	r3, [r7, #0]
 80026c0:	685a      	ldr	r2, [r3, #4]
 80026c2:	4613      	mov	r3, r2
 80026c4:	009b      	lsls	r3, r3, #2
 80026c6:	4413      	add	r3, r2
 80026c8:	3b05      	subs	r3, #5
 80026ca:	fa00 f203 	lsl.w	r2, r0, r3
 80026ce:	687b      	ldr	r3, [r7, #4]
 80026d0:	681b      	ldr	r3, [r3, #0]
 80026d2:	430a      	orrs	r2, r1
 80026d4:	635a      	str	r2, [r3, #52]	; 0x34
 80026d6:	e04c      	b.n	8002772 <HAL_ADC_ConfigChannel+0x1aa>
  }
  /* For Rank 7 to 12 */
  else if (sConfig->Rank < 13U)
 80026d8:	683b      	ldr	r3, [r7, #0]
 80026da:	685b      	ldr	r3, [r3, #4]
 80026dc:	2b0c      	cmp	r3, #12
 80026de:	d824      	bhi.n	800272a <HAL_ADC_ConfigChannel+0x162>
  {
    /* Clear the old SQx bits for the selected rank */
    hadc->Instance->SQR2 &= ~ADC_SQR2_RK(ADC_SQR2_SQ7, sConfig->Rank);
 80026e0:	687b      	ldr	r3, [r7, #4]
 80026e2:	681b      	ldr	r3, [r3, #0]
 80026e4:	6b19      	ldr	r1, [r3, #48]	; 0x30
 80026e6:	683b      	ldr	r3, [r7, #0]
 80026e8:	685a      	ldr	r2, [r3, #4]
 80026ea:	4613      	mov	r3, r2
 80026ec:	009b      	lsls	r3, r3, #2
 80026ee:	4413      	add	r3, r2
 80026f0:	3b23      	subs	r3, #35	; 0x23
 80026f2:	221f      	movs	r2, #31
 80026f4:	fa02 f303 	lsl.w	r3, r2, r3
 80026f8:	43da      	mvns	r2, r3
 80026fa:	687b      	ldr	r3, [r7, #4]
 80026fc:	681b      	ldr	r3, [r3, #0]
 80026fe:	400a      	ands	r2, r1
 8002700:	631a      	str	r2, [r3, #48]	; 0x30

    /* Set the SQx bits for the selected rank */
    hadc->Instance->SQR2 |= ADC_SQR2_RK(sConfig->Channel, sConfig->Rank);
 8002702:	687b      	ldr	r3, [r7, #4]
 8002704:	681b      	ldr	r3, [r3, #0]
 8002706:	6b19      	ldr	r1, [r3, #48]	; 0x30
 8002708:	683b      	ldr	r3, [r7, #0]
 800270a:	681b      	ldr	r3, [r3, #0]
 800270c:	b29b      	uxth	r3, r3
 800270e:	4618      	mov	r0, r3
 8002710:	683b      	ldr	r3, [r7, #0]
 8002712:	685a      	ldr	r2, [r3, #4]
 8002714:	4613      	mov	r3, r2
 8002716:	009b      	lsls	r3, r3, #2
 8002718:	4413      	add	r3, r2
 800271a:	3b23      	subs	r3, #35	; 0x23
 800271c:	fa00 f203 	lsl.w	r2, r0, r3
 8002720:	687b      	ldr	r3, [r7, #4]
 8002722:	681b      	ldr	r3, [r3, #0]
 8002724:	430a      	orrs	r2, r1
 8002726:	631a      	str	r2, [r3, #48]	; 0x30
 8002728:	e023      	b.n	8002772 <HAL_ADC_ConfigChannel+0x1aa>
  }
  /* For Rank 13 to 16 */
  else
  {
    /* Clear the old SQx bits for the selected rank */
    hadc->Instance->SQR1 &= ~ADC_SQR1_RK(ADC_SQR1_SQ13, sConfig->Rank);
 800272a:	687b      	ldr	r3, [r7, #4]
 800272c:	681b      	ldr	r3, [r3, #0]
 800272e:	6ad9      	ldr	r1, [r3, #44]	; 0x2c
 8002730:	683b      	ldr	r3, [r7, #0]
 8002732:	685a      	ldr	r2, [r3, #4]
 8002734:	4613      	mov	r3, r2
 8002736:	009b      	lsls	r3, r3, #2
 8002738:	4413      	add	r3, r2
 800273a:	3b41      	subs	r3, #65	; 0x41
 800273c:	221f      	movs	r2, #31
 800273e:	fa02 f303 	lsl.w	r3, r2, r3
 8002742:	43da      	mvns	r2, r3
 8002744:	687b      	ldr	r3, [r7, #4]
 8002746:	681b      	ldr	r3, [r3, #0]
 8002748:	400a      	ands	r2, r1
 800274a:	62da      	str	r2, [r3, #44]	; 0x2c

    /* Set the SQx bits for the selected rank */
    hadc->Instance->SQR1 |= ADC_SQR1_RK(sConfig->Channel, sConfig->Rank);
 800274c:	687b      	ldr	r3, [r7, #4]
 800274e:	681b      	ldr	r3, [r3, #0]
 8002750:	6ad9      	ldr	r1, [r3, #44]	; 0x2c
 8002752:	683b      	ldr	r3, [r7, #0]
 8002754:	681b      	ldr	r3, [r3, #0]
 8002756:	b29b      	uxth	r3, r3
 8002758:	4618      	mov	r0, r3
 800275a:	683b      	ldr	r3, [r7, #0]
 800275c:	685a      	ldr	r2, [r3, #4]
 800275e:	4613      	mov	r3, r2
 8002760:	009b      	lsls	r3, r3, #2
 8002762:	4413      	add	r3, r2
 8002764:	3b41      	subs	r3, #65	; 0x41
 8002766:	fa00 f203 	lsl.w	r2, r0, r3
 800276a:	687b      	ldr	r3, [r7, #4]
 800276c:	681b      	ldr	r3, [r3, #0]
 800276e:	430a      	orrs	r2, r1
 8002770:	62da      	str	r2, [r3, #44]	; 0x2c
  }

  /* Pointer to the common control register to which is belonging hadc    */
  /* (Depending on STM32F4 product, there may be up to 3 ADCs and 1 common */
  /* control register)                                                    */
  tmpADC_Common = ADC_COMMON_REGISTER(hadc);
 8002772:	4b22      	ldr	r3, [pc, #136]	; (80027fc <HAL_ADC_ConfigChannel+0x234>)
 8002774:	60fb      	str	r3, [r7, #12]

  /* if ADC1 Channel_18 is selected for VBAT Channel ennable VBATE */
  if ((hadc->Instance == ADC1) && (sConfig->Channel == ADC_CHANNEL_VBAT))
 8002776:	687b      	ldr	r3, [r7, #4]
 8002778:	681b      	ldr	r3, [r3, #0]
 800277a:	4a21      	ldr	r2, [pc, #132]	; (8002800 <HAL_ADC_ConfigChannel+0x238>)
 800277c:	4293      	cmp	r3, r2
 800277e:	d109      	bne.n	8002794 <HAL_ADC_ConfigChannel+0x1cc>
 8002780:	683b      	ldr	r3, [r7, #0]
 8002782:	681b      	ldr	r3, [r3, #0]
 8002784:	2b12      	cmp	r3, #18
 8002786:	d105      	bne.n	8002794 <HAL_ADC_ConfigChannel+0x1cc>
    if ((uint16_t)ADC_CHANNEL_TEMPSENSOR == (uint16_t)ADC_CHANNEL_VBAT)
    {
      tmpADC_Common->CCR &= ~ADC_CCR_TSVREFE;
    }
    /* Enable the VBAT channel*/
    tmpADC_Common->CCR |= ADC_CCR_VBATE;
 8002788:	68fb      	ldr	r3, [r7, #12]
 800278a:	685b      	ldr	r3, [r3, #4]
 800278c:	f443 0280 	orr.w	r2, r3, #4194304	; 0x400000
 8002790:	68fb      	ldr	r3, [r7, #12]
 8002792:	605a      	str	r2, [r3, #4]
  }

  /* if ADC1 Channel_16 or Channel_18 is selected for Temperature sensor or
     Channel_17 is selected for VREFINT enable TSVREFE */
  if ((hadc->Instance == ADC1) && ((sConfig->Channel == ADC_CHANNEL_TEMPSENSOR) || (sConfig->Channel == ADC_CHANNEL_VREFINT)))
 8002794:	687b      	ldr	r3, [r7, #4]
 8002796:	681b      	ldr	r3, [r3, #0]
 8002798:	4a19      	ldr	r2, [pc, #100]	; (8002800 <HAL_ADC_ConfigChannel+0x238>)
 800279a:	4293      	cmp	r3, r2
 800279c:	d123      	bne.n	80027e6 <HAL_ADC_ConfigChannel+0x21e>
 800279e:	683b      	ldr	r3, [r7, #0]
 80027a0:	681b      	ldr	r3, [r3, #0]
 80027a2:	2b10      	cmp	r3, #16
 80027a4:	d003      	beq.n	80027ae <HAL_ADC_ConfigChannel+0x1e6>
 80027a6:	683b      	ldr	r3, [r7, #0]
 80027a8:	681b      	ldr	r3, [r3, #0]
 80027aa:	2b11      	cmp	r3, #17
 80027ac:	d11b      	bne.n	80027e6 <HAL_ADC_ConfigChannel+0x21e>
    if ((uint16_t)ADC_CHANNEL_TEMPSENSOR == (uint16_t)ADC_CHANNEL_VBAT)
    {
      tmpADC_Common->CCR &= ~ADC_CCR_VBATE;
    }
    /* Enable the Temperature sensor and VREFINT channel*/
    tmpADC_Common->CCR |= ADC_CCR_TSVREFE;
 80027ae:	68fb      	ldr	r3, [r7, #12]
 80027b0:	685b      	ldr	r3, [r3, #4]
 80027b2:	f443 0200 	orr.w	r2, r3, #8388608	; 0x800000
 80027b6:	68fb      	ldr	r3, [r7, #12]
 80027b8:	605a      	str	r2, [r3, #4]

    if (sConfig->Channel == ADC_CHANNEL_TEMPSENSOR)
 80027ba:	683b      	ldr	r3, [r7, #0]
 80027bc:	681b      	ldr	r3, [r3, #0]
 80027be:	2b10      	cmp	r3, #16
 80027c0:	d111      	bne.n	80027e6 <HAL_ADC_ConfigChannel+0x21e>
    {
      /* Delay for temperature sensor stabilization time */
      /* Compute number of CPU cycles to wait for */
      counter = (ADC_TEMPSENSOR_DELAY_US * (SystemCoreClock / 1000000U));
 80027c2:	4b10      	ldr	r3, [pc, #64]	; (8002804 <HAL_ADC_ConfigChannel+0x23c>)
 80027c4:	681b      	ldr	r3, [r3, #0]
 80027c6:	4a10      	ldr	r2, [pc, #64]	; (8002808 <HAL_ADC_ConfigChannel+0x240>)
 80027c8:	fba2 2303 	umull	r2, r3, r2, r3
 80027cc:	0c9a      	lsrs	r2, r3, #18
 80027ce:	4613      	mov	r3, r2
 80027d0:	009b      	lsls	r3, r3, #2
 80027d2:	4413      	add	r3, r2
 80027d4:	005b      	lsls	r3, r3, #1
 80027d6:	60bb      	str	r3, [r7, #8]
      while (counter != 0U)
 80027d8:	e002      	b.n	80027e0 <HAL_ADC_ConfigChannel+0x218>
      {
        counter--;
 80027da:	68bb      	ldr	r3, [r7, #8]
 80027dc:	3b01      	subs	r3, #1
 80027de:	60bb      	str	r3, [r7, #8]
      while (counter != 0U)
 80027e0:	68bb      	ldr	r3, [r7, #8]
 80027e2:	2b00      	cmp	r3, #0
 80027e4:	d1f9      	bne.n	80027da <HAL_ADC_ConfigChannel+0x212>
      }
    }
  }

  /* Process unlocked */
  __HAL_UNLOCK(hadc);
 80027e6:	687b      	ldr	r3, [r7, #4]
 80027e8:	2200      	movs	r2, #0
 80027ea:	f883 203c 	strb.w	r2, [r3, #60]	; 0x3c

  /* Return function status */
  return HAL_OK;
 80027ee:	2300      	movs	r3, #0
}
 80027f0:	4618      	mov	r0, r3
 80027f2:	3714      	adds	r7, #20
 80027f4:	46bd      	mov	sp, r7
 80027f6:	f85d 7b04 	ldr.w	r7, [sp], #4
 80027fa:	4770      	bx	lr
 80027fc:	40012300 	.word	0x40012300
 8002800:	40012000 	.word	0x40012000
 8002804:	20000008 	.word	0x20000008
 8002808:	431bde83 	.word	0x431bde83

0800280c <ADC_Init>:
  * @param  hadc pointer to a ADC_HandleTypeDef structure that contains
  *         the configuration information for the specified ADC.
  * @retval None
  */
static void ADC_Init(ADC_HandleTypeDef *hadc)
{
 800280c:	b480      	push	{r7}
 800280e:	b085      	sub	sp, #20
 8002810:	af00      	add	r7, sp, #0
 8002812:	6078      	str	r0, [r7, #4]

  /* Set ADC parameters */
  /* Pointer to the common control register to which is belonging hadc    */
  /* (Depending on STM32F4 product, there may be up to 3 ADCs and 1 common */
  /* control register)                                                    */
  tmpADC_Common = ADC_COMMON_REGISTER(hadc);
 8002814:	4b79      	ldr	r3, [pc, #484]	; (80029fc <ADC_Init+0x1f0>)
 8002816:	60fb      	str	r3, [r7, #12]

  /* Set the ADC clock prescaler */
  tmpADC_Common->CCR &= ~(ADC_CCR_ADCPRE);
 8002818:	68fb      	ldr	r3, [r7, #12]
 800281a:	685b      	ldr	r3, [r3, #4]
 800281c:	f423 3240 	bic.w	r2, r3, #196608	; 0x30000
 8002820:	68fb      	ldr	r3, [r7, #12]
 8002822:	605a      	str	r2, [r3, #4]
  tmpADC_Common->CCR |=  hadc->Init.ClockPrescaler;
 8002824:	68fb      	ldr	r3, [r7, #12]
 8002826:	685a      	ldr	r2, [r3, #4]
 8002828:	687b      	ldr	r3, [r7, #4]
 800282a:	685b      	ldr	r3, [r3, #4]
 800282c:	431a      	orrs	r2, r3
 800282e:	68fb      	ldr	r3, [r7, #12]
 8002830:	605a      	str	r2, [r3, #4]

  /* Set ADC scan mode */
  hadc->Instance->CR1 &= ~(ADC_CR1_SCAN);
 8002832:	687b      	ldr	r3, [r7, #4]
 8002834:	681b      	ldr	r3, [r3, #0]
 8002836:	685a      	ldr	r2, [r3, #4]
 8002838:	687b      	ldr	r3, [r7, #4]
 800283a:	681b      	ldr	r3, [r3, #0]
 800283c:	f422 7280 	bic.w	r2, r2, #256	; 0x100
 8002840:	605a      	str	r2, [r3, #4]
  hadc->Instance->CR1 |=  ADC_CR1_SCANCONV(hadc->Init.ScanConvMode);
 8002842:	687b      	ldr	r3, [r7, #4]
 8002844:	681b      	ldr	r3, [r3, #0]
 8002846:	6859      	ldr	r1, [r3, #4]
 8002848:	687b      	ldr	r3, [r7, #4]
 800284a:	691b      	ldr	r3, [r3, #16]
 800284c:	021a      	lsls	r2, r3, #8
 800284e:	687b      	ldr	r3, [r7, #4]
 8002850:	681b      	ldr	r3, [r3, #0]
 8002852:	430a      	orrs	r2, r1
 8002854:	605a      	str	r2, [r3, #4]

  /* Set ADC resolution */
  hadc->Instance->CR1 &= ~(ADC_CR1_RES);
 8002856:	687b      	ldr	r3, [r7, #4]
 8002858:	681b      	ldr	r3, [r3, #0]
 800285a:	685a      	ldr	r2, [r3, #4]
 800285c:	687b      	ldr	r3, [r7, #4]
 800285e:	681b      	ldr	r3, [r3, #0]
 8002860:	f022 7240 	bic.w	r2, r2, #50331648	; 0x3000000
 8002864:	605a      	str	r2, [r3, #4]
  hadc->Instance->CR1 |=  hadc->Init.Resolution;
 8002866:	687b      	ldr	r3, [r7, #4]
 8002868:	681b      	ldr	r3, [r3, #0]
 800286a:	6859      	ldr	r1, [r3, #4]
 800286c:	687b      	ldr	r3, [r7, #4]
 800286e:	689a      	ldr	r2, [r3, #8]
 8002870:	687b      	ldr	r3, [r7, #4]
 8002872:	681b      	ldr	r3, [r3, #0]
 8002874:	430a      	orrs	r2, r1
 8002876:	605a      	str	r2, [r3, #4]

  /* Set ADC data alignment */
  hadc->Instance->CR2 &= ~(ADC_CR2_ALIGN);
 8002878:	687b      	ldr	r3, [r7, #4]
 800287a:	681b      	ldr	r3, [r3, #0]
 800287c:	689a      	ldr	r2, [r3, #8]
 800287e:	687b      	ldr	r3, [r7, #4]
 8002880:	681b      	ldr	r3, [r3, #0]
 8002882:	f422 6200 	bic.w	r2, r2, #2048	; 0x800
 8002886:	609a      	str	r2, [r3, #8]
  hadc->Instance->CR2 |= hadc->Init.DataAlign;
 8002888:	687b      	ldr	r3, [r7, #4]
 800288a:	681b      	ldr	r3, [r3, #0]
 800288c:	6899      	ldr	r1, [r3, #8]
 800288e:	687b      	ldr	r3, [r7, #4]
 8002890:	68da      	ldr	r2, [r3, #12]
 8002892:	687b      	ldr	r3, [r7, #4]
 8002894:	681b      	ldr	r3, [r3, #0]
 8002896:	430a      	orrs	r2, r1
 8002898:	609a      	str	r2, [r3, #8]
  /* Enable external trigger if trigger selection is different of software  */
  /* start.                                                                 */
  /* Note: This configuration keeps the hardware feature of parameter       */
  /*       ExternalTrigConvEdge "trigger edge none" equivalent to           */
  /*       software start.                                                  */
  if (hadc->Init.ExternalTrigConv != ADC_SOFTWARE_START)
 800289a:	687b      	ldr	r3, [r7, #4]
 800289c:	6a9b      	ldr	r3, [r3, #40]	; 0x28
 800289e:	4a58      	ldr	r2, [pc, #352]	; (8002a00 <ADC_Init+0x1f4>)
 80028a0:	4293      	cmp	r3, r2
 80028a2:	d022      	beq.n	80028ea <ADC_Init+0xde>
  {
    /* Select external trigger to start conversion */
    hadc->Instance->CR2 &= ~(ADC_CR2_EXTSEL);
 80028a4:	687b      	ldr	r3, [r7, #4]
 80028a6:	681b      	ldr	r3, [r3, #0]
 80028a8:	689a      	ldr	r2, [r3, #8]
 80028aa:	687b      	ldr	r3, [r7, #4]
 80028ac:	681b      	ldr	r3, [r3, #0]
 80028ae:	f022 6270 	bic.w	r2, r2, #251658240	; 0xf000000
 80028b2:	609a      	str	r2, [r3, #8]
    hadc->Instance->CR2 |= hadc->Init.ExternalTrigConv;
 80028b4:	687b      	ldr	r3, [r7, #4]
 80028b6:	681b      	ldr	r3, [r3, #0]
 80028b8:	6899      	ldr	r1, [r3, #8]
 80028ba:	687b      	ldr	r3, [r7, #4]
 80028bc:	6a9a      	ldr	r2, [r3, #40]	; 0x28
 80028be:	687b      	ldr	r3, [r7, #4]
 80028c0:	681b      	ldr	r3, [r3, #0]
 80028c2:	430a      	orrs	r2, r1
 80028c4:	609a      	str	r2, [r3, #8]

    /* Select external trigger polarity */
    hadc->Instance->CR2 &= ~(ADC_CR2_EXTEN);
 80028c6:	687b      	ldr	r3, [r7, #4]
 80028c8:	681b      	ldr	r3, [r3, #0]
 80028ca:	689a      	ldr	r2, [r3, #8]
 80028cc:	687b      	ldr	r3, [r7, #4]
 80028ce:	681b      	ldr	r3, [r3, #0]
 80028d0:	f022 5240 	bic.w	r2, r2, #805306368	; 0x30000000
 80028d4:	609a      	str	r2, [r3, #8]
    hadc->Instance->CR2 |= hadc->Init.ExternalTrigConvEdge;
 80028d6:	687b      	ldr	r3, [r7, #4]
 80028d8:	681b      	ldr	r3, [r3, #0]
 80028da:	6899      	ldr	r1, [r3, #8]
 80028dc:	687b      	ldr	r3, [r7, #4]
 80028de:	6ada      	ldr	r2, [r3, #44]	; 0x2c
 80028e0:	687b      	ldr	r3, [r7, #4]
 80028e2:	681b      	ldr	r3, [r3, #0]
 80028e4:	430a      	orrs	r2, r1
 80028e6:	609a      	str	r2, [r3, #8]
 80028e8:	e00f      	b.n	800290a <ADC_Init+0xfe>
  }
  else
  {
    /* Reset the external trigger */
    hadc->Instance->CR2 &= ~(ADC_CR2_EXTSEL);
 80028ea:	687b      	ldr	r3, [r7, #4]
 80028ec:	681b      	ldr	r3, [r3, #0]
 80028ee:	689a      	ldr	r2, [r3, #8]
 80028f0:	687b      	ldr	r3, [r7, #4]
 80028f2:	681b      	ldr	r3, [r3, #0]
 80028f4:	f022 6270 	bic.w	r2, r2, #251658240	; 0xf000000
 80028f8:	609a      	str	r2, [r3, #8]
    hadc->Instance->CR2 &= ~(ADC_CR2_EXTEN);
 80028fa:	687b      	ldr	r3, [r7, #4]
 80028fc:	681b      	ldr	r3, [r3, #0]
 80028fe:	689a      	ldr	r2, [r3, #8]
 8002900:	687b      	ldr	r3, [r7, #4]
 8002902:	681b      	ldr	r3, [r3, #0]
 8002904:	f022 5240 	bic.w	r2, r2, #805306368	; 0x30000000
 8002908:	609a      	str	r2, [r3, #8]
  }

  /* Enable or disable ADC continuous conversion mode */
  hadc->Instance->CR2 &= ~(ADC_CR2_CONT);
 800290a:	687b      	ldr	r3, [r7, #4]
 800290c:	681b      	ldr	r3, [r3, #0]
 800290e:	689a      	ldr	r2, [r3, #8]
 8002910:	687b      	ldr	r3, [r7, #4]
 8002912:	681b      	ldr	r3, [r3, #0]
 8002914:	f022 0202 	bic.w	r2, r2, #2
 8002918:	609a      	str	r2, [r3, #8]
  hadc->Instance->CR2 |= ADC_CR2_CONTINUOUS((uint32_t)hadc->Init.ContinuousConvMode);
 800291a:	687b      	ldr	r3, [r7, #4]
 800291c:	681b      	ldr	r3, [r3, #0]
 800291e:	6899      	ldr	r1, [r3, #8]
 8002920:	687b      	ldr	r3, [r7, #4]
 8002922:	7e1b      	ldrb	r3, [r3, #24]
 8002924:	005a      	lsls	r2, r3, #1
 8002926:	687b      	ldr	r3, [r7, #4]
 8002928:	681b      	ldr	r3, [r3, #0]
 800292a:	430a      	orrs	r2, r1
 800292c:	609a      	str	r2, [r3, #8]

  if (hadc->Init.DiscontinuousConvMode != DISABLE)
 800292e:	687b      	ldr	r3, [r7, #4]
 8002930:	f893 3020 	ldrb.w	r3, [r3, #32]
 8002934:	2b00      	cmp	r3, #0
 8002936:	d01b      	beq.n	8002970 <ADC_Init+0x164>
  {
    assert_param(IS_ADC_REGULAR_DISC_NUMBER(hadc->Init.NbrOfDiscConversion));

    /* Enable the selected ADC regular discontinuous mode */
    hadc->Instance->CR1 |= (uint32_t)ADC_CR1_DISCEN;
 8002938:	687b      	ldr	r3, [r7, #4]
 800293a:	681b      	ldr	r3, [r3, #0]
 800293c:	685a      	ldr	r2, [r3, #4]
 800293e:	687b      	ldr	r3, [r7, #4]
 8002940:	681b      	ldr	r3, [r3, #0]
 8002942:	f442 6200 	orr.w	r2, r2, #2048	; 0x800
 8002946:	605a      	str	r2, [r3, #4]

    /* Set the number of channels to be converted in discontinuous mode */
    hadc->Instance->CR1 &= ~(ADC_CR1_DISCNUM);
 8002948:	687b      	ldr	r3, [r7, #4]
 800294a:	681b      	ldr	r3, [r3, #0]
 800294c:	685a      	ldr	r2, [r3, #4]
 800294e:	687b      	ldr	r3, [r7, #4]
 8002950:	681b      	ldr	r3, [r3, #0]
 8002952:	f422 4260 	bic.w	r2, r2, #57344	; 0xe000
 8002956:	605a      	str	r2, [r3, #4]
    hadc->Instance->CR1 |=  ADC_CR1_DISCONTINUOUS(hadc->Init.NbrOfDiscConversion);
 8002958:	687b      	ldr	r3, [r7, #4]
 800295a:	681b      	ldr	r3, [r3, #0]
 800295c:	6859      	ldr	r1, [r3, #4]
 800295e:	687b      	ldr	r3, [r7, #4]
 8002960:	6a5b      	ldr	r3, [r3, #36]	; 0x24
 8002962:	3b01      	subs	r3, #1
 8002964:	035a      	lsls	r2, r3, #13
 8002966:	687b      	ldr	r3, [r7, #4]
 8002968:	681b      	ldr	r3, [r3, #0]
 800296a:	430a      	orrs	r2, r1
 800296c:	605a      	str	r2, [r3, #4]
 800296e:	e007      	b.n	8002980 <ADC_Init+0x174>
  }
  else
  {
    /* Disable the selected ADC regular discontinuous mode */
    hadc->Instance->CR1 &= ~(ADC_CR1_DISCEN);
 8002970:	687b      	ldr	r3, [r7, #4]
 8002972:	681b      	ldr	r3, [r3, #0]
 8002974:	685a      	ldr	r2, [r3, #4]
 8002976:	687b      	ldr	r3, [r7, #4]
 8002978:	681b      	ldr	r3, [r3, #0]
 800297a:	f422 6200 	bic.w	r2, r2, #2048	; 0x800
 800297e:	605a      	str	r2, [r3, #4]
  }

  /* Set ADC number of conversion */
  hadc->Instance->SQR1 &= ~(ADC_SQR1_L);
 8002980:	687b      	ldr	r3, [r7, #4]
 8002982:	681b      	ldr	r3, [r3, #0]
 8002984:	6ada      	ldr	r2, [r3, #44]	; 0x2c
 8002986:	687b      	ldr	r3, [r7, #4]
 8002988:	681b      	ldr	r3, [r3, #0]
 800298a:	f422 0270 	bic.w	r2, r2, #15728640	; 0xf00000
 800298e:	62da      	str	r2, [r3, #44]	; 0x2c
  hadc->Instance->SQR1 |=  ADC_SQR1(hadc->Init.NbrOfConversion);
 8002990:	687b      	ldr	r3, [r7, #4]
 8002992:	681b      	ldr	r3, [r3, #0]
 8002994:	6ad9      	ldr	r1, [r3, #44]	; 0x2c
 8002996:	687b      	ldr	r3, [r7, #4]
 8002998:	69db      	ldr	r3, [r3, #28]
 800299a:	3b01      	subs	r3, #1
 800299c:	051a      	lsls	r2, r3, #20
 800299e:	687b      	ldr	r3, [r7, #4]
 80029a0:	681b      	ldr	r3, [r3, #0]
 80029a2:	430a      	orrs	r2, r1
 80029a4:	62da      	str	r2, [r3, #44]	; 0x2c

  /* Enable or disable ADC DMA continuous request */
  hadc->Instance->CR2 &= ~(ADC_CR2_DDS);
 80029a6:	687b      	ldr	r3, [r7, #4]
 80029a8:	681b      	ldr	r3, [r3, #0]
 80029aa:	689a      	ldr	r2, [r3, #8]
 80029ac:	687b      	ldr	r3, [r7, #4]
 80029ae:	681b      	ldr	r3, [r3, #0]
 80029b0:	f422 7200 	bic.w	r2, r2, #512	; 0x200
 80029b4:	609a      	str	r2, [r3, #8]
  hadc->Instance->CR2 |= ADC_CR2_DMAContReq((uint32_t)hadc->Init.DMAContinuousRequests);
 80029b6:	687b      	ldr	r3, [r7, #4]
 80029b8:	681b      	ldr	r3, [r3, #0]
 80029ba:	6899      	ldr	r1, [r3, #8]
 80029bc:	687b      	ldr	r3, [r7, #4]
 80029be:	f893 3030 	ldrb.w	r3, [r3, #48]	; 0x30
 80029c2:	025a      	lsls	r2, r3, #9
 80029c4:	687b      	ldr	r3, [r7, #4]
 80029c6:	681b      	ldr	r3, [r3, #0]
 80029c8:	430a      	orrs	r2, r1
 80029ca:	609a      	str	r2, [r3, #8]

  /* Enable or disable ADC end of conversion selection */
  hadc->Instance->CR2 &= ~(ADC_CR2_EOCS);
 80029cc:	687b      	ldr	r3, [r7, #4]
 80029ce:	681b      	ldr	r3, [r3, #0]
 80029d0:	689a      	ldr	r2, [r3, #8]
 80029d2:	687b      	ldr	r3, [r7, #4]
 80029d4:	681b      	ldr	r3, [r3, #0]
 80029d6:	f422 6280 	bic.w	r2, r2, #1024	; 0x400
 80029da:	609a      	str	r2, [r3, #8]
  hadc->Instance->CR2 |= ADC_CR2_EOCSelection(hadc->Init.EOCSelection);
 80029dc:	687b      	ldr	r3, [r7, #4]
 80029de:	681b      	ldr	r3, [r3, #0]
 80029e0:	6899      	ldr	r1, [r3, #8]
 80029e2:	687b      	ldr	r3, [r7, #4]
 80029e4:	695b      	ldr	r3, [r3, #20]
 80029e6:	029a      	lsls	r2, r3, #10
 80029e8:	687b      	ldr	r3, [r7, #4]
 80029ea:	681b      	ldr	r3, [r3, #0]
 80029ec:	430a      	orrs	r2, r1
 80029ee:	609a      	str	r2, [r3, #8]
}
 80029f0:	bf00      	nop
 80029f2:	3714      	adds	r7, #20
 80029f4:	46bd      	mov	sp, r7
 80029f6:	f85d 7b04 	ldr.w	r7, [sp], #4
 80029fa:	4770      	bx	lr
 80029fc:	40012300 	.word	0x40012300
 8002a00:	0f000001 	.word	0x0f000001

08002a04 <HAL_ADCEx_InjectedConvCpltCallback>:
  * @param  hadc pointer to a ADC_HandleTypeDef structure that contains
  *         the configuration information for the specified ADC.
  * @retval None
  */
__weak void HAL_ADCEx_InjectedConvCpltCallback(ADC_HandleTypeDef *hadc)
{
 8002a04:	b480      	push	{r7}
 8002a06:	b083      	sub	sp, #12
 8002a08:	af00      	add	r7, sp, #0
 8002a0a:	6078      	str	r0, [r7, #4]
  /* Prevent unused argument(s) compilation warning */
  UNUSED(hadc);
  /* NOTE : This function Should not be modified, when the callback is needed,
            the HAL_ADC_InjectedConvCpltCallback could be implemented in the user file
   */
}
 8002a0c:	bf00      	nop
 8002a0e:	370c      	adds	r7, #12
 8002a10:	46bd      	mov	sp, r7
 8002a12:	f85d 7b04 	ldr.w	r7, [sp], #4
 8002a16:	4770      	bx	lr

08002a18 <__NVIC_SetPriorityGrouping>:
           In case of a conflict between priority grouping and available
           priority bits (__NVIC_PRIO_BITS), the smallest possible priority group is set.
  \param [in]      PriorityGroup  Priority grouping field.
 */
__STATIC_INLINE void __NVIC_SetPriorityGrouping(uint32_t PriorityGroup)
{
 8002a18:	b480      	push	{r7}
 8002a1a:	b085      	sub	sp, #20
 8002a1c:	af00      	add	r7, sp, #0
 8002a1e:	6078      	str	r0, [r7, #4]
  uint32_t reg_value;
  uint32_t PriorityGroupTmp = (PriorityGroup & (uint32_t)0x07UL);             /* only values 0..7 are used          */
 8002a20:	687b      	ldr	r3, [r7, #4]
 8002a22:	f003 0307 	and.w	r3, r3, #7
 8002a26:	60fb      	str	r3, [r7, #12]

  reg_value  =  SCB->AIRCR;                                                   /* read old register configuration    */
 8002a28:	4b0c      	ldr	r3, [pc, #48]	; (8002a5c <__NVIC_SetPriorityGrouping+0x44>)
 8002a2a:	68db      	ldr	r3, [r3, #12]
 8002a2c:	60bb      	str	r3, [r7, #8]
  reg_value &= ~((uint32_t)(SCB_AIRCR_VECTKEY_Msk | SCB_AIRCR_PRIGROUP_Msk)); /* clear bits to change               */
 8002a2e:	68ba      	ldr	r2, [r7, #8]
 8002a30:	f64f 03ff 	movw	r3, #63743	; 0xf8ff
 8002a34:	4013      	ands	r3, r2
 8002a36:	60bb      	str	r3, [r7, #8]
  reg_value  =  (reg_value                                   |
                ((uint32_t)0x5FAUL << SCB_AIRCR_VECTKEY_Pos) |
                (PriorityGroupTmp << SCB_AIRCR_PRIGROUP_Pos)  );              /* Insert write key and priority group */
 8002a38:	68fb      	ldr	r3, [r7, #12]
 8002a3a:	021a      	lsls	r2, r3, #8
                ((uint32_t)0x5FAUL << SCB_AIRCR_VECTKEY_Pos) |
 8002a3c:	68bb      	ldr	r3, [r7, #8]
 8002a3e:	4313      	orrs	r3, r2
  reg_value  =  (reg_value                                   |
 8002a40:	f043 63bf 	orr.w	r3, r3, #100139008	; 0x5f80000
 8002a44:	f443 3300 	orr.w	r3, r3, #131072	; 0x20000
 8002a48:	60bb      	str	r3, [r7, #8]
  SCB->AIRCR =  reg_value;
 8002a4a:	4a04      	ldr	r2, [pc, #16]	; (8002a5c <__NVIC_SetPriorityGrouping+0x44>)
 8002a4c:	68bb      	ldr	r3, [r7, #8]
 8002a4e:	60d3      	str	r3, [r2, #12]
}
 8002a50:	bf00      	nop
 8002a52:	3714      	adds	r7, #20
 8002a54:	46bd      	mov	sp, r7
 8002a56:	f85d 7b04 	ldr.w	r7, [sp], #4
 8002a5a:	4770      	bx	lr
 8002a5c:	e000ed00 	.word	0xe000ed00

08002a60 <__NVIC_GetPriorityGrouping>:
  \brief   Get Priority Grouping
  \details Reads the priority grouping field from the NVIC Interrupt Controller.
  \return                Priority grouping field (SCB->AIRCR [10:8] PRIGROUP field).
 */
__STATIC_INLINE uint32_t __NVIC_GetPriorityGrouping(void)
{
 8002a60:	b480      	push	{r7}
 8002a62:	af00      	add	r7, sp, #0
  return ((uint32_t)((SCB->AIRCR & SCB_AIRCR_PRIGROUP_Msk) >> SCB_AIRCR_PRIGROUP_Pos));
 8002a64:	4b04      	ldr	r3, [pc, #16]	; (8002a78 <__NVIC_GetPriorityGrouping+0x18>)
 8002a66:	68db      	ldr	r3, [r3, #12]
 8002a68:	0a1b      	lsrs	r3, r3, #8
 8002a6a:	f003 0307 	and.w	r3, r3, #7
}
 8002a6e:	4618      	mov	r0, r3
 8002a70:	46bd      	mov	sp, r7
 8002a72:	f85d 7b04 	ldr.w	r7, [sp], #4
 8002a76:	4770      	bx	lr
 8002a78:	e000ed00 	.word	0xe000ed00

08002a7c <__NVIC_EnableIRQ>:
  \details Enables a device specific interrupt in the NVIC interrupt controller.
  \param [in]      IRQn  Device specific interrupt number.
  \note    IRQn must not be negative.
 */
__STATIC_INLINE void __NVIC_EnableIRQ(IRQn_Type IRQn)
{
 8002a7c:	b480      	push	{r7}
 8002a7e:	b083      	sub	sp, #12
 8002a80:	af00      	add	r7, sp, #0
 8002a82:	4603      	mov	r3, r0
 8002a84:	71fb      	strb	r3, [r7, #7]
  if ((int32_t)(IRQn) >= 0)
 8002a86:	f997 3007 	ldrsb.w	r3, [r7, #7]
 8002a8a:	2b00      	cmp	r3, #0
 8002a8c:	db0b      	blt.n	8002aa6 <__NVIC_EnableIRQ+0x2a>
  {
    __COMPILER_BARRIER();
    NVIC->ISER[(((uint32_t)IRQn) >> 5UL)] = (uint32_t)(1UL << (((uint32_t)IRQn) & 0x1FUL));
 8002a8e:	79fb      	ldrb	r3, [r7, #7]
 8002a90:	f003 021f 	and.w	r2, r3, #31
 8002a94:	4907      	ldr	r1, [pc, #28]	; (8002ab4 <__NVIC_EnableIRQ+0x38>)
 8002a96:	f997 3007 	ldrsb.w	r3, [r7, #7]
 8002a9a:	095b      	lsrs	r3, r3, #5
 8002a9c:	2001      	movs	r0, #1
 8002a9e:	fa00 f202 	lsl.w	r2, r0, r2
 8002aa2:	f841 2023 	str.w	r2, [r1, r3, lsl #2]
    __COMPILER_BARRIER();
  }
}
 8002aa6:	bf00      	nop
 8002aa8:	370c      	adds	r7, #12
 8002aaa:	46bd      	mov	sp, r7
 8002aac:	f85d 7b04 	ldr.w	r7, [sp], #4
 8002ab0:	4770      	bx	lr
 8002ab2:	bf00      	nop
 8002ab4:	e000e100 	.word	0xe000e100

08002ab8 <__NVIC_SetPriority>:
  \param [in]      IRQn  Interrupt number.
  \param [in]  priority  Priority to set.
  \note    The priority cannot be set for every processor exception.
 */
__STATIC_INLINE void __NVIC_SetPriority(IRQn_Type IRQn, uint32_t priority)
{
 8002ab8:	b480      	push	{r7}
 8002aba:	b083      	sub	sp, #12
 8002abc:	af00      	add	r7, sp, #0
 8002abe:	4603      	mov	r3, r0
 8002ac0:	6039      	str	r1, [r7, #0]
 8002ac2:	71fb      	strb	r3, [r7, #7]
  if ((int32_t)(IRQn) >= 0)
 8002ac4:	f997 3007 	ldrsb.w	r3, [r7, #7]
 8002ac8:	2b00      	cmp	r3, #0
 8002aca:	db0a      	blt.n	8002ae2 <__NVIC_SetPriority+0x2a>
  {
    NVIC->IP[((uint32_t)IRQn)]               = (uint8_t)((priority << (8U - __NVIC_PRIO_BITS)) & (uint32_t)0xFFUL);
 8002acc:	683b      	ldr	r3, [r7, #0]
 8002ace:	b2da      	uxtb	r2, r3
 8002ad0:	490c      	ldr	r1, [pc, #48]	; (8002b04 <__NVIC_SetPriority+0x4c>)
 8002ad2:	f997 3007 	ldrsb.w	r3, [r7, #7]
 8002ad6:	0112      	lsls	r2, r2, #4
 8002ad8:	b2d2      	uxtb	r2, r2
 8002ada:	440b      	add	r3, r1
 8002adc:	f883 2300 	strb.w	r2, [r3, #768]	; 0x300
  }
  else
  {
    SCB->SHP[(((uint32_t)IRQn) & 0xFUL)-4UL] = (uint8_t)((priority << (8U - __NVIC_PRIO_BITS)) & (uint32_t)0xFFUL);
  }
}
 8002ae0:	e00a      	b.n	8002af8 <__NVIC_SetPriority+0x40>
    SCB->SHP[(((uint32_t)IRQn) & 0xFUL)-4UL] = (uint8_t)((priority << (8U - __NVIC_PRIO_BITS)) & (uint32_t)0xFFUL);
 8002ae2:	683b      	ldr	r3, [r7, #0]
 8002ae4:	b2da      	uxtb	r2, r3
 8002ae6:	4908      	ldr	r1, [pc, #32]	; (8002b08 <__NVIC_SetPriority+0x50>)
 8002ae8:	79fb      	ldrb	r3, [r7, #7]
 8002aea:	f003 030f 	and.w	r3, r3, #15
 8002aee:	3b04      	subs	r3, #4
 8002af0:	0112      	lsls	r2, r2, #4
 8002af2:	b2d2      	uxtb	r2, r2
 8002af4:	440b      	add	r3, r1
 8002af6:	761a      	strb	r2, [r3, #24]
}
 8002af8:	bf00      	nop
 8002afa:	370c      	adds	r7, #12
 8002afc:	46bd      	mov	sp, r7
 8002afe:	f85d 7b04 	ldr.w	r7, [sp], #4
 8002b02:	4770      	bx	lr
 8002b04:	e000e100 	.word	0xe000e100
 8002b08:	e000ed00 	.word	0xe000ed00

08002b0c <NVIC_EncodePriority>:
  \param [in]   PreemptPriority  Preemptive priority value (starting from 0).
  \param [in]       SubPriority  Subpriority value (starting from 0).
  \return                        Encoded priority. Value can be used in the function \ref NVIC_SetPriority().
 */
__STATIC_INLINE uint32_t NVIC_EncodePriority (uint32_t PriorityGroup, uint32_t PreemptPriority, uint32_t SubPriority)
{
 8002b0c:	b480      	push	{r7}
 8002b0e:	b089      	sub	sp, #36	; 0x24
 8002b10:	af00      	add	r7, sp, #0
 8002b12:	60f8      	str	r0, [r7, #12]
 8002b14:	60b9      	str	r1, [r7, #8]
 8002b16:	607a      	str	r2, [r7, #4]
  uint32_t PriorityGroupTmp = (PriorityGroup & (uint32_t)0x07UL);   /* only values 0..7 are used          */
 8002b18:	68fb      	ldr	r3, [r7, #12]
 8002b1a:	f003 0307 	and.w	r3, r3, #7
 8002b1e:	61fb      	str	r3, [r7, #28]
  uint32_t PreemptPriorityBits;
  uint32_t SubPriorityBits;

  PreemptPriorityBits = ((7UL - PriorityGroupTmp) > (uint32_t)(__NVIC_PRIO_BITS)) ? (uint32_t)(__NVIC_PRIO_BITS) : (uint32_t)(7UL - PriorityGroupTmp);
 8002b20:	69fb      	ldr	r3, [r7, #28]
 8002b22:	f1c3 0307 	rsb	r3, r3, #7
 8002b26:	2b04      	cmp	r3, #4
 8002b28:	bf28      	it	cs
 8002b2a:	2304      	movcs	r3, #4
 8002b2c:	61bb      	str	r3, [r7, #24]
  SubPriorityBits     = ((PriorityGroupTmp + (uint32_t)(__NVIC_PRIO_BITS)) < (uint32_t)7UL) ? (uint32_t)0UL : (uint32_t)((PriorityGroupTmp - 7UL) + (uint32_t)(__NVIC_PRIO_BITS));
 8002b2e:	69fb      	ldr	r3, [r7, #28]
 8002b30:	3304      	adds	r3, #4
 8002b32:	2b06      	cmp	r3, #6
 8002b34:	d902      	bls.n	8002b3c <NVIC_EncodePriority+0x30>
 8002b36:	69fb      	ldr	r3, [r7, #28]
 8002b38:	3b03      	subs	r3, #3
 8002b3a:	e000      	b.n	8002b3e <NVIC_EncodePriority+0x32>
 8002b3c:	2300      	movs	r3, #0
 8002b3e:	617b      	str	r3, [r7, #20]

  return (
           ((PreemptPriority & (uint32_t)((1UL << (PreemptPriorityBits)) - 1UL)) << SubPriorityBits) |
 8002b40:	f04f 32ff 	mov.w	r2, #4294967295
 8002b44:	69bb      	ldr	r3, [r7, #24]
 8002b46:	fa02 f303 	lsl.w	r3, r2, r3
 8002b4a:	43da      	mvns	r2, r3
 8002b4c:	68bb      	ldr	r3, [r7, #8]
 8002b4e:	401a      	ands	r2, r3
 8002b50:	697b      	ldr	r3, [r7, #20]
 8002b52:	409a      	lsls	r2, r3
           ((SubPriority     & (uint32_t)((1UL << (SubPriorityBits    )) - 1UL)))
 8002b54:	f04f 31ff 	mov.w	r1, #4294967295
 8002b58:	697b      	ldr	r3, [r7, #20]
 8002b5a:	fa01 f303 	lsl.w	r3, r1, r3
 8002b5e:	43d9      	mvns	r1, r3
 8002b60:	687b      	ldr	r3, [r7, #4]
 8002b62:	400b      	ands	r3, r1
           ((PreemptPriority & (uint32_t)((1UL << (PreemptPriorityBits)) - 1UL)) << SubPriorityBits) |
 8002b64:	4313      	orrs	r3, r2
         );
}
 8002b66:	4618      	mov	r0, r3
 8002b68:	3724      	adds	r7, #36	; 0x24
 8002b6a:	46bd      	mov	sp, r7
 8002b6c:	f85d 7b04 	ldr.w	r7, [sp], #4
 8002b70:	4770      	bx	lr
	...

08002b74 <SysTick_Config>:
  \note    When the variable <b>__Vendor_SysTickConfig</b> is set to 1, then the
           function <b>SysTick_Config</b> is not included. In this case, the file <b><i>device</i>.h</b>
           must contain a vendor-specific implementation of this function.
 */
__STATIC_INLINE uint32_t SysTick_Config(uint32_t ticks)
{
 8002b74:	b580      	push	{r7, lr}
 8002b76:	b082      	sub	sp, #8
 8002b78:	af00      	add	r7, sp, #0
 8002b7a:	6078      	str	r0, [r7, #4]
  if ((ticks - 1UL) > SysTick_LOAD_RELOAD_Msk)
 8002b7c:	687b      	ldr	r3, [r7, #4]
 8002b7e:	3b01      	subs	r3, #1
 8002b80:	f1b3 7f80 	cmp.w	r3, #16777216	; 0x1000000
 8002b84:	d301      	bcc.n	8002b8a <SysTick_Config+0x16>
  {
    return (1UL);                                                   /* Reload value impossible */
 8002b86:	2301      	movs	r3, #1
 8002b88:	e00f      	b.n	8002baa <SysTick_Config+0x36>
  }

  SysTick->LOAD  = (uint32_t)(ticks - 1UL);                         /* set reload register */
 8002b8a:	4a0a      	ldr	r2, [pc, #40]	; (8002bb4 <SysTick_Config+0x40>)
 8002b8c:	687b      	ldr	r3, [r7, #4]
 8002b8e:	3b01      	subs	r3, #1
 8002b90:	6053      	str	r3, [r2, #4]
  NVIC_SetPriority (SysTick_IRQn, (1UL << __NVIC_PRIO_BITS) - 1UL); /* set Priority for Systick Interrupt */
 8002b92:	210f      	movs	r1, #15
 8002b94:	f04f 30ff 	mov.w	r0, #4294967295
 8002b98:	f7ff ff8e 	bl	8002ab8 <__NVIC_SetPriority>
  SysTick->VAL   = 0UL;                                             /* Load the SysTick Counter Value */
 8002b9c:	4b05      	ldr	r3, [pc, #20]	; (8002bb4 <SysTick_Config+0x40>)
 8002b9e:	2200      	movs	r2, #0
 8002ba0:	609a      	str	r2, [r3, #8]
  SysTick->CTRL  = SysTick_CTRL_CLKSOURCE_Msk |
 8002ba2:	4b04      	ldr	r3, [pc, #16]	; (8002bb4 <SysTick_Config+0x40>)
 8002ba4:	2207      	movs	r2, #7
 8002ba6:	601a      	str	r2, [r3, #0]
                   SysTick_CTRL_TICKINT_Msk   |
                   SysTick_CTRL_ENABLE_Msk;                         /* Enable SysTick IRQ and SysTick Timer */
  return (0UL);                                                     /* Function successful */
 8002ba8:	2300      	movs	r3, #0
}
 8002baa:	4618      	mov	r0, r3
 8002bac:	3708      	adds	r7, #8
 8002bae:	46bd      	mov	sp, r7
 8002bb0:	bd80      	pop	{r7, pc}
 8002bb2:	bf00      	nop
 8002bb4:	e000e010 	.word	0xe000e010

08002bb8 <HAL_NVIC_SetPriorityGrouping>:
  * @note   When the NVIC_PriorityGroup_0 is selected, IRQ preemption is no more possible. 
  *         The pending IRQ priority will be managed only by the subpriority. 
  * @retval None
  */
void HAL_NVIC_SetPriorityGrouping(uint32_t PriorityGroup)
{
 8002bb8:	b580      	push	{r7, lr}
 8002bba:	b082      	sub	sp, #8
 8002bbc:	af00      	add	r7, sp, #0
 8002bbe:	6078      	str	r0, [r7, #4]
  /* Check the parameters */
  assert_param(IS_NVIC_PRIORITY_GROUP(PriorityGroup));
  
  /* Set the PRIGROUP[10:8] bits according to the PriorityGroup parameter value */
  NVIC_SetPriorityGrouping(PriorityGroup);
 8002bc0:	6878      	ldr	r0, [r7, #4]
 8002bc2:	f7ff ff29 	bl	8002a18 <__NVIC_SetPriorityGrouping>
}
 8002bc6:	bf00      	nop
 8002bc8:	3708      	adds	r7, #8
 8002bca:	46bd      	mov	sp, r7
 8002bcc:	bd80      	pop	{r7, pc}

08002bce <HAL_NVIC_SetPriority>:
  *         This parameter can be a value between 0 and 15
  *         A lower priority value indicates a higher priority.          
  * @retval None
  */
void HAL_NVIC_SetPriority(IRQn_Type IRQn, uint32_t PreemptPriority, uint32_t SubPriority)
{ 
 8002bce:	b580      	push	{r7, lr}
 8002bd0:	b086      	sub	sp, #24
 8002bd2:	af00      	add	r7, sp, #0
 8002bd4:	4603      	mov	r3, r0
 8002bd6:	60b9      	str	r1, [r7, #8]
 8002bd8:	607a      	str	r2, [r7, #4]
 8002bda:	73fb      	strb	r3, [r7, #15]
  uint32_t prioritygroup = 0x00U;
 8002bdc:	2300      	movs	r3, #0
 8002bde:	617b      	str	r3, [r7, #20]
  
  /* Check the parameters */
  assert_param(IS_NVIC_SUB_PRIORITY(SubPriority));
  assert_param(IS_NVIC_PREEMPTION_PRIORITY(PreemptPriority));
  
  prioritygroup = NVIC_GetPriorityGrouping();
 8002be0:	f7ff ff3e 	bl	8002a60 <__NVIC_GetPriorityGrouping>
 8002be4:	6178      	str	r0, [r7, #20]
  
  NVIC_SetPriority(IRQn, NVIC_EncodePriority(prioritygroup, PreemptPriority, SubPriority));
 8002be6:	687a      	ldr	r2, [r7, #4]
 8002be8:	68b9      	ldr	r1, [r7, #8]
 8002bea:	6978      	ldr	r0, [r7, #20]
 8002bec:	f7ff ff8e 	bl	8002b0c <NVIC_EncodePriority>
 8002bf0:	4602      	mov	r2, r0
 8002bf2:	f997 300f 	ldrsb.w	r3, [r7, #15]
 8002bf6:	4611      	mov	r1, r2
 8002bf8:	4618      	mov	r0, r3
 8002bfa:	f7ff ff5d 	bl	8002ab8 <__NVIC_SetPriority>
}
 8002bfe:	bf00      	nop
 8002c00:	3718      	adds	r7, #24
 8002c02:	46bd      	mov	sp, r7
 8002c04:	bd80      	pop	{r7, pc}

08002c06 <HAL_NVIC_EnableIRQ>:
  *         This parameter can be an enumerator of IRQn_Type enumeration
  *         (For the complete STM32 Devices IRQ Channels list, please refer to the appropriate CMSIS device file (stm32f4xxxx.h))
  * @retval None
  */
void HAL_NVIC_EnableIRQ(IRQn_Type IRQn)
{
 8002c06:	b580      	push	{r7, lr}
 8002c08:	b082      	sub	sp, #8
 8002c0a:	af00      	add	r7, sp, #0
 8002c0c:	4603      	mov	r3, r0
 8002c0e:	71fb      	strb	r3, [r7, #7]
  /* Check the parameters */
  assert_param(IS_NVIC_DEVICE_IRQ(IRQn));
  
  /* Enable interrupt */
  NVIC_EnableIRQ(IRQn);
 8002c10:	f997 3007 	ldrsb.w	r3, [r7, #7]
 8002c14:	4618      	mov	r0, r3
 8002c16:	f7ff ff31 	bl	8002a7c <__NVIC_EnableIRQ>
}
 8002c1a:	bf00      	nop
 8002c1c:	3708      	adds	r7, #8
 8002c1e:	46bd      	mov	sp, r7
 8002c20:	bd80      	pop	{r7, pc}

08002c22 <HAL_SYSTICK_Config>:
  * @param  TicksNumb Specifies the ticks Number of ticks between two interrupts.
  * @retval status:  - 0  Function succeeded.
  *                  - 1  Function failed.
  */
uint32_t HAL_SYSTICK_Config(uint32_t TicksNumb)
{
 8002c22:	b580      	push	{r7, lr}
 8002c24:	b082      	sub	sp, #8
 8002c26:	af00      	add	r7, sp, #0
 8002c28:	6078      	str	r0, [r7, #4]
   return SysTick_Config(TicksNumb);
 8002c2a:	6878      	ldr	r0, [r7, #4]
 8002c2c:	f7ff ffa2 	bl	8002b74 <SysTick_Config>
 8002c30:	4603      	mov	r3, r0
}
 8002c32:	4618      	mov	r0, r3
 8002c34:	3708      	adds	r7, #8
 8002c36:	46bd      	mov	sp, r7
 8002c38:	bd80      	pop	{r7, pc}
	...

08002c3c <HAL_GPIO_Init>:
  * @param  GPIO_Init pointer to a GPIO_InitTypeDef structure that contains
  *         the configuration information for the specified GPIO peripheral.
  * @retval None
  */
void HAL_GPIO_Init(GPIO_TypeDef  *GPIOx, GPIO_InitTypeDef *GPIO_Init)
{
 8002c3c:	b480      	push	{r7}
 8002c3e:	b089      	sub	sp, #36	; 0x24
 8002c40:	af00      	add	r7, sp, #0
 8002c42:	6078      	str	r0, [r7, #4]
 8002c44:	6039      	str	r1, [r7, #0]
  uint32_t position;
  uint32_t ioposition = 0x00U;
 8002c46:	2300      	movs	r3, #0
 8002c48:	617b      	str	r3, [r7, #20]
  uint32_t iocurrent = 0x00U;
 8002c4a:	2300      	movs	r3, #0
 8002c4c:	613b      	str	r3, [r7, #16]
  uint32_t temp = 0x00U;
 8002c4e:	2300      	movs	r3, #0
 8002c50:	61bb      	str	r3, [r7, #24]
  assert_param(IS_GPIO_ALL_INSTANCE(GPIOx));
  assert_param(IS_GPIO_PIN(GPIO_Init->Pin));
  assert_param(IS_GPIO_MODE(GPIO_Init->Mode));

  /* Configure the port pins */
  for(position = 0U; position < GPIO_NUMBER; position++)
 8002c52:	2300      	movs	r3, #0
 8002c54:	61fb      	str	r3, [r7, #28]
 8002c56:	e16b      	b.n	8002f30 <HAL_GPIO_Init+0x2f4>
  {
    /* Get the IO position */
    ioposition = 0x01U << position;
 8002c58:	2201      	movs	r2, #1
 8002c5a:	69fb      	ldr	r3, [r7, #28]
 8002c5c:	fa02 f303 	lsl.w	r3, r2, r3
 8002c60:	617b      	str	r3, [r7, #20]
    /* Get the current IO position */
    iocurrent = (uint32_t)(GPIO_Init->Pin) & ioposition;
 8002c62:	683b      	ldr	r3, [r7, #0]
 8002c64:	681b      	ldr	r3, [r3, #0]
 8002c66:	697a      	ldr	r2, [r7, #20]
 8002c68:	4013      	ands	r3, r2
 8002c6a:	613b      	str	r3, [r7, #16]

    if(iocurrent == ioposition)
 8002c6c:	693a      	ldr	r2, [r7, #16]
 8002c6e:	697b      	ldr	r3, [r7, #20]
 8002c70:	429a      	cmp	r2, r3
 8002c72:	f040 815a 	bne.w	8002f2a <HAL_GPIO_Init+0x2ee>
    {
      /*--------------------- GPIO Mode Configuration ------------------------*/
      /* In case of Output or Alternate function mode selection */
      if(((GPIO_Init->Mode & GPIO_MODE) == MODE_OUTPUT) || \
 8002c76:	683b      	ldr	r3, [r7, #0]
 8002c78:	685b      	ldr	r3, [r3, #4]
 8002c7a:	f003 0303 	and.w	r3, r3, #3
 8002c7e:	2b01      	cmp	r3, #1
 8002c80:	d005      	beq.n	8002c8e <HAL_GPIO_Init+0x52>
          (GPIO_Init->Mode & GPIO_MODE) == MODE_AF)
 8002c82:	683b      	ldr	r3, [r7, #0]
 8002c84:	685b      	ldr	r3, [r3, #4]
 8002c86:	f003 0303 	and.w	r3, r3, #3
      if(((GPIO_Init->Mode & GPIO_MODE) == MODE_OUTPUT) || \
 8002c8a:	2b02      	cmp	r3, #2
 8002c8c:	d130      	bne.n	8002cf0 <HAL_GPIO_Init+0xb4>
      {
        /* Check the Speed parameter */
        assert_param(IS_GPIO_SPEED(GPIO_Init->Speed));
        /* Configure the IO Speed */
        temp = GPIOx->OSPEEDR; 
 8002c8e:	687b      	ldr	r3, [r7, #4]
 8002c90:	689b      	ldr	r3, [r3, #8]
 8002c92:	61bb      	str	r3, [r7, #24]
        temp &= ~(GPIO_OSPEEDER_OSPEEDR0 << (position * 2U));
 8002c94:	69fb      	ldr	r3, [r7, #28]
 8002c96:	005b      	lsls	r3, r3, #1
 8002c98:	2203      	movs	r2, #3
 8002c9a:	fa02 f303 	lsl.w	r3, r2, r3
 8002c9e:	43db      	mvns	r3, r3
 8002ca0:	69ba      	ldr	r2, [r7, #24]
 8002ca2:	4013      	ands	r3, r2
 8002ca4:	61bb      	str	r3, [r7, #24]
        temp |= (GPIO_Init->Speed << (position * 2U));
 8002ca6:	683b      	ldr	r3, [r7, #0]
 8002ca8:	68da      	ldr	r2, [r3, #12]
 8002caa:	69fb      	ldr	r3, [r7, #28]
 8002cac:	005b      	lsls	r3, r3, #1
 8002cae:	fa02 f303 	lsl.w	r3, r2, r3
 8002cb2:	69ba      	ldr	r2, [r7, #24]
 8002cb4:	4313      	orrs	r3, r2
 8002cb6:	61bb      	str	r3, [r7, #24]
        GPIOx->OSPEEDR = temp;
 8002cb8:	687b      	ldr	r3, [r7, #4]
 8002cba:	69ba      	ldr	r2, [r7, #24]
 8002cbc:	609a      	str	r2, [r3, #8]

        /* Configure the IO Output Type */
        temp = GPIOx->OTYPER;
 8002cbe:	687b      	ldr	r3, [r7, #4]
 8002cc0:	685b      	ldr	r3, [r3, #4]
 8002cc2:	61bb      	str	r3, [r7, #24]
        temp &= ~(GPIO_OTYPER_OT_0 << position) ;
 8002cc4:	2201      	movs	r2, #1
 8002cc6:	69fb      	ldr	r3, [r7, #28]
 8002cc8:	fa02 f303 	lsl.w	r3, r2, r3
 8002ccc:	43db      	mvns	r3, r3
 8002cce:	69ba      	ldr	r2, [r7, #24]
 8002cd0:	4013      	ands	r3, r2
 8002cd2:	61bb      	str	r3, [r7, #24]
        temp |= (((GPIO_Init->Mode & OUTPUT_TYPE) >> OUTPUT_TYPE_Pos) << position);
 8002cd4:	683b      	ldr	r3, [r7, #0]
 8002cd6:	685b      	ldr	r3, [r3, #4]
 8002cd8:	091b      	lsrs	r3, r3, #4
 8002cda:	f003 0201 	and.w	r2, r3, #1
 8002cde:	69fb      	ldr	r3, [r7, #28]
 8002ce0:	fa02 f303 	lsl.w	r3, r2, r3
 8002ce4:	69ba      	ldr	r2, [r7, #24]
 8002ce6:	4313      	orrs	r3, r2
 8002ce8:	61bb      	str	r3, [r7, #24]
        GPIOx->OTYPER = temp;
 8002cea:	687b      	ldr	r3, [r7, #4]
 8002cec:	69ba      	ldr	r2, [r7, #24]
 8002cee:	605a      	str	r2, [r3, #4]
       }

      if((GPIO_Init->Mode & GPIO_MODE) != MODE_ANALOG)
 8002cf0:	683b      	ldr	r3, [r7, #0]
 8002cf2:	685b      	ldr	r3, [r3, #4]
 8002cf4:	f003 0303 	and.w	r3, r3, #3
 8002cf8:	2b03      	cmp	r3, #3
 8002cfa:	d017      	beq.n	8002d2c <HAL_GPIO_Init+0xf0>
      {
        /* Check the parameters */
        assert_param(IS_GPIO_PULL(GPIO_Init->Pull));
        
        /* Activate the Pull-up or Pull down resistor for the current IO */
        temp = GPIOx->PUPDR;
 8002cfc:	687b      	ldr	r3, [r7, #4]
 8002cfe:	68db      	ldr	r3, [r3, #12]
 8002d00:	61bb      	str	r3, [r7, #24]
        temp &= ~(GPIO_PUPDR_PUPDR0 << (position * 2U));
 8002d02:	69fb      	ldr	r3, [r7, #28]
 8002d04:	005b      	lsls	r3, r3, #1
 8002d06:	2203      	movs	r2, #3
 8002d08:	fa02 f303 	lsl.w	r3, r2, r3
 8002d0c:	43db      	mvns	r3, r3
 8002d0e:	69ba      	ldr	r2, [r7, #24]
 8002d10:	4013      	ands	r3, r2
 8002d12:	61bb      	str	r3, [r7, #24]
        temp |= ((GPIO_Init->Pull) << (position * 2U));
 8002d14:	683b      	ldr	r3, [r7, #0]
 8002d16:	689a      	ldr	r2, [r3, #8]
 8002d18:	69fb      	ldr	r3, [r7, #28]
 8002d1a:	005b      	lsls	r3, r3, #1
 8002d1c:	fa02 f303 	lsl.w	r3, r2, r3
 8002d20:	69ba      	ldr	r2, [r7, #24]
 8002d22:	4313      	orrs	r3, r2
 8002d24:	61bb      	str	r3, [r7, #24]
        GPIOx->PUPDR = temp;
 8002d26:	687b      	ldr	r3, [r7, #4]
 8002d28:	69ba      	ldr	r2, [r7, #24]
 8002d2a:	60da      	str	r2, [r3, #12]
      }

      /* In case of Alternate function mode selection */
      if((GPIO_Init->Mode & GPIO_MODE) == MODE_AF)
 8002d2c:	683b      	ldr	r3, [r7, #0]
 8002d2e:	685b      	ldr	r3, [r3, #4]
 8002d30:	f003 0303 	and.w	r3, r3, #3
 8002d34:	2b02      	cmp	r3, #2
 8002d36:	d123      	bne.n	8002d80 <HAL_GPIO_Init+0x144>
      {
        /* Check the Alternate function parameter */
        assert_param(IS_GPIO_AF(GPIO_Init->Alternate));
        /* Configure Alternate function mapped with the current IO */
        temp = GPIOx->AFR[position >> 3U];
 8002d38:	69fb      	ldr	r3, [r7, #28]
 8002d3a:	08da      	lsrs	r2, r3, #3
 8002d3c:	687b      	ldr	r3, [r7, #4]
 8002d3e:	3208      	adds	r2, #8
 8002d40:	f853 3022 	ldr.w	r3, [r3, r2, lsl #2]
 8002d44:	61bb      	str	r3, [r7, #24]
        temp &= ~(0xFU << ((uint32_t)(position & 0x07U) * 4U)) ;
 8002d46:	69fb      	ldr	r3, [r7, #28]
 8002d48:	f003 0307 	and.w	r3, r3, #7
 8002d4c:	009b      	lsls	r3, r3, #2
 8002d4e:	220f      	movs	r2, #15
 8002d50:	fa02 f303 	lsl.w	r3, r2, r3
 8002d54:	43db      	mvns	r3, r3
 8002d56:	69ba      	ldr	r2, [r7, #24]
 8002d58:	4013      	ands	r3, r2
 8002d5a:	61bb      	str	r3, [r7, #24]
        temp |= ((uint32_t)(GPIO_Init->Alternate) << (((uint32_t)position & 0x07U) * 4U));
 8002d5c:	683b      	ldr	r3, [r7, #0]
 8002d5e:	691a      	ldr	r2, [r3, #16]
 8002d60:	69fb      	ldr	r3, [r7, #28]
 8002d62:	f003 0307 	and.w	r3, r3, #7
 8002d66:	009b      	lsls	r3, r3, #2
 8002d68:	fa02 f303 	lsl.w	r3, r2, r3
 8002d6c:	69ba      	ldr	r2, [r7, #24]
 8002d6e:	4313      	orrs	r3, r2
 8002d70:	61bb      	str	r3, [r7, #24]
        GPIOx->AFR[position >> 3U] = temp;
 8002d72:	69fb      	ldr	r3, [r7, #28]
 8002d74:	08da      	lsrs	r2, r3, #3
 8002d76:	687b      	ldr	r3, [r7, #4]
 8002d78:	3208      	adds	r2, #8
 8002d7a:	69b9      	ldr	r1, [r7, #24]
 8002d7c:	f843 1022 	str.w	r1, [r3, r2, lsl #2]
      }

      /* Configure IO Direction mode (Input, Output, Alternate or Analog) */
      temp = GPIOx->MODER;
 8002d80:	687b      	ldr	r3, [r7, #4]
 8002d82:	681b      	ldr	r3, [r3, #0]
 8002d84:	61bb      	str	r3, [r7, #24]
      temp &= ~(GPIO_MODER_MODER0 << (position * 2U));
 8002d86:	69fb      	ldr	r3, [r7, #28]
 8002d88:	005b      	lsls	r3, r3, #1
 8002d8a:	2203      	movs	r2, #3
 8002d8c:	fa02 f303 	lsl.w	r3, r2, r3
 8002d90:	43db      	mvns	r3, r3
 8002d92:	69ba      	ldr	r2, [r7, #24]
 8002d94:	4013      	ands	r3, r2
 8002d96:	61bb      	str	r3, [r7, #24]
      temp |= ((GPIO_Init->Mode & GPIO_MODE) << (position * 2U));
 8002d98:	683b      	ldr	r3, [r7, #0]
 8002d9a:	685b      	ldr	r3, [r3, #4]
 8002d9c:	f003 0203 	and.w	r2, r3, #3
 8002da0:	69fb      	ldr	r3, [r7, #28]
 8002da2:	005b      	lsls	r3, r3, #1
 8002da4:	fa02 f303 	lsl.w	r3, r2, r3
 8002da8:	69ba      	ldr	r2, [r7, #24]
 8002daa:	4313      	orrs	r3, r2
 8002dac:	61bb      	str	r3, [r7, #24]
      GPIOx->MODER = temp;
 8002dae:	687b      	ldr	r3, [r7, #4]
 8002db0:	69ba      	ldr	r2, [r7, #24]
 8002db2:	601a      	str	r2, [r3, #0]

      /*--------------------- EXTI Mode Configuration ------------------------*/
      /* Configure the External Interrupt or event for the current IO */
      if((GPIO_Init->Mode & EXTI_MODE) != 0x00U)
 8002db4:	683b      	ldr	r3, [r7, #0]
 8002db6:	685b      	ldr	r3, [r3, #4]
 8002db8:	f403 3340 	and.w	r3, r3, #196608	; 0x30000
 8002dbc:	2b00      	cmp	r3, #0
 8002dbe:	f000 80b4 	beq.w	8002f2a <HAL_GPIO_Init+0x2ee>
      {
        /* Enable SYSCFG Clock */
        __HAL_RCC_SYSCFG_CLK_ENABLE();
 8002dc2:	2300      	movs	r3, #0
 8002dc4:	60fb      	str	r3, [r7, #12]
 8002dc6:	4b60      	ldr	r3, [pc, #384]	; (8002f48 <HAL_GPIO_Init+0x30c>)
 8002dc8:	6c5b      	ldr	r3, [r3, #68]	; 0x44
 8002dca:	4a5f      	ldr	r2, [pc, #380]	; (8002f48 <HAL_GPIO_Init+0x30c>)
 8002dcc:	f443 4380 	orr.w	r3, r3, #16384	; 0x4000
 8002dd0:	6453      	str	r3, [r2, #68]	; 0x44
 8002dd2:	4b5d      	ldr	r3, [pc, #372]	; (8002f48 <HAL_GPIO_Init+0x30c>)
 8002dd4:	6c5b      	ldr	r3, [r3, #68]	; 0x44
 8002dd6:	f403 4380 	and.w	r3, r3, #16384	; 0x4000
 8002dda:	60fb      	str	r3, [r7, #12]
 8002ddc:	68fb      	ldr	r3, [r7, #12]

        temp = SYSCFG->EXTICR[position >> 2U];
 8002dde:	4a5b      	ldr	r2, [pc, #364]	; (8002f4c <HAL_GPIO_Init+0x310>)
 8002de0:	69fb      	ldr	r3, [r7, #28]
 8002de2:	089b      	lsrs	r3, r3, #2
 8002de4:	3302      	adds	r3, #2
 8002de6:	f852 3023 	ldr.w	r3, [r2, r3, lsl #2]
 8002dea:	61bb      	str	r3, [r7, #24]
        temp &= ~(0x0FU << (4U * (position & 0x03U)));
 8002dec:	69fb      	ldr	r3, [r7, #28]
 8002dee:	f003 0303 	and.w	r3, r3, #3
 8002df2:	009b      	lsls	r3, r3, #2
 8002df4:	220f      	movs	r2, #15
 8002df6:	fa02 f303 	lsl.w	r3, r2, r3
 8002dfa:	43db      	mvns	r3, r3
 8002dfc:	69ba      	ldr	r2, [r7, #24]
 8002dfe:	4013      	ands	r3, r2
 8002e00:	61bb      	str	r3, [r7, #24]
        temp |= ((uint32_t)(GPIO_GET_INDEX(GPIOx)) << (4U * (position & 0x03U)));
 8002e02:	687b      	ldr	r3, [r7, #4]
 8002e04:	4a52      	ldr	r2, [pc, #328]	; (8002f50 <HAL_GPIO_Init+0x314>)
 8002e06:	4293      	cmp	r3, r2
 8002e08:	d02b      	beq.n	8002e62 <HAL_GPIO_Init+0x226>
 8002e0a:	687b      	ldr	r3, [r7, #4]
 8002e0c:	4a51      	ldr	r2, [pc, #324]	; (8002f54 <HAL_GPIO_Init+0x318>)
 8002e0e:	4293      	cmp	r3, r2
 8002e10:	d025      	beq.n	8002e5e <HAL_GPIO_Init+0x222>
 8002e12:	687b      	ldr	r3, [r7, #4]
 8002e14:	4a50      	ldr	r2, [pc, #320]	; (8002f58 <HAL_GPIO_Init+0x31c>)
 8002e16:	4293      	cmp	r3, r2
 8002e18:	d01f      	beq.n	8002e5a <HAL_GPIO_Init+0x21e>
 8002e1a:	687b      	ldr	r3, [r7, #4]
 8002e1c:	4a4f      	ldr	r2, [pc, #316]	; (8002f5c <HAL_GPIO_Init+0x320>)
 8002e1e:	4293      	cmp	r3, r2
 8002e20:	d019      	beq.n	8002e56 <HAL_GPIO_Init+0x21a>
 8002e22:	687b      	ldr	r3, [r7, #4]
 8002e24:	4a4e      	ldr	r2, [pc, #312]	; (8002f60 <HAL_GPIO_Init+0x324>)
 8002e26:	4293      	cmp	r3, r2
 8002e28:	d013      	beq.n	8002e52 <HAL_GPIO_Init+0x216>
 8002e2a:	687b      	ldr	r3, [r7, #4]
 8002e2c:	4a4d      	ldr	r2, [pc, #308]	; (8002f64 <HAL_GPIO_Init+0x328>)
 8002e2e:	4293      	cmp	r3, r2
 8002e30:	d00d      	beq.n	8002e4e <HAL_GPIO_Init+0x212>
 8002e32:	687b      	ldr	r3, [r7, #4]
 8002e34:	4a4c      	ldr	r2, [pc, #304]	; (8002f68 <HAL_GPIO_Init+0x32c>)
 8002e36:	4293      	cmp	r3, r2
 8002e38:	d007      	beq.n	8002e4a <HAL_GPIO_Init+0x20e>
 8002e3a:	687b      	ldr	r3, [r7, #4]
 8002e3c:	4a4b      	ldr	r2, [pc, #300]	; (8002f6c <HAL_GPIO_Init+0x330>)
 8002e3e:	4293      	cmp	r3, r2
 8002e40:	d101      	bne.n	8002e46 <HAL_GPIO_Init+0x20a>
 8002e42:	2307      	movs	r3, #7
 8002e44:	e00e      	b.n	8002e64 <HAL_GPIO_Init+0x228>
 8002e46:	2308      	movs	r3, #8
 8002e48:	e00c      	b.n	8002e64 <HAL_GPIO_Init+0x228>
 8002e4a:	2306      	movs	r3, #6
 8002e4c:	e00a      	b.n	8002e64 <HAL_GPIO_Init+0x228>
 8002e4e:	2305      	movs	r3, #5
 8002e50:	e008      	b.n	8002e64 <HAL_GPIO_Init+0x228>
 8002e52:	2304      	movs	r3, #4
 8002e54:	e006      	b.n	8002e64 <HAL_GPIO_Init+0x228>
 8002e56:	2303      	movs	r3, #3
 8002e58:	e004      	b.n	8002e64 <HAL_GPIO_Init+0x228>
 8002e5a:	2302      	movs	r3, #2
 8002e5c:	e002      	b.n	8002e64 <HAL_GPIO_Init+0x228>
 8002e5e:	2301      	movs	r3, #1
 8002e60:	e000      	b.n	8002e64 <HAL_GPIO_Init+0x228>
 8002e62:	2300      	movs	r3, #0
 8002e64:	69fa      	ldr	r2, [r7, #28]
 8002e66:	f002 0203 	and.w	r2, r2, #3
 8002e6a:	0092      	lsls	r2, r2, #2
 8002e6c:	4093      	lsls	r3, r2
 8002e6e:	69ba      	ldr	r2, [r7, #24]
 8002e70:	4313      	orrs	r3, r2
 8002e72:	61bb      	str	r3, [r7, #24]
        SYSCFG->EXTICR[position >> 2U] = temp;
 8002e74:	4935      	ldr	r1, [pc, #212]	; (8002f4c <HAL_GPIO_Init+0x310>)
 8002e76:	69fb      	ldr	r3, [r7, #28]
 8002e78:	089b      	lsrs	r3, r3, #2
 8002e7a:	3302      	adds	r3, #2
 8002e7c:	69ba      	ldr	r2, [r7, #24]
 8002e7e:	f841 2023 	str.w	r2, [r1, r3, lsl #2]

        /* Clear Rising Falling edge configuration */
        temp = EXTI->RTSR;
 8002e82:	4b3b      	ldr	r3, [pc, #236]	; (8002f70 <HAL_GPIO_Init+0x334>)
 8002e84:	689b      	ldr	r3, [r3, #8]
 8002e86:	61bb      	str	r3, [r7, #24]
        temp &= ~((uint32_t)iocurrent);
 8002e88:	693b      	ldr	r3, [r7, #16]
 8002e8a:	43db      	mvns	r3, r3
 8002e8c:	69ba      	ldr	r2, [r7, #24]
 8002e8e:	4013      	ands	r3, r2
 8002e90:	61bb      	str	r3, [r7, #24]
        if((GPIO_Init->Mode & TRIGGER_RISING) != 0x00U)
 8002e92:	683b      	ldr	r3, [r7, #0]
 8002e94:	685b      	ldr	r3, [r3, #4]
 8002e96:	f403 1380 	and.w	r3, r3, #1048576	; 0x100000
 8002e9a:	2b00      	cmp	r3, #0
 8002e9c:	d003      	beq.n	8002ea6 <HAL_GPIO_Init+0x26a>
        {
          temp |= iocurrent;
 8002e9e:	69ba      	ldr	r2, [r7, #24]
 8002ea0:	693b      	ldr	r3, [r7, #16]
 8002ea2:	4313      	orrs	r3, r2
 8002ea4:	61bb      	str	r3, [r7, #24]
        }
        EXTI->RTSR = temp;
 8002ea6:	4a32      	ldr	r2, [pc, #200]	; (8002f70 <HAL_GPIO_Init+0x334>)
 8002ea8:	69bb      	ldr	r3, [r7, #24]
 8002eaa:	6093      	str	r3, [r2, #8]

        temp = EXTI->FTSR;
 8002eac:	4b30      	ldr	r3, [pc, #192]	; (8002f70 <HAL_GPIO_Init+0x334>)
 8002eae:	68db      	ldr	r3, [r3, #12]
 8002eb0:	61bb      	str	r3, [r7, #24]
        temp &= ~((uint32_t)iocurrent);
 8002eb2:	693b      	ldr	r3, [r7, #16]
 8002eb4:	43db      	mvns	r3, r3
 8002eb6:	69ba      	ldr	r2, [r7, #24]
 8002eb8:	4013      	ands	r3, r2
 8002eba:	61bb      	str	r3, [r7, #24]
        if((GPIO_Init->Mode & TRIGGER_FALLING) != 0x00U)
 8002ebc:	683b      	ldr	r3, [r7, #0]
 8002ebe:	685b      	ldr	r3, [r3, #4]
 8002ec0:	f403 1300 	and.w	r3, r3, #2097152	; 0x200000
 8002ec4:	2b00      	cmp	r3, #0
 8002ec6:	d003      	beq.n	8002ed0 <HAL_GPIO_Init+0x294>
        {
          temp |= iocurrent;
 8002ec8:	69ba      	ldr	r2, [r7, #24]
 8002eca:	693b      	ldr	r3, [r7, #16]
 8002ecc:	4313      	orrs	r3, r2
 8002ece:	61bb      	str	r3, [r7, #24]
        }
        EXTI->FTSR = temp;
 8002ed0:	4a27      	ldr	r2, [pc, #156]	; (8002f70 <HAL_GPIO_Init+0x334>)
 8002ed2:	69bb      	ldr	r3, [r7, #24]
 8002ed4:	60d3      	str	r3, [r2, #12]

        temp = EXTI->EMR;
 8002ed6:	4b26      	ldr	r3, [pc, #152]	; (8002f70 <HAL_GPIO_Init+0x334>)
 8002ed8:	685b      	ldr	r3, [r3, #4]
 8002eda:	61bb      	str	r3, [r7, #24]
        temp &= ~((uint32_t)iocurrent);
 8002edc:	693b      	ldr	r3, [r7, #16]
 8002ede:	43db      	mvns	r3, r3
 8002ee0:	69ba      	ldr	r2, [r7, #24]
 8002ee2:	4013      	ands	r3, r2
 8002ee4:	61bb      	str	r3, [r7, #24]
        if((GPIO_Init->Mode & EXTI_EVT) != 0x00U)
 8002ee6:	683b      	ldr	r3, [r7, #0]
 8002ee8:	685b      	ldr	r3, [r3, #4]
 8002eea:	f403 3300 	and.w	r3, r3, #131072	; 0x20000
 8002eee:	2b00      	cmp	r3, #0
 8002ef0:	d003      	beq.n	8002efa <HAL_GPIO_Init+0x2be>
        {
          temp |= iocurrent;
 8002ef2:	69ba      	ldr	r2, [r7, #24]
 8002ef4:	693b      	ldr	r3, [r7, #16]
 8002ef6:	4313      	orrs	r3, r2
 8002ef8:	61bb      	str	r3, [r7, #24]
        }
        EXTI->EMR = temp;
 8002efa:	4a1d      	ldr	r2, [pc, #116]	; (8002f70 <HAL_GPIO_Init+0x334>)
 8002efc:	69bb      	ldr	r3, [r7, #24]
 8002efe:	6053      	str	r3, [r2, #4]

        /* Clear EXTI line configuration */
        temp = EXTI->IMR;
 8002f00:	4b1b      	ldr	r3, [pc, #108]	; (8002f70 <HAL_GPIO_Init+0x334>)
 8002f02:	681b      	ldr	r3, [r3, #0]
 8002f04:	61bb      	str	r3, [r7, #24]
        temp &= ~((uint32_t)iocurrent);
 8002f06:	693b      	ldr	r3, [r7, #16]
 8002f08:	43db      	mvns	r3, r3
 8002f0a:	69ba      	ldr	r2, [r7, #24]
 8002f0c:	4013      	ands	r3, r2
 8002f0e:	61bb      	str	r3, [r7, #24]
        if((GPIO_Init->Mode & EXTI_IT) != 0x00U)
 8002f10:	683b      	ldr	r3, [r7, #0]
 8002f12:	685b      	ldr	r3, [r3, #4]
 8002f14:	f403 3380 	and.w	r3, r3, #65536	; 0x10000
 8002f18:	2b00      	cmp	r3, #0
 8002f1a:	d003      	beq.n	8002f24 <HAL_GPIO_Init+0x2e8>
        {
          temp |= iocurrent;
 8002f1c:	69ba      	ldr	r2, [r7, #24]
 8002f1e:	693b      	ldr	r3, [r7, #16]
 8002f20:	4313      	orrs	r3, r2
 8002f22:	61bb      	str	r3, [r7, #24]
        }
        EXTI->IMR = temp;
 8002f24:	4a12      	ldr	r2, [pc, #72]	; (8002f70 <HAL_GPIO_Init+0x334>)
 8002f26:	69bb      	ldr	r3, [r7, #24]
 8002f28:	6013      	str	r3, [r2, #0]
  for(position = 0U; position < GPIO_NUMBER; position++)
 8002f2a:	69fb      	ldr	r3, [r7, #28]
 8002f2c:	3301      	adds	r3, #1
 8002f2e:	61fb      	str	r3, [r7, #28]
 8002f30:	69fb      	ldr	r3, [r7, #28]
 8002f32:	2b0f      	cmp	r3, #15
 8002f34:	f67f ae90 	bls.w	8002c58 <HAL_GPIO_Init+0x1c>
      }
    }
  }
}
 8002f38:	bf00      	nop
 8002f3a:	bf00      	nop
 8002f3c:	3724      	adds	r7, #36	; 0x24
 8002f3e:	46bd      	mov	sp, r7
 8002f40:	f85d 7b04 	ldr.w	r7, [sp], #4
 8002f44:	4770      	bx	lr
 8002f46:	bf00      	nop
 8002f48:	40023800 	.word	0x40023800
 8002f4c:	40013800 	.word	0x40013800
 8002f50:	40020000 	.word	0x40020000
 8002f54:	40020400 	.word	0x40020400
 8002f58:	40020800 	.word	0x40020800
 8002f5c:	40020c00 	.word	0x40020c00
 8002f60:	40021000 	.word	0x40021000
 8002f64:	40021400 	.word	0x40021400
 8002f68:	40021800 	.word	0x40021800
 8002f6c:	40021c00 	.word	0x40021c00
 8002f70:	40013c00 	.word	0x40013c00

08002f74 <HAL_GPIO_WritePin>:
  *            @arg GPIO_PIN_RESET: to clear the port pin
  *            @arg GPIO_PIN_SET: to set the port pin
  * @retval None
  */
void HAL_GPIO_WritePin(GPIO_TypeDef* GPIOx, uint16_t GPIO_Pin, GPIO_PinState PinState)
{
 8002f74:	b480      	push	{r7}
 8002f76:	b083      	sub	sp, #12
 8002f78:	af00      	add	r7, sp, #0
 8002f7a:	6078      	str	r0, [r7, #4]
 8002f7c:	460b      	mov	r3, r1
 8002f7e:	807b      	strh	r3, [r7, #2]
 8002f80:	4613      	mov	r3, r2
 8002f82:	707b      	strb	r3, [r7, #1]
  /* Check the parameters */
  assert_param(IS_GPIO_PIN(GPIO_Pin));
  assert_param(IS_GPIO_PIN_ACTION(PinState));

  if(PinState != GPIO_PIN_RESET)
 8002f84:	787b      	ldrb	r3, [r7, #1]
 8002f86:	2b00      	cmp	r3, #0
 8002f88:	d003      	beq.n	8002f92 <HAL_GPIO_WritePin+0x1e>
  {
    GPIOx->BSRR = GPIO_Pin;
 8002f8a:	887a      	ldrh	r2, [r7, #2]
 8002f8c:	687b      	ldr	r3, [r7, #4]
 8002f8e:	619a      	str	r2, [r3, #24]
  }
  else
  {
    GPIOx->BSRR = (uint32_t)GPIO_Pin << 16U;
  }
}
 8002f90:	e003      	b.n	8002f9a <HAL_GPIO_WritePin+0x26>
    GPIOx->BSRR = (uint32_t)GPIO_Pin << 16U;
 8002f92:	887b      	ldrh	r3, [r7, #2]
 8002f94:	041a      	lsls	r2, r3, #16
 8002f96:	687b      	ldr	r3, [r7, #4]
 8002f98:	619a      	str	r2, [r3, #24]
}
 8002f9a:	bf00      	nop
 8002f9c:	370c      	adds	r7, #12
 8002f9e:	46bd      	mov	sp, r7
 8002fa0:	f85d 7b04 	ldr.w	r7, [sp], #4
 8002fa4:	4770      	bx	lr
	...

08002fa8 <HAL_I2C_Init>:
  * @param  hi2c Pointer to a I2C_HandleTypeDef structure that contains
  *                the configuration information for the specified I2C.
  * @retval HAL status
  */
HAL_StatusTypeDef HAL_I2C_Init(I2C_HandleTypeDef *hi2c)
{
 8002fa8:	b580      	push	{r7, lr}
 8002faa:	b084      	sub	sp, #16
 8002fac:	af00      	add	r7, sp, #0
 8002fae:	6078      	str	r0, [r7, #4]
  uint32_t freqrange;
  uint32_t pclk1;

  /* Check the I2C handle allocation */
  if (hi2c == NULL)
 8002fb0:	687b      	ldr	r3, [r7, #4]
 8002fb2:	2b00      	cmp	r3, #0
 8002fb4:	d101      	bne.n	8002fba <HAL_I2C_Init+0x12>
  {
    return HAL_ERROR;
 8002fb6:	2301      	movs	r3, #1
 8002fb8:	e12b      	b.n	8003212 <HAL_I2C_Init+0x26a>
  assert_param(IS_I2C_DUAL_ADDRESS(hi2c->Init.DualAddressMode));
  assert_param(IS_I2C_OWN_ADDRESS2(hi2c->Init.OwnAddress2));
  assert_param(IS_I2C_GENERAL_CALL(hi2c->Init.GeneralCallMode));
  assert_param(IS_I2C_NO_STRETCH(hi2c->Init.NoStretchMode));

  if (hi2c->State == HAL_I2C_STATE_RESET)
 8002fba:	687b      	ldr	r3, [r7, #4]
 8002fbc:	f893 303d 	ldrb.w	r3, [r3, #61]	; 0x3d
 8002fc0:	b2db      	uxtb	r3, r3
 8002fc2:	2b00      	cmp	r3, #0
 8002fc4:	d106      	bne.n	8002fd4 <HAL_I2C_Init+0x2c>
  {
    /* Allocate lock resource and initialize it */
    hi2c->Lock = HAL_UNLOCKED;
 8002fc6:	687b      	ldr	r3, [r7, #4]
 8002fc8:	2200      	movs	r2, #0
 8002fca:	f883 203c 	strb.w	r2, [r3, #60]	; 0x3c

    /* Init the low level hardware : GPIO, CLOCK, NVIC */
    hi2c->MspInitCallback(hi2c);
#else
    /* Init the low level hardware : GPIO, CLOCK, NVIC */
    HAL_I2C_MspInit(hi2c);
 8002fce:	6878      	ldr	r0, [r7, #4]
 8002fd0:	f7fe fee8 	bl	8001da4 <HAL_I2C_MspInit>
#endif /* USE_HAL_I2C_REGISTER_CALLBACKS */
  }

  hi2c->State = HAL_I2C_STATE_BUSY;
 8002fd4:	687b      	ldr	r3, [r7, #4]
 8002fd6:	2224      	movs	r2, #36	; 0x24
 8002fd8:	f883 203d 	strb.w	r2, [r3, #61]	; 0x3d

  /* Disable the selected I2C peripheral */
  __HAL_I2C_DISABLE(hi2c);
 8002fdc:	687b      	ldr	r3, [r7, #4]
 8002fde:	681b      	ldr	r3, [r3, #0]
 8002fe0:	681a      	ldr	r2, [r3, #0]
 8002fe2:	687b      	ldr	r3, [r7, #4]
 8002fe4:	681b      	ldr	r3, [r3, #0]
 8002fe6:	f022 0201 	bic.w	r2, r2, #1
 8002fea:	601a      	str	r2, [r3, #0]

  /*Reset I2C*/
  hi2c->Instance->CR1 |= I2C_CR1_SWRST;
 8002fec:	687b      	ldr	r3, [r7, #4]
 8002fee:	681b      	ldr	r3, [r3, #0]
 8002ff0:	681a      	ldr	r2, [r3, #0]
 8002ff2:	687b      	ldr	r3, [r7, #4]
 8002ff4:	681b      	ldr	r3, [r3, #0]
 8002ff6:	f442 4200 	orr.w	r2, r2, #32768	; 0x8000
 8002ffa:	601a      	str	r2, [r3, #0]
  hi2c->Instance->CR1 &= ~I2C_CR1_SWRST;
 8002ffc:	687b      	ldr	r3, [r7, #4]
 8002ffe:	681b      	ldr	r3, [r3, #0]
 8003000:	681a      	ldr	r2, [r3, #0]
 8003002:	687b      	ldr	r3, [r7, #4]
 8003004:	681b      	ldr	r3, [r3, #0]
 8003006:	f422 4200 	bic.w	r2, r2, #32768	; 0x8000
 800300a:	601a      	str	r2, [r3, #0]

  /* Get PCLK1 frequency */
  pclk1 = HAL_RCC_GetPCLK1Freq();
 800300c:	f001 fbf6 	bl	80047fc <HAL_RCC_GetPCLK1Freq>
 8003010:	60f8      	str	r0, [r7, #12]

  /* Check the minimum allowed PCLK1 frequency */
  if (I2C_MIN_PCLK_FREQ(pclk1, hi2c->Init.ClockSpeed) == 1U)
 8003012:	687b      	ldr	r3, [r7, #4]
 8003014:	685b      	ldr	r3, [r3, #4]
 8003016:	4a81      	ldr	r2, [pc, #516]	; (800321c <HAL_I2C_Init+0x274>)
 8003018:	4293      	cmp	r3, r2
 800301a:	d807      	bhi.n	800302c <HAL_I2C_Init+0x84>
 800301c:	68fb      	ldr	r3, [r7, #12]
 800301e:	4a80      	ldr	r2, [pc, #512]	; (8003220 <HAL_I2C_Init+0x278>)
 8003020:	4293      	cmp	r3, r2
 8003022:	bf94      	ite	ls
 8003024:	2301      	movls	r3, #1
 8003026:	2300      	movhi	r3, #0
 8003028:	b2db      	uxtb	r3, r3
 800302a:	e006      	b.n	800303a <HAL_I2C_Init+0x92>
 800302c:	68fb      	ldr	r3, [r7, #12]
 800302e:	4a7d      	ldr	r2, [pc, #500]	; (8003224 <HAL_I2C_Init+0x27c>)
 8003030:	4293      	cmp	r3, r2
 8003032:	bf94      	ite	ls
 8003034:	2301      	movls	r3, #1
 8003036:	2300      	movhi	r3, #0
 8003038:	b2db      	uxtb	r3, r3
 800303a:	2b00      	cmp	r3, #0
 800303c:	d001      	beq.n	8003042 <HAL_I2C_Init+0x9a>
  {
    return HAL_ERROR;
 800303e:	2301      	movs	r3, #1
 8003040:	e0e7      	b.n	8003212 <HAL_I2C_Init+0x26a>
  }

  /* Calculate frequency range */
  freqrange = I2C_FREQRANGE(pclk1);
 8003042:	68fb      	ldr	r3, [r7, #12]
 8003044:	4a78      	ldr	r2, [pc, #480]	; (8003228 <HAL_I2C_Init+0x280>)
 8003046:	fba2 2303 	umull	r2, r3, r2, r3
 800304a:	0c9b      	lsrs	r3, r3, #18
 800304c:	60bb      	str	r3, [r7, #8]

  /*---------------------------- I2Cx CR2 Configuration ----------------------*/
  /* Configure I2Cx: Frequency range */
  MODIFY_REG(hi2c->Instance->CR2, I2C_CR2_FREQ, freqrange);
 800304e:	687b      	ldr	r3, [r7, #4]
 8003050:	681b      	ldr	r3, [r3, #0]
 8003052:	685b      	ldr	r3, [r3, #4]
 8003054:	f023 013f 	bic.w	r1, r3, #63	; 0x3f
 8003058:	687b      	ldr	r3, [r7, #4]
 800305a:	681b      	ldr	r3, [r3, #0]
 800305c:	68ba      	ldr	r2, [r7, #8]
 800305e:	430a      	orrs	r2, r1
 8003060:	605a      	str	r2, [r3, #4]

  /*---------------------------- I2Cx TRISE Configuration --------------------*/
  /* Configure I2Cx: Rise Time */
  MODIFY_REG(hi2c->Instance->TRISE, I2C_TRISE_TRISE, I2C_RISE_TIME(freqrange, hi2c->Init.ClockSpeed));
 8003062:	687b      	ldr	r3, [r7, #4]
 8003064:	681b      	ldr	r3, [r3, #0]
 8003066:	6a1b      	ldr	r3, [r3, #32]
 8003068:	f023 013f 	bic.w	r1, r3, #63	; 0x3f
 800306c:	687b      	ldr	r3, [r7, #4]
 800306e:	685b      	ldr	r3, [r3, #4]
 8003070:	4a6a      	ldr	r2, [pc, #424]	; (800321c <HAL_I2C_Init+0x274>)
 8003072:	4293      	cmp	r3, r2
 8003074:	d802      	bhi.n	800307c <HAL_I2C_Init+0xd4>
 8003076:	68bb      	ldr	r3, [r7, #8]
 8003078:	3301      	adds	r3, #1
 800307a:	e009      	b.n	8003090 <HAL_I2C_Init+0xe8>
 800307c:	68bb      	ldr	r3, [r7, #8]
 800307e:	f44f 7296 	mov.w	r2, #300	; 0x12c
 8003082:	fb02 f303 	mul.w	r3, r2, r3
 8003086:	4a69      	ldr	r2, [pc, #420]	; (800322c <HAL_I2C_Init+0x284>)
 8003088:	fba2 2303 	umull	r2, r3, r2, r3
 800308c:	099b      	lsrs	r3, r3, #6
 800308e:	3301      	adds	r3, #1
 8003090:	687a      	ldr	r2, [r7, #4]
 8003092:	6812      	ldr	r2, [r2, #0]
 8003094:	430b      	orrs	r3, r1
 8003096:	6213      	str	r3, [r2, #32]

  /*---------------------------- I2Cx CCR Configuration ----------------------*/
  /* Configure I2Cx: Speed */
  MODIFY_REG(hi2c->Instance->CCR, (I2C_CCR_FS | I2C_CCR_DUTY | I2C_CCR_CCR), I2C_SPEED(pclk1, hi2c->Init.ClockSpeed, hi2c->Init.DutyCycle));
 8003098:	687b      	ldr	r3, [r7, #4]
 800309a:	681b      	ldr	r3, [r3, #0]
 800309c:	69db      	ldr	r3, [r3, #28]
 800309e:	f423 424f 	bic.w	r2, r3, #52992	; 0xcf00
 80030a2:	f022 02ff 	bic.w	r2, r2, #255	; 0xff
 80030a6:	687b      	ldr	r3, [r7, #4]
 80030a8:	685b      	ldr	r3, [r3, #4]
 80030aa:	495c      	ldr	r1, [pc, #368]	; (800321c <HAL_I2C_Init+0x274>)
 80030ac:	428b      	cmp	r3, r1
 80030ae:	d819      	bhi.n	80030e4 <HAL_I2C_Init+0x13c>
 80030b0:	68fb      	ldr	r3, [r7, #12]
 80030b2:	1e59      	subs	r1, r3, #1
 80030b4:	687b      	ldr	r3, [r7, #4]
 80030b6:	685b      	ldr	r3, [r3, #4]
 80030b8:	005b      	lsls	r3, r3, #1
 80030ba:	fbb1 f3f3 	udiv	r3, r1, r3
 80030be:	1c59      	adds	r1, r3, #1
 80030c0:	f640 73fc 	movw	r3, #4092	; 0xffc
 80030c4:	400b      	ands	r3, r1
 80030c6:	2b00      	cmp	r3, #0
 80030c8:	d00a      	beq.n	80030e0 <HAL_I2C_Init+0x138>
 80030ca:	68fb      	ldr	r3, [r7, #12]
 80030cc:	1e59      	subs	r1, r3, #1
 80030ce:	687b      	ldr	r3, [r7, #4]
 80030d0:	685b      	ldr	r3, [r3, #4]
 80030d2:	005b      	lsls	r3, r3, #1
 80030d4:	fbb1 f3f3 	udiv	r3, r1, r3
 80030d8:	3301      	adds	r3, #1
 80030da:	f3c3 030b 	ubfx	r3, r3, #0, #12
 80030de:	e051      	b.n	8003184 <HAL_I2C_Init+0x1dc>
 80030e0:	2304      	movs	r3, #4
 80030e2:	e04f      	b.n	8003184 <HAL_I2C_Init+0x1dc>
 80030e4:	687b      	ldr	r3, [r7, #4]
 80030e6:	689b      	ldr	r3, [r3, #8]
 80030e8:	2b00      	cmp	r3, #0
 80030ea:	d111      	bne.n	8003110 <HAL_I2C_Init+0x168>
 80030ec:	68fb      	ldr	r3, [r7, #12]
 80030ee:	1e58      	subs	r0, r3, #1
 80030f0:	687b      	ldr	r3, [r7, #4]
 80030f2:	6859      	ldr	r1, [r3, #4]
 80030f4:	460b      	mov	r3, r1
 80030f6:	005b      	lsls	r3, r3, #1
 80030f8:	440b      	add	r3, r1
 80030fa:	fbb0 f3f3 	udiv	r3, r0, r3
 80030fe:	3301      	adds	r3, #1
 8003100:	f3c3 030b 	ubfx	r3, r3, #0, #12
 8003104:	2b00      	cmp	r3, #0
 8003106:	bf0c      	ite	eq
 8003108:	2301      	moveq	r3, #1
 800310a:	2300      	movne	r3, #0
 800310c:	b2db      	uxtb	r3, r3
 800310e:	e012      	b.n	8003136 <HAL_I2C_Init+0x18e>
 8003110:	68fb      	ldr	r3, [r7, #12]
 8003112:	1e58      	subs	r0, r3, #1
 8003114:	687b      	ldr	r3, [r7, #4]
 8003116:	6859      	ldr	r1, [r3, #4]
 8003118:	460b      	mov	r3, r1
 800311a:	009b      	lsls	r3, r3, #2
 800311c:	440b      	add	r3, r1
 800311e:	0099      	lsls	r1, r3, #2
 8003120:	440b      	add	r3, r1
 8003122:	fbb0 f3f3 	udiv	r3, r0, r3
 8003126:	3301      	adds	r3, #1
 8003128:	f3c3 030b 	ubfx	r3, r3, #0, #12
 800312c:	2b00      	cmp	r3, #0
 800312e:	bf0c      	ite	eq
 8003130:	2301      	moveq	r3, #1
 8003132:	2300      	movne	r3, #0
 8003134:	b2db      	uxtb	r3, r3
 8003136:	2b00      	cmp	r3, #0
 8003138:	d001      	beq.n	800313e <HAL_I2C_Init+0x196>
 800313a:	2301      	movs	r3, #1
 800313c:	e022      	b.n	8003184 <HAL_I2C_Init+0x1dc>
 800313e:	687b      	ldr	r3, [r7, #4]
 8003140:	689b      	ldr	r3, [r3, #8]
 8003142:	2b00      	cmp	r3, #0
 8003144:	d10e      	bne.n	8003164 <HAL_I2C_Init+0x1bc>
 8003146:	68fb      	ldr	r3, [r7, #12]
 8003148:	1e58      	subs	r0, r3, #1
 800314a:	687b      	ldr	r3, [r7, #4]
 800314c:	6859      	ldr	r1, [r3, #4]
 800314e:	460b      	mov	r3, r1
 8003150:	005b      	lsls	r3, r3, #1
 8003152:	440b      	add	r3, r1
 8003154:	fbb0 f3f3 	udiv	r3, r0, r3
 8003158:	3301      	adds	r3, #1
 800315a:	f3c3 030b 	ubfx	r3, r3, #0, #12
 800315e:	f443 4300 	orr.w	r3, r3, #32768	; 0x8000
 8003162:	e00f      	b.n	8003184 <HAL_I2C_Init+0x1dc>
 8003164:	68fb      	ldr	r3, [r7, #12]
 8003166:	1e58      	subs	r0, r3, #1
 8003168:	687b      	ldr	r3, [r7, #4]
 800316a:	6859      	ldr	r1, [r3, #4]
 800316c:	460b      	mov	r3, r1
 800316e:	009b      	lsls	r3, r3, #2
 8003170:	440b      	add	r3, r1
 8003172:	0099      	lsls	r1, r3, #2
 8003174:	440b      	add	r3, r1
 8003176:	fbb0 f3f3 	udiv	r3, r0, r3
 800317a:	3301      	adds	r3, #1
 800317c:	f3c3 030b 	ubfx	r3, r3, #0, #12
 8003180:	f443 4340 	orr.w	r3, r3, #49152	; 0xc000
 8003184:	6879      	ldr	r1, [r7, #4]
 8003186:	6809      	ldr	r1, [r1, #0]
 8003188:	4313      	orrs	r3, r2
 800318a:	61cb      	str	r3, [r1, #28]

  /*---------------------------- I2Cx CR1 Configuration ----------------------*/
  /* Configure I2Cx: Generalcall and NoStretch mode */
  MODIFY_REG(hi2c->Instance->CR1, (I2C_CR1_ENGC | I2C_CR1_NOSTRETCH), (hi2c->Init.GeneralCallMode | hi2c->Init.NoStretchMode));
 800318c:	687b      	ldr	r3, [r7, #4]
 800318e:	681b      	ldr	r3, [r3, #0]
 8003190:	681b      	ldr	r3, [r3, #0]
 8003192:	f023 01c0 	bic.w	r1, r3, #192	; 0xc0
 8003196:	687b      	ldr	r3, [r7, #4]
 8003198:	69da      	ldr	r2, [r3, #28]
 800319a:	687b      	ldr	r3, [r7, #4]
 800319c:	6a1b      	ldr	r3, [r3, #32]
 800319e:	431a      	orrs	r2, r3
 80031a0:	687b      	ldr	r3, [r7, #4]
 80031a2:	681b      	ldr	r3, [r3, #0]
 80031a4:	430a      	orrs	r2, r1
 80031a6:	601a      	str	r2, [r3, #0]

  /*---------------------------- I2Cx OAR1 Configuration ---------------------*/
  /* Configure I2Cx: Own Address1 and addressing mode */
  MODIFY_REG(hi2c->Instance->OAR1, (I2C_OAR1_ADDMODE | I2C_OAR1_ADD8_9 | I2C_OAR1_ADD1_7 | I2C_OAR1_ADD0), (hi2c->Init.AddressingMode | hi2c->Init.OwnAddress1));
 80031a8:	687b      	ldr	r3, [r7, #4]
 80031aa:	681b      	ldr	r3, [r3, #0]
 80031ac:	689b      	ldr	r3, [r3, #8]
 80031ae:	f423 4303 	bic.w	r3, r3, #33536	; 0x8300
 80031b2:	f023 03ff 	bic.w	r3, r3, #255	; 0xff
 80031b6:	687a      	ldr	r2, [r7, #4]
 80031b8:	6911      	ldr	r1, [r2, #16]
 80031ba:	687a      	ldr	r2, [r7, #4]
 80031bc:	68d2      	ldr	r2, [r2, #12]
 80031be:	4311      	orrs	r1, r2
 80031c0:	687a      	ldr	r2, [r7, #4]
 80031c2:	6812      	ldr	r2, [r2, #0]
 80031c4:	430b      	orrs	r3, r1
 80031c6:	6093      	str	r3, [r2, #8]

  /*---------------------------- I2Cx OAR2 Configuration ---------------------*/
  /* Configure I2Cx: Dual mode and Own Address2 */
  MODIFY_REG(hi2c->Instance->OAR2, (I2C_OAR2_ENDUAL | I2C_OAR2_ADD2), (hi2c->Init.DualAddressMode | hi2c->Init.OwnAddress2));
 80031c8:	687b      	ldr	r3, [r7, #4]
 80031ca:	681b      	ldr	r3, [r3, #0]
 80031cc:	68db      	ldr	r3, [r3, #12]
 80031ce:	f023 01ff 	bic.w	r1, r3, #255	; 0xff
 80031d2:	687b      	ldr	r3, [r7, #4]
 80031d4:	695a      	ldr	r2, [r3, #20]
 80031d6:	687b      	ldr	r3, [r7, #4]
 80031d8:	699b      	ldr	r3, [r3, #24]
 80031da:	431a      	orrs	r2, r3
 80031dc:	687b      	ldr	r3, [r7, #4]
 80031de:	681b      	ldr	r3, [r3, #0]
 80031e0:	430a      	orrs	r2, r1
 80031e2:	60da      	str	r2, [r3, #12]

  /* Enable the selected I2C peripheral */
  __HAL_I2C_ENABLE(hi2c);
 80031e4:	687b      	ldr	r3, [r7, #4]
 80031e6:	681b      	ldr	r3, [r3, #0]
 80031e8:	681a      	ldr	r2, [r3, #0]
 80031ea:	687b      	ldr	r3, [r7, #4]
 80031ec:	681b      	ldr	r3, [r3, #0]
 80031ee:	f042 0201 	orr.w	r2, r2, #1
 80031f2:	601a      	str	r2, [r3, #0]

  hi2c->ErrorCode = HAL_I2C_ERROR_NONE;
 80031f4:	687b      	ldr	r3, [r7, #4]
 80031f6:	2200      	movs	r2, #0
 80031f8:	641a      	str	r2, [r3, #64]	; 0x40
  hi2c->State = HAL_I2C_STATE_READY;
 80031fa:	687b      	ldr	r3, [r7, #4]
 80031fc:	2220      	movs	r2, #32
 80031fe:	f883 203d 	strb.w	r2, [r3, #61]	; 0x3d
  hi2c->PreviousState = I2C_STATE_NONE;
 8003202:	687b      	ldr	r3, [r7, #4]
 8003204:	2200      	movs	r2, #0
 8003206:	631a      	str	r2, [r3, #48]	; 0x30
  hi2c->Mode = HAL_I2C_MODE_NONE;
 8003208:	687b      	ldr	r3, [r7, #4]
 800320a:	2200      	movs	r2, #0
 800320c:	f883 203e 	strb.w	r2, [r3, #62]	; 0x3e

  return HAL_OK;
 8003210:	2300      	movs	r3, #0
}
 8003212:	4618      	mov	r0, r3
 8003214:	3710      	adds	r7, #16
 8003216:	46bd      	mov	sp, r7
 8003218:	bd80      	pop	{r7, pc}
 800321a:	bf00      	nop
 800321c:	000186a0 	.word	0x000186a0
 8003220:	001e847f 	.word	0x001e847f
 8003224:	003d08ff 	.word	0x003d08ff
 8003228:	431bde83 	.word	0x431bde83
 800322c:	10624dd3 	.word	0x10624dd3

08003230 <HAL_I2C_Master_Transmit>:
  * @param  Size Amount of data to be sent
  * @param  Timeout Timeout duration
  * @retval HAL status
  */
HAL_StatusTypeDef HAL_I2C_Master_Transmit(I2C_HandleTypeDef *hi2c, uint16_t DevAddress, uint8_t *pData, uint16_t Size, uint32_t Timeout)
{
 8003230:	b580      	push	{r7, lr}
 8003232:	b088      	sub	sp, #32
 8003234:	af02      	add	r7, sp, #8
 8003236:	60f8      	str	r0, [r7, #12]
 8003238:	607a      	str	r2, [r7, #4]
 800323a:	461a      	mov	r2, r3
 800323c:	460b      	mov	r3, r1
 800323e:	817b      	strh	r3, [r7, #10]
 8003240:	4613      	mov	r3, r2
 8003242:	813b      	strh	r3, [r7, #8]
  /* Init tickstart for timeout management*/
  uint32_t tickstart = HAL_GetTick();
 8003244:	f7fe ff3c 	bl	80020c0 <HAL_GetTick>
 8003248:	6178      	str	r0, [r7, #20]

  if (hi2c->State == HAL_I2C_STATE_READY)
 800324a:	68fb      	ldr	r3, [r7, #12]
 800324c:	f893 303d 	ldrb.w	r3, [r3, #61]	; 0x3d
 8003250:	b2db      	uxtb	r3, r3
 8003252:	2b20      	cmp	r3, #32
 8003254:	f040 80e0 	bne.w	8003418 <HAL_I2C_Master_Transmit+0x1e8>
  {
    /* Wait until BUSY flag is reset */
    if (I2C_WaitOnFlagUntilTimeout(hi2c, I2C_FLAG_BUSY, SET, I2C_TIMEOUT_BUSY_FLAG, tickstart) != HAL_OK)
 8003258:	697b      	ldr	r3, [r7, #20]
 800325a:	9300      	str	r3, [sp, #0]
 800325c:	2319      	movs	r3, #25
 800325e:	2201      	movs	r2, #1
 8003260:	4970      	ldr	r1, [pc, #448]	; (8003424 <HAL_I2C_Master_Transmit+0x1f4>)
 8003262:	68f8      	ldr	r0, [r7, #12]
 8003264:	f000 fc64 	bl	8003b30 <I2C_WaitOnFlagUntilTimeout>
 8003268:	4603      	mov	r3, r0
 800326a:	2b00      	cmp	r3, #0
 800326c:	d001      	beq.n	8003272 <HAL_I2C_Master_Transmit+0x42>
    {
      return HAL_BUSY;
 800326e:	2302      	movs	r3, #2
 8003270:	e0d3      	b.n	800341a <HAL_I2C_Master_Transmit+0x1ea>
    }

    /* Process Locked */
    __HAL_LOCK(hi2c);
 8003272:	68fb      	ldr	r3, [r7, #12]
 8003274:	f893 303c 	ldrb.w	r3, [r3, #60]	; 0x3c
 8003278:	2b01      	cmp	r3, #1
 800327a:	d101      	bne.n	8003280 <HAL_I2C_Master_Transmit+0x50>
 800327c:	2302      	movs	r3, #2
 800327e:	e0cc      	b.n	800341a <HAL_I2C_Master_Transmit+0x1ea>
 8003280:	68fb      	ldr	r3, [r7, #12]
 8003282:	2201      	movs	r2, #1
 8003284:	f883 203c 	strb.w	r2, [r3, #60]	; 0x3c

    /* Check if the I2C is already enabled */
    if ((hi2c->Instance->CR1 & I2C_CR1_PE) != I2C_CR1_PE)
 8003288:	68fb      	ldr	r3, [r7, #12]
 800328a:	681b      	ldr	r3, [r3, #0]
 800328c:	681b      	ldr	r3, [r3, #0]
 800328e:	f003 0301 	and.w	r3, r3, #1
 8003292:	2b01      	cmp	r3, #1
 8003294:	d007      	beq.n	80032a6 <HAL_I2C_Master_Transmit+0x76>
    {
      /* Enable I2C peripheral */
      __HAL_I2C_ENABLE(hi2c);
 8003296:	68fb      	ldr	r3, [r7, #12]
 8003298:	681b      	ldr	r3, [r3, #0]
 800329a:	681a      	ldr	r2, [r3, #0]
 800329c:	68fb      	ldr	r3, [r7, #12]
 800329e:	681b      	ldr	r3, [r3, #0]
 80032a0:	f042 0201 	orr.w	r2, r2, #1
 80032a4:	601a      	str	r2, [r3, #0]
    }

    /* Disable Pos */
    CLEAR_BIT(hi2c->Instance->CR1, I2C_CR1_POS);
 80032a6:	68fb      	ldr	r3, [r7, #12]
 80032a8:	681b      	ldr	r3, [r3, #0]
 80032aa:	681a      	ldr	r2, [r3, #0]
 80032ac:	68fb      	ldr	r3, [r7, #12]
 80032ae:	681b      	ldr	r3, [r3, #0]
 80032b0:	f422 6200 	bic.w	r2, r2, #2048	; 0x800
 80032b4:	601a      	str	r2, [r3, #0]

    hi2c->State       = HAL_I2C_STATE_BUSY_TX;
 80032b6:	68fb      	ldr	r3, [r7, #12]
 80032b8:	2221      	movs	r2, #33	; 0x21
 80032ba:	f883 203d 	strb.w	r2, [r3, #61]	; 0x3d
    hi2c->Mode        = HAL_I2C_MODE_MASTER;
 80032be:	68fb      	ldr	r3, [r7, #12]
 80032c0:	2210      	movs	r2, #16
 80032c2:	f883 203e 	strb.w	r2, [r3, #62]	; 0x3e
    hi2c->ErrorCode   = HAL_I2C_ERROR_NONE;
 80032c6:	68fb      	ldr	r3, [r7, #12]
 80032c8:	2200      	movs	r2, #0
 80032ca:	641a      	str	r2, [r3, #64]	; 0x40

    /* Prepare transfer parameters */
    hi2c->pBuffPtr    = pData;
 80032cc:	68fb      	ldr	r3, [r7, #12]
 80032ce:	687a      	ldr	r2, [r7, #4]
 80032d0:	625a      	str	r2, [r3, #36]	; 0x24
    hi2c->XferCount   = Size;
 80032d2:	68fb      	ldr	r3, [r7, #12]
 80032d4:	893a      	ldrh	r2, [r7, #8]
 80032d6:	855a      	strh	r2, [r3, #42]	; 0x2a
    hi2c->XferSize    = hi2c->XferCount;
 80032d8:	68fb      	ldr	r3, [r7, #12]
 80032da:	8d5b      	ldrh	r3, [r3, #42]	; 0x2a
 80032dc:	b29a      	uxth	r2, r3
 80032de:	68fb      	ldr	r3, [r7, #12]
 80032e0:	851a      	strh	r2, [r3, #40]	; 0x28
    hi2c->XferOptions = I2C_NO_OPTION_FRAME;
 80032e2:	68fb      	ldr	r3, [r7, #12]
 80032e4:	4a50      	ldr	r2, [pc, #320]	; (8003428 <HAL_I2C_Master_Transmit+0x1f8>)
 80032e6:	62da      	str	r2, [r3, #44]	; 0x2c

    /* Send Slave Address */
    if (I2C_MasterRequestWrite(hi2c, DevAddress, Timeout, tickstart) != HAL_OK)
 80032e8:	8979      	ldrh	r1, [r7, #10]
 80032ea:	697b      	ldr	r3, [r7, #20]
 80032ec:	6a3a      	ldr	r2, [r7, #32]
 80032ee:	68f8      	ldr	r0, [r7, #12]
 80032f0:	f000 face 	bl	8003890 <I2C_MasterRequestWrite>
 80032f4:	4603      	mov	r3, r0
 80032f6:	2b00      	cmp	r3, #0
 80032f8:	d001      	beq.n	80032fe <HAL_I2C_Master_Transmit+0xce>
    {
      return HAL_ERROR;
 80032fa:	2301      	movs	r3, #1
 80032fc:	e08d      	b.n	800341a <HAL_I2C_Master_Transmit+0x1ea>
    }

    /* Clear ADDR flag */
    __HAL_I2C_CLEAR_ADDRFLAG(hi2c);
 80032fe:	2300      	movs	r3, #0
 8003300:	613b      	str	r3, [r7, #16]
 8003302:	68fb      	ldr	r3, [r7, #12]
 8003304:	681b      	ldr	r3, [r3, #0]
 8003306:	695b      	ldr	r3, [r3, #20]
 8003308:	613b      	str	r3, [r7, #16]
 800330a:	68fb      	ldr	r3, [r7, #12]
 800330c:	681b      	ldr	r3, [r3, #0]
 800330e:	699b      	ldr	r3, [r3, #24]
 8003310:	613b      	str	r3, [r7, #16]
 8003312:	693b      	ldr	r3, [r7, #16]

    while (hi2c->XferSize > 0U)
 8003314:	e066      	b.n	80033e4 <HAL_I2C_Master_Transmit+0x1b4>
    {
      /* Wait until TXE flag is set */
      if (I2C_WaitOnTXEFlagUntilTimeout(hi2c, Timeout, tickstart) != HAL_OK)
 8003316:	697a      	ldr	r2, [r7, #20]
 8003318:	6a39      	ldr	r1, [r7, #32]
 800331a:	68f8      	ldr	r0, [r7, #12]
 800331c:	f000 fd22 	bl	8003d64 <I2C_WaitOnTXEFlagUntilTimeout>
 8003320:	4603      	mov	r3, r0
 8003322:	2b00      	cmp	r3, #0
 8003324:	d00d      	beq.n	8003342 <HAL_I2C_Master_Transmit+0x112>
      {
        if (hi2c->ErrorCode == HAL_I2C_ERROR_AF)
 8003326:	68fb      	ldr	r3, [r7, #12]
 8003328:	6c1b      	ldr	r3, [r3, #64]	; 0x40
 800332a:	2b04      	cmp	r3, #4
 800332c:	d107      	bne.n	800333e <HAL_I2C_Master_Transmit+0x10e>
        {
          /* Generate Stop */
          SET_BIT(hi2c->Instance->CR1, I2C_CR1_STOP);
 800332e:	68fb      	ldr	r3, [r7, #12]
 8003330:	681b      	ldr	r3, [r3, #0]
 8003332:	681a      	ldr	r2, [r3, #0]
 8003334:	68fb      	ldr	r3, [r7, #12]
 8003336:	681b      	ldr	r3, [r3, #0]
 8003338:	f442 7200 	orr.w	r2, r2, #512	; 0x200
 800333c:	601a      	str	r2, [r3, #0]
        }
        return HAL_ERROR;
 800333e:	2301      	movs	r3, #1
 8003340:	e06b      	b.n	800341a <HAL_I2C_Master_Transmit+0x1ea>
      }

      /* Write data to DR */
      hi2c->Instance->DR = *hi2c->pBuffPtr;
 8003342:	68fb      	ldr	r3, [r7, #12]
 8003344:	6a5b      	ldr	r3, [r3, #36]	; 0x24
 8003346:	781a      	ldrb	r2, [r3, #0]
 8003348:	68fb      	ldr	r3, [r7, #12]
 800334a:	681b      	ldr	r3, [r3, #0]
 800334c:	611a      	str	r2, [r3, #16]

      /* Increment Buffer pointer */
      hi2c->pBuffPtr++;
 800334e:	68fb      	ldr	r3, [r7, #12]
 8003350:	6a5b      	ldr	r3, [r3, #36]	; 0x24
 8003352:	1c5a      	adds	r2, r3, #1
 8003354:	68fb      	ldr	r3, [r7, #12]
 8003356:	625a      	str	r2, [r3, #36]	; 0x24

      /* Update counter */
      hi2c->XferCount--;
 8003358:	68fb      	ldr	r3, [r7, #12]
 800335a:	8d5b      	ldrh	r3, [r3, #42]	; 0x2a
 800335c:	b29b      	uxth	r3, r3
 800335e:	3b01      	subs	r3, #1
 8003360:	b29a      	uxth	r2, r3
 8003362:	68fb      	ldr	r3, [r7, #12]
 8003364:	855a      	strh	r2, [r3, #42]	; 0x2a
      hi2c->XferSize--;
 8003366:	68fb      	ldr	r3, [r7, #12]
 8003368:	8d1b      	ldrh	r3, [r3, #40]	; 0x28
 800336a:	3b01      	subs	r3, #1
 800336c:	b29a      	uxth	r2, r3
 800336e:	68fb      	ldr	r3, [r7, #12]
 8003370:	851a      	strh	r2, [r3, #40]	; 0x28

      if ((__HAL_I2C_GET_FLAG(hi2c, I2C_FLAG_BTF) == SET) && (hi2c->XferSize != 0U))
 8003372:	68fb      	ldr	r3, [r7, #12]
 8003374:	681b      	ldr	r3, [r3, #0]
 8003376:	695b      	ldr	r3, [r3, #20]
 8003378:	f003 0304 	and.w	r3, r3, #4
 800337c:	2b04      	cmp	r3, #4
 800337e:	d11b      	bne.n	80033b8 <HAL_I2C_Master_Transmit+0x188>
 8003380:	68fb      	ldr	r3, [r7, #12]
 8003382:	8d1b      	ldrh	r3, [r3, #40]	; 0x28
 8003384:	2b00      	cmp	r3, #0
 8003386:	d017      	beq.n	80033b8 <HAL_I2C_Master_Transmit+0x188>
      {
        /* Write data to DR */
        hi2c->Instance->DR = *hi2c->pBuffPtr;
 8003388:	68fb      	ldr	r3, [r7, #12]
 800338a:	6a5b      	ldr	r3, [r3, #36]	; 0x24
 800338c:	781a      	ldrb	r2, [r3, #0]
 800338e:	68fb      	ldr	r3, [r7, #12]
 8003390:	681b      	ldr	r3, [r3, #0]
 8003392:	611a      	str	r2, [r3, #16]

        /* Increment Buffer pointer */
        hi2c->pBuffPtr++;
 8003394:	68fb      	ldr	r3, [r7, #12]
 8003396:	6a5b      	ldr	r3, [r3, #36]	; 0x24
 8003398:	1c5a      	adds	r2, r3, #1
 800339a:	68fb      	ldr	r3, [r7, #12]
 800339c:	625a      	str	r2, [r3, #36]	; 0x24

        /* Update counter */
        hi2c->XferCount--;
 800339e:	68fb      	ldr	r3, [r7, #12]
 80033a0:	8d5b      	ldrh	r3, [r3, #42]	; 0x2a
 80033a2:	b29b      	uxth	r3, r3
 80033a4:	3b01      	subs	r3, #1
 80033a6:	b29a      	uxth	r2, r3
 80033a8:	68fb      	ldr	r3, [r7, #12]
 80033aa:	855a      	strh	r2, [r3, #42]	; 0x2a
        hi2c->XferSize--;
 80033ac:	68fb      	ldr	r3, [r7, #12]
 80033ae:	8d1b      	ldrh	r3, [r3, #40]	; 0x28
 80033b0:	3b01      	subs	r3, #1
 80033b2:	b29a      	uxth	r2, r3
 80033b4:	68fb      	ldr	r3, [r7, #12]
 80033b6:	851a      	strh	r2, [r3, #40]	; 0x28
      }

      /* Wait until BTF flag is set */
      if (I2C_WaitOnBTFFlagUntilTimeout(hi2c, Timeout, tickstart) != HAL_OK)
 80033b8:	697a      	ldr	r2, [r7, #20]
 80033ba:	6a39      	ldr	r1, [r7, #32]
 80033bc:	68f8      	ldr	r0, [r7, #12]
 80033be:	f000 fd19 	bl	8003df4 <I2C_WaitOnBTFFlagUntilTimeout>
 80033c2:	4603      	mov	r3, r0
 80033c4:	2b00      	cmp	r3, #0
 80033c6:	d00d      	beq.n	80033e4 <HAL_I2C_Master_Transmit+0x1b4>
      {
        if (hi2c->ErrorCode == HAL_I2C_ERROR_AF)
 80033c8:	68fb      	ldr	r3, [r7, #12]
 80033ca:	6c1b      	ldr	r3, [r3, #64]	; 0x40
 80033cc:	2b04      	cmp	r3, #4
 80033ce:	d107      	bne.n	80033e0 <HAL_I2C_Master_Transmit+0x1b0>
        {
          /* Generate Stop */
          SET_BIT(hi2c->Instance->CR1, I2C_CR1_STOP);
 80033d0:	68fb      	ldr	r3, [r7, #12]
 80033d2:	681b      	ldr	r3, [r3, #0]
 80033d4:	681a      	ldr	r2, [r3, #0]
 80033d6:	68fb      	ldr	r3, [r7, #12]
 80033d8:	681b      	ldr	r3, [r3, #0]
 80033da:	f442 7200 	orr.w	r2, r2, #512	; 0x200
 80033de:	601a      	str	r2, [r3, #0]
        }
        return HAL_ERROR;
 80033e0:	2301      	movs	r3, #1
 80033e2:	e01a      	b.n	800341a <HAL_I2C_Master_Transmit+0x1ea>
    while (hi2c->XferSize > 0U)
 80033e4:	68fb      	ldr	r3, [r7, #12]
 80033e6:	8d1b      	ldrh	r3, [r3, #40]	; 0x28
 80033e8:	2b00      	cmp	r3, #0
 80033ea:	d194      	bne.n	8003316 <HAL_I2C_Master_Transmit+0xe6>
      }
    }

    /* Generate Stop */
    SET_BIT(hi2c->Instance->CR1, I2C_CR1_STOP);
 80033ec:	68fb      	ldr	r3, [r7, #12]
 80033ee:	681b      	ldr	r3, [r3, #0]
 80033f0:	681a      	ldr	r2, [r3, #0]
 80033f2:	68fb      	ldr	r3, [r7, #12]
 80033f4:	681b      	ldr	r3, [r3, #0]
 80033f6:	f442 7200 	orr.w	r2, r2, #512	; 0x200
 80033fa:	601a      	str	r2, [r3, #0]

    hi2c->State = HAL_I2C_STATE_READY;
 80033fc:	68fb      	ldr	r3, [r7, #12]
 80033fe:	2220      	movs	r2, #32
 8003400:	f883 203d 	strb.w	r2, [r3, #61]	; 0x3d
    hi2c->Mode = HAL_I2C_MODE_NONE;
 8003404:	68fb      	ldr	r3, [r7, #12]
 8003406:	2200      	movs	r2, #0
 8003408:	f883 203e 	strb.w	r2, [r3, #62]	; 0x3e

    /* Process Unlocked */
    __HAL_UNLOCK(hi2c);
 800340c:	68fb      	ldr	r3, [r7, #12]
 800340e:	2200      	movs	r2, #0
 8003410:	f883 203c 	strb.w	r2, [r3, #60]	; 0x3c

    return HAL_OK;
 8003414:	2300      	movs	r3, #0
 8003416:	e000      	b.n	800341a <HAL_I2C_Master_Transmit+0x1ea>
  }
  else
  {
    return HAL_BUSY;
 8003418:	2302      	movs	r3, #2
  }
}
 800341a:	4618      	mov	r0, r3
 800341c:	3718      	adds	r7, #24
 800341e:	46bd      	mov	sp, r7
 8003420:	bd80      	pop	{r7, pc}
 8003422:	bf00      	nop
 8003424:	00100002 	.word	0x00100002
 8003428:	ffff0000 	.word	0xffff0000

0800342c <HAL_I2C_Master_Receive>:
  * @param  Size Amount of data to be sent
  * @param  Timeout Timeout duration
  * @retval HAL status
  */
HAL_StatusTypeDef HAL_I2C_Master_Receive(I2C_HandleTypeDef *hi2c, uint16_t DevAddress, uint8_t *pData, uint16_t Size, uint32_t Timeout)
{
 800342c:	b580      	push	{r7, lr}
 800342e:	b08c      	sub	sp, #48	; 0x30
 8003430:	af02      	add	r7, sp, #8
 8003432:	60f8      	str	r0, [r7, #12]
 8003434:	607a      	str	r2, [r7, #4]
 8003436:	461a      	mov	r2, r3
 8003438:	460b      	mov	r3, r1
 800343a:	817b      	strh	r3, [r7, #10]
 800343c:	4613      	mov	r3, r2
 800343e:	813b      	strh	r3, [r7, #8]
  /* Init tickstart for timeout management*/
  uint32_t tickstart = HAL_GetTick();
 8003440:	f7fe fe3e 	bl	80020c0 <HAL_GetTick>
 8003444:	6278      	str	r0, [r7, #36]	; 0x24

  if (hi2c->State == HAL_I2C_STATE_READY)
 8003446:	68fb      	ldr	r3, [r7, #12]
 8003448:	f893 303d 	ldrb.w	r3, [r3, #61]	; 0x3d
 800344c:	b2db      	uxtb	r3, r3
 800344e:	2b20      	cmp	r3, #32
 8003450:	f040 8217 	bne.w	8003882 <HAL_I2C_Master_Receive+0x456>
  {
    /* Wait until BUSY flag is reset */
    if (I2C_WaitOnFlagUntilTimeout(hi2c, I2C_FLAG_BUSY, SET, I2C_TIMEOUT_BUSY_FLAG, tickstart) != HAL_OK)
 8003454:	6a7b      	ldr	r3, [r7, #36]	; 0x24
 8003456:	9300      	str	r3, [sp, #0]
 8003458:	2319      	movs	r3, #25
 800345a:	2201      	movs	r2, #1
 800345c:	497c      	ldr	r1, [pc, #496]	; (8003650 <HAL_I2C_Master_Receive+0x224>)
 800345e:	68f8      	ldr	r0, [r7, #12]
 8003460:	f000 fb66 	bl	8003b30 <I2C_WaitOnFlagUntilTimeout>
 8003464:	4603      	mov	r3, r0
 8003466:	2b00      	cmp	r3, #0
 8003468:	d001      	beq.n	800346e <HAL_I2C_Master_Receive+0x42>
    {
      return HAL_BUSY;
 800346a:	2302      	movs	r3, #2
 800346c:	e20a      	b.n	8003884 <HAL_I2C_Master_Receive+0x458>
    }

    /* Process Locked */
    __HAL_LOCK(hi2c);
 800346e:	68fb      	ldr	r3, [r7, #12]
 8003470:	f893 303c 	ldrb.w	r3, [r3, #60]	; 0x3c
 8003474:	2b01      	cmp	r3, #1
 8003476:	d101      	bne.n	800347c <HAL_I2C_Master_Receive+0x50>
 8003478:	2302      	movs	r3, #2
 800347a:	e203      	b.n	8003884 <HAL_I2C_Master_Receive+0x458>
 800347c:	68fb      	ldr	r3, [r7, #12]
 800347e:	2201      	movs	r2, #1
 8003480:	f883 203c 	strb.w	r2, [r3, #60]	; 0x3c

    /* Check if the I2C is already enabled */
    if ((hi2c->Instance->CR1 & I2C_CR1_PE) != I2C_CR1_PE)
 8003484:	68fb      	ldr	r3, [r7, #12]
 8003486:	681b      	ldr	r3, [r3, #0]
 8003488:	681b      	ldr	r3, [r3, #0]
 800348a:	f003 0301 	and.w	r3, r3, #1
 800348e:	2b01      	cmp	r3, #1
 8003490:	d007      	beq.n	80034a2 <HAL_I2C_Master_Receive+0x76>
    {
      /* Enable I2C peripheral */
      __HAL_I2C_ENABLE(hi2c);
 8003492:	68fb      	ldr	r3, [r7, #12]
 8003494:	681b      	ldr	r3, [r3, #0]
 8003496:	681a      	ldr	r2, [r3, #0]
 8003498:	68fb      	ldr	r3, [r7, #12]
 800349a:	681b      	ldr	r3, [r3, #0]
 800349c:	f042 0201 	orr.w	r2, r2, #1
 80034a0:	601a      	str	r2, [r3, #0]
    }

    /* Disable Pos */
    CLEAR_BIT(hi2c->Instance->CR1, I2C_CR1_POS);
 80034a2:	68fb      	ldr	r3, [r7, #12]
 80034a4:	681b      	ldr	r3, [r3, #0]
 80034a6:	681a      	ldr	r2, [r3, #0]
 80034a8:	68fb      	ldr	r3, [r7, #12]
 80034aa:	681b      	ldr	r3, [r3, #0]
 80034ac:	f422 6200 	bic.w	r2, r2, #2048	; 0x800
 80034b0:	601a      	str	r2, [r3, #0]

    hi2c->State       = HAL_I2C_STATE_BUSY_RX;
 80034b2:	68fb      	ldr	r3, [r7, #12]
 80034b4:	2222      	movs	r2, #34	; 0x22
 80034b6:	f883 203d 	strb.w	r2, [r3, #61]	; 0x3d
    hi2c->Mode        = HAL_I2C_MODE_MASTER;
 80034ba:	68fb      	ldr	r3, [r7, #12]
 80034bc:	2210      	movs	r2, #16
 80034be:	f883 203e 	strb.w	r2, [r3, #62]	; 0x3e
    hi2c->ErrorCode   = HAL_I2C_ERROR_NONE;
 80034c2:	68fb      	ldr	r3, [r7, #12]
 80034c4:	2200      	movs	r2, #0
 80034c6:	641a      	str	r2, [r3, #64]	; 0x40

    /* Prepare transfer parameters */
    hi2c->pBuffPtr    = pData;
 80034c8:	68fb      	ldr	r3, [r7, #12]
 80034ca:	687a      	ldr	r2, [r7, #4]
 80034cc:	625a      	str	r2, [r3, #36]	; 0x24
    hi2c->XferCount   = Size;
 80034ce:	68fb      	ldr	r3, [r7, #12]
 80034d0:	893a      	ldrh	r2, [r7, #8]
 80034d2:	855a      	strh	r2, [r3, #42]	; 0x2a
    hi2c->XferSize    = hi2c->XferCount;
 80034d4:	68fb      	ldr	r3, [r7, #12]
 80034d6:	8d5b      	ldrh	r3, [r3, #42]	; 0x2a
 80034d8:	b29a      	uxth	r2, r3
 80034da:	68fb      	ldr	r3, [r7, #12]
 80034dc:	851a      	strh	r2, [r3, #40]	; 0x28
    hi2c->XferOptions = I2C_NO_OPTION_FRAME;
 80034de:	68fb      	ldr	r3, [r7, #12]
 80034e0:	4a5c      	ldr	r2, [pc, #368]	; (8003654 <HAL_I2C_Master_Receive+0x228>)
 80034e2:	62da      	str	r2, [r3, #44]	; 0x2c

    /* Send Slave Address */
    if (I2C_MasterRequestRead(hi2c, DevAddress, Timeout, tickstart) != HAL_OK)
 80034e4:	8979      	ldrh	r1, [r7, #10]
 80034e6:	6a7b      	ldr	r3, [r7, #36]	; 0x24
 80034e8:	6b3a      	ldr	r2, [r7, #48]	; 0x30
 80034ea:	68f8      	ldr	r0, [r7, #12]
 80034ec:	f000 fa52 	bl	8003994 <I2C_MasterRequestRead>
 80034f0:	4603      	mov	r3, r0
 80034f2:	2b00      	cmp	r3, #0
 80034f4:	d001      	beq.n	80034fa <HAL_I2C_Master_Receive+0xce>
    {
      return HAL_ERROR;
 80034f6:	2301      	movs	r3, #1
 80034f8:	e1c4      	b.n	8003884 <HAL_I2C_Master_Receive+0x458>
    }

    if (hi2c->XferSize == 0U)
 80034fa:	68fb      	ldr	r3, [r7, #12]
 80034fc:	8d1b      	ldrh	r3, [r3, #40]	; 0x28
 80034fe:	2b00      	cmp	r3, #0
 8003500:	d113      	bne.n	800352a <HAL_I2C_Master_Receive+0xfe>
    {
      /* Clear ADDR flag */
      __HAL_I2C_CLEAR_ADDRFLAG(hi2c);
 8003502:	2300      	movs	r3, #0
 8003504:	623b      	str	r3, [r7, #32]
 8003506:	68fb      	ldr	r3, [r7, #12]
 8003508:	681b      	ldr	r3, [r3, #0]
 800350a:	695b      	ldr	r3, [r3, #20]
 800350c:	623b      	str	r3, [r7, #32]
 800350e:	68fb      	ldr	r3, [r7, #12]
 8003510:	681b      	ldr	r3, [r3, #0]
 8003512:	699b      	ldr	r3, [r3, #24]
 8003514:	623b      	str	r3, [r7, #32]
 8003516:	6a3b      	ldr	r3, [r7, #32]

      /* Generate Stop */
      SET_BIT(hi2c->Instance->CR1, I2C_CR1_STOP);
 8003518:	68fb      	ldr	r3, [r7, #12]
 800351a:	681b      	ldr	r3, [r3, #0]
 800351c:	681a      	ldr	r2, [r3, #0]
 800351e:	68fb      	ldr	r3, [r7, #12]
 8003520:	681b      	ldr	r3, [r3, #0]
 8003522:	f442 7200 	orr.w	r2, r2, #512	; 0x200
 8003526:	601a      	str	r2, [r3, #0]
 8003528:	e198      	b.n	800385c <HAL_I2C_Master_Receive+0x430>
    }
    else if (hi2c->XferSize == 1U)
 800352a:	68fb      	ldr	r3, [r7, #12]
 800352c:	8d1b      	ldrh	r3, [r3, #40]	; 0x28
 800352e:	2b01      	cmp	r3, #1
 8003530:	d11b      	bne.n	800356a <HAL_I2C_Master_Receive+0x13e>
    {
      /* Disable Acknowledge */
      CLEAR_BIT(hi2c->Instance->CR1, I2C_CR1_ACK);
 8003532:	68fb      	ldr	r3, [r7, #12]
 8003534:	681b      	ldr	r3, [r3, #0]
 8003536:	681a      	ldr	r2, [r3, #0]
 8003538:	68fb      	ldr	r3, [r7, #12]
 800353a:	681b      	ldr	r3, [r3, #0]
 800353c:	f422 6280 	bic.w	r2, r2, #1024	; 0x400
 8003540:	601a      	str	r2, [r3, #0]

      /* Clear ADDR flag */
      __HAL_I2C_CLEAR_ADDRFLAG(hi2c);
 8003542:	2300      	movs	r3, #0
 8003544:	61fb      	str	r3, [r7, #28]
 8003546:	68fb      	ldr	r3, [r7, #12]
 8003548:	681b      	ldr	r3, [r3, #0]
 800354a:	695b      	ldr	r3, [r3, #20]
 800354c:	61fb      	str	r3, [r7, #28]
 800354e:	68fb      	ldr	r3, [r7, #12]
 8003550:	681b      	ldr	r3, [r3, #0]
 8003552:	699b      	ldr	r3, [r3, #24]
 8003554:	61fb      	str	r3, [r7, #28]
 8003556:	69fb      	ldr	r3, [r7, #28]

      /* Generate Stop */
      SET_BIT(hi2c->Instance->CR1, I2C_CR1_STOP);
 8003558:	68fb      	ldr	r3, [r7, #12]
 800355a:	681b      	ldr	r3, [r3, #0]
 800355c:	681a      	ldr	r2, [r3, #0]
 800355e:	68fb      	ldr	r3, [r7, #12]
 8003560:	681b      	ldr	r3, [r3, #0]
 8003562:	f442 7200 	orr.w	r2, r2, #512	; 0x200
 8003566:	601a      	str	r2, [r3, #0]
 8003568:	e178      	b.n	800385c <HAL_I2C_Master_Receive+0x430>
    }
    else if (hi2c->XferSize == 2U)
 800356a:	68fb      	ldr	r3, [r7, #12]
 800356c:	8d1b      	ldrh	r3, [r3, #40]	; 0x28
 800356e:	2b02      	cmp	r3, #2
 8003570:	d11b      	bne.n	80035aa <HAL_I2C_Master_Receive+0x17e>
    {
      /* Disable Acknowledge */
      CLEAR_BIT(hi2c->Instance->CR1, I2C_CR1_ACK);
 8003572:	68fb      	ldr	r3, [r7, #12]
 8003574:	681b      	ldr	r3, [r3, #0]
 8003576:	681a      	ldr	r2, [r3, #0]
 8003578:	68fb      	ldr	r3, [r7, #12]
 800357a:	681b      	ldr	r3, [r3, #0]
 800357c:	f422 6280 	bic.w	r2, r2, #1024	; 0x400
 8003580:	601a      	str	r2, [r3, #0]

      /* Enable Pos */
      SET_BIT(hi2c->Instance->CR1, I2C_CR1_POS);
 8003582:	68fb      	ldr	r3, [r7, #12]
 8003584:	681b      	ldr	r3, [r3, #0]
 8003586:	681a      	ldr	r2, [r3, #0]
 8003588:	68fb      	ldr	r3, [r7, #12]
 800358a:	681b      	ldr	r3, [r3, #0]
 800358c:	f442 6200 	orr.w	r2, r2, #2048	; 0x800
 8003590:	601a      	str	r2, [r3, #0]

      /* Clear ADDR flag */
      __HAL_I2C_CLEAR_ADDRFLAG(hi2c);
 8003592:	2300      	movs	r3, #0
 8003594:	61bb      	str	r3, [r7, #24]
 8003596:	68fb      	ldr	r3, [r7, #12]
 8003598:	681b      	ldr	r3, [r3, #0]
 800359a:	695b      	ldr	r3, [r3, #20]
 800359c:	61bb      	str	r3, [r7, #24]
 800359e:	68fb      	ldr	r3, [r7, #12]
 80035a0:	681b      	ldr	r3, [r3, #0]
 80035a2:	699b      	ldr	r3, [r3, #24]
 80035a4:	61bb      	str	r3, [r7, #24]
 80035a6:	69bb      	ldr	r3, [r7, #24]
 80035a8:	e158      	b.n	800385c <HAL_I2C_Master_Receive+0x430>
    }
    else
    {
      /* Enable Acknowledge */
      SET_BIT(hi2c->Instance->CR1, I2C_CR1_ACK);
 80035aa:	68fb      	ldr	r3, [r7, #12]
 80035ac:	681b      	ldr	r3, [r3, #0]
 80035ae:	681a      	ldr	r2, [r3, #0]
 80035b0:	68fb      	ldr	r3, [r7, #12]
 80035b2:	681b      	ldr	r3, [r3, #0]
 80035b4:	f442 6280 	orr.w	r2, r2, #1024	; 0x400
 80035b8:	601a      	str	r2, [r3, #0]

      /* Clear ADDR flag */
      __HAL_I2C_CLEAR_ADDRFLAG(hi2c);
 80035ba:	2300      	movs	r3, #0
 80035bc:	617b      	str	r3, [r7, #20]
 80035be:	68fb      	ldr	r3, [r7, #12]
 80035c0:	681b      	ldr	r3, [r3, #0]
 80035c2:	695b      	ldr	r3, [r3, #20]
 80035c4:	617b      	str	r3, [r7, #20]
 80035c6:	68fb      	ldr	r3, [r7, #12]
 80035c8:	681b      	ldr	r3, [r3, #0]
 80035ca:	699b      	ldr	r3, [r3, #24]
 80035cc:	617b      	str	r3, [r7, #20]
 80035ce:	697b      	ldr	r3, [r7, #20]
    }

    while (hi2c->XferSize > 0U)
 80035d0:	e144      	b.n	800385c <HAL_I2C_Master_Receive+0x430>
    {
      if (hi2c->XferSize <= 3U)
 80035d2:	68fb      	ldr	r3, [r7, #12]
 80035d4:	8d1b      	ldrh	r3, [r3, #40]	; 0x28
 80035d6:	2b03      	cmp	r3, #3
 80035d8:	f200 80f1 	bhi.w	80037be <HAL_I2C_Master_Receive+0x392>
      {
        /* One byte */
        if (hi2c->XferSize == 1U)
 80035dc:	68fb      	ldr	r3, [r7, #12]
 80035de:	8d1b      	ldrh	r3, [r3, #40]	; 0x28
 80035e0:	2b01      	cmp	r3, #1
 80035e2:	d123      	bne.n	800362c <HAL_I2C_Master_Receive+0x200>
        {
          /* Wait until RXNE flag is set */
          if (I2C_WaitOnRXNEFlagUntilTimeout(hi2c, Timeout, tickstart) != HAL_OK)
 80035e4:	6a7a      	ldr	r2, [r7, #36]	; 0x24
 80035e6:	6b39      	ldr	r1, [r7, #48]	; 0x30
 80035e8:	68f8      	ldr	r0, [r7, #12]
 80035ea:	f000 fc4b 	bl	8003e84 <I2C_WaitOnRXNEFlagUntilTimeout>
 80035ee:	4603      	mov	r3, r0
 80035f0:	2b00      	cmp	r3, #0
 80035f2:	d001      	beq.n	80035f8 <HAL_I2C_Master_Receive+0x1cc>
          {
            return HAL_ERROR;
 80035f4:	2301      	movs	r3, #1
 80035f6:	e145      	b.n	8003884 <HAL_I2C_Master_Receive+0x458>
          }

          /* Read data from DR */
          *hi2c->pBuffPtr = (uint8_t)hi2c->Instance->DR;
 80035f8:	68fb      	ldr	r3, [r7, #12]
 80035fa:	681b      	ldr	r3, [r3, #0]
 80035fc:	691a      	ldr	r2, [r3, #16]
 80035fe:	68fb      	ldr	r3, [r7, #12]
 8003600:	6a5b      	ldr	r3, [r3, #36]	; 0x24
 8003602:	b2d2      	uxtb	r2, r2
 8003604:	701a      	strb	r2, [r3, #0]

          /* Increment Buffer pointer */
          hi2c->pBuffPtr++;
 8003606:	68fb      	ldr	r3, [r7, #12]
 8003608:	6a5b      	ldr	r3, [r3, #36]	; 0x24
 800360a:	1c5a      	adds	r2, r3, #1
 800360c:	68fb      	ldr	r3, [r7, #12]
 800360e:	625a      	str	r2, [r3, #36]	; 0x24

          /* Update counter */
          hi2c->XferSize--;
 8003610:	68fb      	ldr	r3, [r7, #12]
 8003612:	8d1b      	ldrh	r3, [r3, #40]	; 0x28
 8003614:	3b01      	subs	r3, #1
 8003616:	b29a      	uxth	r2, r3
 8003618:	68fb      	ldr	r3, [r7, #12]
 800361a:	851a      	strh	r2, [r3, #40]	; 0x28
          hi2c->XferCount--;
 800361c:	68fb      	ldr	r3, [r7, #12]
 800361e:	8d5b      	ldrh	r3, [r3, #42]	; 0x2a
 8003620:	b29b      	uxth	r3, r3
 8003622:	3b01      	subs	r3, #1
 8003624:	b29a      	uxth	r2, r3
 8003626:	68fb      	ldr	r3, [r7, #12]
 8003628:	855a      	strh	r2, [r3, #42]	; 0x2a
 800362a:	e117      	b.n	800385c <HAL_I2C_Master_Receive+0x430>
        }
        /* Two bytes */
        else if (hi2c->XferSize == 2U)
 800362c:	68fb      	ldr	r3, [r7, #12]
 800362e:	8d1b      	ldrh	r3, [r3, #40]	; 0x28
 8003630:	2b02      	cmp	r3, #2
 8003632:	d14e      	bne.n	80036d2 <HAL_I2C_Master_Receive+0x2a6>
        {
          /* Wait until BTF flag is set */
          if (I2C_WaitOnFlagUntilTimeout(hi2c, I2C_FLAG_BTF, RESET, Timeout, tickstart) != HAL_OK)
 8003634:	6a7b      	ldr	r3, [r7, #36]	; 0x24
 8003636:	9300      	str	r3, [sp, #0]
 8003638:	6b3b      	ldr	r3, [r7, #48]	; 0x30
 800363a:	2200      	movs	r2, #0
 800363c:	4906      	ldr	r1, [pc, #24]	; (8003658 <HAL_I2C_Master_Receive+0x22c>)
 800363e:	68f8      	ldr	r0, [r7, #12]
 8003640:	f000 fa76 	bl	8003b30 <I2C_WaitOnFlagUntilTimeout>
 8003644:	4603      	mov	r3, r0
 8003646:	2b00      	cmp	r3, #0
 8003648:	d008      	beq.n	800365c <HAL_I2C_Master_Receive+0x230>
          {
            return HAL_ERROR;
 800364a:	2301      	movs	r3, #1
 800364c:	e11a      	b.n	8003884 <HAL_I2C_Master_Receive+0x458>
 800364e:	bf00      	nop
 8003650:	00100002 	.word	0x00100002
 8003654:	ffff0000 	.word	0xffff0000
 8003658:	00010004 	.word	0x00010004
          }

          /* Generate Stop */
          SET_BIT(hi2c->Instance->CR1, I2C_CR1_STOP);
 800365c:	68fb      	ldr	r3, [r7, #12]
 800365e:	681b      	ldr	r3, [r3, #0]
 8003660:	681a      	ldr	r2, [r3, #0]
 8003662:	68fb      	ldr	r3, [r7, #12]
 8003664:	681b      	ldr	r3, [r3, #0]
 8003666:	f442 7200 	orr.w	r2, r2, #512	; 0x200
 800366a:	601a      	str	r2, [r3, #0]

          /* Read data from DR */
          *hi2c->pBuffPtr = (uint8_t)hi2c->Instance->DR;
 800366c:	68fb      	ldr	r3, [r7, #12]
 800366e:	681b      	ldr	r3, [r3, #0]
 8003670:	691a      	ldr	r2, [r3, #16]
 8003672:	68fb      	ldr	r3, [r7, #12]
 8003674:	6a5b      	ldr	r3, [r3, #36]	; 0x24
 8003676:	b2d2      	uxtb	r2, r2
 8003678:	701a      	strb	r2, [r3, #0]

          /* Increment Buffer pointer */
          hi2c->pBuffPtr++;
 800367a:	68fb      	ldr	r3, [r7, #12]
 800367c:	6a5b      	ldr	r3, [r3, #36]	; 0x24
 800367e:	1c5a      	adds	r2, r3, #1
 8003680:	68fb      	ldr	r3, [r7, #12]
 8003682:	625a      	str	r2, [r3, #36]	; 0x24

          /* Update counter */
          hi2c->XferSize--;
 8003684:	68fb      	ldr	r3, [r7, #12]
 8003686:	8d1b      	ldrh	r3, [r3, #40]	; 0x28
 8003688:	3b01      	subs	r3, #1
 800368a:	b29a      	uxth	r2, r3
 800368c:	68fb      	ldr	r3, [r7, #12]
 800368e:	851a      	strh	r2, [r3, #40]	; 0x28
          hi2c->XferCount--;
 8003690:	68fb      	ldr	r3, [r7, #12]
 8003692:	8d5b      	ldrh	r3, [r3, #42]	; 0x2a
 8003694:	b29b      	uxth	r3, r3
 8003696:	3b01      	subs	r3, #1
 8003698:	b29a      	uxth	r2, r3
 800369a:	68fb      	ldr	r3, [r7, #12]
 800369c:	855a      	strh	r2, [r3, #42]	; 0x2a

          /* Read data from DR */
          *hi2c->pBuffPtr = (uint8_t)hi2c->Instance->DR;
 800369e:	68fb      	ldr	r3, [r7, #12]
 80036a0:	681b      	ldr	r3, [r3, #0]
 80036a2:	691a      	ldr	r2, [r3, #16]
 80036a4:	68fb      	ldr	r3, [r7, #12]
 80036a6:	6a5b      	ldr	r3, [r3, #36]	; 0x24
 80036a8:	b2d2      	uxtb	r2, r2
 80036aa:	701a      	strb	r2, [r3, #0]

          /* Increment Buffer pointer */
          hi2c->pBuffPtr++;
 80036ac:	68fb      	ldr	r3, [r7, #12]
 80036ae:	6a5b      	ldr	r3, [r3, #36]	; 0x24
 80036b0:	1c5a      	adds	r2, r3, #1
 80036b2:	68fb      	ldr	r3, [r7, #12]
 80036b4:	625a      	str	r2, [r3, #36]	; 0x24

          /* Update counter */
          hi2c->XferSize--;
 80036b6:	68fb      	ldr	r3, [r7, #12]
 80036b8:	8d1b      	ldrh	r3, [r3, #40]	; 0x28
 80036ba:	3b01      	subs	r3, #1
 80036bc:	b29a      	uxth	r2, r3
 80036be:	68fb      	ldr	r3, [r7, #12]
 80036c0:	851a      	strh	r2, [r3, #40]	; 0x28
          hi2c->XferCount--;
 80036c2:	68fb      	ldr	r3, [r7, #12]
 80036c4:	8d5b      	ldrh	r3, [r3, #42]	; 0x2a
 80036c6:	b29b      	uxth	r3, r3
 80036c8:	3b01      	subs	r3, #1
 80036ca:	b29a      	uxth	r2, r3
 80036cc:	68fb      	ldr	r3, [r7, #12]
 80036ce:	855a      	strh	r2, [r3, #42]	; 0x2a
 80036d0:	e0c4      	b.n	800385c <HAL_I2C_Master_Receive+0x430>
        }
        /* 3 Last bytes */
        else
        {
          /* Wait until BTF flag is set */
          if (I2C_WaitOnFlagUntilTimeout(hi2c, I2C_FLAG_BTF, RESET, Timeout, tickstart) != HAL_OK)
 80036d2:	6a7b      	ldr	r3, [r7, #36]	; 0x24
 80036d4:	9300      	str	r3, [sp, #0]
 80036d6:	6b3b      	ldr	r3, [r7, #48]	; 0x30
 80036d8:	2200      	movs	r2, #0
 80036da:	496c      	ldr	r1, [pc, #432]	; (800388c <HAL_I2C_Master_Receive+0x460>)
 80036dc:	68f8      	ldr	r0, [r7, #12]
 80036de:	f000 fa27 	bl	8003b30 <I2C_WaitOnFlagUntilTimeout>
 80036e2:	4603      	mov	r3, r0
 80036e4:	2b00      	cmp	r3, #0
 80036e6:	d001      	beq.n	80036ec <HAL_I2C_Master_Receive+0x2c0>
          {
            return HAL_ERROR;
 80036e8:	2301      	movs	r3, #1
 80036ea:	e0cb      	b.n	8003884 <HAL_I2C_Master_Receive+0x458>
          }

          /* Disable Acknowledge */
          CLEAR_BIT(hi2c->Instance->CR1, I2C_CR1_ACK);
 80036ec:	68fb      	ldr	r3, [r7, #12]
 80036ee:	681b      	ldr	r3, [r3, #0]
 80036f0:	681a      	ldr	r2, [r3, #0]
 80036f2:	68fb      	ldr	r3, [r7, #12]
 80036f4:	681b      	ldr	r3, [r3, #0]
 80036f6:	f422 6280 	bic.w	r2, r2, #1024	; 0x400
 80036fa:	601a      	str	r2, [r3, #0]

          /* Read data from DR */
          *hi2c->pBuffPtr = (uint8_t)hi2c->Instance->DR;
 80036fc:	68fb      	ldr	r3, [r7, #12]
 80036fe:	681b      	ldr	r3, [r3, #0]
 8003700:	691a      	ldr	r2, [r3, #16]
 8003702:	68fb      	ldr	r3, [r7, #12]
 8003704:	6a5b      	ldr	r3, [r3, #36]	; 0x24
 8003706:	b2d2      	uxtb	r2, r2
 8003708:	701a      	strb	r2, [r3, #0]

          /* Increment Buffer pointer */
          hi2c->pBuffPtr++;
 800370a:	68fb      	ldr	r3, [r7, #12]
 800370c:	6a5b      	ldr	r3, [r3, #36]	; 0x24
 800370e:	1c5a      	adds	r2, r3, #1
 8003710:	68fb      	ldr	r3, [r7, #12]
 8003712:	625a      	str	r2, [r3, #36]	; 0x24

          /* Update counter */
          hi2c->XferSize--;
 8003714:	68fb      	ldr	r3, [r7, #12]
 8003716:	8d1b      	ldrh	r3, [r3, #40]	; 0x28
 8003718:	3b01      	subs	r3, #1
 800371a:	b29a      	uxth	r2, r3
 800371c:	68fb      	ldr	r3, [r7, #12]
 800371e:	851a      	strh	r2, [r3, #40]	; 0x28
          hi2c->XferCount--;
 8003720:	68fb      	ldr	r3, [r7, #12]
 8003722:	8d5b      	ldrh	r3, [r3, #42]	; 0x2a
 8003724:	b29b      	uxth	r3, r3
 8003726:	3b01      	subs	r3, #1
 8003728:	b29a      	uxth	r2, r3
 800372a:	68fb      	ldr	r3, [r7, #12]
 800372c:	855a      	strh	r2, [r3, #42]	; 0x2a

          /* Wait until BTF flag is set */
          if (I2C_WaitOnFlagUntilTimeout(hi2c, I2C_FLAG_BTF, RESET, Timeout, tickstart) != HAL_OK)
 800372e:	6a7b      	ldr	r3, [r7, #36]	; 0x24
 8003730:	9300      	str	r3, [sp, #0]
 8003732:	6b3b      	ldr	r3, [r7, #48]	; 0x30
 8003734:	2200      	movs	r2, #0
 8003736:	4955      	ldr	r1, [pc, #340]	; (800388c <HAL_I2C_Master_Receive+0x460>)
 8003738:	68f8      	ldr	r0, [r7, #12]
 800373a:	f000 f9f9 	bl	8003b30 <I2C_WaitOnFlagUntilTimeout>
 800373e:	4603      	mov	r3, r0
 8003740:	2b00      	cmp	r3, #0
 8003742:	d001      	beq.n	8003748 <HAL_I2C_Master_Receive+0x31c>
          {
            return HAL_ERROR;
 8003744:	2301      	movs	r3, #1
 8003746:	e09d      	b.n	8003884 <HAL_I2C_Master_Receive+0x458>
          }

          /* Generate Stop */
          SET_BIT(hi2c->Instance->CR1, I2C_CR1_STOP);
 8003748:	68fb      	ldr	r3, [r7, #12]
 800374a:	681b      	ldr	r3, [r3, #0]
 800374c:	681a      	ldr	r2, [r3, #0]
 800374e:	68fb      	ldr	r3, [r7, #12]
 8003750:	681b      	ldr	r3, [r3, #0]
 8003752:	f442 7200 	orr.w	r2, r2, #512	; 0x200
 8003756:	601a      	str	r2, [r3, #0]

          /* Read data from DR */
          *hi2c->pBuffPtr = (uint8_t)hi2c->Instance->DR;
 8003758:	68fb      	ldr	r3, [r7, #12]
 800375a:	681b      	ldr	r3, [r3, #0]
 800375c:	691a      	ldr	r2, [r3, #16]
 800375e:	68fb      	ldr	r3, [r7, #12]
 8003760:	6a5b      	ldr	r3, [r3, #36]	; 0x24
 8003762:	b2d2      	uxtb	r2, r2
 8003764:	701a      	strb	r2, [r3, #0]

          /* Increment Buffer pointer */
          hi2c->pBuffPtr++;
 8003766:	68fb      	ldr	r3, [r7, #12]
 8003768:	6a5b      	ldr	r3, [r3, #36]	; 0x24
 800376a:	1c5a      	adds	r2, r3, #1
 800376c:	68fb      	ldr	r3, [r7, #12]
 800376e:	625a      	str	r2, [r3, #36]	; 0x24

          /* Update counter */
          hi2c->XferSize--;
 8003770:	68fb      	ldr	r3, [r7, #12]
 8003772:	8d1b      	ldrh	r3, [r3, #40]	; 0x28
 8003774:	3b01      	subs	r3, #1
 8003776:	b29a      	uxth	r2, r3
 8003778:	68fb      	ldr	r3, [r7, #12]
 800377a:	851a      	strh	r2, [r3, #40]	; 0x28
          hi2c->XferCount--;
 800377c:	68fb      	ldr	r3, [r7, #12]
 800377e:	8d5b      	ldrh	r3, [r3, #42]	; 0x2a
 8003780:	b29b      	uxth	r3, r3
 8003782:	3b01      	subs	r3, #1
 8003784:	b29a      	uxth	r2, r3
 8003786:	68fb      	ldr	r3, [r7, #12]
 8003788:	855a      	strh	r2, [r3, #42]	; 0x2a

          /* Read data from DR */
          *hi2c->pBuffPtr = (uint8_t)hi2c->Instance->DR;
 800378a:	68fb      	ldr	r3, [r7, #12]
 800378c:	681b      	ldr	r3, [r3, #0]
 800378e:	691a      	ldr	r2, [r3, #16]
 8003790:	68fb      	ldr	r3, [r7, #12]
 8003792:	6a5b      	ldr	r3, [r3, #36]	; 0x24
 8003794:	b2d2      	uxtb	r2, r2
 8003796:	701a      	strb	r2, [r3, #0]

          /* Increment Buffer pointer */
          hi2c->pBuffPtr++;
 8003798:	68fb      	ldr	r3, [r7, #12]
 800379a:	6a5b      	ldr	r3, [r3, #36]	; 0x24
 800379c:	1c5a      	adds	r2, r3, #1
 800379e:	68fb      	ldr	r3, [r7, #12]
 80037a0:	625a      	str	r2, [r3, #36]	; 0x24

          /* Update counter */
          hi2c->XferSize--;
 80037a2:	68fb      	ldr	r3, [r7, #12]
 80037a4:	8d1b      	ldrh	r3, [r3, #40]	; 0x28
 80037a6:	3b01      	subs	r3, #1
 80037a8:	b29a      	uxth	r2, r3
 80037aa:	68fb      	ldr	r3, [r7, #12]
 80037ac:	851a      	strh	r2, [r3, #40]	; 0x28
          hi2c->XferCount--;
 80037ae:	68fb      	ldr	r3, [r7, #12]
 80037b0:	8d5b      	ldrh	r3, [r3, #42]	; 0x2a
 80037b2:	b29b      	uxth	r3, r3
 80037b4:	3b01      	subs	r3, #1
 80037b6:	b29a      	uxth	r2, r3
 80037b8:	68fb      	ldr	r3, [r7, #12]
 80037ba:	855a      	strh	r2, [r3, #42]	; 0x2a
 80037bc:	e04e      	b.n	800385c <HAL_I2C_Master_Receive+0x430>
        }
      }
      else
      {
        /* Wait until RXNE flag is set */
        if (I2C_WaitOnRXNEFlagUntilTimeout(hi2c, Timeout, tickstart) != HAL_OK)
 80037be:	6a7a      	ldr	r2, [r7, #36]	; 0x24
 80037c0:	6b39      	ldr	r1, [r7, #48]	; 0x30
 80037c2:	68f8      	ldr	r0, [r7, #12]
 80037c4:	f000 fb5e 	bl	8003e84 <I2C_WaitOnRXNEFlagUntilTimeout>
 80037c8:	4603      	mov	r3, r0
 80037ca:	2b00      	cmp	r3, #0
 80037cc:	d001      	beq.n	80037d2 <HAL_I2C_Master_Receive+0x3a6>
        {
          return HAL_ERROR;
 80037ce:	2301      	movs	r3, #1
 80037d0:	e058      	b.n	8003884 <HAL_I2C_Master_Receive+0x458>
        }

        /* Read data from DR */
        *hi2c->pBuffPtr = (uint8_t)hi2c->Instance->DR;
 80037d2:	68fb      	ldr	r3, [r7, #12]
 80037d4:	681b      	ldr	r3, [r3, #0]
 80037d6:	691a      	ldr	r2, [r3, #16]
 80037d8:	68fb      	ldr	r3, [r7, #12]
 80037da:	6a5b      	ldr	r3, [r3, #36]	; 0x24
 80037dc:	b2d2      	uxtb	r2, r2
 80037de:	701a      	strb	r2, [r3, #0]

        /* Increment Buffer pointer */
        hi2c->pBuffPtr++;
 80037e0:	68fb      	ldr	r3, [r7, #12]
 80037e2:	6a5b      	ldr	r3, [r3, #36]	; 0x24
 80037e4:	1c5a      	adds	r2, r3, #1
 80037e6:	68fb      	ldr	r3, [r7, #12]
 80037e8:	625a      	str	r2, [r3, #36]	; 0x24

        /* Update counter */
        hi2c->XferSize--;
 80037ea:	68fb      	ldr	r3, [r7, #12]
 80037ec:	8d1b      	ldrh	r3, [r3, #40]	; 0x28
 80037ee:	3b01      	subs	r3, #1
 80037f0:	b29a      	uxth	r2, r3
 80037f2:	68fb      	ldr	r3, [r7, #12]
 80037f4:	851a      	strh	r2, [r3, #40]	; 0x28
        hi2c->XferCount--;
 80037f6:	68fb      	ldr	r3, [r7, #12]
 80037f8:	8d5b      	ldrh	r3, [r3, #42]	; 0x2a
 80037fa:	b29b      	uxth	r3, r3
 80037fc:	3b01      	subs	r3, #1
 80037fe:	b29a      	uxth	r2, r3
 8003800:	68fb      	ldr	r3, [r7, #12]
 8003802:	855a      	strh	r2, [r3, #42]	; 0x2a

        if (__HAL_I2C_GET_FLAG(hi2c, I2C_FLAG_BTF) == SET)
 8003804:	68fb      	ldr	r3, [r7, #12]
 8003806:	681b      	ldr	r3, [r3, #0]
 8003808:	695b      	ldr	r3, [r3, #20]
 800380a:	f003 0304 	and.w	r3, r3, #4
 800380e:	2b04      	cmp	r3, #4
 8003810:	d124      	bne.n	800385c <HAL_I2C_Master_Receive+0x430>
        {

          if (hi2c->XferSize == 3U)
 8003812:	68fb      	ldr	r3, [r7, #12]
 8003814:	8d1b      	ldrh	r3, [r3, #40]	; 0x28
 8003816:	2b03      	cmp	r3, #3
 8003818:	d107      	bne.n	800382a <HAL_I2C_Master_Receive+0x3fe>
          {
            /* Disable Acknowledge */
            CLEAR_BIT(hi2c->Instance->CR1, I2C_CR1_ACK);
 800381a:	68fb      	ldr	r3, [r7, #12]
 800381c:	681b      	ldr	r3, [r3, #0]
 800381e:	681a      	ldr	r2, [r3, #0]
 8003820:	68fb      	ldr	r3, [r7, #12]
 8003822:	681b      	ldr	r3, [r3, #0]
 8003824:	f422 6280 	bic.w	r2, r2, #1024	; 0x400
 8003828:	601a      	str	r2, [r3, #0]
          }

          /* Read data from DR */
          *hi2c->pBuffPtr = (uint8_t)hi2c->Instance->DR;
 800382a:	68fb      	ldr	r3, [r7, #12]
 800382c:	681b      	ldr	r3, [r3, #0]
 800382e:	691a      	ldr	r2, [r3, #16]
 8003830:	68fb      	ldr	r3, [r7, #12]
 8003832:	6a5b      	ldr	r3, [r3, #36]	; 0x24
 8003834:	b2d2      	uxtb	r2, r2
 8003836:	701a      	strb	r2, [r3, #0]

          /* Increment Buffer pointer */
          hi2c->pBuffPtr++;
 8003838:	68fb      	ldr	r3, [r7, #12]
 800383a:	6a5b      	ldr	r3, [r3, #36]	; 0x24
 800383c:	1c5a      	adds	r2, r3, #1
 800383e:	68fb      	ldr	r3, [r7, #12]
 8003840:	625a      	str	r2, [r3, #36]	; 0x24

          /* Update counter */
          hi2c->XferSize--;
 8003842:	68fb      	ldr	r3, [r7, #12]
 8003844:	8d1b      	ldrh	r3, [r3, #40]	; 0x28
 8003846:	3b01      	subs	r3, #1
 8003848:	b29a      	uxth	r2, r3
 800384a:	68fb      	ldr	r3, [r7, #12]
 800384c:	851a      	strh	r2, [r3, #40]	; 0x28
          hi2c->XferCount--;
 800384e:	68fb      	ldr	r3, [r7, #12]
 8003850:	8d5b      	ldrh	r3, [r3, #42]	; 0x2a
 8003852:	b29b      	uxth	r3, r3
 8003854:	3b01      	subs	r3, #1
 8003856:	b29a      	uxth	r2, r3
 8003858:	68fb      	ldr	r3, [r7, #12]
 800385a:	855a      	strh	r2, [r3, #42]	; 0x2a
    while (hi2c->XferSize > 0U)
 800385c:	68fb      	ldr	r3, [r7, #12]
 800385e:	8d1b      	ldrh	r3, [r3, #40]	; 0x28
 8003860:	2b00      	cmp	r3, #0
 8003862:	f47f aeb6 	bne.w	80035d2 <HAL_I2C_Master_Receive+0x1a6>
        }
      }
    }

    hi2c->State = HAL_I2C_STATE_READY;
 8003866:	68fb      	ldr	r3, [r7, #12]
 8003868:	2220      	movs	r2, #32
 800386a:	f883 203d 	strb.w	r2, [r3, #61]	; 0x3d
    hi2c->Mode = HAL_I2C_MODE_NONE;
 800386e:	68fb      	ldr	r3, [r7, #12]
 8003870:	2200      	movs	r2, #0
 8003872:	f883 203e 	strb.w	r2, [r3, #62]	; 0x3e

    /* Process Unlocked */
    __HAL_UNLOCK(hi2c);
 8003876:	68fb      	ldr	r3, [r7, #12]
 8003878:	2200      	movs	r2, #0
 800387a:	f883 203c 	strb.w	r2, [r3, #60]	; 0x3c

    return HAL_OK;
 800387e:	2300      	movs	r3, #0
 8003880:	e000      	b.n	8003884 <HAL_I2C_Master_Receive+0x458>
  }
  else
  {
    return HAL_BUSY;
 8003882:	2302      	movs	r3, #2
  }
}
 8003884:	4618      	mov	r0, r3
 8003886:	3728      	adds	r7, #40	; 0x28
 8003888:	46bd      	mov	sp, r7
 800388a:	bd80      	pop	{r7, pc}
 800388c:	00010004 	.word	0x00010004

08003890 <I2C_MasterRequestWrite>:
  * @param  Timeout Timeout duration
  * @param  Tickstart Tick start value
  * @retval HAL status
  */
static HAL_StatusTypeDef I2C_MasterRequestWrite(I2C_HandleTypeDef *hi2c, uint16_t DevAddress, uint32_t Timeout, uint32_t Tickstart)
{
 8003890:	b580      	push	{r7, lr}
 8003892:	b088      	sub	sp, #32
 8003894:	af02      	add	r7, sp, #8
 8003896:	60f8      	str	r0, [r7, #12]
 8003898:	607a      	str	r2, [r7, #4]
 800389a:	603b      	str	r3, [r7, #0]
 800389c:	460b      	mov	r3, r1
 800389e:	817b      	strh	r3, [r7, #10]
  /* Declaration of temporary variable to prevent undefined behavior of volatile usage */
  uint32_t CurrentXferOptions = hi2c->XferOptions;
 80038a0:	68fb      	ldr	r3, [r7, #12]
 80038a2:	6adb      	ldr	r3, [r3, #44]	; 0x2c
 80038a4:	617b      	str	r3, [r7, #20]

  /* Generate Start condition if first transfer */
  if ((CurrentXferOptions == I2C_FIRST_AND_LAST_FRAME) || (CurrentXferOptions == I2C_FIRST_FRAME) || (CurrentXferOptions == I2C_NO_OPTION_FRAME))
 80038a6:	697b      	ldr	r3, [r7, #20]
 80038a8:	2b08      	cmp	r3, #8
 80038aa:	d006      	beq.n	80038ba <I2C_MasterRequestWrite+0x2a>
 80038ac:	697b      	ldr	r3, [r7, #20]
 80038ae:	2b01      	cmp	r3, #1
 80038b0:	d003      	beq.n	80038ba <I2C_MasterRequestWrite+0x2a>
 80038b2:	697b      	ldr	r3, [r7, #20]
 80038b4:	f513 3f80 	cmn.w	r3, #65536	; 0x10000
 80038b8:	d108      	bne.n	80038cc <I2C_MasterRequestWrite+0x3c>
  {
    /* Generate Start */
    SET_BIT(hi2c->Instance->CR1, I2C_CR1_START);
 80038ba:	68fb      	ldr	r3, [r7, #12]
 80038bc:	681b      	ldr	r3, [r3, #0]
 80038be:	681a      	ldr	r2, [r3, #0]
 80038c0:	68fb      	ldr	r3, [r7, #12]
 80038c2:	681b      	ldr	r3, [r3, #0]
 80038c4:	f442 7280 	orr.w	r2, r2, #256	; 0x100
 80038c8:	601a      	str	r2, [r3, #0]
 80038ca:	e00b      	b.n	80038e4 <I2C_MasterRequestWrite+0x54>
  }
  else if (hi2c->PreviousState == I2C_STATE_MASTER_BUSY_RX)
 80038cc:	68fb      	ldr	r3, [r7, #12]
 80038ce:	6b1b      	ldr	r3, [r3, #48]	; 0x30
 80038d0:	2b12      	cmp	r3, #18
 80038d2:	d107      	bne.n	80038e4 <I2C_MasterRequestWrite+0x54>
  {
    /* Generate ReStart */
    SET_BIT(hi2c->Instance->CR1, I2C_CR1_START);
 80038d4:	68fb      	ldr	r3, [r7, #12]
 80038d6:	681b      	ldr	r3, [r3, #0]
 80038d8:	681a      	ldr	r2, [r3, #0]
 80038da:	68fb      	ldr	r3, [r7, #12]
 80038dc:	681b      	ldr	r3, [r3, #0]
 80038de:	f442 7280 	orr.w	r2, r2, #256	; 0x100
 80038e2:	601a      	str	r2, [r3, #0]
  {
    /* Do nothing */
  }

  /* Wait until SB flag is set */
  if (I2C_WaitOnFlagUntilTimeout(hi2c, I2C_FLAG_SB, RESET, Timeout, Tickstart) != HAL_OK)
 80038e4:	683b      	ldr	r3, [r7, #0]
 80038e6:	9300      	str	r3, [sp, #0]
 80038e8:	687b      	ldr	r3, [r7, #4]
 80038ea:	2200      	movs	r2, #0
 80038ec:	f04f 1101 	mov.w	r1, #65537	; 0x10001
 80038f0:	68f8      	ldr	r0, [r7, #12]
 80038f2:	f000 f91d 	bl	8003b30 <I2C_WaitOnFlagUntilTimeout>
 80038f6:	4603      	mov	r3, r0
 80038f8:	2b00      	cmp	r3, #0
 80038fa:	d00d      	beq.n	8003918 <I2C_MasterRequestWrite+0x88>
  {
    if (READ_BIT(hi2c->Instance->CR1, I2C_CR1_START) == I2C_CR1_START)
 80038fc:	68fb      	ldr	r3, [r7, #12]
 80038fe:	681b      	ldr	r3, [r3, #0]
 8003900:	681b      	ldr	r3, [r3, #0]
 8003902:	f403 7380 	and.w	r3, r3, #256	; 0x100
 8003906:	f5b3 7f80 	cmp.w	r3, #256	; 0x100
 800390a:	d103      	bne.n	8003914 <I2C_MasterRequestWrite+0x84>
    {
      hi2c->ErrorCode = HAL_I2C_WRONG_START;
 800390c:	68fb      	ldr	r3, [r7, #12]
 800390e:	f44f 7200 	mov.w	r2, #512	; 0x200
 8003912:	641a      	str	r2, [r3, #64]	; 0x40
    }
    return HAL_TIMEOUT;
 8003914:	2303      	movs	r3, #3
 8003916:	e035      	b.n	8003984 <I2C_MasterRequestWrite+0xf4>
  }

  if (hi2c->Init.AddressingMode == I2C_ADDRESSINGMODE_7BIT)
 8003918:	68fb      	ldr	r3, [r7, #12]
 800391a:	691b      	ldr	r3, [r3, #16]
 800391c:	f5b3 4f80 	cmp.w	r3, #16384	; 0x4000
 8003920:	d108      	bne.n	8003934 <I2C_MasterRequestWrite+0xa4>
  {
    /* Send slave address */
    hi2c->Instance->DR = I2C_7BIT_ADD_WRITE(DevAddress);
 8003922:	897b      	ldrh	r3, [r7, #10]
 8003924:	b2db      	uxtb	r3, r3
 8003926:	461a      	mov	r2, r3
 8003928:	68fb      	ldr	r3, [r7, #12]
 800392a:	681b      	ldr	r3, [r3, #0]
 800392c:	f002 02fe 	and.w	r2, r2, #254	; 0xfe
 8003930:	611a      	str	r2, [r3, #16]
 8003932:	e01b      	b.n	800396c <I2C_MasterRequestWrite+0xdc>
  }
  else
  {
    /* Send header of slave address */
    hi2c->Instance->DR = I2C_10BIT_HEADER_WRITE(DevAddress);
 8003934:	897b      	ldrh	r3, [r7, #10]
 8003936:	11db      	asrs	r3, r3, #7
 8003938:	b2db      	uxtb	r3, r3
 800393a:	f003 0306 	and.w	r3, r3, #6
 800393e:	b2db      	uxtb	r3, r3
 8003940:	f063 030f 	orn	r3, r3, #15
 8003944:	b2da      	uxtb	r2, r3
 8003946:	68fb      	ldr	r3, [r7, #12]
 8003948:	681b      	ldr	r3, [r3, #0]
 800394a:	611a      	str	r2, [r3, #16]

    /* Wait until ADD10 flag is set */
    if (I2C_WaitOnMasterAddressFlagUntilTimeout(hi2c, I2C_FLAG_ADD10, Timeout, Tickstart) != HAL_OK)
 800394c:	683b      	ldr	r3, [r7, #0]
 800394e:	687a      	ldr	r2, [r7, #4]
 8003950:	490e      	ldr	r1, [pc, #56]	; (800398c <I2C_MasterRequestWrite+0xfc>)
 8003952:	68f8      	ldr	r0, [r7, #12]
 8003954:	f000 f966 	bl	8003c24 <I2C_WaitOnMasterAddressFlagUntilTimeout>
 8003958:	4603      	mov	r3, r0
 800395a:	2b00      	cmp	r3, #0
 800395c:	d001      	beq.n	8003962 <I2C_MasterRequestWrite+0xd2>
    {
      return HAL_ERROR;
 800395e:	2301      	movs	r3, #1
 8003960:	e010      	b.n	8003984 <I2C_MasterRequestWrite+0xf4>
    }

    /* Send slave address */
    hi2c->Instance->DR = I2C_10BIT_ADDRESS(DevAddress);
 8003962:	897b      	ldrh	r3, [r7, #10]
 8003964:	b2da      	uxtb	r2, r3
 8003966:	68fb      	ldr	r3, [r7, #12]
 8003968:	681b      	ldr	r3, [r3, #0]
 800396a:	611a      	str	r2, [r3, #16]
  }

  /* Wait until ADDR flag is set */
  if (I2C_WaitOnMasterAddressFlagUntilTimeout(hi2c, I2C_FLAG_ADDR, Timeout, Tickstart) != HAL_OK)
 800396c:	683b      	ldr	r3, [r7, #0]
 800396e:	687a      	ldr	r2, [r7, #4]
 8003970:	4907      	ldr	r1, [pc, #28]	; (8003990 <I2C_MasterRequestWrite+0x100>)
 8003972:	68f8      	ldr	r0, [r7, #12]
 8003974:	f000 f956 	bl	8003c24 <I2C_WaitOnMasterAddressFlagUntilTimeout>
 8003978:	4603      	mov	r3, r0
 800397a:	2b00      	cmp	r3, #0
 800397c:	d001      	beq.n	8003982 <I2C_MasterRequestWrite+0xf2>
  {
    return HAL_ERROR;
 800397e:	2301      	movs	r3, #1
 8003980:	e000      	b.n	8003984 <I2C_MasterRequestWrite+0xf4>
  }

  return HAL_OK;
 8003982:	2300      	movs	r3, #0
}
 8003984:	4618      	mov	r0, r3
 8003986:	3718      	adds	r7, #24
 8003988:	46bd      	mov	sp, r7
 800398a:	bd80      	pop	{r7, pc}
 800398c:	00010008 	.word	0x00010008
 8003990:	00010002 	.word	0x00010002

08003994 <I2C_MasterRequestRead>:
  * @param  Timeout Timeout duration
  * @param  Tickstart Tick start value
  * @retval HAL status
  */
static HAL_StatusTypeDef I2C_MasterRequestRead(I2C_HandleTypeDef *hi2c, uint16_t DevAddress, uint32_t Timeout, uint32_t Tickstart)
{
 8003994:	b580      	push	{r7, lr}
 8003996:	b088      	sub	sp, #32
 8003998:	af02      	add	r7, sp, #8
 800399a:	60f8      	str	r0, [r7, #12]
 800399c:	607a      	str	r2, [r7, #4]
 800399e:	603b      	str	r3, [r7, #0]
 80039a0:	460b      	mov	r3, r1
 80039a2:	817b      	strh	r3, [r7, #10]
  /* Declaration of temporary variable to prevent undefined behavior of volatile usage */
  uint32_t CurrentXferOptions = hi2c->XferOptions;
 80039a4:	68fb      	ldr	r3, [r7, #12]
 80039a6:	6adb      	ldr	r3, [r3, #44]	; 0x2c
 80039a8:	617b      	str	r3, [r7, #20]

  /* Enable Acknowledge */
  SET_BIT(hi2c->Instance->CR1, I2C_CR1_ACK);
 80039aa:	68fb      	ldr	r3, [r7, #12]
 80039ac:	681b      	ldr	r3, [r3, #0]
 80039ae:	681a      	ldr	r2, [r3, #0]
 80039b0:	68fb      	ldr	r3, [r7, #12]
 80039b2:	681b      	ldr	r3, [r3, #0]
 80039b4:	f442 6280 	orr.w	r2, r2, #1024	; 0x400
 80039b8:	601a      	str	r2, [r3, #0]

  /* Generate Start condition if first transfer */
  if ((CurrentXferOptions == I2C_FIRST_AND_LAST_FRAME) || (CurrentXferOptions == I2C_FIRST_FRAME)  || (CurrentXferOptions == I2C_NO_OPTION_FRAME))
 80039ba:	697b      	ldr	r3, [r7, #20]
 80039bc:	2b08      	cmp	r3, #8
 80039be:	d006      	beq.n	80039ce <I2C_MasterRequestRead+0x3a>
 80039c0:	697b      	ldr	r3, [r7, #20]
 80039c2:	2b01      	cmp	r3, #1
 80039c4:	d003      	beq.n	80039ce <I2C_MasterRequestRead+0x3a>
 80039c6:	697b      	ldr	r3, [r7, #20]
 80039c8:	f513 3f80 	cmn.w	r3, #65536	; 0x10000
 80039cc:	d108      	bne.n	80039e0 <I2C_MasterRequestRead+0x4c>
  {
    /* Generate Start */
    SET_BIT(hi2c->Instance->CR1, I2C_CR1_START);
 80039ce:	68fb      	ldr	r3, [r7, #12]
 80039d0:	681b      	ldr	r3, [r3, #0]
 80039d2:	681a      	ldr	r2, [r3, #0]
 80039d4:	68fb      	ldr	r3, [r7, #12]
 80039d6:	681b      	ldr	r3, [r3, #0]
 80039d8:	f442 7280 	orr.w	r2, r2, #256	; 0x100
 80039dc:	601a      	str	r2, [r3, #0]
 80039de:	e00b      	b.n	80039f8 <I2C_MasterRequestRead+0x64>
  }
  else if (hi2c->PreviousState == I2C_STATE_MASTER_BUSY_TX)
 80039e0:	68fb      	ldr	r3, [r7, #12]
 80039e2:	6b1b      	ldr	r3, [r3, #48]	; 0x30
 80039e4:	2b11      	cmp	r3, #17
 80039e6:	d107      	bne.n	80039f8 <I2C_MasterRequestRead+0x64>
  {
    /* Generate ReStart */
    SET_BIT(hi2c->Instance->CR1, I2C_CR1_START);
 80039e8:	68fb      	ldr	r3, [r7, #12]
 80039ea:	681b      	ldr	r3, [r3, #0]
 80039ec:	681a      	ldr	r2, [r3, #0]
 80039ee:	68fb      	ldr	r3, [r7, #12]
 80039f0:	681b      	ldr	r3, [r3, #0]
 80039f2:	f442 7280 	orr.w	r2, r2, #256	; 0x100
 80039f6:	601a      	str	r2, [r3, #0]
  {
    /* Do nothing */
  }

  /* Wait until SB flag is set */
  if (I2C_WaitOnFlagUntilTimeout(hi2c, I2C_FLAG_SB, RESET, Timeout, Tickstart) != HAL_OK)
 80039f8:	683b      	ldr	r3, [r7, #0]
 80039fa:	9300      	str	r3, [sp, #0]
 80039fc:	687b      	ldr	r3, [r7, #4]
 80039fe:	2200      	movs	r2, #0
 8003a00:	f04f 1101 	mov.w	r1, #65537	; 0x10001
 8003a04:	68f8      	ldr	r0, [r7, #12]
 8003a06:	f000 f893 	bl	8003b30 <I2C_WaitOnFlagUntilTimeout>
 8003a0a:	4603      	mov	r3, r0
 8003a0c:	2b00      	cmp	r3, #0
 8003a0e:	d00d      	beq.n	8003a2c <I2C_MasterRequestRead+0x98>
  {
    if (READ_BIT(hi2c->Instance->CR1, I2C_CR1_START) == I2C_CR1_START)
 8003a10:	68fb      	ldr	r3, [r7, #12]
 8003a12:	681b      	ldr	r3, [r3, #0]
 8003a14:	681b      	ldr	r3, [r3, #0]
 8003a16:	f403 7380 	and.w	r3, r3, #256	; 0x100
 8003a1a:	f5b3 7f80 	cmp.w	r3, #256	; 0x100
 8003a1e:	d103      	bne.n	8003a28 <I2C_MasterRequestRead+0x94>
    {
      hi2c->ErrorCode = HAL_I2C_WRONG_START;
 8003a20:	68fb      	ldr	r3, [r7, #12]
 8003a22:	f44f 7200 	mov.w	r2, #512	; 0x200
 8003a26:	641a      	str	r2, [r3, #64]	; 0x40
    }
    return HAL_TIMEOUT;
 8003a28:	2303      	movs	r3, #3
 8003a2a:	e079      	b.n	8003b20 <I2C_MasterRequestRead+0x18c>
  }

  if (hi2c->Init.AddressingMode == I2C_ADDRESSINGMODE_7BIT)
 8003a2c:	68fb      	ldr	r3, [r7, #12]
 8003a2e:	691b      	ldr	r3, [r3, #16]
 8003a30:	f5b3 4f80 	cmp.w	r3, #16384	; 0x4000
 8003a34:	d108      	bne.n	8003a48 <I2C_MasterRequestRead+0xb4>
  {
    /* Send slave address */
    hi2c->Instance->DR = I2C_7BIT_ADD_READ(DevAddress);
 8003a36:	897b      	ldrh	r3, [r7, #10]
 8003a38:	b2db      	uxtb	r3, r3
 8003a3a:	f043 0301 	orr.w	r3, r3, #1
 8003a3e:	b2da      	uxtb	r2, r3
 8003a40:	68fb      	ldr	r3, [r7, #12]
 8003a42:	681b      	ldr	r3, [r3, #0]
 8003a44:	611a      	str	r2, [r3, #16]
 8003a46:	e05f      	b.n	8003b08 <I2C_MasterRequestRead+0x174>
  }
  else
  {
    /* Send header of slave address */
    hi2c->Instance->DR = I2C_10BIT_HEADER_WRITE(DevAddress);
 8003a48:	897b      	ldrh	r3, [r7, #10]
 8003a4a:	11db      	asrs	r3, r3, #7
 8003a4c:	b2db      	uxtb	r3, r3
 8003a4e:	f003 0306 	and.w	r3, r3, #6
 8003a52:	b2db      	uxtb	r3, r3
 8003a54:	f063 030f 	orn	r3, r3, #15
 8003a58:	b2da      	uxtb	r2, r3
 8003a5a:	68fb      	ldr	r3, [r7, #12]
 8003a5c:	681b      	ldr	r3, [r3, #0]
 8003a5e:	611a      	str	r2, [r3, #16]

    /* Wait until ADD10 flag is set */
    if (I2C_WaitOnMasterAddressFlagUntilTimeout(hi2c, I2C_FLAG_ADD10, Timeout, Tickstart) != HAL_OK)
 8003a60:	683b      	ldr	r3, [r7, #0]
 8003a62:	687a      	ldr	r2, [r7, #4]
 8003a64:	4930      	ldr	r1, [pc, #192]	; (8003b28 <I2C_MasterRequestRead+0x194>)
 8003a66:	68f8      	ldr	r0, [r7, #12]
 8003a68:	f000 f8dc 	bl	8003c24 <I2C_WaitOnMasterAddressFlagUntilTimeout>
 8003a6c:	4603      	mov	r3, r0
 8003a6e:	2b00      	cmp	r3, #0
 8003a70:	d001      	beq.n	8003a76 <I2C_MasterRequestRead+0xe2>
    {
      return HAL_ERROR;
 8003a72:	2301      	movs	r3, #1
 8003a74:	e054      	b.n	8003b20 <I2C_MasterRequestRead+0x18c>
    }

    /* Send slave address */
    hi2c->Instance->DR = I2C_10BIT_ADDRESS(DevAddress);
 8003a76:	897b      	ldrh	r3, [r7, #10]
 8003a78:	b2da      	uxtb	r2, r3
 8003a7a:	68fb      	ldr	r3, [r7, #12]
 8003a7c:	681b      	ldr	r3, [r3, #0]
 8003a7e:	611a      	str	r2, [r3, #16]

    /* Wait until ADDR flag is set */
    if (I2C_WaitOnMasterAddressFlagUntilTimeout(hi2c, I2C_FLAG_ADDR, Timeout, Tickstart) != HAL_OK)
 8003a80:	683b      	ldr	r3, [r7, #0]
 8003a82:	687a      	ldr	r2, [r7, #4]
 8003a84:	4929      	ldr	r1, [pc, #164]	; (8003b2c <I2C_MasterRequestRead+0x198>)
 8003a86:	68f8      	ldr	r0, [r7, #12]
 8003a88:	f000 f8cc 	bl	8003c24 <I2C_WaitOnMasterAddressFlagUntilTimeout>
 8003a8c:	4603      	mov	r3, r0
 8003a8e:	2b00      	cmp	r3, #0
 8003a90:	d001      	beq.n	8003a96 <I2C_MasterRequestRead+0x102>
    {
      return HAL_ERROR;
 8003a92:	2301      	movs	r3, #1
 8003a94:	e044      	b.n	8003b20 <I2C_MasterRequestRead+0x18c>
    }

    /* Clear ADDR flag */
    __HAL_I2C_CLEAR_ADDRFLAG(hi2c);
 8003a96:	2300      	movs	r3, #0
 8003a98:	613b      	str	r3, [r7, #16]
 8003a9a:	68fb      	ldr	r3, [r7, #12]
 8003a9c:	681b      	ldr	r3, [r3, #0]
 8003a9e:	695b      	ldr	r3, [r3, #20]
 8003aa0:	613b      	str	r3, [r7, #16]
 8003aa2:	68fb      	ldr	r3, [r7, #12]
 8003aa4:	681b      	ldr	r3, [r3, #0]
 8003aa6:	699b      	ldr	r3, [r3, #24]
 8003aa8:	613b      	str	r3, [r7, #16]
 8003aaa:	693b      	ldr	r3, [r7, #16]

    /* Generate Restart */
    SET_BIT(hi2c->Instance->CR1, I2C_CR1_START);
 8003aac:	68fb      	ldr	r3, [r7, #12]
 8003aae:	681b      	ldr	r3, [r3, #0]
 8003ab0:	681a      	ldr	r2, [r3, #0]
 8003ab2:	68fb      	ldr	r3, [r7, #12]
 8003ab4:	681b      	ldr	r3, [r3, #0]
 8003ab6:	f442 7280 	orr.w	r2, r2, #256	; 0x100
 8003aba:	601a      	str	r2, [r3, #0]

    /* Wait until SB flag is set */
    if (I2C_WaitOnFlagUntilTimeout(hi2c, I2C_FLAG_SB, RESET, Timeout, Tickstart) != HAL_OK)
 8003abc:	683b      	ldr	r3, [r7, #0]
 8003abe:	9300      	str	r3, [sp, #0]
 8003ac0:	687b      	ldr	r3, [r7, #4]
 8003ac2:	2200      	movs	r2, #0
 8003ac4:	f04f 1101 	mov.w	r1, #65537	; 0x10001
 8003ac8:	68f8      	ldr	r0, [r7, #12]
 8003aca:	f000 f831 	bl	8003b30 <I2C_WaitOnFlagUntilTimeout>
 8003ace:	4603      	mov	r3, r0
 8003ad0:	2b00      	cmp	r3, #0
 8003ad2:	d00d      	beq.n	8003af0 <I2C_MasterRequestRead+0x15c>
    {
      if (READ_BIT(hi2c->Instance->CR1, I2C_CR1_START) == I2C_CR1_START)
 8003ad4:	68fb      	ldr	r3, [r7, #12]
 8003ad6:	681b      	ldr	r3, [r3, #0]
 8003ad8:	681b      	ldr	r3, [r3, #0]
 8003ada:	f403 7380 	and.w	r3, r3, #256	; 0x100
 8003ade:	f5b3 7f80 	cmp.w	r3, #256	; 0x100
 8003ae2:	d103      	bne.n	8003aec <I2C_MasterRequestRead+0x158>
      {
        hi2c->ErrorCode = HAL_I2C_WRONG_START;
 8003ae4:	68fb      	ldr	r3, [r7, #12]
 8003ae6:	f44f 7200 	mov.w	r2, #512	; 0x200
 8003aea:	641a      	str	r2, [r3, #64]	; 0x40
      }
      return HAL_TIMEOUT;
 8003aec:	2303      	movs	r3, #3
 8003aee:	e017      	b.n	8003b20 <I2C_MasterRequestRead+0x18c>
    }

    /* Send header of slave address */
    hi2c->Instance->DR = I2C_10BIT_HEADER_READ(DevAddress);
 8003af0:	897b      	ldrh	r3, [r7, #10]
 8003af2:	11db      	asrs	r3, r3, #7
 8003af4:	b2db      	uxtb	r3, r3
 8003af6:	f003 0306 	and.w	r3, r3, #6
 8003afa:	b2db      	uxtb	r3, r3
 8003afc:	f063 030e 	orn	r3, r3, #14
 8003b00:	b2da      	uxtb	r2, r3
 8003b02:	68fb      	ldr	r3, [r7, #12]
 8003b04:	681b      	ldr	r3, [r3, #0]
 8003b06:	611a      	str	r2, [r3, #16]
  }

  /* Wait until ADDR flag is set */
  if (I2C_WaitOnMasterAddressFlagUntilTimeout(hi2c, I2C_FLAG_ADDR, Timeout, Tickstart) != HAL_OK)
 8003b08:	683b      	ldr	r3, [r7, #0]
 8003b0a:	687a      	ldr	r2, [r7, #4]
 8003b0c:	4907      	ldr	r1, [pc, #28]	; (8003b2c <I2C_MasterRequestRead+0x198>)
 8003b0e:	68f8      	ldr	r0, [r7, #12]
 8003b10:	f000 f888 	bl	8003c24 <I2C_WaitOnMasterAddressFlagUntilTimeout>
 8003b14:	4603      	mov	r3, r0
 8003b16:	2b00      	cmp	r3, #0
 8003b18:	d001      	beq.n	8003b1e <I2C_MasterRequestRead+0x18a>
  {
    return HAL_ERROR;
 8003b1a:	2301      	movs	r3, #1
 8003b1c:	e000      	b.n	8003b20 <I2C_MasterRequestRead+0x18c>
  }

  return HAL_OK;
 8003b1e:	2300      	movs	r3, #0
}
 8003b20:	4618      	mov	r0, r3
 8003b22:	3718      	adds	r7, #24
 8003b24:	46bd      	mov	sp, r7
 8003b26:	bd80      	pop	{r7, pc}
 8003b28:	00010008 	.word	0x00010008
 8003b2c:	00010002 	.word	0x00010002

08003b30 <I2C_WaitOnFlagUntilTimeout>:
  * @param  Timeout Timeout duration
  * @param  Tickstart Tick start value
  * @retval HAL status
  */
static HAL_StatusTypeDef I2C_WaitOnFlagUntilTimeout(I2C_HandleTypeDef *hi2c, uint32_t Flag, FlagStatus Status, uint32_t Timeout, uint32_t Tickstart)
{
 8003b30:	b580      	push	{r7, lr}
 8003b32:	b084      	sub	sp, #16
 8003b34:	af00      	add	r7, sp, #0
 8003b36:	60f8      	str	r0, [r7, #12]
 8003b38:	60b9      	str	r1, [r7, #8]
 8003b3a:	603b      	str	r3, [r7, #0]
 8003b3c:	4613      	mov	r3, r2
 8003b3e:	71fb      	strb	r3, [r7, #7]
  /* Wait until flag is set */
  while (__HAL_I2C_GET_FLAG(hi2c, Flag) == Status)
 8003b40:	e048      	b.n	8003bd4 <I2C_WaitOnFlagUntilTimeout+0xa4>
  {
    /* Check for the Timeout */
    if (Timeout != HAL_MAX_DELAY)
 8003b42:	683b      	ldr	r3, [r7, #0]
 8003b44:	f1b3 3fff 	cmp.w	r3, #4294967295
 8003b48:	d044      	beq.n	8003bd4 <I2C_WaitOnFlagUntilTimeout+0xa4>
    {
      if (((HAL_GetTick() - Tickstart) > Timeout) || (Timeout == 0U))
 8003b4a:	f7fe fab9 	bl	80020c0 <HAL_GetTick>
 8003b4e:	4602      	mov	r2, r0
 8003b50:	69bb      	ldr	r3, [r7, #24]
 8003b52:	1ad3      	subs	r3, r2, r3
 8003b54:	683a      	ldr	r2, [r7, #0]
 8003b56:	429a      	cmp	r2, r3
 8003b58:	d302      	bcc.n	8003b60 <I2C_WaitOnFlagUntilTimeout+0x30>
 8003b5a:	683b      	ldr	r3, [r7, #0]
 8003b5c:	2b00      	cmp	r3, #0
 8003b5e:	d139      	bne.n	8003bd4 <I2C_WaitOnFlagUntilTimeout+0xa4>
      {
        if ((__HAL_I2C_GET_FLAG(hi2c, Flag) == Status))
 8003b60:	68bb      	ldr	r3, [r7, #8]
 8003b62:	0c1b      	lsrs	r3, r3, #16
 8003b64:	b2db      	uxtb	r3, r3
 8003b66:	2b01      	cmp	r3, #1
 8003b68:	d10d      	bne.n	8003b86 <I2C_WaitOnFlagUntilTimeout+0x56>
 8003b6a:	68fb      	ldr	r3, [r7, #12]
 8003b6c:	681b      	ldr	r3, [r3, #0]
 8003b6e:	695b      	ldr	r3, [r3, #20]
 8003b70:	43da      	mvns	r2, r3
 8003b72:	68bb      	ldr	r3, [r7, #8]
 8003b74:	4013      	ands	r3, r2
 8003b76:	b29b      	uxth	r3, r3
 8003b78:	2b00      	cmp	r3, #0
 8003b7a:	bf0c      	ite	eq
 8003b7c:	2301      	moveq	r3, #1
 8003b7e:	2300      	movne	r3, #0
 8003b80:	b2db      	uxtb	r3, r3
 8003b82:	461a      	mov	r2, r3
 8003b84:	e00c      	b.n	8003ba0 <I2C_WaitOnFlagUntilTimeout+0x70>
 8003b86:	68fb      	ldr	r3, [r7, #12]
 8003b88:	681b      	ldr	r3, [r3, #0]
 8003b8a:	699b      	ldr	r3, [r3, #24]
 8003b8c:	43da      	mvns	r2, r3
 8003b8e:	68bb      	ldr	r3, [r7, #8]
 8003b90:	4013      	ands	r3, r2
 8003b92:	b29b      	uxth	r3, r3
 8003b94:	2b00      	cmp	r3, #0
 8003b96:	bf0c      	ite	eq
 8003b98:	2301      	moveq	r3, #1
 8003b9a:	2300      	movne	r3, #0
 8003b9c:	b2db      	uxtb	r3, r3
 8003b9e:	461a      	mov	r2, r3
 8003ba0:	79fb      	ldrb	r3, [r7, #7]
 8003ba2:	429a      	cmp	r2, r3
 8003ba4:	d116      	bne.n	8003bd4 <I2C_WaitOnFlagUntilTimeout+0xa4>
        {
          hi2c->PreviousState     = I2C_STATE_NONE;
 8003ba6:	68fb      	ldr	r3, [r7, #12]
 8003ba8:	2200      	movs	r2, #0
 8003baa:	631a      	str	r2, [r3, #48]	; 0x30
          hi2c->State             = HAL_I2C_STATE_READY;
 8003bac:	68fb      	ldr	r3, [r7, #12]
 8003bae:	2220      	movs	r2, #32
 8003bb0:	f883 203d 	strb.w	r2, [r3, #61]	; 0x3d
          hi2c->Mode              = HAL_I2C_MODE_NONE;
 8003bb4:	68fb      	ldr	r3, [r7, #12]
 8003bb6:	2200      	movs	r2, #0
 8003bb8:	f883 203e 	strb.w	r2, [r3, #62]	; 0x3e
          hi2c->ErrorCode         |= HAL_I2C_ERROR_TIMEOUT;
 8003bbc:	68fb      	ldr	r3, [r7, #12]
 8003bbe:	6c1b      	ldr	r3, [r3, #64]	; 0x40
 8003bc0:	f043 0220 	orr.w	r2, r3, #32
 8003bc4:	68fb      	ldr	r3, [r7, #12]
 8003bc6:	641a      	str	r2, [r3, #64]	; 0x40

          /* Process Unlocked */
          __HAL_UNLOCK(hi2c);
 8003bc8:	68fb      	ldr	r3, [r7, #12]
 8003bca:	2200      	movs	r2, #0
 8003bcc:	f883 203c 	strb.w	r2, [r3, #60]	; 0x3c

          return HAL_ERROR;
 8003bd0:	2301      	movs	r3, #1
 8003bd2:	e023      	b.n	8003c1c <I2C_WaitOnFlagUntilTimeout+0xec>
  while (__HAL_I2C_GET_FLAG(hi2c, Flag) == Status)
 8003bd4:	68bb      	ldr	r3, [r7, #8]
 8003bd6:	0c1b      	lsrs	r3, r3, #16
 8003bd8:	b2db      	uxtb	r3, r3
 8003bda:	2b01      	cmp	r3, #1
 8003bdc:	d10d      	bne.n	8003bfa <I2C_WaitOnFlagUntilTimeout+0xca>
 8003bde:	68fb      	ldr	r3, [r7, #12]
 8003be0:	681b      	ldr	r3, [r3, #0]
 8003be2:	695b      	ldr	r3, [r3, #20]
 8003be4:	43da      	mvns	r2, r3
 8003be6:	68bb      	ldr	r3, [r7, #8]
 8003be8:	4013      	ands	r3, r2
 8003bea:	b29b      	uxth	r3, r3
 8003bec:	2b00      	cmp	r3, #0
 8003bee:	bf0c      	ite	eq
 8003bf0:	2301      	moveq	r3, #1
 8003bf2:	2300      	movne	r3, #0
 8003bf4:	b2db      	uxtb	r3, r3
 8003bf6:	461a      	mov	r2, r3
 8003bf8:	e00c      	b.n	8003c14 <I2C_WaitOnFlagUntilTimeout+0xe4>
 8003bfa:	68fb      	ldr	r3, [r7, #12]
 8003bfc:	681b      	ldr	r3, [r3, #0]
 8003bfe:	699b      	ldr	r3, [r3, #24]
 8003c00:	43da      	mvns	r2, r3
 8003c02:	68bb      	ldr	r3, [r7, #8]
 8003c04:	4013      	ands	r3, r2
 8003c06:	b29b      	uxth	r3, r3
 8003c08:	2b00      	cmp	r3, #0
 8003c0a:	bf0c      	ite	eq
 8003c0c:	2301      	moveq	r3, #1
 8003c0e:	2300      	movne	r3, #0
 8003c10:	b2db      	uxtb	r3, r3
 8003c12:	461a      	mov	r2, r3
 8003c14:	79fb      	ldrb	r3, [r7, #7]
 8003c16:	429a      	cmp	r2, r3
 8003c18:	d093      	beq.n	8003b42 <I2C_WaitOnFlagUntilTimeout+0x12>
        }
      }
    }
  }
  return HAL_OK;
 8003c1a:	2300      	movs	r3, #0
}
 8003c1c:	4618      	mov	r0, r3
 8003c1e:	3710      	adds	r7, #16
 8003c20:	46bd      	mov	sp, r7
 8003c22:	bd80      	pop	{r7, pc}

08003c24 <I2C_WaitOnMasterAddressFlagUntilTimeout>:
  * @param  Timeout Timeout duration
  * @param  Tickstart Tick start value
  * @retval HAL status
  */
static HAL_StatusTypeDef I2C_WaitOnMasterAddressFlagUntilTimeout(I2C_HandleTypeDef *hi2c, uint32_t Flag, uint32_t Timeout, uint32_t Tickstart)
{
 8003c24:	b580      	push	{r7, lr}
 8003c26:	b084      	sub	sp, #16
 8003c28:	af00      	add	r7, sp, #0
 8003c2a:	60f8      	str	r0, [r7, #12]
 8003c2c:	60b9      	str	r1, [r7, #8]
 8003c2e:	607a      	str	r2, [r7, #4]
 8003c30:	603b      	str	r3, [r7, #0]
  while (__HAL_I2C_GET_FLAG(hi2c, Flag) == RESET)
 8003c32:	e071      	b.n	8003d18 <I2C_WaitOnMasterAddressFlagUntilTimeout+0xf4>
  {
    if (__HAL_I2C_GET_FLAG(hi2c, I2C_FLAG_AF) == SET)
 8003c34:	68fb      	ldr	r3, [r7, #12]
 8003c36:	681b      	ldr	r3, [r3, #0]
 8003c38:	695b      	ldr	r3, [r3, #20]
 8003c3a:	f403 6380 	and.w	r3, r3, #1024	; 0x400
 8003c3e:	f5b3 6f80 	cmp.w	r3, #1024	; 0x400
 8003c42:	d123      	bne.n	8003c8c <I2C_WaitOnMasterAddressFlagUntilTimeout+0x68>
    {
      /* Generate Stop */
      SET_BIT(hi2c->Instance->CR1, I2C_CR1_STOP);
 8003c44:	68fb      	ldr	r3, [r7, #12]
 8003c46:	681b      	ldr	r3, [r3, #0]
 8003c48:	681a      	ldr	r2, [r3, #0]
 8003c4a:	68fb      	ldr	r3, [r7, #12]
 8003c4c:	681b      	ldr	r3, [r3, #0]
 8003c4e:	f442 7200 	orr.w	r2, r2, #512	; 0x200
 8003c52:	601a      	str	r2, [r3, #0]

      /* Clear AF Flag */
      __HAL_I2C_CLEAR_FLAG(hi2c, I2C_FLAG_AF);
 8003c54:	68fb      	ldr	r3, [r7, #12]
 8003c56:	681b      	ldr	r3, [r3, #0]
 8003c58:	f46f 6280 	mvn.w	r2, #1024	; 0x400
 8003c5c:	615a      	str	r2, [r3, #20]

      hi2c->PreviousState       = I2C_STATE_NONE;
 8003c5e:	68fb      	ldr	r3, [r7, #12]
 8003c60:	2200      	movs	r2, #0
 8003c62:	631a      	str	r2, [r3, #48]	; 0x30
      hi2c->State               = HAL_I2C_STATE_READY;
 8003c64:	68fb      	ldr	r3, [r7, #12]
 8003c66:	2220      	movs	r2, #32
 8003c68:	f883 203d 	strb.w	r2, [r3, #61]	; 0x3d
      hi2c->Mode                = HAL_I2C_MODE_NONE;
 8003c6c:	68fb      	ldr	r3, [r7, #12]
 8003c6e:	2200      	movs	r2, #0
 8003c70:	f883 203e 	strb.w	r2, [r3, #62]	; 0x3e
      hi2c->ErrorCode           |= HAL_I2C_ERROR_AF;
 8003c74:	68fb      	ldr	r3, [r7, #12]
 8003c76:	6c1b      	ldr	r3, [r3, #64]	; 0x40
 8003c78:	f043 0204 	orr.w	r2, r3, #4
 8003c7c:	68fb      	ldr	r3, [r7, #12]
 8003c7e:	641a      	str	r2, [r3, #64]	; 0x40

      /* Process Unlocked */
      __HAL_UNLOCK(hi2c);
 8003c80:	68fb      	ldr	r3, [r7, #12]
 8003c82:	2200      	movs	r2, #0
 8003c84:	f883 203c 	strb.w	r2, [r3, #60]	; 0x3c

      return HAL_ERROR;
 8003c88:	2301      	movs	r3, #1
 8003c8a:	e067      	b.n	8003d5c <I2C_WaitOnMasterAddressFlagUntilTimeout+0x138>
    }

    /* Check for the Timeout */
    if (Timeout != HAL_MAX_DELAY)
 8003c8c:	687b      	ldr	r3, [r7, #4]
 8003c8e:	f1b3 3fff 	cmp.w	r3, #4294967295
 8003c92:	d041      	beq.n	8003d18 <I2C_WaitOnMasterAddressFlagUntilTimeout+0xf4>
    {
      if (((HAL_GetTick() - Tickstart) > Timeout) || (Timeout == 0U))
 8003c94:	f7fe fa14 	bl	80020c0 <HAL_GetTick>
 8003c98:	4602      	mov	r2, r0
 8003c9a:	683b      	ldr	r3, [r7, #0]
 8003c9c:	1ad3      	subs	r3, r2, r3
 8003c9e:	687a      	ldr	r2, [r7, #4]
 8003ca0:	429a      	cmp	r2, r3
 8003ca2:	d302      	bcc.n	8003caa <I2C_WaitOnMasterAddressFlagUntilTimeout+0x86>
 8003ca4:	687b      	ldr	r3, [r7, #4]
 8003ca6:	2b00      	cmp	r3, #0
 8003ca8:	d136      	bne.n	8003d18 <I2C_WaitOnMasterAddressFlagUntilTimeout+0xf4>
      {
        if ((__HAL_I2C_GET_FLAG(hi2c, Flag) == RESET))
 8003caa:	68bb      	ldr	r3, [r7, #8]
 8003cac:	0c1b      	lsrs	r3, r3, #16
 8003cae:	b2db      	uxtb	r3, r3
 8003cb0:	2b01      	cmp	r3, #1
 8003cb2:	d10c      	bne.n	8003cce <I2C_WaitOnMasterAddressFlagUntilTimeout+0xaa>
 8003cb4:	68fb      	ldr	r3, [r7, #12]
 8003cb6:	681b      	ldr	r3, [r3, #0]
 8003cb8:	695b      	ldr	r3, [r3, #20]
 8003cba:	43da      	mvns	r2, r3
 8003cbc:	68bb      	ldr	r3, [r7, #8]
 8003cbe:	4013      	ands	r3, r2
 8003cc0:	b29b      	uxth	r3, r3
 8003cc2:	2b00      	cmp	r3, #0
 8003cc4:	bf14      	ite	ne
 8003cc6:	2301      	movne	r3, #1
 8003cc8:	2300      	moveq	r3, #0
 8003cca:	b2db      	uxtb	r3, r3
 8003ccc:	e00b      	b.n	8003ce6 <I2C_WaitOnMasterAddressFlagUntilTimeout+0xc2>
 8003cce:	68fb      	ldr	r3, [r7, #12]
 8003cd0:	681b      	ldr	r3, [r3, #0]
 8003cd2:	699b      	ldr	r3, [r3, #24]
 8003cd4:	43da      	mvns	r2, r3
 8003cd6:	68bb      	ldr	r3, [r7, #8]
 8003cd8:	4013      	ands	r3, r2
 8003cda:	b29b      	uxth	r3, r3
 8003cdc:	2b00      	cmp	r3, #0
 8003cde:	bf14      	ite	ne
 8003ce0:	2301      	movne	r3, #1
 8003ce2:	2300      	moveq	r3, #0
 8003ce4:	b2db      	uxtb	r3, r3
 8003ce6:	2b00      	cmp	r3, #0
 8003ce8:	d016      	beq.n	8003d18 <I2C_WaitOnMasterAddressFlagUntilTimeout+0xf4>
        {
          hi2c->PreviousState       = I2C_STATE_NONE;
 8003cea:	68fb      	ldr	r3, [r7, #12]
 8003cec:	2200      	movs	r2, #0
 8003cee:	631a      	str	r2, [r3, #48]	; 0x30
          hi2c->State               = HAL_I2C_STATE_READY;
 8003cf0:	68fb      	ldr	r3, [r7, #12]
 8003cf2:	2220      	movs	r2, #32
 8003cf4:	f883 203d 	strb.w	r2, [r3, #61]	; 0x3d
          hi2c->Mode                = HAL_I2C_MODE_NONE;
 8003cf8:	68fb      	ldr	r3, [r7, #12]
 8003cfa:	2200      	movs	r2, #0
 8003cfc:	f883 203e 	strb.w	r2, [r3, #62]	; 0x3e
          hi2c->ErrorCode           |= HAL_I2C_ERROR_TIMEOUT;
 8003d00:	68fb      	ldr	r3, [r7, #12]
 8003d02:	6c1b      	ldr	r3, [r3, #64]	; 0x40
 8003d04:	f043 0220 	orr.w	r2, r3, #32
 8003d08:	68fb      	ldr	r3, [r7, #12]
 8003d0a:	641a      	str	r2, [r3, #64]	; 0x40

          /* Process Unlocked */
          __HAL_UNLOCK(hi2c);
 8003d0c:	68fb      	ldr	r3, [r7, #12]
 8003d0e:	2200      	movs	r2, #0
 8003d10:	f883 203c 	strb.w	r2, [r3, #60]	; 0x3c

          return HAL_ERROR;
 8003d14:	2301      	movs	r3, #1
 8003d16:	e021      	b.n	8003d5c <I2C_WaitOnMasterAddressFlagUntilTimeout+0x138>
  while (__HAL_I2C_GET_FLAG(hi2c, Flag) == RESET)
 8003d18:	68bb      	ldr	r3, [r7, #8]
 8003d1a:	0c1b      	lsrs	r3, r3, #16
 8003d1c:	b2db      	uxtb	r3, r3
 8003d1e:	2b01      	cmp	r3, #1
 8003d20:	d10c      	bne.n	8003d3c <I2C_WaitOnMasterAddressFlagUntilTimeout+0x118>
 8003d22:	68fb      	ldr	r3, [r7, #12]
 8003d24:	681b      	ldr	r3, [r3, #0]
 8003d26:	695b      	ldr	r3, [r3, #20]
 8003d28:	43da      	mvns	r2, r3
 8003d2a:	68bb      	ldr	r3, [r7, #8]
 8003d2c:	4013      	ands	r3, r2
 8003d2e:	b29b      	uxth	r3, r3
 8003d30:	2b00      	cmp	r3, #0
 8003d32:	bf14      	ite	ne
 8003d34:	2301      	movne	r3, #1
 8003d36:	2300      	moveq	r3, #0
 8003d38:	b2db      	uxtb	r3, r3
 8003d3a:	e00b      	b.n	8003d54 <I2C_WaitOnMasterAddressFlagUntilTimeout+0x130>
 8003d3c:	68fb      	ldr	r3, [r7, #12]
 8003d3e:	681b      	ldr	r3, [r3, #0]
 8003d40:	699b      	ldr	r3, [r3, #24]
 8003d42:	43da      	mvns	r2, r3
 8003d44:	68bb      	ldr	r3, [r7, #8]
 8003d46:	4013      	ands	r3, r2
 8003d48:	b29b      	uxth	r3, r3
 8003d4a:	2b00      	cmp	r3, #0
 8003d4c:	bf14      	ite	ne
 8003d4e:	2301      	movne	r3, #1
 8003d50:	2300      	moveq	r3, #0
 8003d52:	b2db      	uxtb	r3, r3
 8003d54:	2b00      	cmp	r3, #0
 8003d56:	f47f af6d 	bne.w	8003c34 <I2C_WaitOnMasterAddressFlagUntilTimeout+0x10>
        }
      }
    }
  }
  return HAL_OK;
 8003d5a:	2300      	movs	r3, #0
}
 8003d5c:	4618      	mov	r0, r3
 8003d5e:	3710      	adds	r7, #16
 8003d60:	46bd      	mov	sp, r7
 8003d62:	bd80      	pop	{r7, pc}

08003d64 <I2C_WaitOnTXEFlagUntilTimeout>:
  * @param  Timeout Timeout duration
  * @param  Tickstart Tick start value
  * @retval HAL status
  */
static HAL_StatusTypeDef I2C_WaitOnTXEFlagUntilTimeout(I2C_HandleTypeDef *hi2c, uint32_t Timeout, uint32_t Tickstart)
{
 8003d64:	b580      	push	{r7, lr}
 8003d66:	b084      	sub	sp, #16
 8003d68:	af00      	add	r7, sp, #0
 8003d6a:	60f8      	str	r0, [r7, #12]
 8003d6c:	60b9      	str	r1, [r7, #8]
 8003d6e:	607a      	str	r2, [r7, #4]
  while (__HAL_I2C_GET_FLAG(hi2c, I2C_FLAG_TXE) == RESET)
 8003d70:	e034      	b.n	8003ddc <I2C_WaitOnTXEFlagUntilTimeout+0x78>
  {
    /* Check if a NACK is detected */
    if (I2C_IsAcknowledgeFailed(hi2c) != HAL_OK)
 8003d72:	68f8      	ldr	r0, [r7, #12]
 8003d74:	f000 f8e3 	bl	8003f3e <I2C_IsAcknowledgeFailed>
 8003d78:	4603      	mov	r3, r0
 8003d7a:	2b00      	cmp	r3, #0
 8003d7c:	d001      	beq.n	8003d82 <I2C_WaitOnTXEFlagUntilTimeout+0x1e>
    {
      return HAL_ERROR;
 8003d7e:	2301      	movs	r3, #1
 8003d80:	e034      	b.n	8003dec <I2C_WaitOnTXEFlagUntilTimeout+0x88>
    }

    /* Check for the Timeout */
    if (Timeout != HAL_MAX_DELAY)
 8003d82:	68bb      	ldr	r3, [r7, #8]
 8003d84:	f1b3 3fff 	cmp.w	r3, #4294967295
 8003d88:	d028      	beq.n	8003ddc <I2C_WaitOnTXEFlagUntilTimeout+0x78>
    {
      if (((HAL_GetTick() - Tickstart) > Timeout) || (Timeout == 0U))
 8003d8a:	f7fe f999 	bl	80020c0 <HAL_GetTick>
 8003d8e:	4602      	mov	r2, r0
 8003d90:	687b      	ldr	r3, [r7, #4]
 8003d92:	1ad3      	subs	r3, r2, r3
 8003d94:	68ba      	ldr	r2, [r7, #8]
 8003d96:	429a      	cmp	r2, r3
 8003d98:	d302      	bcc.n	8003da0 <I2C_WaitOnTXEFlagUntilTimeout+0x3c>
 8003d9a:	68bb      	ldr	r3, [r7, #8]
 8003d9c:	2b00      	cmp	r3, #0
 8003d9e:	d11d      	bne.n	8003ddc <I2C_WaitOnTXEFlagUntilTimeout+0x78>
      {
        if ((__HAL_I2C_GET_FLAG(hi2c, I2C_FLAG_TXE) == RESET))
 8003da0:	68fb      	ldr	r3, [r7, #12]
 8003da2:	681b      	ldr	r3, [r3, #0]
 8003da4:	695b      	ldr	r3, [r3, #20]
 8003da6:	f003 0380 	and.w	r3, r3, #128	; 0x80
 8003daa:	2b80      	cmp	r3, #128	; 0x80
 8003dac:	d016      	beq.n	8003ddc <I2C_WaitOnTXEFlagUntilTimeout+0x78>
        {
          hi2c->PreviousState       = I2C_STATE_NONE;
 8003dae:	68fb      	ldr	r3, [r7, #12]
 8003db0:	2200      	movs	r2, #0
 8003db2:	631a      	str	r2, [r3, #48]	; 0x30
          hi2c->State               = HAL_I2C_STATE_READY;
 8003db4:	68fb      	ldr	r3, [r7, #12]
 8003db6:	2220      	movs	r2, #32
 8003db8:	f883 203d 	strb.w	r2, [r3, #61]	; 0x3d
          hi2c->Mode                = HAL_I2C_MODE_NONE;
 8003dbc:	68fb      	ldr	r3, [r7, #12]
 8003dbe:	2200      	movs	r2, #0
 8003dc0:	f883 203e 	strb.w	r2, [r3, #62]	; 0x3e
          hi2c->ErrorCode           |= HAL_I2C_ERROR_TIMEOUT;
 8003dc4:	68fb      	ldr	r3, [r7, #12]
 8003dc6:	6c1b      	ldr	r3, [r3, #64]	; 0x40
 8003dc8:	f043 0220 	orr.w	r2, r3, #32
 8003dcc:	68fb      	ldr	r3, [r7, #12]
 8003dce:	641a      	str	r2, [r3, #64]	; 0x40

          /* Process Unlocked */
          __HAL_UNLOCK(hi2c);
 8003dd0:	68fb      	ldr	r3, [r7, #12]
 8003dd2:	2200      	movs	r2, #0
 8003dd4:	f883 203c 	strb.w	r2, [r3, #60]	; 0x3c

          return HAL_ERROR;
 8003dd8:	2301      	movs	r3, #1
 8003dda:	e007      	b.n	8003dec <I2C_WaitOnTXEFlagUntilTimeout+0x88>
  while (__HAL_I2C_GET_FLAG(hi2c, I2C_FLAG_TXE) == RESET)
 8003ddc:	68fb      	ldr	r3, [r7, #12]
 8003dde:	681b      	ldr	r3, [r3, #0]
 8003de0:	695b      	ldr	r3, [r3, #20]
 8003de2:	f003 0380 	and.w	r3, r3, #128	; 0x80
 8003de6:	2b80      	cmp	r3, #128	; 0x80
 8003de8:	d1c3      	bne.n	8003d72 <I2C_WaitOnTXEFlagUntilTimeout+0xe>
        }
      }
    }
  }
  return HAL_OK;
 8003dea:	2300      	movs	r3, #0
}
 8003dec:	4618      	mov	r0, r3
 8003dee:	3710      	adds	r7, #16
 8003df0:	46bd      	mov	sp, r7
 8003df2:	bd80      	pop	{r7, pc}

08003df4 <I2C_WaitOnBTFFlagUntilTimeout>:
  * @param  Timeout Timeout duration
  * @param  Tickstart Tick start value
  * @retval HAL status
  */
static HAL_StatusTypeDef I2C_WaitOnBTFFlagUntilTimeout(I2C_HandleTypeDef *hi2c, uint32_t Timeout, uint32_t Tickstart)
{
 8003df4:	b580      	push	{r7, lr}
 8003df6:	b084      	sub	sp, #16
 8003df8:	af00      	add	r7, sp, #0
 8003dfa:	60f8      	str	r0, [r7, #12]
 8003dfc:	60b9      	str	r1, [r7, #8]
 8003dfe:	607a      	str	r2, [r7, #4]
  while (__HAL_I2C_GET_FLAG(hi2c, I2C_FLAG_BTF) == RESET)
 8003e00:	e034      	b.n	8003e6c <I2C_WaitOnBTFFlagUntilTimeout+0x78>
  {
    /* Check if a NACK is detected */
    if (I2C_IsAcknowledgeFailed(hi2c) != HAL_OK)
 8003e02:	68f8      	ldr	r0, [r7, #12]
 8003e04:	f000 f89b 	bl	8003f3e <I2C_IsAcknowledgeFailed>
 8003e08:	4603      	mov	r3, r0
 8003e0a:	2b00      	cmp	r3, #0
 8003e0c:	d001      	beq.n	8003e12 <I2C_WaitOnBTFFlagUntilTimeout+0x1e>
    {
      return HAL_ERROR;
 8003e0e:	2301      	movs	r3, #1
 8003e10:	e034      	b.n	8003e7c <I2C_WaitOnBTFFlagUntilTimeout+0x88>
    }

    /* Check for the Timeout */
    if (Timeout != HAL_MAX_DELAY)
 8003e12:	68bb      	ldr	r3, [r7, #8]
 8003e14:	f1b3 3fff 	cmp.w	r3, #4294967295
 8003e18:	d028      	beq.n	8003e6c <I2C_WaitOnBTFFlagUntilTimeout+0x78>
    {
      if (((HAL_GetTick() - Tickstart) > Timeout) || (Timeout == 0U))
 8003e1a:	f7fe f951 	bl	80020c0 <HAL_GetTick>
 8003e1e:	4602      	mov	r2, r0
 8003e20:	687b      	ldr	r3, [r7, #4]
 8003e22:	1ad3      	subs	r3, r2, r3
 8003e24:	68ba      	ldr	r2, [r7, #8]
 8003e26:	429a      	cmp	r2, r3
 8003e28:	d302      	bcc.n	8003e30 <I2C_WaitOnBTFFlagUntilTimeout+0x3c>
 8003e2a:	68bb      	ldr	r3, [r7, #8]
 8003e2c:	2b00      	cmp	r3, #0
 8003e2e:	d11d      	bne.n	8003e6c <I2C_WaitOnBTFFlagUntilTimeout+0x78>
      {
        if ((__HAL_I2C_GET_FLAG(hi2c, I2C_FLAG_BTF) == RESET))
 8003e30:	68fb      	ldr	r3, [r7, #12]
 8003e32:	681b      	ldr	r3, [r3, #0]
 8003e34:	695b      	ldr	r3, [r3, #20]
 8003e36:	f003 0304 	and.w	r3, r3, #4
 8003e3a:	2b04      	cmp	r3, #4
 8003e3c:	d016      	beq.n	8003e6c <I2C_WaitOnBTFFlagUntilTimeout+0x78>
        {
          hi2c->PreviousState       = I2C_STATE_NONE;
 8003e3e:	68fb      	ldr	r3, [r7, #12]
 8003e40:	2200      	movs	r2, #0
 8003e42:	631a      	str	r2, [r3, #48]	; 0x30
          hi2c->State               = HAL_I2C_STATE_READY;
 8003e44:	68fb      	ldr	r3, [r7, #12]
 8003e46:	2220      	movs	r2, #32
 8003e48:	f883 203d 	strb.w	r2, [r3, #61]	; 0x3d
          hi2c->Mode                = HAL_I2C_MODE_NONE;
 8003e4c:	68fb      	ldr	r3, [r7, #12]
 8003e4e:	2200      	movs	r2, #0
 8003e50:	f883 203e 	strb.w	r2, [r3, #62]	; 0x3e
          hi2c->ErrorCode           |= HAL_I2C_ERROR_TIMEOUT;
 8003e54:	68fb      	ldr	r3, [r7, #12]
 8003e56:	6c1b      	ldr	r3, [r3, #64]	; 0x40
 8003e58:	f043 0220 	orr.w	r2, r3, #32
 8003e5c:	68fb      	ldr	r3, [r7, #12]
 8003e5e:	641a      	str	r2, [r3, #64]	; 0x40

          /* Process Unlocked */
          __HAL_UNLOCK(hi2c);
 8003e60:	68fb      	ldr	r3, [r7, #12]
 8003e62:	2200      	movs	r2, #0
 8003e64:	f883 203c 	strb.w	r2, [r3, #60]	; 0x3c

          return HAL_ERROR;
 8003e68:	2301      	movs	r3, #1
 8003e6a:	e007      	b.n	8003e7c <I2C_WaitOnBTFFlagUntilTimeout+0x88>
  while (__HAL_I2C_GET_FLAG(hi2c, I2C_FLAG_BTF) == RESET)
 8003e6c:	68fb      	ldr	r3, [r7, #12]
 8003e6e:	681b      	ldr	r3, [r3, #0]
 8003e70:	695b      	ldr	r3, [r3, #20]
 8003e72:	f003 0304 	and.w	r3, r3, #4
 8003e76:	2b04      	cmp	r3, #4
 8003e78:	d1c3      	bne.n	8003e02 <I2C_WaitOnBTFFlagUntilTimeout+0xe>
        }
      }
    }
  }
  return HAL_OK;
 8003e7a:	2300      	movs	r3, #0
}
 8003e7c:	4618      	mov	r0, r3
 8003e7e:	3710      	adds	r7, #16
 8003e80:	46bd      	mov	sp, r7
 8003e82:	bd80      	pop	{r7, pc}

08003e84 <I2C_WaitOnRXNEFlagUntilTimeout>:
  * @param  Timeout Timeout duration
  * @param  Tickstart Tick start value
  * @retval HAL status
  */
static HAL_StatusTypeDef I2C_WaitOnRXNEFlagUntilTimeout(I2C_HandleTypeDef *hi2c, uint32_t Timeout, uint32_t Tickstart)
{
 8003e84:	b580      	push	{r7, lr}
 8003e86:	b084      	sub	sp, #16
 8003e88:	af00      	add	r7, sp, #0
 8003e8a:	60f8      	str	r0, [r7, #12]
 8003e8c:	60b9      	str	r1, [r7, #8]
 8003e8e:	607a      	str	r2, [r7, #4]

  while (__HAL_I2C_GET_FLAG(hi2c, I2C_FLAG_RXNE) == RESET)
 8003e90:	e049      	b.n	8003f26 <I2C_WaitOnRXNEFlagUntilTimeout+0xa2>
  {
    /* Check if a STOPF is detected */
    if (__HAL_I2C_GET_FLAG(hi2c, I2C_FLAG_STOPF) == SET)
 8003e92:	68fb      	ldr	r3, [r7, #12]
 8003e94:	681b      	ldr	r3, [r3, #0]
 8003e96:	695b      	ldr	r3, [r3, #20]
 8003e98:	f003 0310 	and.w	r3, r3, #16
 8003e9c:	2b10      	cmp	r3, #16
 8003e9e:	d119      	bne.n	8003ed4 <I2C_WaitOnRXNEFlagUntilTimeout+0x50>
    {
      /* Clear STOP Flag */
      __HAL_I2C_CLEAR_FLAG(hi2c, I2C_FLAG_STOPF);
 8003ea0:	68fb      	ldr	r3, [r7, #12]
 8003ea2:	681b      	ldr	r3, [r3, #0]
 8003ea4:	f06f 0210 	mvn.w	r2, #16
 8003ea8:	615a      	str	r2, [r3, #20]

      hi2c->PreviousState       = I2C_STATE_NONE;
 8003eaa:	68fb      	ldr	r3, [r7, #12]
 8003eac:	2200      	movs	r2, #0
 8003eae:	631a      	str	r2, [r3, #48]	; 0x30
      hi2c->State               = HAL_I2C_STATE_READY;
 8003eb0:	68fb      	ldr	r3, [r7, #12]
 8003eb2:	2220      	movs	r2, #32
 8003eb4:	f883 203d 	strb.w	r2, [r3, #61]	; 0x3d
      hi2c->Mode                = HAL_I2C_MODE_NONE;
 8003eb8:	68fb      	ldr	r3, [r7, #12]
 8003eba:	2200      	movs	r2, #0
 8003ebc:	f883 203e 	strb.w	r2, [r3, #62]	; 0x3e
      hi2c->ErrorCode           |= HAL_I2C_ERROR_NONE;
 8003ec0:	68fb      	ldr	r3, [r7, #12]
 8003ec2:	6c1a      	ldr	r2, [r3, #64]	; 0x40
 8003ec4:	68fb      	ldr	r3, [r7, #12]
 8003ec6:	641a      	str	r2, [r3, #64]	; 0x40

      /* Process Unlocked */
      __HAL_UNLOCK(hi2c);
 8003ec8:	68fb      	ldr	r3, [r7, #12]
 8003eca:	2200      	movs	r2, #0
 8003ecc:	f883 203c 	strb.w	r2, [r3, #60]	; 0x3c

      return HAL_ERROR;
 8003ed0:	2301      	movs	r3, #1
 8003ed2:	e030      	b.n	8003f36 <I2C_WaitOnRXNEFlagUntilTimeout+0xb2>
    }

    /* Check for the Timeout */
    if (((HAL_GetTick() - Tickstart) > Timeout) || (Timeout == 0U))
 8003ed4:	f7fe f8f4 	bl	80020c0 <HAL_GetTick>
 8003ed8:	4602      	mov	r2, r0
 8003eda:	687b      	ldr	r3, [r7, #4]
 8003edc:	1ad3      	subs	r3, r2, r3
 8003ede:	68ba      	ldr	r2, [r7, #8]
 8003ee0:	429a      	cmp	r2, r3
 8003ee2:	d302      	bcc.n	8003eea <I2C_WaitOnRXNEFlagUntilTimeout+0x66>
 8003ee4:	68bb      	ldr	r3, [r7, #8]
 8003ee6:	2b00      	cmp	r3, #0
 8003ee8:	d11d      	bne.n	8003f26 <I2C_WaitOnRXNEFlagUntilTimeout+0xa2>
    {
      if ((__HAL_I2C_GET_FLAG(hi2c, I2C_FLAG_RXNE) == RESET))
 8003eea:	68fb      	ldr	r3, [r7, #12]
 8003eec:	681b      	ldr	r3, [r3, #0]
 8003eee:	695b      	ldr	r3, [r3, #20]
 8003ef0:	f003 0340 	and.w	r3, r3, #64	; 0x40
 8003ef4:	2b40      	cmp	r3, #64	; 0x40
 8003ef6:	d016      	beq.n	8003f26 <I2C_WaitOnRXNEFlagUntilTimeout+0xa2>
      {
        hi2c->PreviousState       = I2C_STATE_NONE;
 8003ef8:	68fb      	ldr	r3, [r7, #12]
 8003efa:	2200      	movs	r2, #0
 8003efc:	631a      	str	r2, [r3, #48]	; 0x30
        hi2c->State               = HAL_I2C_STATE_READY;
 8003efe:	68fb      	ldr	r3, [r7, #12]
 8003f00:	2220      	movs	r2, #32
 8003f02:	f883 203d 	strb.w	r2, [r3, #61]	; 0x3d
        hi2c->Mode                = HAL_I2C_MODE_NONE;
 8003f06:	68fb      	ldr	r3, [r7, #12]
 8003f08:	2200      	movs	r2, #0
 8003f0a:	f883 203e 	strb.w	r2, [r3, #62]	; 0x3e
        hi2c->ErrorCode           |= HAL_I2C_ERROR_TIMEOUT;
 8003f0e:	68fb      	ldr	r3, [r7, #12]
 8003f10:	6c1b      	ldr	r3, [r3, #64]	; 0x40
 8003f12:	f043 0220 	orr.w	r2, r3, #32
 8003f16:	68fb      	ldr	r3, [r7, #12]
 8003f18:	641a      	str	r2, [r3, #64]	; 0x40

        /* Process Unlocked */
        __HAL_UNLOCK(hi2c);
 8003f1a:	68fb      	ldr	r3, [r7, #12]
 8003f1c:	2200      	movs	r2, #0
 8003f1e:	f883 203c 	strb.w	r2, [r3, #60]	; 0x3c

        return HAL_ERROR;
 8003f22:	2301      	movs	r3, #1
 8003f24:	e007      	b.n	8003f36 <I2C_WaitOnRXNEFlagUntilTimeout+0xb2>
  while (__HAL_I2C_GET_FLAG(hi2c, I2C_FLAG_RXNE) == RESET)
 8003f26:	68fb      	ldr	r3, [r7, #12]
 8003f28:	681b      	ldr	r3, [r3, #0]
 8003f2a:	695b      	ldr	r3, [r3, #20]
 8003f2c:	f003 0340 	and.w	r3, r3, #64	; 0x40
 8003f30:	2b40      	cmp	r3, #64	; 0x40
 8003f32:	d1ae      	bne.n	8003e92 <I2C_WaitOnRXNEFlagUntilTimeout+0xe>
      }
    }
  }
  return HAL_OK;
 8003f34:	2300      	movs	r3, #0
}
 8003f36:	4618      	mov	r0, r3
 8003f38:	3710      	adds	r7, #16
 8003f3a:	46bd      	mov	sp, r7
 8003f3c:	bd80      	pop	{r7, pc}

08003f3e <I2C_IsAcknowledgeFailed>:
  * @param  hi2c Pointer to a I2C_HandleTypeDef structure that contains
  *                the configuration information for the specified I2C.
  * @retval HAL status
  */
static HAL_StatusTypeDef I2C_IsAcknowledgeFailed(I2C_HandleTypeDef *hi2c)
{
 8003f3e:	b480      	push	{r7}
 8003f40:	b083      	sub	sp, #12
 8003f42:	af00      	add	r7, sp, #0
 8003f44:	6078      	str	r0, [r7, #4]
  if (__HAL_I2C_GET_FLAG(hi2c, I2C_FLAG_AF) == SET)
 8003f46:	687b      	ldr	r3, [r7, #4]
 8003f48:	681b      	ldr	r3, [r3, #0]
 8003f4a:	695b      	ldr	r3, [r3, #20]
 8003f4c:	f403 6380 	and.w	r3, r3, #1024	; 0x400
 8003f50:	f5b3 6f80 	cmp.w	r3, #1024	; 0x400
 8003f54:	d11b      	bne.n	8003f8e <I2C_IsAcknowledgeFailed+0x50>
  {
    /* Clear NACKF Flag */
    __HAL_I2C_CLEAR_FLAG(hi2c, I2C_FLAG_AF);
 8003f56:	687b      	ldr	r3, [r7, #4]
 8003f58:	681b      	ldr	r3, [r3, #0]
 8003f5a:	f46f 6280 	mvn.w	r2, #1024	; 0x400
 8003f5e:	615a      	str	r2, [r3, #20]

    hi2c->PreviousState       = I2C_STATE_NONE;
 8003f60:	687b      	ldr	r3, [r7, #4]
 8003f62:	2200      	movs	r2, #0
 8003f64:	631a      	str	r2, [r3, #48]	; 0x30
    hi2c->State               = HAL_I2C_STATE_READY;
 8003f66:	687b      	ldr	r3, [r7, #4]
 8003f68:	2220      	movs	r2, #32
 8003f6a:	f883 203d 	strb.w	r2, [r3, #61]	; 0x3d
    hi2c->Mode                = HAL_I2C_MODE_NONE;
 8003f6e:	687b      	ldr	r3, [r7, #4]
 8003f70:	2200      	movs	r2, #0
 8003f72:	f883 203e 	strb.w	r2, [r3, #62]	; 0x3e
    hi2c->ErrorCode           |= HAL_I2C_ERROR_AF;
 8003f76:	687b      	ldr	r3, [r7, #4]
 8003f78:	6c1b      	ldr	r3, [r3, #64]	; 0x40
 8003f7a:	f043 0204 	orr.w	r2, r3, #4
 8003f7e:	687b      	ldr	r3, [r7, #4]
 8003f80:	641a      	str	r2, [r3, #64]	; 0x40

    /* Process Unlocked */
    __HAL_UNLOCK(hi2c);
 8003f82:	687b      	ldr	r3, [r7, #4]
 8003f84:	2200      	movs	r2, #0
 8003f86:	f883 203c 	strb.w	r2, [r3, #60]	; 0x3c

    return HAL_ERROR;
 8003f8a:	2301      	movs	r3, #1
 8003f8c:	e000      	b.n	8003f90 <I2C_IsAcknowledgeFailed+0x52>
  }
  return HAL_OK;
 8003f8e:	2300      	movs	r3, #0
}
 8003f90:	4618      	mov	r0, r3
 8003f92:	370c      	adds	r7, #12
 8003f94:	46bd      	mov	sp, r7
 8003f96:	f85d 7b04 	ldr.w	r7, [sp], #4
 8003f9a:	4770      	bx	lr

08003f9c <HAL_RCC_OscConfig>:
  *         supported by this API. User should request a transition to HSE Off
  *         first and then HSE On or HSE Bypass.
  * @retval HAL status
  */
__weak HAL_StatusTypeDef HAL_RCC_OscConfig(RCC_OscInitTypeDef  *RCC_OscInitStruct)
{
 8003f9c:	b580      	push	{r7, lr}
 8003f9e:	b086      	sub	sp, #24
 8003fa0:	af00      	add	r7, sp, #0
 8003fa2:	6078      	str	r0, [r7, #4]
  uint32_t tickstart;
  uint32_t pll_config;
  /* Check Null pointer */
  if (RCC_OscInitStruct == NULL)
 8003fa4:	687b      	ldr	r3, [r7, #4]
 8003fa6:	2b00      	cmp	r3, #0
 8003fa8:	d101      	bne.n	8003fae <HAL_RCC_OscConfig+0x12>
  {
    return HAL_ERROR;
 8003faa:	2301      	movs	r3, #1
 8003fac:	e267      	b.n	800447e <HAL_RCC_OscConfig+0x4e2>
  }

  /* Check the parameters */
  assert_param(IS_RCC_OSCILLATORTYPE(RCC_OscInitStruct->OscillatorType));
  /*------------------------------- HSE Configuration ------------------------*/
  if (((RCC_OscInitStruct->OscillatorType) & RCC_OSCILLATORTYPE_HSE) == RCC_OSCILLATORTYPE_HSE)
 8003fae:	687b      	ldr	r3, [r7, #4]
 8003fb0:	681b      	ldr	r3, [r3, #0]
 8003fb2:	f003 0301 	and.w	r3, r3, #1
 8003fb6:	2b00      	cmp	r3, #0
 8003fb8:	d075      	beq.n	80040a6 <HAL_RCC_OscConfig+0x10a>
  {
    /* Check the parameters */
    assert_param(IS_RCC_HSE(RCC_OscInitStruct->HSEState));
    /* When the HSE is used as system clock or clock source for PLL in these cases HSE will not disabled */
    if ((__HAL_RCC_GET_SYSCLK_SOURCE() == RCC_CFGR_SWS_HSE) || \
 8003fba:	4b88      	ldr	r3, [pc, #544]	; (80041dc <HAL_RCC_OscConfig+0x240>)
 8003fbc:	689b      	ldr	r3, [r3, #8]
 8003fbe:	f003 030c 	and.w	r3, r3, #12
 8003fc2:	2b04      	cmp	r3, #4
 8003fc4:	d00c      	beq.n	8003fe0 <HAL_RCC_OscConfig+0x44>
        ((__HAL_RCC_GET_SYSCLK_SOURCE() == RCC_CFGR_SWS_PLL) && ((RCC->PLLCFGR & RCC_PLLCFGR_PLLSRC) == RCC_PLLCFGR_PLLSRC_HSE)))
 8003fc6:	4b85      	ldr	r3, [pc, #532]	; (80041dc <HAL_RCC_OscConfig+0x240>)
 8003fc8:	689b      	ldr	r3, [r3, #8]
 8003fca:	f003 030c 	and.w	r3, r3, #12
    if ((__HAL_RCC_GET_SYSCLK_SOURCE() == RCC_CFGR_SWS_HSE) || \
 8003fce:	2b08      	cmp	r3, #8
 8003fd0:	d112      	bne.n	8003ff8 <HAL_RCC_OscConfig+0x5c>
        ((__HAL_RCC_GET_SYSCLK_SOURCE() == RCC_CFGR_SWS_PLL) && ((RCC->PLLCFGR & RCC_PLLCFGR_PLLSRC) == RCC_PLLCFGR_PLLSRC_HSE)))
 8003fd2:	4b82      	ldr	r3, [pc, #520]	; (80041dc <HAL_RCC_OscConfig+0x240>)
 8003fd4:	685b      	ldr	r3, [r3, #4]
 8003fd6:	f403 0380 	and.w	r3, r3, #4194304	; 0x400000
 8003fda:	f5b3 0f80 	cmp.w	r3, #4194304	; 0x400000
 8003fde:	d10b      	bne.n	8003ff8 <HAL_RCC_OscConfig+0x5c>
    {
      if ((__HAL_RCC_GET_FLAG(RCC_FLAG_HSERDY) != RESET) && (RCC_OscInitStruct->HSEState == RCC_HSE_OFF))
 8003fe0:	4b7e      	ldr	r3, [pc, #504]	; (80041dc <HAL_RCC_OscConfig+0x240>)
 8003fe2:	681b      	ldr	r3, [r3, #0]
 8003fe4:	f403 3300 	and.w	r3, r3, #131072	; 0x20000
 8003fe8:	2b00      	cmp	r3, #0
 8003fea:	d05b      	beq.n	80040a4 <HAL_RCC_OscConfig+0x108>
 8003fec:	687b      	ldr	r3, [r7, #4]
 8003fee:	685b      	ldr	r3, [r3, #4]
 8003ff0:	2b00      	cmp	r3, #0
 8003ff2:	d157      	bne.n	80040a4 <HAL_RCC_OscConfig+0x108>
      {
        return HAL_ERROR;
 8003ff4:	2301      	movs	r3, #1
 8003ff6:	e242      	b.n	800447e <HAL_RCC_OscConfig+0x4e2>
      }
    }
    else
    {
      /* Set the new HSE configuration ---------------------------------------*/
      __HAL_RCC_HSE_CONFIG(RCC_OscInitStruct->HSEState);
 8003ff8:	687b      	ldr	r3, [r7, #4]
 8003ffa:	685b      	ldr	r3, [r3, #4]
 8003ffc:	f5b3 3f80 	cmp.w	r3, #65536	; 0x10000
 8004000:	d106      	bne.n	8004010 <HAL_RCC_OscConfig+0x74>
 8004002:	4b76      	ldr	r3, [pc, #472]	; (80041dc <HAL_RCC_OscConfig+0x240>)
 8004004:	681b      	ldr	r3, [r3, #0]
 8004006:	4a75      	ldr	r2, [pc, #468]	; (80041dc <HAL_RCC_OscConfig+0x240>)
 8004008:	f443 3380 	orr.w	r3, r3, #65536	; 0x10000
 800400c:	6013      	str	r3, [r2, #0]
 800400e:	e01d      	b.n	800404c <HAL_RCC_OscConfig+0xb0>
 8004010:	687b      	ldr	r3, [r7, #4]
 8004012:	685b      	ldr	r3, [r3, #4]
 8004014:	f5b3 2fa0 	cmp.w	r3, #327680	; 0x50000
 8004018:	d10c      	bne.n	8004034 <HAL_RCC_OscConfig+0x98>
 800401a:	4b70      	ldr	r3, [pc, #448]	; (80041dc <HAL_RCC_OscConfig+0x240>)
 800401c:	681b      	ldr	r3, [r3, #0]
 800401e:	4a6f      	ldr	r2, [pc, #444]	; (80041dc <HAL_RCC_OscConfig+0x240>)
 8004020:	f443 2380 	orr.w	r3, r3, #262144	; 0x40000
 8004024:	6013      	str	r3, [r2, #0]
 8004026:	4b6d      	ldr	r3, [pc, #436]	; (80041dc <HAL_RCC_OscConfig+0x240>)
 8004028:	681b      	ldr	r3, [r3, #0]
 800402a:	4a6c      	ldr	r2, [pc, #432]	; (80041dc <HAL_RCC_OscConfig+0x240>)
 800402c:	f443 3380 	orr.w	r3, r3, #65536	; 0x10000
 8004030:	6013      	str	r3, [r2, #0]
 8004032:	e00b      	b.n	800404c <HAL_RCC_OscConfig+0xb0>
 8004034:	4b69      	ldr	r3, [pc, #420]	; (80041dc <HAL_RCC_OscConfig+0x240>)
 8004036:	681b      	ldr	r3, [r3, #0]
 8004038:	4a68      	ldr	r2, [pc, #416]	; (80041dc <HAL_RCC_OscConfig+0x240>)
 800403a:	f423 3380 	bic.w	r3, r3, #65536	; 0x10000
 800403e:	6013      	str	r3, [r2, #0]
 8004040:	4b66      	ldr	r3, [pc, #408]	; (80041dc <HAL_RCC_OscConfig+0x240>)
 8004042:	681b      	ldr	r3, [r3, #0]
 8004044:	4a65      	ldr	r2, [pc, #404]	; (80041dc <HAL_RCC_OscConfig+0x240>)
 8004046:	f423 2380 	bic.w	r3, r3, #262144	; 0x40000
 800404a:	6013      	str	r3, [r2, #0]

      /* Check the HSE State */
      if ((RCC_OscInitStruct->HSEState) != RCC_HSE_OFF)
 800404c:	687b      	ldr	r3, [r7, #4]
 800404e:	685b      	ldr	r3, [r3, #4]
 8004050:	2b00      	cmp	r3, #0
 8004052:	d013      	beq.n	800407c <HAL_RCC_OscConfig+0xe0>
      {
        /* Get Start Tick */
        tickstart = HAL_GetTick();
 8004054:	f7fe f834 	bl	80020c0 <HAL_GetTick>
 8004058:	6138      	str	r0, [r7, #16]

        /* Wait till HSE is ready */
        while (__HAL_RCC_GET_FLAG(RCC_FLAG_HSERDY) == RESET)
 800405a:	e008      	b.n	800406e <HAL_RCC_OscConfig+0xd2>
        {
          if ((HAL_GetTick() - tickstart) > HSE_TIMEOUT_VALUE)
 800405c:	f7fe f830 	bl	80020c0 <HAL_GetTick>
 8004060:	4602      	mov	r2, r0
 8004062:	693b      	ldr	r3, [r7, #16]
 8004064:	1ad3      	subs	r3, r2, r3
 8004066:	2b64      	cmp	r3, #100	; 0x64
 8004068:	d901      	bls.n	800406e <HAL_RCC_OscConfig+0xd2>
          {
            return HAL_TIMEOUT;
 800406a:	2303      	movs	r3, #3
 800406c:	e207      	b.n	800447e <HAL_RCC_OscConfig+0x4e2>
        while (__HAL_RCC_GET_FLAG(RCC_FLAG_HSERDY) == RESET)
 800406e:	4b5b      	ldr	r3, [pc, #364]	; (80041dc <HAL_RCC_OscConfig+0x240>)
 8004070:	681b      	ldr	r3, [r3, #0]
 8004072:	f403 3300 	and.w	r3, r3, #131072	; 0x20000
 8004076:	2b00      	cmp	r3, #0
 8004078:	d0f0      	beq.n	800405c <HAL_RCC_OscConfig+0xc0>
 800407a:	e014      	b.n	80040a6 <HAL_RCC_OscConfig+0x10a>
        }
      }
      else
      {
        /* Get Start Tick */
        tickstart = HAL_GetTick();
 800407c:	f7fe f820 	bl	80020c0 <HAL_GetTick>
 8004080:	6138      	str	r0, [r7, #16]

        /* Wait till HSE is bypassed or disabled */
        while (__HAL_RCC_GET_FLAG(RCC_FLAG_HSERDY) != RESET)
 8004082:	e008      	b.n	8004096 <HAL_RCC_OscConfig+0xfa>
        {
          if ((HAL_GetTick() - tickstart) > HSE_TIMEOUT_VALUE)
 8004084:	f7fe f81c 	bl	80020c0 <HAL_GetTick>
 8004088:	4602      	mov	r2, r0
 800408a:	693b      	ldr	r3, [r7, #16]
 800408c:	1ad3      	subs	r3, r2, r3
 800408e:	2b64      	cmp	r3, #100	; 0x64
 8004090:	d901      	bls.n	8004096 <HAL_RCC_OscConfig+0xfa>
          {
            return HAL_TIMEOUT;
 8004092:	2303      	movs	r3, #3
 8004094:	e1f3      	b.n	800447e <HAL_RCC_OscConfig+0x4e2>
        while (__HAL_RCC_GET_FLAG(RCC_FLAG_HSERDY) != RESET)
 8004096:	4b51      	ldr	r3, [pc, #324]	; (80041dc <HAL_RCC_OscConfig+0x240>)
 8004098:	681b      	ldr	r3, [r3, #0]
 800409a:	f403 3300 	and.w	r3, r3, #131072	; 0x20000
 800409e:	2b00      	cmp	r3, #0
 80040a0:	d1f0      	bne.n	8004084 <HAL_RCC_OscConfig+0xe8>
 80040a2:	e000      	b.n	80040a6 <HAL_RCC_OscConfig+0x10a>
      if ((__HAL_RCC_GET_FLAG(RCC_FLAG_HSERDY) != RESET) && (RCC_OscInitStruct->HSEState == RCC_HSE_OFF))
 80040a4:	bf00      	nop
        }
      }
    }
  }
  /*----------------------------- HSI Configuration --------------------------*/
  if (((RCC_OscInitStruct->OscillatorType) & RCC_OSCILLATORTYPE_HSI) == RCC_OSCILLATORTYPE_HSI)
 80040a6:	687b      	ldr	r3, [r7, #4]
 80040a8:	681b      	ldr	r3, [r3, #0]
 80040aa:	f003 0302 	and.w	r3, r3, #2
 80040ae:	2b00      	cmp	r3, #0
 80040b0:	d063      	beq.n	800417a <HAL_RCC_OscConfig+0x1de>
    /* Check the parameters */
    assert_param(IS_RCC_HSI(RCC_OscInitStruct->HSIState));
    assert_param(IS_RCC_CALIBRATION_VALUE(RCC_OscInitStruct->HSICalibrationValue));

    /* Check if HSI is used as system clock or as PLL source when PLL is selected as system clock */
    if ((__HAL_RCC_GET_SYSCLK_SOURCE() == RCC_CFGR_SWS_HSI) || \
 80040b2:	4b4a      	ldr	r3, [pc, #296]	; (80041dc <HAL_RCC_OscConfig+0x240>)
 80040b4:	689b      	ldr	r3, [r3, #8]
 80040b6:	f003 030c 	and.w	r3, r3, #12
 80040ba:	2b00      	cmp	r3, #0
 80040bc:	d00b      	beq.n	80040d6 <HAL_RCC_OscConfig+0x13a>
        ((__HAL_RCC_GET_SYSCLK_SOURCE() == RCC_CFGR_SWS_PLL) && ((RCC->PLLCFGR & RCC_PLLCFGR_PLLSRC) == RCC_PLLCFGR_PLLSRC_HSI)))
 80040be:	4b47      	ldr	r3, [pc, #284]	; (80041dc <HAL_RCC_OscConfig+0x240>)
 80040c0:	689b      	ldr	r3, [r3, #8]
 80040c2:	f003 030c 	and.w	r3, r3, #12
    if ((__HAL_RCC_GET_SYSCLK_SOURCE() == RCC_CFGR_SWS_HSI) || \
 80040c6:	2b08      	cmp	r3, #8
 80040c8:	d11c      	bne.n	8004104 <HAL_RCC_OscConfig+0x168>
        ((__HAL_RCC_GET_SYSCLK_SOURCE() == RCC_CFGR_SWS_PLL) && ((RCC->PLLCFGR & RCC_PLLCFGR_PLLSRC) == RCC_PLLCFGR_PLLSRC_HSI)))
 80040ca:	4b44      	ldr	r3, [pc, #272]	; (80041dc <HAL_RCC_OscConfig+0x240>)
 80040cc:	685b      	ldr	r3, [r3, #4]
 80040ce:	f403 0380 	and.w	r3, r3, #4194304	; 0x400000
 80040d2:	2b00      	cmp	r3, #0
 80040d4:	d116      	bne.n	8004104 <HAL_RCC_OscConfig+0x168>
    {
      /* When HSI is used as system clock it will not disabled */
      if ((__HAL_RCC_GET_FLAG(RCC_FLAG_HSIRDY) != RESET) && (RCC_OscInitStruct->HSIState != RCC_HSI_ON))
 80040d6:	4b41      	ldr	r3, [pc, #260]	; (80041dc <HAL_RCC_OscConfig+0x240>)
 80040d8:	681b      	ldr	r3, [r3, #0]
 80040da:	f003 0302 	and.w	r3, r3, #2
 80040de:	2b00      	cmp	r3, #0
 80040e0:	d005      	beq.n	80040ee <HAL_RCC_OscConfig+0x152>
 80040e2:	687b      	ldr	r3, [r7, #4]
 80040e4:	68db      	ldr	r3, [r3, #12]
 80040e6:	2b01      	cmp	r3, #1
 80040e8:	d001      	beq.n	80040ee <HAL_RCC_OscConfig+0x152>
      {
        return HAL_ERROR;
 80040ea:	2301      	movs	r3, #1
 80040ec:	e1c7      	b.n	800447e <HAL_RCC_OscConfig+0x4e2>
      }
      /* Otherwise, just the calibration is allowed */
      else
      {
        /* Adjusts the Internal High Speed oscillator (HSI) calibration value.*/
        __HAL_RCC_HSI_CALIBRATIONVALUE_ADJUST(RCC_OscInitStruct->HSICalibrationValue);
 80040ee:	4b3b      	ldr	r3, [pc, #236]	; (80041dc <HAL_RCC_OscConfig+0x240>)
 80040f0:	681b      	ldr	r3, [r3, #0]
 80040f2:	f023 02f8 	bic.w	r2, r3, #248	; 0xf8
 80040f6:	687b      	ldr	r3, [r7, #4]
 80040f8:	691b      	ldr	r3, [r3, #16]
 80040fa:	00db      	lsls	r3, r3, #3
 80040fc:	4937      	ldr	r1, [pc, #220]	; (80041dc <HAL_RCC_OscConfig+0x240>)
 80040fe:	4313      	orrs	r3, r2
 8004100:	600b      	str	r3, [r1, #0]
      if ((__HAL_RCC_GET_FLAG(RCC_FLAG_HSIRDY) != RESET) && (RCC_OscInitStruct->HSIState != RCC_HSI_ON))
 8004102:	e03a      	b.n	800417a <HAL_RCC_OscConfig+0x1de>
      }
    }
    else
    {
      /* Check the HSI State */
      if ((RCC_OscInitStruct->HSIState) != RCC_HSI_OFF)
 8004104:	687b      	ldr	r3, [r7, #4]
 8004106:	68db      	ldr	r3, [r3, #12]
 8004108:	2b00      	cmp	r3, #0
 800410a:	d020      	beq.n	800414e <HAL_RCC_OscConfig+0x1b2>
      {
        /* Enable the Internal High Speed oscillator (HSI). */
        __HAL_RCC_HSI_ENABLE();
 800410c:	4b34      	ldr	r3, [pc, #208]	; (80041e0 <HAL_RCC_OscConfig+0x244>)
 800410e:	2201      	movs	r2, #1
 8004110:	601a      	str	r2, [r3, #0]

        /* Get Start Tick*/
        tickstart = HAL_GetTick();
 8004112:	f7fd ffd5 	bl	80020c0 <HAL_GetTick>
 8004116:	6138      	str	r0, [r7, #16]

        /* Wait till HSI is ready */
        while (__HAL_RCC_GET_FLAG(RCC_FLAG_HSIRDY) == RESET)
 8004118:	e008      	b.n	800412c <HAL_RCC_OscConfig+0x190>
        {
          if ((HAL_GetTick() - tickstart) > HSI_TIMEOUT_VALUE)
 800411a:	f7fd ffd1 	bl	80020c0 <HAL_GetTick>
 800411e:	4602      	mov	r2, r0
 8004120:	693b      	ldr	r3, [r7, #16]
 8004122:	1ad3      	subs	r3, r2, r3
 8004124:	2b02      	cmp	r3, #2
 8004126:	d901      	bls.n	800412c <HAL_RCC_OscConfig+0x190>
          {
            return HAL_TIMEOUT;
 8004128:	2303      	movs	r3, #3
 800412a:	e1a8      	b.n	800447e <HAL_RCC_OscConfig+0x4e2>
        while (__HAL_RCC_GET_FLAG(RCC_FLAG_HSIRDY) == RESET)
 800412c:	4b2b      	ldr	r3, [pc, #172]	; (80041dc <HAL_RCC_OscConfig+0x240>)
 800412e:	681b      	ldr	r3, [r3, #0]
 8004130:	f003 0302 	and.w	r3, r3, #2
 8004134:	2b00      	cmp	r3, #0
 8004136:	d0f0      	beq.n	800411a <HAL_RCC_OscConfig+0x17e>
          }
        }

        /* Adjusts the Internal High Speed oscillator (HSI) calibration value. */
        __HAL_RCC_HSI_CALIBRATIONVALUE_ADJUST(RCC_OscInitStruct->HSICalibrationValue);
 8004138:	4b28      	ldr	r3, [pc, #160]	; (80041dc <HAL_RCC_OscConfig+0x240>)
 800413a:	681b      	ldr	r3, [r3, #0]
 800413c:	f023 02f8 	bic.w	r2, r3, #248	; 0xf8
 8004140:	687b      	ldr	r3, [r7, #4]
 8004142:	691b      	ldr	r3, [r3, #16]
 8004144:	00db      	lsls	r3, r3, #3
 8004146:	4925      	ldr	r1, [pc, #148]	; (80041dc <HAL_RCC_OscConfig+0x240>)
 8004148:	4313      	orrs	r3, r2
 800414a:	600b      	str	r3, [r1, #0]
 800414c:	e015      	b.n	800417a <HAL_RCC_OscConfig+0x1de>
      }
      else
      {
        /* Disable the Internal High Speed oscillator (HSI). */
        __HAL_RCC_HSI_DISABLE();
 800414e:	4b24      	ldr	r3, [pc, #144]	; (80041e0 <HAL_RCC_OscConfig+0x244>)
 8004150:	2200      	movs	r2, #0
 8004152:	601a      	str	r2, [r3, #0]

        /* Get Start Tick*/
        tickstart = HAL_GetTick();
 8004154:	f7fd ffb4 	bl	80020c0 <HAL_GetTick>
 8004158:	6138      	str	r0, [r7, #16]

        /* Wait till HSI is ready */
        while (__HAL_RCC_GET_FLAG(RCC_FLAG_HSIRDY) != RESET)
 800415a:	e008      	b.n	800416e <HAL_RCC_OscConfig+0x1d2>
        {
          if ((HAL_GetTick() - tickstart) > HSI_TIMEOUT_VALUE)
 800415c:	f7fd ffb0 	bl	80020c0 <HAL_GetTick>
 8004160:	4602      	mov	r2, r0
 8004162:	693b      	ldr	r3, [r7, #16]
 8004164:	1ad3      	subs	r3, r2, r3
 8004166:	2b02      	cmp	r3, #2
 8004168:	d901      	bls.n	800416e <HAL_RCC_OscConfig+0x1d2>
          {
            return HAL_TIMEOUT;
 800416a:	2303      	movs	r3, #3
 800416c:	e187      	b.n	800447e <HAL_RCC_OscConfig+0x4e2>
        while (__HAL_RCC_GET_FLAG(RCC_FLAG_HSIRDY) != RESET)
 800416e:	4b1b      	ldr	r3, [pc, #108]	; (80041dc <HAL_RCC_OscConfig+0x240>)
 8004170:	681b      	ldr	r3, [r3, #0]
 8004172:	f003 0302 	and.w	r3, r3, #2
 8004176:	2b00      	cmp	r3, #0
 8004178:	d1f0      	bne.n	800415c <HAL_RCC_OscConfig+0x1c0>
        }
      }
    }
  }
  /*------------------------------ LSI Configuration -------------------------*/
  if (((RCC_OscInitStruct->OscillatorType) & RCC_OSCILLATORTYPE_LSI) == RCC_OSCILLATORTYPE_LSI)
 800417a:	687b      	ldr	r3, [r7, #4]
 800417c:	681b      	ldr	r3, [r3, #0]
 800417e:	f003 0308 	and.w	r3, r3, #8
 8004182:	2b00      	cmp	r3, #0
 8004184:	d036      	beq.n	80041f4 <HAL_RCC_OscConfig+0x258>
  {
    /* Check the parameters */
    assert_param(IS_RCC_LSI(RCC_OscInitStruct->LSIState));

    /* Check the LSI State */
    if ((RCC_OscInitStruct->LSIState) != RCC_LSI_OFF)
 8004186:	687b      	ldr	r3, [r7, #4]
 8004188:	695b      	ldr	r3, [r3, #20]
 800418a:	2b00      	cmp	r3, #0
 800418c:	d016      	beq.n	80041bc <HAL_RCC_OscConfig+0x220>
    {
      /* Enable the Internal Low Speed oscillator (LSI). */
      __HAL_RCC_LSI_ENABLE();
 800418e:	4b15      	ldr	r3, [pc, #84]	; (80041e4 <HAL_RCC_OscConfig+0x248>)
 8004190:	2201      	movs	r2, #1
 8004192:	601a      	str	r2, [r3, #0]

      /* Get Start Tick*/
      tickstart = HAL_GetTick();
 8004194:	f7fd ff94 	bl	80020c0 <HAL_GetTick>
 8004198:	6138      	str	r0, [r7, #16]

      /* Wait till LSI is ready */
      while (__HAL_RCC_GET_FLAG(RCC_FLAG_LSIRDY) == RESET)
 800419a:	e008      	b.n	80041ae <HAL_RCC_OscConfig+0x212>
      {
        if ((HAL_GetTick() - tickstart) > LSI_TIMEOUT_VALUE)
 800419c:	f7fd ff90 	bl	80020c0 <HAL_GetTick>
 80041a0:	4602      	mov	r2, r0
 80041a2:	693b      	ldr	r3, [r7, #16]
 80041a4:	1ad3      	subs	r3, r2, r3
 80041a6:	2b02      	cmp	r3, #2
 80041a8:	d901      	bls.n	80041ae <HAL_RCC_OscConfig+0x212>
        {
          return HAL_TIMEOUT;
 80041aa:	2303      	movs	r3, #3
 80041ac:	e167      	b.n	800447e <HAL_RCC_OscConfig+0x4e2>
      while (__HAL_RCC_GET_FLAG(RCC_FLAG_LSIRDY) == RESET)
 80041ae:	4b0b      	ldr	r3, [pc, #44]	; (80041dc <HAL_RCC_OscConfig+0x240>)
 80041b0:	6f5b      	ldr	r3, [r3, #116]	; 0x74
 80041b2:	f003 0302 	and.w	r3, r3, #2
 80041b6:	2b00      	cmp	r3, #0
 80041b8:	d0f0      	beq.n	800419c <HAL_RCC_OscConfig+0x200>
 80041ba:	e01b      	b.n	80041f4 <HAL_RCC_OscConfig+0x258>
      }
    }
    else
    {
      /* Disable the Internal Low Speed oscillator (LSI). */
      __HAL_RCC_LSI_DISABLE();
 80041bc:	4b09      	ldr	r3, [pc, #36]	; (80041e4 <HAL_RCC_OscConfig+0x248>)
 80041be:	2200      	movs	r2, #0
 80041c0:	601a      	str	r2, [r3, #0]

      /* Get Start Tick */
      tickstart = HAL_GetTick();
 80041c2:	f7fd ff7d 	bl	80020c0 <HAL_GetTick>
 80041c6:	6138      	str	r0, [r7, #16]

      /* Wait till LSI is ready */
      while (__HAL_RCC_GET_FLAG(RCC_FLAG_LSIRDY) != RESET)
 80041c8:	e00e      	b.n	80041e8 <HAL_RCC_OscConfig+0x24c>
      {
        if ((HAL_GetTick() - tickstart) > LSI_TIMEOUT_VALUE)
 80041ca:	f7fd ff79 	bl	80020c0 <HAL_GetTick>
 80041ce:	4602      	mov	r2, r0
 80041d0:	693b      	ldr	r3, [r7, #16]
 80041d2:	1ad3      	subs	r3, r2, r3
 80041d4:	2b02      	cmp	r3, #2
 80041d6:	d907      	bls.n	80041e8 <HAL_RCC_OscConfig+0x24c>
        {
          return HAL_TIMEOUT;
 80041d8:	2303      	movs	r3, #3
 80041da:	e150      	b.n	800447e <HAL_RCC_OscConfig+0x4e2>
 80041dc:	40023800 	.word	0x40023800
 80041e0:	42470000 	.word	0x42470000
 80041e4:	42470e80 	.word	0x42470e80
      while (__HAL_RCC_GET_FLAG(RCC_FLAG_LSIRDY) != RESET)
 80041e8:	4b88      	ldr	r3, [pc, #544]	; (800440c <HAL_RCC_OscConfig+0x470>)
 80041ea:	6f5b      	ldr	r3, [r3, #116]	; 0x74
 80041ec:	f003 0302 	and.w	r3, r3, #2
 80041f0:	2b00      	cmp	r3, #0
 80041f2:	d1ea      	bne.n	80041ca <HAL_RCC_OscConfig+0x22e>
        }
      }
    }
  }
  /*------------------------------ LSE Configuration -------------------------*/
  if (((RCC_OscInitStruct->OscillatorType) & RCC_OSCILLATORTYPE_LSE) == RCC_OSCILLATORTYPE_LSE)
 80041f4:	687b      	ldr	r3, [r7, #4]
 80041f6:	681b      	ldr	r3, [r3, #0]
 80041f8:	f003 0304 	and.w	r3, r3, #4
 80041fc:	2b00      	cmp	r3, #0
 80041fe:	f000 8097 	beq.w	8004330 <HAL_RCC_OscConfig+0x394>
  {
    FlagStatus       pwrclkchanged = RESET;
 8004202:	2300      	movs	r3, #0
 8004204:	75fb      	strb	r3, [r7, #23]
    /* Check the parameters */
    assert_param(IS_RCC_LSE(RCC_OscInitStruct->LSEState));

    /* Update LSE configuration in Backup Domain control register    */
    /* Requires to enable write access to Backup Domain of necessary */
    if (__HAL_RCC_PWR_IS_CLK_DISABLED())
 8004206:	4b81      	ldr	r3, [pc, #516]	; (800440c <HAL_RCC_OscConfig+0x470>)
 8004208:	6c1b      	ldr	r3, [r3, #64]	; 0x40
 800420a:	f003 5380 	and.w	r3, r3, #268435456	; 0x10000000
 800420e:	2b00      	cmp	r3, #0
 8004210:	d10f      	bne.n	8004232 <HAL_RCC_OscConfig+0x296>
    {
      __HAL_RCC_PWR_CLK_ENABLE();
 8004212:	2300      	movs	r3, #0
 8004214:	60bb      	str	r3, [r7, #8]
 8004216:	4b7d      	ldr	r3, [pc, #500]	; (800440c <HAL_RCC_OscConfig+0x470>)
 8004218:	6c1b      	ldr	r3, [r3, #64]	; 0x40
 800421a:	4a7c      	ldr	r2, [pc, #496]	; (800440c <HAL_RCC_OscConfig+0x470>)
 800421c:	f043 5380 	orr.w	r3, r3, #268435456	; 0x10000000
 8004220:	6413      	str	r3, [r2, #64]	; 0x40
 8004222:	4b7a      	ldr	r3, [pc, #488]	; (800440c <HAL_RCC_OscConfig+0x470>)
 8004224:	6c1b      	ldr	r3, [r3, #64]	; 0x40
 8004226:	f003 5380 	and.w	r3, r3, #268435456	; 0x10000000
 800422a:	60bb      	str	r3, [r7, #8]
 800422c:	68bb      	ldr	r3, [r7, #8]
      pwrclkchanged = SET;
 800422e:	2301      	movs	r3, #1
 8004230:	75fb      	strb	r3, [r7, #23]
    }

    if (HAL_IS_BIT_CLR(PWR->CR, PWR_CR_DBP))
 8004232:	4b77      	ldr	r3, [pc, #476]	; (8004410 <HAL_RCC_OscConfig+0x474>)
 8004234:	681b      	ldr	r3, [r3, #0]
 8004236:	f403 7380 	and.w	r3, r3, #256	; 0x100
 800423a:	2b00      	cmp	r3, #0
 800423c:	d118      	bne.n	8004270 <HAL_RCC_OscConfig+0x2d4>
    {
      /* Enable write access to Backup domain */
      SET_BIT(PWR->CR, PWR_CR_DBP);
 800423e:	4b74      	ldr	r3, [pc, #464]	; (8004410 <HAL_RCC_OscConfig+0x474>)
 8004240:	681b      	ldr	r3, [r3, #0]
 8004242:	4a73      	ldr	r2, [pc, #460]	; (8004410 <HAL_RCC_OscConfig+0x474>)
 8004244:	f443 7380 	orr.w	r3, r3, #256	; 0x100
 8004248:	6013      	str	r3, [r2, #0]

      /* Wait for Backup domain Write protection disable */
      tickstart = HAL_GetTick();
 800424a:	f7fd ff39 	bl	80020c0 <HAL_GetTick>
 800424e:	6138      	str	r0, [r7, #16]

      while (HAL_IS_BIT_CLR(PWR->CR, PWR_CR_DBP))
 8004250:	e008      	b.n	8004264 <HAL_RCC_OscConfig+0x2c8>
      {
        if ((HAL_GetTick() - tickstart) > RCC_DBP_TIMEOUT_VALUE)
 8004252:	f7fd ff35 	bl	80020c0 <HAL_GetTick>
 8004256:	4602      	mov	r2, r0
 8004258:	693b      	ldr	r3, [r7, #16]
 800425a:	1ad3      	subs	r3, r2, r3
 800425c:	2b02      	cmp	r3, #2
 800425e:	d901      	bls.n	8004264 <HAL_RCC_OscConfig+0x2c8>
        {
          return HAL_TIMEOUT;
 8004260:	2303      	movs	r3, #3
 8004262:	e10c      	b.n	800447e <HAL_RCC_OscConfig+0x4e2>
      while (HAL_IS_BIT_CLR(PWR->CR, PWR_CR_DBP))
 8004264:	4b6a      	ldr	r3, [pc, #424]	; (8004410 <HAL_RCC_OscConfig+0x474>)
 8004266:	681b      	ldr	r3, [r3, #0]
 8004268:	f403 7380 	and.w	r3, r3, #256	; 0x100
 800426c:	2b00      	cmp	r3, #0
 800426e:	d0f0      	beq.n	8004252 <HAL_RCC_OscConfig+0x2b6>
        }
      }
    }

    /* Set the new LSE configuration -----------------------------------------*/
    __HAL_RCC_LSE_CONFIG(RCC_OscInitStruct->LSEState);
 8004270:	687b      	ldr	r3, [r7, #4]
 8004272:	689b      	ldr	r3, [r3, #8]
 8004274:	2b01      	cmp	r3, #1
 8004276:	d106      	bne.n	8004286 <HAL_RCC_OscConfig+0x2ea>
 8004278:	4b64      	ldr	r3, [pc, #400]	; (800440c <HAL_RCC_OscConfig+0x470>)
 800427a:	6f1b      	ldr	r3, [r3, #112]	; 0x70
 800427c:	4a63      	ldr	r2, [pc, #396]	; (800440c <HAL_RCC_OscConfig+0x470>)
 800427e:	f043 0301 	orr.w	r3, r3, #1
 8004282:	6713      	str	r3, [r2, #112]	; 0x70
 8004284:	e01c      	b.n	80042c0 <HAL_RCC_OscConfig+0x324>
 8004286:	687b      	ldr	r3, [r7, #4]
 8004288:	689b      	ldr	r3, [r3, #8]
 800428a:	2b05      	cmp	r3, #5
 800428c:	d10c      	bne.n	80042a8 <HAL_RCC_OscConfig+0x30c>
 800428e:	4b5f      	ldr	r3, [pc, #380]	; (800440c <HAL_RCC_OscConfig+0x470>)
 8004290:	6f1b      	ldr	r3, [r3, #112]	; 0x70
 8004292:	4a5e      	ldr	r2, [pc, #376]	; (800440c <HAL_RCC_OscConfig+0x470>)
 8004294:	f043 0304 	orr.w	r3, r3, #4
 8004298:	6713      	str	r3, [r2, #112]	; 0x70
 800429a:	4b5c      	ldr	r3, [pc, #368]	; (800440c <HAL_RCC_OscConfig+0x470>)
 800429c:	6f1b      	ldr	r3, [r3, #112]	; 0x70
 800429e:	4a5b      	ldr	r2, [pc, #364]	; (800440c <HAL_RCC_OscConfig+0x470>)
 80042a0:	f043 0301 	orr.w	r3, r3, #1
 80042a4:	6713      	str	r3, [r2, #112]	; 0x70
 80042a6:	e00b      	b.n	80042c0 <HAL_RCC_OscConfig+0x324>
 80042a8:	4b58      	ldr	r3, [pc, #352]	; (800440c <HAL_RCC_OscConfig+0x470>)
 80042aa:	6f1b      	ldr	r3, [r3, #112]	; 0x70
 80042ac:	4a57      	ldr	r2, [pc, #348]	; (800440c <HAL_RCC_OscConfig+0x470>)
 80042ae:	f023 0301 	bic.w	r3, r3, #1
 80042b2:	6713      	str	r3, [r2, #112]	; 0x70
 80042b4:	4b55      	ldr	r3, [pc, #340]	; (800440c <HAL_RCC_OscConfig+0x470>)
 80042b6:	6f1b      	ldr	r3, [r3, #112]	; 0x70
 80042b8:	4a54      	ldr	r2, [pc, #336]	; (800440c <HAL_RCC_OscConfig+0x470>)
 80042ba:	f023 0304 	bic.w	r3, r3, #4
 80042be:	6713      	str	r3, [r2, #112]	; 0x70
    /* Check the LSE State */
    if ((RCC_OscInitStruct->LSEState) != RCC_LSE_OFF)
 80042c0:	687b      	ldr	r3, [r7, #4]
 80042c2:	689b      	ldr	r3, [r3, #8]
 80042c4:	2b00      	cmp	r3, #0
 80042c6:	d015      	beq.n	80042f4 <HAL_RCC_OscConfig+0x358>
    {
      /* Get Start Tick*/
      tickstart = HAL_GetTick();
 80042c8:	f7fd fefa 	bl	80020c0 <HAL_GetTick>
 80042cc:	6138      	str	r0, [r7, #16]

      /* Wait till LSE is ready */
      while (__HAL_RCC_GET_FLAG(RCC_FLAG_LSERDY) == RESET)
 80042ce:	e00a      	b.n	80042e6 <HAL_RCC_OscConfig+0x34a>
      {
        if ((HAL_GetTick() - tickstart) > RCC_LSE_TIMEOUT_VALUE)
 80042d0:	f7fd fef6 	bl	80020c0 <HAL_GetTick>
 80042d4:	4602      	mov	r2, r0
 80042d6:	693b      	ldr	r3, [r7, #16]
 80042d8:	1ad3      	subs	r3, r2, r3
 80042da:	f241 3288 	movw	r2, #5000	; 0x1388
 80042de:	4293      	cmp	r3, r2
 80042e0:	d901      	bls.n	80042e6 <HAL_RCC_OscConfig+0x34a>
        {
          return HAL_TIMEOUT;
 80042e2:	2303      	movs	r3, #3
 80042e4:	e0cb      	b.n	800447e <HAL_RCC_OscConfig+0x4e2>
      while (__HAL_RCC_GET_FLAG(RCC_FLAG_LSERDY) == RESET)
 80042e6:	4b49      	ldr	r3, [pc, #292]	; (800440c <HAL_RCC_OscConfig+0x470>)
 80042e8:	6f1b      	ldr	r3, [r3, #112]	; 0x70
 80042ea:	f003 0302 	and.w	r3, r3, #2
 80042ee:	2b00      	cmp	r3, #0
 80042f0:	d0ee      	beq.n	80042d0 <HAL_RCC_OscConfig+0x334>
 80042f2:	e014      	b.n	800431e <HAL_RCC_OscConfig+0x382>
      }
    }
    else
    {
      /* Get Start Tick */
      tickstart = HAL_GetTick();
 80042f4:	f7fd fee4 	bl	80020c0 <HAL_GetTick>
 80042f8:	6138      	str	r0, [r7, #16]

      /* Wait till LSE is ready */
      while (__HAL_RCC_GET_FLAG(RCC_FLAG_LSERDY) != RESET)
 80042fa:	e00a      	b.n	8004312 <HAL_RCC_OscConfig+0x376>
      {
        if ((HAL_GetTick() - tickstart) > RCC_LSE_TIMEOUT_VALUE)
 80042fc:	f7fd fee0 	bl	80020c0 <HAL_GetTick>
 8004300:	4602      	mov	r2, r0
 8004302:	693b      	ldr	r3, [r7, #16]
 8004304:	1ad3      	subs	r3, r2, r3
 8004306:	f241 3288 	movw	r2, #5000	; 0x1388
 800430a:	4293      	cmp	r3, r2
 800430c:	d901      	bls.n	8004312 <HAL_RCC_OscConfig+0x376>
        {
          return HAL_TIMEOUT;
 800430e:	2303      	movs	r3, #3
 8004310:	e0b5      	b.n	800447e <HAL_RCC_OscConfig+0x4e2>
      while (__HAL_RCC_GET_FLAG(RCC_FLAG_LSERDY) != RESET)
 8004312:	4b3e      	ldr	r3, [pc, #248]	; (800440c <HAL_RCC_OscConfig+0x470>)
 8004314:	6f1b      	ldr	r3, [r3, #112]	; 0x70
 8004316:	f003 0302 	and.w	r3, r3, #2
 800431a:	2b00      	cmp	r3, #0
 800431c:	d1ee      	bne.n	80042fc <HAL_RCC_OscConfig+0x360>
        }
      }
    }

    /* Restore clock configuration if changed */
    if (pwrclkchanged == SET)
 800431e:	7dfb      	ldrb	r3, [r7, #23]
 8004320:	2b01      	cmp	r3, #1
 8004322:	d105      	bne.n	8004330 <HAL_RCC_OscConfig+0x394>
    {
      __HAL_RCC_PWR_CLK_DISABLE();
 8004324:	4b39      	ldr	r3, [pc, #228]	; (800440c <HAL_RCC_OscConfig+0x470>)
 8004326:	6c1b      	ldr	r3, [r3, #64]	; 0x40
 8004328:	4a38      	ldr	r2, [pc, #224]	; (800440c <HAL_RCC_OscConfig+0x470>)
 800432a:	f023 5380 	bic.w	r3, r3, #268435456	; 0x10000000
 800432e:	6413      	str	r3, [r2, #64]	; 0x40
    }
  }
  /*-------------------------------- PLL Configuration -----------------------*/
  /* Check the parameters */
  assert_param(IS_RCC_PLL(RCC_OscInitStruct->PLL.PLLState));
  if ((RCC_OscInitStruct->PLL.PLLState) != RCC_PLL_NONE)
 8004330:	687b      	ldr	r3, [r7, #4]
 8004332:	699b      	ldr	r3, [r3, #24]
 8004334:	2b00      	cmp	r3, #0
 8004336:	f000 80a1 	beq.w	800447c <HAL_RCC_OscConfig+0x4e0>
  {
    /* Check if the PLL is used as system clock or not */
    if (__HAL_RCC_GET_SYSCLK_SOURCE() != RCC_CFGR_SWS_PLL)
 800433a:	4b34      	ldr	r3, [pc, #208]	; (800440c <HAL_RCC_OscConfig+0x470>)
 800433c:	689b      	ldr	r3, [r3, #8]
 800433e:	f003 030c 	and.w	r3, r3, #12
 8004342:	2b08      	cmp	r3, #8
 8004344:	d05c      	beq.n	8004400 <HAL_RCC_OscConfig+0x464>
    {
      if ((RCC_OscInitStruct->PLL.PLLState) == RCC_PLL_ON)
 8004346:	687b      	ldr	r3, [r7, #4]
 8004348:	699b      	ldr	r3, [r3, #24]
 800434a:	2b02      	cmp	r3, #2
 800434c:	d141      	bne.n	80043d2 <HAL_RCC_OscConfig+0x436>
        assert_param(IS_RCC_PLLN_VALUE(RCC_OscInitStruct->PLL.PLLN));
        assert_param(IS_RCC_PLLP_VALUE(RCC_OscInitStruct->PLL.PLLP));
        assert_param(IS_RCC_PLLQ_VALUE(RCC_OscInitStruct->PLL.PLLQ));

        /* Disable the main PLL. */
        __HAL_RCC_PLL_DISABLE();
 800434e:	4b31      	ldr	r3, [pc, #196]	; (8004414 <HAL_RCC_OscConfig+0x478>)
 8004350:	2200      	movs	r2, #0
 8004352:	601a      	str	r2, [r3, #0]

        /* Get Start Tick */
        tickstart = HAL_GetTick();
 8004354:	f7fd feb4 	bl	80020c0 <HAL_GetTick>
 8004358:	6138      	str	r0, [r7, #16]

        /* Wait till PLL is disabled */
        while (__HAL_RCC_GET_FLAG(RCC_FLAG_PLLRDY) != RESET)
 800435a:	e008      	b.n	800436e <HAL_RCC_OscConfig+0x3d2>
        {
          if ((HAL_GetTick() - tickstart) > PLL_TIMEOUT_VALUE)
 800435c:	f7fd feb0 	bl	80020c0 <HAL_GetTick>
 8004360:	4602      	mov	r2, r0
 8004362:	693b      	ldr	r3, [r7, #16]
 8004364:	1ad3      	subs	r3, r2, r3
 8004366:	2b02      	cmp	r3, #2
 8004368:	d901      	bls.n	800436e <HAL_RCC_OscConfig+0x3d2>
          {
            return HAL_TIMEOUT;
 800436a:	2303      	movs	r3, #3
 800436c:	e087      	b.n	800447e <HAL_RCC_OscConfig+0x4e2>
        while (__HAL_RCC_GET_FLAG(RCC_FLAG_PLLRDY) != RESET)
 800436e:	4b27      	ldr	r3, [pc, #156]	; (800440c <HAL_RCC_OscConfig+0x470>)
 8004370:	681b      	ldr	r3, [r3, #0]
 8004372:	f003 7300 	and.w	r3, r3, #33554432	; 0x2000000
 8004376:	2b00      	cmp	r3, #0
 8004378:	d1f0      	bne.n	800435c <HAL_RCC_OscConfig+0x3c0>
          }
        }

        /* Configure the main PLL clock source, multiplication and division factors. */
        WRITE_REG(RCC->PLLCFGR, (RCC_OscInitStruct->PLL.PLLSource                                            | \
 800437a:	687b      	ldr	r3, [r7, #4]
 800437c:	69da      	ldr	r2, [r3, #28]
 800437e:	687b      	ldr	r3, [r7, #4]
 8004380:	6a1b      	ldr	r3, [r3, #32]
 8004382:	431a      	orrs	r2, r3
 8004384:	687b      	ldr	r3, [r7, #4]
 8004386:	6a5b      	ldr	r3, [r3, #36]	; 0x24
 8004388:	019b      	lsls	r3, r3, #6
 800438a:	431a      	orrs	r2, r3
 800438c:	687b      	ldr	r3, [r7, #4]
 800438e:	6a9b      	ldr	r3, [r3, #40]	; 0x28
 8004390:	085b      	lsrs	r3, r3, #1
 8004392:	3b01      	subs	r3, #1
 8004394:	041b      	lsls	r3, r3, #16
 8004396:	431a      	orrs	r2, r3
 8004398:	687b      	ldr	r3, [r7, #4]
 800439a:	6adb      	ldr	r3, [r3, #44]	; 0x2c
 800439c:	061b      	lsls	r3, r3, #24
 800439e:	491b      	ldr	r1, [pc, #108]	; (800440c <HAL_RCC_OscConfig+0x470>)
 80043a0:	4313      	orrs	r3, r2
 80043a2:	604b      	str	r3, [r1, #4]
                                 RCC_OscInitStruct->PLL.PLLM                                                 | \
                                 (RCC_OscInitStruct->PLL.PLLN << RCC_PLLCFGR_PLLN_Pos)             | \
                                 (((RCC_OscInitStruct->PLL.PLLP >> 1U) - 1U) << RCC_PLLCFGR_PLLP_Pos) | \
                                 (RCC_OscInitStruct->PLL.PLLQ << RCC_PLLCFGR_PLLQ_Pos)));
        /* Enable the main PLL. */
        __HAL_RCC_PLL_ENABLE();
 80043a4:	4b1b      	ldr	r3, [pc, #108]	; (8004414 <HAL_RCC_OscConfig+0x478>)
 80043a6:	2201      	movs	r2, #1
 80043a8:	601a      	str	r2, [r3, #0]

        /* Get Start Tick */
        tickstart = HAL_GetTick();
 80043aa:	f7fd fe89 	bl	80020c0 <HAL_GetTick>
 80043ae:	6138      	str	r0, [r7, #16]

        /* Wait till PLL is ready */
        while (__HAL_RCC_GET_FLAG(RCC_FLAG_PLLRDY) == RESET)
 80043b0:	e008      	b.n	80043c4 <HAL_RCC_OscConfig+0x428>
        {
          if ((HAL_GetTick() - tickstart) > PLL_TIMEOUT_VALUE)
 80043b2:	f7fd fe85 	bl	80020c0 <HAL_GetTick>
 80043b6:	4602      	mov	r2, r0
 80043b8:	693b      	ldr	r3, [r7, #16]
 80043ba:	1ad3      	subs	r3, r2, r3
 80043bc:	2b02      	cmp	r3, #2
 80043be:	d901      	bls.n	80043c4 <HAL_RCC_OscConfig+0x428>
          {
            return HAL_TIMEOUT;
 80043c0:	2303      	movs	r3, #3
 80043c2:	e05c      	b.n	800447e <HAL_RCC_OscConfig+0x4e2>
        while (__HAL_RCC_GET_FLAG(RCC_FLAG_PLLRDY) == RESET)
 80043c4:	4b11      	ldr	r3, [pc, #68]	; (800440c <HAL_RCC_OscConfig+0x470>)
 80043c6:	681b      	ldr	r3, [r3, #0]
 80043c8:	f003 7300 	and.w	r3, r3, #33554432	; 0x2000000
 80043cc:	2b00      	cmp	r3, #0
 80043ce:	d0f0      	beq.n	80043b2 <HAL_RCC_OscConfig+0x416>
 80043d0:	e054      	b.n	800447c <HAL_RCC_OscConfig+0x4e0>
        }
      }
      else
      {
        /* Disable the main PLL. */
        __HAL_RCC_PLL_DISABLE();
 80043d2:	4b10      	ldr	r3, [pc, #64]	; (8004414 <HAL_RCC_OscConfig+0x478>)
 80043d4:	2200      	movs	r2, #0
 80043d6:	601a      	str	r2, [r3, #0]

        /* Get Start Tick */
        tickstart = HAL_GetTick();
 80043d8:	f7fd fe72 	bl	80020c0 <HAL_GetTick>
 80043dc:	6138      	str	r0, [r7, #16]

        /* Wait till PLL is disabled */
        while (__HAL_RCC_GET_FLAG(RCC_FLAG_PLLRDY) != RESET)
 80043de:	e008      	b.n	80043f2 <HAL_RCC_OscConfig+0x456>
        {
          if ((HAL_GetTick() - tickstart) > PLL_TIMEOUT_VALUE)
 80043e0:	f7fd fe6e 	bl	80020c0 <HAL_GetTick>
 80043e4:	4602      	mov	r2, r0
 80043e6:	693b      	ldr	r3, [r7, #16]
 80043e8:	1ad3      	subs	r3, r2, r3
 80043ea:	2b02      	cmp	r3, #2
 80043ec:	d901      	bls.n	80043f2 <HAL_RCC_OscConfig+0x456>
          {
            return HAL_TIMEOUT;
 80043ee:	2303      	movs	r3, #3
 80043f0:	e045      	b.n	800447e <HAL_RCC_OscConfig+0x4e2>
        while (__HAL_RCC_GET_FLAG(RCC_FLAG_PLLRDY) != RESET)
 80043f2:	4b06      	ldr	r3, [pc, #24]	; (800440c <HAL_RCC_OscConfig+0x470>)
 80043f4:	681b      	ldr	r3, [r3, #0]
 80043f6:	f003 7300 	and.w	r3, r3, #33554432	; 0x2000000
 80043fa:	2b00      	cmp	r3, #0
 80043fc:	d1f0      	bne.n	80043e0 <HAL_RCC_OscConfig+0x444>
 80043fe:	e03d      	b.n	800447c <HAL_RCC_OscConfig+0x4e0>
      }
    }
    else
    {
      /* Check if there is a request to disable the PLL used as System clock source */
      if ((RCC_OscInitStruct->PLL.PLLState) == RCC_PLL_OFF)
 8004400:	687b      	ldr	r3, [r7, #4]
 8004402:	699b      	ldr	r3, [r3, #24]
 8004404:	2b01      	cmp	r3, #1
 8004406:	d107      	bne.n	8004418 <HAL_RCC_OscConfig+0x47c>
      {
        return HAL_ERROR;
 8004408:	2301      	movs	r3, #1
 800440a:	e038      	b.n	800447e <HAL_RCC_OscConfig+0x4e2>
 800440c:	40023800 	.word	0x40023800
 8004410:	40007000 	.word	0x40007000
 8004414:	42470060 	.word	0x42470060
      }
      else
      {
        /* Do not return HAL_ERROR if request repeats the current configuration */
        pll_config = RCC->PLLCFGR;
 8004418:	4b1b      	ldr	r3, [pc, #108]	; (8004488 <HAL_RCC_OscConfig+0x4ec>)
 800441a:	685b      	ldr	r3, [r3, #4]
 800441c:	60fb      	str	r3, [r7, #12]
            (READ_BIT(pll_config, RCC_PLLCFGR_PLLN) != (RCC_OscInitStruct->PLL.PLLN) << RCC_PLLCFGR_PLLN_Pos) ||
            (READ_BIT(pll_config, RCC_PLLCFGR_PLLP) != (((RCC_OscInitStruct->PLL.PLLP >> 1U) - 1U)) << RCC_PLLCFGR_PLLP_Pos) ||
            (READ_BIT(pll_config, RCC_PLLCFGR_PLLQ) != (RCC_OscInitStruct->PLL.PLLQ << RCC_PLLCFGR_PLLQ_Pos)) ||
            (READ_BIT(pll_config, RCC_PLLCFGR_PLLR) != (RCC_OscInitStruct->PLL.PLLR << RCC_PLLCFGR_PLLR_Pos)))
#else
        if (((RCC_OscInitStruct->PLL.PLLState) == RCC_PLL_OFF) ||
 800441e:	687b      	ldr	r3, [r7, #4]
 8004420:	699b      	ldr	r3, [r3, #24]
 8004422:	2b01      	cmp	r3, #1
 8004424:	d028      	beq.n	8004478 <HAL_RCC_OscConfig+0x4dc>
            (READ_BIT(pll_config, RCC_PLLCFGR_PLLSRC) != RCC_OscInitStruct->PLL.PLLSource) ||
 8004426:	68fb      	ldr	r3, [r7, #12]
 8004428:	f403 0280 	and.w	r2, r3, #4194304	; 0x400000
 800442c:	687b      	ldr	r3, [r7, #4]
 800442e:	69db      	ldr	r3, [r3, #28]
        if (((RCC_OscInitStruct->PLL.PLLState) == RCC_PLL_OFF) ||
 8004430:	429a      	cmp	r2, r3
 8004432:	d121      	bne.n	8004478 <HAL_RCC_OscConfig+0x4dc>
            (READ_BIT(pll_config, RCC_PLLCFGR_PLLM) != (RCC_OscInitStruct->PLL.PLLM) << RCC_PLLCFGR_PLLM_Pos) ||
 8004434:	68fb      	ldr	r3, [r7, #12]
 8004436:	f003 023f 	and.w	r2, r3, #63	; 0x3f
 800443a:	687b      	ldr	r3, [r7, #4]
 800443c:	6a1b      	ldr	r3, [r3, #32]
            (READ_BIT(pll_config, RCC_PLLCFGR_PLLSRC) != RCC_OscInitStruct->PLL.PLLSource) ||
 800443e:	429a      	cmp	r2, r3
 8004440:	d11a      	bne.n	8004478 <HAL_RCC_OscConfig+0x4dc>
            (READ_BIT(pll_config, RCC_PLLCFGR_PLLN) != (RCC_OscInitStruct->PLL.PLLN) << RCC_PLLCFGR_PLLN_Pos) ||
 8004442:	68fa      	ldr	r2, [r7, #12]
 8004444:	f647 73c0 	movw	r3, #32704	; 0x7fc0
 8004448:	4013      	ands	r3, r2
 800444a:	687a      	ldr	r2, [r7, #4]
 800444c:	6a52      	ldr	r2, [r2, #36]	; 0x24
 800444e:	0192      	lsls	r2, r2, #6
            (READ_BIT(pll_config, RCC_PLLCFGR_PLLM) != (RCC_OscInitStruct->PLL.PLLM) << RCC_PLLCFGR_PLLM_Pos) ||
 8004450:	4293      	cmp	r3, r2
 8004452:	d111      	bne.n	8004478 <HAL_RCC_OscConfig+0x4dc>
            (READ_BIT(pll_config, RCC_PLLCFGR_PLLP) != (((RCC_OscInitStruct->PLL.PLLP >> 1U) - 1U)) << RCC_PLLCFGR_PLLP_Pos) ||
 8004454:	68fb      	ldr	r3, [r7, #12]
 8004456:	f403 3240 	and.w	r2, r3, #196608	; 0x30000
 800445a:	687b      	ldr	r3, [r7, #4]
 800445c:	6a9b      	ldr	r3, [r3, #40]	; 0x28
 800445e:	085b      	lsrs	r3, r3, #1
 8004460:	3b01      	subs	r3, #1
 8004462:	041b      	lsls	r3, r3, #16
            (READ_BIT(pll_config, RCC_PLLCFGR_PLLN) != (RCC_OscInitStruct->PLL.PLLN) << RCC_PLLCFGR_PLLN_Pos) ||
 8004464:	429a      	cmp	r2, r3
 8004466:	d107      	bne.n	8004478 <HAL_RCC_OscConfig+0x4dc>
            (READ_BIT(pll_config, RCC_PLLCFGR_PLLQ) != (RCC_OscInitStruct->PLL.PLLQ << RCC_PLLCFGR_PLLQ_Pos)))
 8004468:	68fb      	ldr	r3, [r7, #12]
 800446a:	f003 6270 	and.w	r2, r3, #251658240	; 0xf000000
 800446e:	687b      	ldr	r3, [r7, #4]
 8004470:	6adb      	ldr	r3, [r3, #44]	; 0x2c
 8004472:	061b      	lsls	r3, r3, #24
            (READ_BIT(pll_config, RCC_PLLCFGR_PLLP) != (((RCC_OscInitStruct->PLL.PLLP >> 1U) - 1U)) << RCC_PLLCFGR_PLLP_Pos) ||
 8004474:	429a      	cmp	r2, r3
 8004476:	d001      	beq.n	800447c <HAL_RCC_OscConfig+0x4e0>
#endif /* RCC_PLLCFGR_PLLR */
        {
          return HAL_ERROR;
 8004478:	2301      	movs	r3, #1
 800447a:	e000      	b.n	800447e <HAL_RCC_OscConfig+0x4e2>
        }
      }
    }
  }
  return HAL_OK;
 800447c:	2300      	movs	r3, #0
}
 800447e:	4618      	mov	r0, r3
 8004480:	3718      	adds	r7, #24
 8004482:	46bd      	mov	sp, r7
 8004484:	bd80      	pop	{r7, pc}
 8004486:	bf00      	nop
 8004488:	40023800 	.word	0x40023800

0800448c <HAL_RCC_ClockConfig>:
  *         HPRE[3:0] bits to ensure that HCLK not exceed the maximum allowed frequency
  *         (for more details refer to section above "Initialization/de-initialization functions")
  * @retval None
  */
HAL_StatusTypeDef HAL_RCC_ClockConfig(RCC_ClkInitTypeDef  *RCC_ClkInitStruct, uint32_t FLatency)
{
 800448c:	b580      	push	{r7, lr}
 800448e:	b084      	sub	sp, #16
 8004490:	af00      	add	r7, sp, #0
 8004492:	6078      	str	r0, [r7, #4]
 8004494:	6039      	str	r1, [r7, #0]
  uint32_t tickstart;

  /* Check Null pointer */
  if (RCC_ClkInitStruct == NULL)
 8004496:	687b      	ldr	r3, [r7, #4]
 8004498:	2b00      	cmp	r3, #0
 800449a:	d101      	bne.n	80044a0 <HAL_RCC_ClockConfig+0x14>
  {
    return HAL_ERROR;
 800449c:	2301      	movs	r3, #1
 800449e:	e0cc      	b.n	800463a <HAL_RCC_ClockConfig+0x1ae>
  /* To correctly read data from FLASH memory, the number of wait states (LATENCY)
    must be correctly programmed according to the frequency of the CPU clock
    (HCLK) and the supply voltage of the device. */

  /* Increasing the number of wait states because of higher CPU frequency */
  if (FLatency > __HAL_FLASH_GET_LATENCY())
 80044a0:	4b68      	ldr	r3, [pc, #416]	; (8004644 <HAL_RCC_ClockConfig+0x1b8>)
 80044a2:	681b      	ldr	r3, [r3, #0]
 80044a4:	f003 0307 	and.w	r3, r3, #7
 80044a8:	683a      	ldr	r2, [r7, #0]
 80044aa:	429a      	cmp	r2, r3
 80044ac:	d90c      	bls.n	80044c8 <HAL_RCC_ClockConfig+0x3c>
  {
    /* Program the new number of wait states to the LATENCY bits in the FLASH_ACR register */
    __HAL_FLASH_SET_LATENCY(FLatency);
 80044ae:	4b65      	ldr	r3, [pc, #404]	; (8004644 <HAL_RCC_ClockConfig+0x1b8>)
 80044b0:	683a      	ldr	r2, [r7, #0]
 80044b2:	b2d2      	uxtb	r2, r2
 80044b4:	701a      	strb	r2, [r3, #0]

    /* Check that the new number of wait states is taken into account to access the Flash
    memory by reading the FLASH_ACR register */
    if (__HAL_FLASH_GET_LATENCY() != FLatency)
 80044b6:	4b63      	ldr	r3, [pc, #396]	; (8004644 <HAL_RCC_ClockConfig+0x1b8>)
 80044b8:	681b      	ldr	r3, [r3, #0]
 80044ba:	f003 0307 	and.w	r3, r3, #7
 80044be:	683a      	ldr	r2, [r7, #0]
 80044c0:	429a      	cmp	r2, r3
 80044c2:	d001      	beq.n	80044c8 <HAL_RCC_ClockConfig+0x3c>
    {
      return HAL_ERROR;
 80044c4:	2301      	movs	r3, #1
 80044c6:	e0b8      	b.n	800463a <HAL_RCC_ClockConfig+0x1ae>
    }
  }

  /*-------------------------- HCLK Configuration --------------------------*/
  if (((RCC_ClkInitStruct->ClockType) & RCC_CLOCKTYPE_HCLK) == RCC_CLOCKTYPE_HCLK)
 80044c8:	687b      	ldr	r3, [r7, #4]
 80044ca:	681b      	ldr	r3, [r3, #0]
 80044cc:	f003 0302 	and.w	r3, r3, #2
 80044d0:	2b00      	cmp	r3, #0
 80044d2:	d020      	beq.n	8004516 <HAL_RCC_ClockConfig+0x8a>
  {
    /* Set the highest APBx dividers in order to ensure that we do not go through
       a non-spec phase whatever we decrease or increase HCLK. */
    if (((RCC_ClkInitStruct->ClockType) & RCC_CLOCKTYPE_PCLK1) == RCC_CLOCKTYPE_PCLK1)
 80044d4:	687b      	ldr	r3, [r7, #4]
 80044d6:	681b      	ldr	r3, [r3, #0]
 80044d8:	f003 0304 	and.w	r3, r3, #4
 80044dc:	2b00      	cmp	r3, #0
 80044de:	d005      	beq.n	80044ec <HAL_RCC_ClockConfig+0x60>
    {
      MODIFY_REG(RCC->CFGR, RCC_CFGR_PPRE1, RCC_HCLK_DIV16);
 80044e0:	4b59      	ldr	r3, [pc, #356]	; (8004648 <HAL_RCC_ClockConfig+0x1bc>)
 80044e2:	689b      	ldr	r3, [r3, #8]
 80044e4:	4a58      	ldr	r2, [pc, #352]	; (8004648 <HAL_RCC_ClockConfig+0x1bc>)
 80044e6:	f443 53e0 	orr.w	r3, r3, #7168	; 0x1c00
 80044ea:	6093      	str	r3, [r2, #8]
    }

    if (((RCC_ClkInitStruct->ClockType) & RCC_CLOCKTYPE_PCLK2) == RCC_CLOCKTYPE_PCLK2)
 80044ec:	687b      	ldr	r3, [r7, #4]
 80044ee:	681b      	ldr	r3, [r3, #0]
 80044f0:	f003 0308 	and.w	r3, r3, #8
 80044f4:	2b00      	cmp	r3, #0
 80044f6:	d005      	beq.n	8004504 <HAL_RCC_ClockConfig+0x78>
    {
      MODIFY_REG(RCC->CFGR, RCC_CFGR_PPRE2, (RCC_HCLK_DIV16 << 3));
 80044f8:	4b53      	ldr	r3, [pc, #332]	; (8004648 <HAL_RCC_ClockConfig+0x1bc>)
 80044fa:	689b      	ldr	r3, [r3, #8]
 80044fc:	4a52      	ldr	r2, [pc, #328]	; (8004648 <HAL_RCC_ClockConfig+0x1bc>)
 80044fe:	f443 4360 	orr.w	r3, r3, #57344	; 0xe000
 8004502:	6093      	str	r3, [r2, #8]
    }

    assert_param(IS_RCC_HCLK(RCC_ClkInitStruct->AHBCLKDivider));
    MODIFY_REG(RCC->CFGR, RCC_CFGR_HPRE, RCC_ClkInitStruct->AHBCLKDivider);
 8004504:	4b50      	ldr	r3, [pc, #320]	; (8004648 <HAL_RCC_ClockConfig+0x1bc>)
 8004506:	689b      	ldr	r3, [r3, #8]
 8004508:	f023 02f0 	bic.w	r2, r3, #240	; 0xf0
 800450c:	687b      	ldr	r3, [r7, #4]
 800450e:	689b      	ldr	r3, [r3, #8]
 8004510:	494d      	ldr	r1, [pc, #308]	; (8004648 <HAL_RCC_ClockConfig+0x1bc>)
 8004512:	4313      	orrs	r3, r2
 8004514:	608b      	str	r3, [r1, #8]
  }

  /*------------------------- SYSCLK Configuration ---------------------------*/
  if (((RCC_ClkInitStruct->ClockType) & RCC_CLOCKTYPE_SYSCLK) == RCC_CLOCKTYPE_SYSCLK)
 8004516:	687b      	ldr	r3, [r7, #4]
 8004518:	681b      	ldr	r3, [r3, #0]
 800451a:	f003 0301 	and.w	r3, r3, #1
 800451e:	2b00      	cmp	r3, #0
 8004520:	d044      	beq.n	80045ac <HAL_RCC_ClockConfig+0x120>
  {
    assert_param(IS_RCC_SYSCLKSOURCE(RCC_ClkInitStruct->SYSCLKSource));

    /* HSE is selected as System Clock Source */
    if (RCC_ClkInitStruct->SYSCLKSource == RCC_SYSCLKSOURCE_HSE)
 8004522:	687b      	ldr	r3, [r7, #4]
 8004524:	685b      	ldr	r3, [r3, #4]
 8004526:	2b01      	cmp	r3, #1
 8004528:	d107      	bne.n	800453a <HAL_RCC_ClockConfig+0xae>
    {
      /* Check the HSE ready flag */
      if (__HAL_RCC_GET_FLAG(RCC_FLAG_HSERDY) == RESET)
 800452a:	4b47      	ldr	r3, [pc, #284]	; (8004648 <HAL_RCC_ClockConfig+0x1bc>)
 800452c:	681b      	ldr	r3, [r3, #0]
 800452e:	f403 3300 	and.w	r3, r3, #131072	; 0x20000
 8004532:	2b00      	cmp	r3, #0
 8004534:	d119      	bne.n	800456a <HAL_RCC_ClockConfig+0xde>
      {
        return HAL_ERROR;
 8004536:	2301      	movs	r3, #1
 8004538:	e07f      	b.n	800463a <HAL_RCC_ClockConfig+0x1ae>
      }
    }
    /* PLL is selected as System Clock Source */
    else if ((RCC_ClkInitStruct->SYSCLKSource == RCC_SYSCLKSOURCE_PLLCLK)   ||
 800453a:	687b      	ldr	r3, [r7, #4]
 800453c:	685b      	ldr	r3, [r3, #4]
 800453e:	2b02      	cmp	r3, #2
 8004540:	d003      	beq.n	800454a <HAL_RCC_ClockConfig+0xbe>
             (RCC_ClkInitStruct->SYSCLKSource == RCC_SYSCLKSOURCE_PLLRCLK))
 8004542:	687b      	ldr	r3, [r7, #4]
 8004544:	685b      	ldr	r3, [r3, #4]
    else if ((RCC_ClkInitStruct->SYSCLKSource == RCC_SYSCLKSOURCE_PLLCLK)   ||
 8004546:	2b03      	cmp	r3, #3
 8004548:	d107      	bne.n	800455a <HAL_RCC_ClockConfig+0xce>
    {
      /* Check the PLL ready flag */
      if (__HAL_RCC_GET_FLAG(RCC_FLAG_PLLRDY) == RESET)
 800454a:	4b3f      	ldr	r3, [pc, #252]	; (8004648 <HAL_RCC_ClockConfig+0x1bc>)
 800454c:	681b      	ldr	r3, [r3, #0]
 800454e:	f003 7300 	and.w	r3, r3, #33554432	; 0x2000000
 8004552:	2b00      	cmp	r3, #0
 8004554:	d109      	bne.n	800456a <HAL_RCC_ClockConfig+0xde>
      {
        return HAL_ERROR;
 8004556:	2301      	movs	r3, #1
 8004558:	e06f      	b.n	800463a <HAL_RCC_ClockConfig+0x1ae>
    }
    /* HSI is selected as System Clock Source */
    else
    {
      /* Check the HSI ready flag */
      if (__HAL_RCC_GET_FLAG(RCC_FLAG_HSIRDY) == RESET)
 800455a:	4b3b      	ldr	r3, [pc, #236]	; (8004648 <HAL_RCC_ClockConfig+0x1bc>)
 800455c:	681b      	ldr	r3, [r3, #0]
 800455e:	f003 0302 	and.w	r3, r3, #2
 8004562:	2b00      	cmp	r3, #0
 8004564:	d101      	bne.n	800456a <HAL_RCC_ClockConfig+0xde>
      {
        return HAL_ERROR;
 8004566:	2301      	movs	r3, #1
 8004568:	e067      	b.n	800463a <HAL_RCC_ClockConfig+0x1ae>
      }
    }

    __HAL_RCC_SYSCLK_CONFIG(RCC_ClkInitStruct->SYSCLKSource);
 800456a:	4b37      	ldr	r3, [pc, #220]	; (8004648 <HAL_RCC_ClockConfig+0x1bc>)
 800456c:	689b      	ldr	r3, [r3, #8]
 800456e:	f023 0203 	bic.w	r2, r3, #3
 8004572:	687b      	ldr	r3, [r7, #4]
 8004574:	685b      	ldr	r3, [r3, #4]
 8004576:	4934      	ldr	r1, [pc, #208]	; (8004648 <HAL_RCC_ClockConfig+0x1bc>)
 8004578:	4313      	orrs	r3, r2
 800457a:	608b      	str	r3, [r1, #8]

    /* Get Start Tick */
    tickstart = HAL_GetTick();
 800457c:	f7fd fda0 	bl	80020c0 <HAL_GetTick>
 8004580:	60f8      	str	r0, [r7, #12]

    while (__HAL_RCC_GET_SYSCLK_SOURCE() != (RCC_ClkInitStruct->SYSCLKSource << RCC_CFGR_SWS_Pos))
 8004582:	e00a      	b.n	800459a <HAL_RCC_ClockConfig+0x10e>
    {
      if ((HAL_GetTick() - tickstart) > CLOCKSWITCH_TIMEOUT_VALUE)
 8004584:	f7fd fd9c 	bl	80020c0 <HAL_GetTick>
 8004588:	4602      	mov	r2, r0
 800458a:	68fb      	ldr	r3, [r7, #12]
 800458c:	1ad3      	subs	r3, r2, r3
 800458e:	f241 3288 	movw	r2, #5000	; 0x1388
 8004592:	4293      	cmp	r3, r2
 8004594:	d901      	bls.n	800459a <HAL_RCC_ClockConfig+0x10e>
      {
        return HAL_TIMEOUT;
 8004596:	2303      	movs	r3, #3
 8004598:	e04f      	b.n	800463a <HAL_RCC_ClockConfig+0x1ae>
    while (__HAL_RCC_GET_SYSCLK_SOURCE() != (RCC_ClkInitStruct->SYSCLKSource << RCC_CFGR_SWS_Pos))
 800459a:	4b2b      	ldr	r3, [pc, #172]	; (8004648 <HAL_RCC_ClockConfig+0x1bc>)
 800459c:	689b      	ldr	r3, [r3, #8]
 800459e:	f003 020c 	and.w	r2, r3, #12
 80045a2:	687b      	ldr	r3, [r7, #4]
 80045a4:	685b      	ldr	r3, [r3, #4]
 80045a6:	009b      	lsls	r3, r3, #2
 80045a8:	429a      	cmp	r2, r3
 80045aa:	d1eb      	bne.n	8004584 <HAL_RCC_ClockConfig+0xf8>
      }
    }
  }

  /* Decreasing the number of wait states because of lower CPU frequency */
  if (FLatency < __HAL_FLASH_GET_LATENCY())
 80045ac:	4b25      	ldr	r3, [pc, #148]	; (8004644 <HAL_RCC_ClockConfig+0x1b8>)
 80045ae:	681b      	ldr	r3, [r3, #0]
 80045b0:	f003 0307 	and.w	r3, r3, #7
 80045b4:	683a      	ldr	r2, [r7, #0]
 80045b6:	429a      	cmp	r2, r3
 80045b8:	d20c      	bcs.n	80045d4 <HAL_RCC_ClockConfig+0x148>
  {
    /* Program the new number of wait states to the LATENCY bits in the FLASH_ACR register */
    __HAL_FLASH_SET_LATENCY(FLatency);
 80045ba:	4b22      	ldr	r3, [pc, #136]	; (8004644 <HAL_RCC_ClockConfig+0x1b8>)
 80045bc:	683a      	ldr	r2, [r7, #0]
 80045be:	b2d2      	uxtb	r2, r2
 80045c0:	701a      	strb	r2, [r3, #0]

    /* Check that the new number of wait states is taken into account to access the Flash
    memory by reading the FLASH_ACR register */
    if (__HAL_FLASH_GET_LATENCY() != FLatency)
 80045c2:	4b20      	ldr	r3, [pc, #128]	; (8004644 <HAL_RCC_ClockConfig+0x1b8>)
 80045c4:	681b      	ldr	r3, [r3, #0]
 80045c6:	f003 0307 	and.w	r3, r3, #7
 80045ca:	683a      	ldr	r2, [r7, #0]
 80045cc:	429a      	cmp	r2, r3
 80045ce:	d001      	beq.n	80045d4 <HAL_RCC_ClockConfig+0x148>
    {
      return HAL_ERROR;
 80045d0:	2301      	movs	r3, #1
 80045d2:	e032      	b.n	800463a <HAL_RCC_ClockConfig+0x1ae>
    }
  }

  /*-------------------------- PCLK1 Configuration ---------------------------*/
  if (((RCC_ClkInitStruct->ClockType) & RCC_CLOCKTYPE_PCLK1) == RCC_CLOCKTYPE_PCLK1)
 80045d4:	687b      	ldr	r3, [r7, #4]
 80045d6:	681b      	ldr	r3, [r3, #0]
 80045d8:	f003 0304 	and.w	r3, r3, #4
 80045dc:	2b00      	cmp	r3, #0
 80045de:	d008      	beq.n	80045f2 <HAL_RCC_ClockConfig+0x166>
  {
    assert_param(IS_RCC_PCLK(RCC_ClkInitStruct->APB1CLKDivider));
    MODIFY_REG(RCC->CFGR, RCC_CFGR_PPRE1, RCC_ClkInitStruct->APB1CLKDivider);
 80045e0:	4b19      	ldr	r3, [pc, #100]	; (8004648 <HAL_RCC_ClockConfig+0x1bc>)
 80045e2:	689b      	ldr	r3, [r3, #8]
 80045e4:	f423 52e0 	bic.w	r2, r3, #7168	; 0x1c00
 80045e8:	687b      	ldr	r3, [r7, #4]
 80045ea:	68db      	ldr	r3, [r3, #12]
 80045ec:	4916      	ldr	r1, [pc, #88]	; (8004648 <HAL_RCC_ClockConfig+0x1bc>)
 80045ee:	4313      	orrs	r3, r2
 80045f0:	608b      	str	r3, [r1, #8]
  }

  /*-------------------------- PCLK2 Configuration ---------------------------*/
  if (((RCC_ClkInitStruct->ClockType) & RCC_CLOCKTYPE_PCLK2) == RCC_CLOCKTYPE_PCLK2)
 80045f2:	687b      	ldr	r3, [r7, #4]
 80045f4:	681b      	ldr	r3, [r3, #0]
 80045f6:	f003 0308 	and.w	r3, r3, #8
 80045fa:	2b00      	cmp	r3, #0
 80045fc:	d009      	beq.n	8004612 <HAL_RCC_ClockConfig+0x186>
  {
    assert_param(IS_RCC_PCLK(RCC_ClkInitStruct->APB2CLKDivider));
    MODIFY_REG(RCC->CFGR, RCC_CFGR_PPRE2, ((RCC_ClkInitStruct->APB2CLKDivider) << 3U));
 80045fe:	4b12      	ldr	r3, [pc, #72]	; (8004648 <HAL_RCC_ClockConfig+0x1bc>)
 8004600:	689b      	ldr	r3, [r3, #8]
 8004602:	f423 4260 	bic.w	r2, r3, #57344	; 0xe000
 8004606:	687b      	ldr	r3, [r7, #4]
 8004608:	691b      	ldr	r3, [r3, #16]
 800460a:	00db      	lsls	r3, r3, #3
 800460c:	490e      	ldr	r1, [pc, #56]	; (8004648 <HAL_RCC_ClockConfig+0x1bc>)
 800460e:	4313      	orrs	r3, r2
 8004610:	608b      	str	r3, [r1, #8]
  }

  /* Update the SystemCoreClock global variable */
  SystemCoreClock = HAL_RCC_GetSysClockFreq() >> AHBPrescTable[(RCC->CFGR & RCC_CFGR_HPRE) >> RCC_CFGR_HPRE_Pos];
 8004612:	f000 f821 	bl	8004658 <HAL_RCC_GetSysClockFreq>
 8004616:	4602      	mov	r2, r0
 8004618:	4b0b      	ldr	r3, [pc, #44]	; (8004648 <HAL_RCC_ClockConfig+0x1bc>)
 800461a:	689b      	ldr	r3, [r3, #8]
 800461c:	091b      	lsrs	r3, r3, #4
 800461e:	f003 030f 	and.w	r3, r3, #15
 8004622:	490a      	ldr	r1, [pc, #40]	; (800464c <HAL_RCC_ClockConfig+0x1c0>)
 8004624:	5ccb      	ldrb	r3, [r1, r3]
 8004626:	fa22 f303 	lsr.w	r3, r2, r3
 800462a:	4a09      	ldr	r2, [pc, #36]	; (8004650 <HAL_RCC_ClockConfig+0x1c4>)
 800462c:	6013      	str	r3, [r2, #0]

  /* Configure the source of time base considering new system clocks settings */
  HAL_InitTick(uwTickPrio);
 800462e:	4b09      	ldr	r3, [pc, #36]	; (8004654 <HAL_RCC_ClockConfig+0x1c8>)
 8004630:	681b      	ldr	r3, [r3, #0]
 8004632:	4618      	mov	r0, r3
 8004634:	f7fd fd00 	bl	8002038 <HAL_InitTick>

  return HAL_OK;
 8004638:	2300      	movs	r3, #0
}
 800463a:	4618      	mov	r0, r3
 800463c:	3710      	adds	r7, #16
 800463e:	46bd      	mov	sp, r7
 8004640:	bd80      	pop	{r7, pc}
 8004642:	bf00      	nop
 8004644:	40023c00 	.word	0x40023c00
 8004648:	40023800 	.word	0x40023800
 800464c:	08005840 	.word	0x08005840
 8004650:	20000008 	.word	0x20000008
 8004654:	2000000c 	.word	0x2000000c

08004658 <HAL_RCC_GetSysClockFreq>:
  *
  *
  * @retval SYSCLK frequency
  */
__weak uint32_t HAL_RCC_GetSysClockFreq(void)
{
 8004658:	e92d 4fb0 	stmdb	sp!, {r4, r5, r7, r8, r9, sl, fp, lr}
 800465c:	b090      	sub	sp, #64	; 0x40
 800465e:	af00      	add	r7, sp, #0
  uint32_t pllm = 0U;
 8004660:	2300      	movs	r3, #0
 8004662:	637b      	str	r3, [r7, #52]	; 0x34
  uint32_t pllvco = 0U;
 8004664:	2300      	movs	r3, #0
 8004666:	63fb      	str	r3, [r7, #60]	; 0x3c
  uint32_t pllp = 0U;
 8004668:	2300      	movs	r3, #0
 800466a:	633b      	str	r3, [r7, #48]	; 0x30
  uint32_t sysclockfreq = 0U;
 800466c:	2300      	movs	r3, #0
 800466e:	63bb      	str	r3, [r7, #56]	; 0x38

  /* Get SYSCLK source -------------------------------------------------------*/
  switch (RCC->CFGR & RCC_CFGR_SWS)
 8004670:	4b59      	ldr	r3, [pc, #356]	; (80047d8 <HAL_RCC_GetSysClockFreq+0x180>)
 8004672:	689b      	ldr	r3, [r3, #8]
 8004674:	f003 030c 	and.w	r3, r3, #12
 8004678:	2b08      	cmp	r3, #8
 800467a:	d00d      	beq.n	8004698 <HAL_RCC_GetSysClockFreq+0x40>
 800467c:	2b08      	cmp	r3, #8
 800467e:	f200 80a1 	bhi.w	80047c4 <HAL_RCC_GetSysClockFreq+0x16c>
 8004682:	2b00      	cmp	r3, #0
 8004684:	d002      	beq.n	800468c <HAL_RCC_GetSysClockFreq+0x34>
 8004686:	2b04      	cmp	r3, #4
 8004688:	d003      	beq.n	8004692 <HAL_RCC_GetSysClockFreq+0x3a>
 800468a:	e09b      	b.n	80047c4 <HAL_RCC_GetSysClockFreq+0x16c>
  {
    case RCC_CFGR_SWS_HSI:  /* HSI used as system clock source */
    {
      sysclockfreq = HSI_VALUE;
 800468c:	4b53      	ldr	r3, [pc, #332]	; (80047dc <HAL_RCC_GetSysClockFreq+0x184>)
 800468e:	63bb      	str	r3, [r7, #56]	; 0x38
      break;
 8004690:	e09b      	b.n	80047ca <HAL_RCC_GetSysClockFreq+0x172>
    }
    case RCC_CFGR_SWS_HSE:  /* HSE used as system clock  source */
    {
      sysclockfreq = HSE_VALUE;
 8004692:	4b53      	ldr	r3, [pc, #332]	; (80047e0 <HAL_RCC_GetSysClockFreq+0x188>)
 8004694:	63bb      	str	r3, [r7, #56]	; 0x38
      break;
 8004696:	e098      	b.n	80047ca <HAL_RCC_GetSysClockFreq+0x172>
    }
    case RCC_CFGR_SWS_PLL:  /* PLL used as system clock  source */
    {
      /* PLL_VCO = (HSE_VALUE or HSI_VALUE / PLLM) * PLLN
      SYSCLK = PLL_VCO / PLLP */
      pllm = RCC->PLLCFGR & RCC_PLLCFGR_PLLM;
 8004698:	4b4f      	ldr	r3, [pc, #316]	; (80047d8 <HAL_RCC_GetSysClockFreq+0x180>)
 800469a:	685b      	ldr	r3, [r3, #4]
 800469c:	f003 033f 	and.w	r3, r3, #63	; 0x3f
 80046a0:	637b      	str	r3, [r7, #52]	; 0x34
      if (__HAL_RCC_GET_PLL_OSCSOURCE() != RCC_PLLSOURCE_HSI)
 80046a2:	4b4d      	ldr	r3, [pc, #308]	; (80047d8 <HAL_RCC_GetSysClockFreq+0x180>)
 80046a4:	685b      	ldr	r3, [r3, #4]
 80046a6:	f403 0380 	and.w	r3, r3, #4194304	; 0x400000
 80046aa:	2b00      	cmp	r3, #0
 80046ac:	d028      	beq.n	8004700 <HAL_RCC_GetSysClockFreq+0xa8>
      {
        /* HSE used as PLL clock source */
        pllvco = (uint32_t)((((uint64_t) HSE_VALUE * ((uint64_t)((RCC->PLLCFGR & RCC_PLLCFGR_PLLN) >> RCC_PLLCFGR_PLLN_Pos)))) / (uint64_t)pllm);
 80046ae:	4b4a      	ldr	r3, [pc, #296]	; (80047d8 <HAL_RCC_GetSysClockFreq+0x180>)
 80046b0:	685b      	ldr	r3, [r3, #4]
 80046b2:	099b      	lsrs	r3, r3, #6
 80046b4:	2200      	movs	r2, #0
 80046b6:	623b      	str	r3, [r7, #32]
 80046b8:	627a      	str	r2, [r7, #36]	; 0x24
 80046ba:	6a3b      	ldr	r3, [r7, #32]
 80046bc:	f3c3 0008 	ubfx	r0, r3, #0, #9
 80046c0:	2100      	movs	r1, #0
 80046c2:	4b47      	ldr	r3, [pc, #284]	; (80047e0 <HAL_RCC_GetSysClockFreq+0x188>)
 80046c4:	fb03 f201 	mul.w	r2, r3, r1
 80046c8:	2300      	movs	r3, #0
 80046ca:	fb00 f303 	mul.w	r3, r0, r3
 80046ce:	4413      	add	r3, r2
 80046d0:	4a43      	ldr	r2, [pc, #268]	; (80047e0 <HAL_RCC_GetSysClockFreq+0x188>)
 80046d2:	fba0 1202 	umull	r1, r2, r0, r2
 80046d6:	62fa      	str	r2, [r7, #44]	; 0x2c
 80046d8:	460a      	mov	r2, r1
 80046da:	62ba      	str	r2, [r7, #40]	; 0x28
 80046dc:	6afa      	ldr	r2, [r7, #44]	; 0x2c
 80046de:	4413      	add	r3, r2
 80046e0:	62fb      	str	r3, [r7, #44]	; 0x2c
 80046e2:	6b7b      	ldr	r3, [r7, #52]	; 0x34
 80046e4:	2200      	movs	r2, #0
 80046e6:	61bb      	str	r3, [r7, #24]
 80046e8:	61fa      	str	r2, [r7, #28]
 80046ea:	e9d7 2306 	ldrd	r2, r3, [r7, #24]
 80046ee:	e9d7 010a 	ldrd	r0, r1, [r7, #40]	; 0x28
 80046f2:	f7fc f987 	bl	8000a04 <__aeabi_uldivmod>
 80046f6:	4602      	mov	r2, r0
 80046f8:	460b      	mov	r3, r1
 80046fa:	4613      	mov	r3, r2
 80046fc:	63fb      	str	r3, [r7, #60]	; 0x3c
 80046fe:	e053      	b.n	80047a8 <HAL_RCC_GetSysClockFreq+0x150>
      }
      else
      {
        /* HSI used as PLL clock source */
        pllvco = (uint32_t)((((uint64_t) HSI_VALUE * ((uint64_t)((RCC->PLLCFGR & RCC_PLLCFGR_PLLN) >> RCC_PLLCFGR_PLLN_Pos)))) / (uint64_t)pllm);
 8004700:	4b35      	ldr	r3, [pc, #212]	; (80047d8 <HAL_RCC_GetSysClockFreq+0x180>)
 8004702:	685b      	ldr	r3, [r3, #4]
 8004704:	099b      	lsrs	r3, r3, #6
 8004706:	2200      	movs	r2, #0
 8004708:	613b      	str	r3, [r7, #16]
 800470a:	617a      	str	r2, [r7, #20]
 800470c:	693b      	ldr	r3, [r7, #16]
 800470e:	f3c3 0a08 	ubfx	sl, r3, #0, #9
 8004712:	f04f 0b00 	mov.w	fp, #0
 8004716:	4652      	mov	r2, sl
 8004718:	465b      	mov	r3, fp
 800471a:	f04f 0000 	mov.w	r0, #0
 800471e:	f04f 0100 	mov.w	r1, #0
 8004722:	0159      	lsls	r1, r3, #5
 8004724:	ea41 61d2 	orr.w	r1, r1, r2, lsr #27
 8004728:	0150      	lsls	r0, r2, #5
 800472a:	4602      	mov	r2, r0
 800472c:	460b      	mov	r3, r1
 800472e:	ebb2 080a 	subs.w	r8, r2, sl
 8004732:	eb63 090b 	sbc.w	r9, r3, fp
 8004736:	f04f 0200 	mov.w	r2, #0
 800473a:	f04f 0300 	mov.w	r3, #0
 800473e:	ea4f 1389 	mov.w	r3, r9, lsl #6
 8004742:	ea43 6398 	orr.w	r3, r3, r8, lsr #26
 8004746:	ea4f 1288 	mov.w	r2, r8, lsl #6
 800474a:	ebb2 0408 	subs.w	r4, r2, r8
 800474e:	eb63 0509 	sbc.w	r5, r3, r9
 8004752:	f04f 0200 	mov.w	r2, #0
 8004756:	f04f 0300 	mov.w	r3, #0
 800475a:	00eb      	lsls	r3, r5, #3
 800475c:	ea43 7354 	orr.w	r3, r3, r4, lsr #29
 8004760:	00e2      	lsls	r2, r4, #3
 8004762:	4614      	mov	r4, r2
 8004764:	461d      	mov	r5, r3
 8004766:	eb14 030a 	adds.w	r3, r4, sl
 800476a:	603b      	str	r3, [r7, #0]
 800476c:	eb45 030b 	adc.w	r3, r5, fp
 8004770:	607b      	str	r3, [r7, #4]
 8004772:	f04f 0200 	mov.w	r2, #0
 8004776:	f04f 0300 	mov.w	r3, #0
 800477a:	e9d7 4500 	ldrd	r4, r5, [r7]
 800477e:	4629      	mov	r1, r5
 8004780:	028b      	lsls	r3, r1, #10
 8004782:	4621      	mov	r1, r4
 8004784:	ea43 5391 	orr.w	r3, r3, r1, lsr #22
 8004788:	4621      	mov	r1, r4
 800478a:	028a      	lsls	r2, r1, #10
 800478c:	4610      	mov	r0, r2
 800478e:	4619      	mov	r1, r3
 8004790:	6b7b      	ldr	r3, [r7, #52]	; 0x34
 8004792:	2200      	movs	r2, #0
 8004794:	60bb      	str	r3, [r7, #8]
 8004796:	60fa      	str	r2, [r7, #12]
 8004798:	e9d7 2302 	ldrd	r2, r3, [r7, #8]
 800479c:	f7fc f932 	bl	8000a04 <__aeabi_uldivmod>
 80047a0:	4602      	mov	r2, r0
 80047a2:	460b      	mov	r3, r1
 80047a4:	4613      	mov	r3, r2
 80047a6:	63fb      	str	r3, [r7, #60]	; 0x3c
      }
      pllp = ((((RCC->PLLCFGR & RCC_PLLCFGR_PLLP) >> RCC_PLLCFGR_PLLP_Pos) + 1U) * 2U);
 80047a8:	4b0b      	ldr	r3, [pc, #44]	; (80047d8 <HAL_RCC_GetSysClockFreq+0x180>)
 80047aa:	685b      	ldr	r3, [r3, #4]
 80047ac:	0c1b      	lsrs	r3, r3, #16
 80047ae:	f003 0303 	and.w	r3, r3, #3
 80047b2:	3301      	adds	r3, #1
 80047b4:	005b      	lsls	r3, r3, #1
 80047b6:	633b      	str	r3, [r7, #48]	; 0x30

      sysclockfreq = pllvco / pllp;
 80047b8:	6bfa      	ldr	r2, [r7, #60]	; 0x3c
 80047ba:	6b3b      	ldr	r3, [r7, #48]	; 0x30
 80047bc:	fbb2 f3f3 	udiv	r3, r2, r3
 80047c0:	63bb      	str	r3, [r7, #56]	; 0x38
      break;
 80047c2:	e002      	b.n	80047ca <HAL_RCC_GetSysClockFreq+0x172>
    }
    default:
    {
      sysclockfreq = HSI_VALUE;
 80047c4:	4b05      	ldr	r3, [pc, #20]	; (80047dc <HAL_RCC_GetSysClockFreq+0x184>)
 80047c6:	63bb      	str	r3, [r7, #56]	; 0x38
      break;
 80047c8:	bf00      	nop
    }
  }
  return sysclockfreq;
 80047ca:	6bbb      	ldr	r3, [r7, #56]	; 0x38
}
 80047cc:	4618      	mov	r0, r3
 80047ce:	3740      	adds	r7, #64	; 0x40
 80047d0:	46bd      	mov	sp, r7
 80047d2:	e8bd 8fb0 	ldmia.w	sp!, {r4, r5, r7, r8, r9, sl, fp, pc}
 80047d6:	bf00      	nop
 80047d8:	40023800 	.word	0x40023800
 80047dc:	00f42400 	.word	0x00f42400
 80047e0:	017d7840 	.word	0x017d7840

080047e4 <HAL_RCC_GetHCLKFreq>:
  * @note   The SystemCoreClock CMSIS variable is used to store System Clock Frequency
  *         and updated within this function
  * @retval HCLK frequency
  */
uint32_t HAL_RCC_GetHCLKFreq(void)
{
 80047e4:	b480      	push	{r7}
 80047e6:	af00      	add	r7, sp, #0
  return SystemCoreClock;
 80047e8:	4b03      	ldr	r3, [pc, #12]	; (80047f8 <HAL_RCC_GetHCLKFreq+0x14>)
 80047ea:	681b      	ldr	r3, [r3, #0]
}
 80047ec:	4618      	mov	r0, r3
 80047ee:	46bd      	mov	sp, r7
 80047f0:	f85d 7b04 	ldr.w	r7, [sp], #4
 80047f4:	4770      	bx	lr
 80047f6:	bf00      	nop
 80047f8:	20000008 	.word	0x20000008

080047fc <HAL_RCC_GetPCLK1Freq>:
  * @note   Each time PCLK1 changes, this function must be called to update the
  *         right PCLK1 value. Otherwise, any configuration based on this function will be incorrect.
  * @retval PCLK1 frequency
  */
uint32_t HAL_RCC_GetPCLK1Freq(void)
{
 80047fc:	b580      	push	{r7, lr}
 80047fe:	af00      	add	r7, sp, #0
  /* Get HCLK source and Compute PCLK1 frequency ---------------------------*/
  return (HAL_RCC_GetHCLKFreq() >> APBPrescTable[(RCC->CFGR & RCC_CFGR_PPRE1) >> RCC_CFGR_PPRE1_Pos]);
 8004800:	f7ff fff0 	bl	80047e4 <HAL_RCC_GetHCLKFreq>
 8004804:	4602      	mov	r2, r0
 8004806:	4b05      	ldr	r3, [pc, #20]	; (800481c <HAL_RCC_GetPCLK1Freq+0x20>)
 8004808:	689b      	ldr	r3, [r3, #8]
 800480a:	0a9b      	lsrs	r3, r3, #10
 800480c:	f003 0307 	and.w	r3, r3, #7
 8004810:	4903      	ldr	r1, [pc, #12]	; (8004820 <HAL_RCC_GetPCLK1Freq+0x24>)
 8004812:	5ccb      	ldrb	r3, [r1, r3]
 8004814:	fa22 f303 	lsr.w	r3, r2, r3
}
 8004818:	4618      	mov	r0, r3
 800481a:	bd80      	pop	{r7, pc}
 800481c:	40023800 	.word	0x40023800
 8004820:	08005850 	.word	0x08005850

08004824 <HAL_TIM_Base_Init>:
  *         Ex: call @ref HAL_TIM_Base_DeInit() before HAL_TIM_Base_Init()
  * @param  htim TIM Base handle
  * @retval HAL status
  */
HAL_StatusTypeDef HAL_TIM_Base_Init(TIM_HandleTypeDef *htim)
{
 8004824:	b580      	push	{r7, lr}
 8004826:	b082      	sub	sp, #8
 8004828:	af00      	add	r7, sp, #0
 800482a:	6078      	str	r0, [r7, #4]
  /* Check the TIM handle allocation */
  if (htim == NULL)
 800482c:	687b      	ldr	r3, [r7, #4]
 800482e:	2b00      	cmp	r3, #0
 8004830:	d101      	bne.n	8004836 <HAL_TIM_Base_Init+0x12>
  {
    return HAL_ERROR;
 8004832:	2301      	movs	r3, #1
 8004834:	e041      	b.n	80048ba <HAL_TIM_Base_Init+0x96>
  assert_param(IS_TIM_COUNTER_MODE(htim->Init.CounterMode));
  assert_param(IS_TIM_CLOCKDIVISION_DIV(htim->Init.ClockDivision));
  assert_param(IS_TIM_PERIOD(htim, htim->Init.Period));
  assert_param(IS_TIM_AUTORELOAD_PRELOAD(htim->Init.AutoReloadPreload));

  if (htim->State == HAL_TIM_STATE_RESET)
 8004836:	687b      	ldr	r3, [r7, #4]
 8004838:	f893 303d 	ldrb.w	r3, [r3, #61]	; 0x3d
 800483c:	b2db      	uxtb	r3, r3
 800483e:	2b00      	cmp	r3, #0
 8004840:	d106      	bne.n	8004850 <HAL_TIM_Base_Init+0x2c>
  {
    /* Allocate lock resource and initialize it */
    htim->Lock = HAL_UNLOCKED;
 8004842:	687b      	ldr	r3, [r7, #4]
 8004844:	2200      	movs	r2, #0
 8004846:	f883 203c 	strb.w	r2, [r3, #60]	; 0x3c
    }
    /* Init the low level hardware : GPIO, CLOCK, NVIC */
    htim->Base_MspInitCallback(htim);
#else
    /* Init the low level hardware : GPIO, CLOCK, NVIC */
    HAL_TIM_Base_MspInit(htim);
 800484a:	6878      	ldr	r0, [r7, #4]
 800484c:	f7fd faf2 	bl	8001e34 <HAL_TIM_Base_MspInit>
#endif /* USE_HAL_TIM_REGISTER_CALLBACKS */
  }

  /* Set the TIM state */
  htim->State = HAL_TIM_STATE_BUSY;
 8004850:	687b      	ldr	r3, [r7, #4]
 8004852:	2202      	movs	r2, #2
 8004854:	f883 203d 	strb.w	r2, [r3, #61]	; 0x3d

  /* Set the Time Base configuration */
  TIM_Base_SetConfig(htim->Instance, &htim->Init);
 8004858:	687b      	ldr	r3, [r7, #4]
 800485a:	681a      	ldr	r2, [r3, #0]
 800485c:	687b      	ldr	r3, [r7, #4]
 800485e:	3304      	adds	r3, #4
 8004860:	4619      	mov	r1, r3
 8004862:	4610      	mov	r0, r2
 8004864:	f000 fbfa 	bl	800505c <TIM_Base_SetConfig>

  /* Initialize the DMA burst operation state */
  htim->DMABurstState = HAL_DMA_BURST_STATE_READY;
 8004868:	687b      	ldr	r3, [r7, #4]
 800486a:	2201      	movs	r2, #1
 800486c:	f883 2046 	strb.w	r2, [r3, #70]	; 0x46

  /* Initialize the TIM channels state */
  TIM_CHANNEL_STATE_SET_ALL(htim, HAL_TIM_CHANNEL_STATE_READY);
 8004870:	687b      	ldr	r3, [r7, #4]
 8004872:	2201      	movs	r2, #1
 8004874:	f883 203e 	strb.w	r2, [r3, #62]	; 0x3e
 8004878:	687b      	ldr	r3, [r7, #4]
 800487a:	2201      	movs	r2, #1
 800487c:	f883 203f 	strb.w	r2, [r3, #63]	; 0x3f
 8004880:	687b      	ldr	r3, [r7, #4]
 8004882:	2201      	movs	r2, #1
 8004884:	f883 2040 	strb.w	r2, [r3, #64]	; 0x40
 8004888:	687b      	ldr	r3, [r7, #4]
 800488a:	2201      	movs	r2, #1
 800488c:	f883 2041 	strb.w	r2, [r3, #65]	; 0x41
  TIM_CHANNEL_N_STATE_SET_ALL(htim, HAL_TIM_CHANNEL_STATE_READY);
 8004890:	687b      	ldr	r3, [r7, #4]
 8004892:	2201      	movs	r2, #1
 8004894:	f883 2042 	strb.w	r2, [r3, #66]	; 0x42
 8004898:	687b      	ldr	r3, [r7, #4]
 800489a:	2201      	movs	r2, #1
 800489c:	f883 2043 	strb.w	r2, [r3, #67]	; 0x43
 80048a0:	687b      	ldr	r3, [r7, #4]
 80048a2:	2201      	movs	r2, #1
 80048a4:	f883 2044 	strb.w	r2, [r3, #68]	; 0x44
 80048a8:	687b      	ldr	r3, [r7, #4]
 80048aa:	2201      	movs	r2, #1
 80048ac:	f883 2045 	strb.w	r2, [r3, #69]	; 0x45

  /* Initialize the TIM state*/
  htim->State = HAL_TIM_STATE_READY;
 80048b0:	687b      	ldr	r3, [r7, #4]
 80048b2:	2201      	movs	r2, #1
 80048b4:	f883 203d 	strb.w	r2, [r3, #61]	; 0x3d

  return HAL_OK;
 80048b8:	2300      	movs	r3, #0
}
 80048ba:	4618      	mov	r0, r3
 80048bc:	3708      	adds	r7, #8
 80048be:	46bd      	mov	sp, r7
 80048c0:	bd80      	pop	{r7, pc}

080048c2 <HAL_TIM_PWM_Init>:
  *         Ex: call @ref HAL_TIM_PWM_DeInit() before HAL_TIM_PWM_Init()
  * @param  htim TIM PWM handle
  * @retval HAL status
  */
HAL_StatusTypeDef HAL_TIM_PWM_Init(TIM_HandleTypeDef *htim)
{
 80048c2:	b580      	push	{r7, lr}
 80048c4:	b082      	sub	sp, #8
 80048c6:	af00      	add	r7, sp, #0
 80048c8:	6078      	str	r0, [r7, #4]
  /* Check the TIM handle allocation */
  if (htim == NULL)
 80048ca:	687b      	ldr	r3, [r7, #4]
 80048cc:	2b00      	cmp	r3, #0
 80048ce:	d101      	bne.n	80048d4 <HAL_TIM_PWM_Init+0x12>
  {
    return HAL_ERROR;
 80048d0:	2301      	movs	r3, #1
 80048d2:	e041      	b.n	8004958 <HAL_TIM_PWM_Init+0x96>
  assert_param(IS_TIM_COUNTER_MODE(htim->Init.CounterMode));
  assert_param(IS_TIM_CLOCKDIVISION_DIV(htim->Init.ClockDivision));
  assert_param(IS_TIM_PERIOD(htim, htim->Init.Period));
  assert_param(IS_TIM_AUTORELOAD_PRELOAD(htim->Init.AutoReloadPreload));

  if (htim->State == HAL_TIM_STATE_RESET)
 80048d4:	687b      	ldr	r3, [r7, #4]
 80048d6:	f893 303d 	ldrb.w	r3, [r3, #61]	; 0x3d
 80048da:	b2db      	uxtb	r3, r3
 80048dc:	2b00      	cmp	r3, #0
 80048de:	d106      	bne.n	80048ee <HAL_TIM_PWM_Init+0x2c>
  {
    /* Allocate lock resource and initialize it */
    htim->Lock = HAL_UNLOCKED;
 80048e0:	687b      	ldr	r3, [r7, #4]
 80048e2:	2200      	movs	r2, #0
 80048e4:	f883 203c 	strb.w	r2, [r3, #60]	; 0x3c
    }
    /* Init the low level hardware : GPIO, CLOCK, NVIC */
    htim->PWM_MspInitCallback(htim);
#else
    /* Init the low level hardware : GPIO, CLOCK, NVIC and DMA */
    HAL_TIM_PWM_MspInit(htim);
 80048e8:	6878      	ldr	r0, [r7, #4]
 80048ea:	f000 f839 	bl	8004960 <HAL_TIM_PWM_MspInit>
#endif /* USE_HAL_TIM_REGISTER_CALLBACKS */
  }

  /* Set the TIM state */
  htim->State = HAL_TIM_STATE_BUSY;
 80048ee:	687b      	ldr	r3, [r7, #4]
 80048f0:	2202      	movs	r2, #2
 80048f2:	f883 203d 	strb.w	r2, [r3, #61]	; 0x3d

  /* Init the base time for the PWM */
  TIM_Base_SetConfig(htim->Instance, &htim->Init);
 80048f6:	687b      	ldr	r3, [r7, #4]
 80048f8:	681a      	ldr	r2, [r3, #0]
 80048fa:	687b      	ldr	r3, [r7, #4]
 80048fc:	3304      	adds	r3, #4
 80048fe:	4619      	mov	r1, r3
 8004900:	4610      	mov	r0, r2
 8004902:	f000 fbab 	bl	800505c <TIM_Base_SetConfig>

  /* Initialize the DMA burst operation state */
  htim->DMABurstState = HAL_DMA_BURST_STATE_READY;
 8004906:	687b      	ldr	r3, [r7, #4]
 8004908:	2201      	movs	r2, #1
 800490a:	f883 2046 	strb.w	r2, [r3, #70]	; 0x46

  /* Initialize the TIM channels state */
  TIM_CHANNEL_STATE_SET_ALL(htim, HAL_TIM_CHANNEL_STATE_READY);
 800490e:	687b      	ldr	r3, [r7, #4]
 8004910:	2201      	movs	r2, #1
 8004912:	f883 203e 	strb.w	r2, [r3, #62]	; 0x3e
 8004916:	687b      	ldr	r3, [r7, #4]
 8004918:	2201      	movs	r2, #1
 800491a:	f883 203f 	strb.w	r2, [r3, #63]	; 0x3f
 800491e:	687b      	ldr	r3, [r7, #4]
 8004920:	2201      	movs	r2, #1
 8004922:	f883 2040 	strb.w	r2, [r3, #64]	; 0x40
 8004926:	687b      	ldr	r3, [r7, #4]
 8004928:	2201      	movs	r2, #1
 800492a:	f883 2041 	strb.w	r2, [r3, #65]	; 0x41
  TIM_CHANNEL_N_STATE_SET_ALL(htim, HAL_TIM_CHANNEL_STATE_READY);
 800492e:	687b      	ldr	r3, [r7, #4]
 8004930:	2201      	movs	r2, #1
 8004932:	f883 2042 	strb.w	r2, [r3, #66]	; 0x42
 8004936:	687b      	ldr	r3, [r7, #4]
 8004938:	2201      	movs	r2, #1
 800493a:	f883 2043 	strb.w	r2, [r3, #67]	; 0x43
 800493e:	687b      	ldr	r3, [r7, #4]
 8004940:	2201      	movs	r2, #1
 8004942:	f883 2044 	strb.w	r2, [r3, #68]	; 0x44
 8004946:	687b      	ldr	r3, [r7, #4]
 8004948:	2201      	movs	r2, #1
 800494a:	f883 2045 	strb.w	r2, [r3, #69]	; 0x45

  /* Initialize the TIM state*/
  htim->State = HAL_TIM_STATE_READY;
 800494e:	687b      	ldr	r3, [r7, #4]
 8004950:	2201      	movs	r2, #1
 8004952:	f883 203d 	strb.w	r2, [r3, #61]	; 0x3d

  return HAL_OK;
 8004956:	2300      	movs	r3, #0
}
 8004958:	4618      	mov	r0, r3
 800495a:	3708      	adds	r7, #8
 800495c:	46bd      	mov	sp, r7
 800495e:	bd80      	pop	{r7, pc}

08004960 <HAL_TIM_PWM_MspInit>:
  * @brief  Initializes the TIM PWM MSP.
  * @param  htim TIM PWM handle
  * @retval None
  */
__weak void HAL_TIM_PWM_MspInit(TIM_HandleTypeDef *htim)
{
 8004960:	b480      	push	{r7}
 8004962:	b083      	sub	sp, #12
 8004964:	af00      	add	r7, sp, #0
 8004966:	6078      	str	r0, [r7, #4]
  UNUSED(htim);

  /* NOTE : This function should not be modified, when the callback is needed,
            the HAL_TIM_PWM_MspInit could be implemented in the user file
   */
}
 8004968:	bf00      	nop
 800496a:	370c      	adds	r7, #12
 800496c:	46bd      	mov	sp, r7
 800496e:	f85d 7b04 	ldr.w	r7, [sp], #4
 8004972:	4770      	bx	lr

08004974 <HAL_TIM_PWM_Start>:
  *            @arg TIM_CHANNEL_3: TIM Channel 3 selected
  *            @arg TIM_CHANNEL_4: TIM Channel 4 selected
  * @retval HAL status
  */
HAL_StatusTypeDef HAL_TIM_PWM_Start(TIM_HandleTypeDef *htim, uint32_t Channel)
{
 8004974:	b580      	push	{r7, lr}
 8004976:	b084      	sub	sp, #16
 8004978:	af00      	add	r7, sp, #0
 800497a:	6078      	str	r0, [r7, #4]
 800497c:	6039      	str	r1, [r7, #0]

  /* Check the parameters */
  assert_param(IS_TIM_CCX_INSTANCE(htim->Instance, Channel));

  /* Check the TIM channel state */
  if (TIM_CHANNEL_STATE_GET(htim, Channel) != HAL_TIM_CHANNEL_STATE_READY)
 800497e:	683b      	ldr	r3, [r7, #0]
 8004980:	2b00      	cmp	r3, #0
 8004982:	d109      	bne.n	8004998 <HAL_TIM_PWM_Start+0x24>
 8004984:	687b      	ldr	r3, [r7, #4]
 8004986:	f893 303e 	ldrb.w	r3, [r3, #62]	; 0x3e
 800498a:	b2db      	uxtb	r3, r3
 800498c:	2b01      	cmp	r3, #1
 800498e:	bf14      	ite	ne
 8004990:	2301      	movne	r3, #1
 8004992:	2300      	moveq	r3, #0
 8004994:	b2db      	uxtb	r3, r3
 8004996:	e022      	b.n	80049de <HAL_TIM_PWM_Start+0x6a>
 8004998:	683b      	ldr	r3, [r7, #0]
 800499a:	2b04      	cmp	r3, #4
 800499c:	d109      	bne.n	80049b2 <HAL_TIM_PWM_Start+0x3e>
 800499e:	687b      	ldr	r3, [r7, #4]
 80049a0:	f893 303f 	ldrb.w	r3, [r3, #63]	; 0x3f
 80049a4:	b2db      	uxtb	r3, r3
 80049a6:	2b01      	cmp	r3, #1
 80049a8:	bf14      	ite	ne
 80049aa:	2301      	movne	r3, #1
 80049ac:	2300      	moveq	r3, #0
 80049ae:	b2db      	uxtb	r3, r3
 80049b0:	e015      	b.n	80049de <HAL_TIM_PWM_Start+0x6a>
 80049b2:	683b      	ldr	r3, [r7, #0]
 80049b4:	2b08      	cmp	r3, #8
 80049b6:	d109      	bne.n	80049cc <HAL_TIM_PWM_Start+0x58>
 80049b8:	687b      	ldr	r3, [r7, #4]
 80049ba:	f893 3040 	ldrb.w	r3, [r3, #64]	; 0x40
 80049be:	b2db      	uxtb	r3, r3
 80049c0:	2b01      	cmp	r3, #1
 80049c2:	bf14      	ite	ne
 80049c4:	2301      	movne	r3, #1
 80049c6:	2300      	moveq	r3, #0
 80049c8:	b2db      	uxtb	r3, r3
 80049ca:	e008      	b.n	80049de <HAL_TIM_PWM_Start+0x6a>
 80049cc:	687b      	ldr	r3, [r7, #4]
 80049ce:	f893 3041 	ldrb.w	r3, [r3, #65]	; 0x41
 80049d2:	b2db      	uxtb	r3, r3
 80049d4:	2b01      	cmp	r3, #1
 80049d6:	bf14      	ite	ne
 80049d8:	2301      	movne	r3, #1
 80049da:	2300      	moveq	r3, #0
 80049dc:	b2db      	uxtb	r3, r3
 80049de:	2b00      	cmp	r3, #0
 80049e0:	d001      	beq.n	80049e6 <HAL_TIM_PWM_Start+0x72>
  {
    return HAL_ERROR;
 80049e2:	2301      	movs	r3, #1
 80049e4:	e07c      	b.n	8004ae0 <HAL_TIM_PWM_Start+0x16c>
  }

  /* Set the TIM channel state */
  TIM_CHANNEL_STATE_SET(htim, Channel, HAL_TIM_CHANNEL_STATE_BUSY);
 80049e6:	683b      	ldr	r3, [r7, #0]
 80049e8:	2b00      	cmp	r3, #0
 80049ea:	d104      	bne.n	80049f6 <HAL_TIM_PWM_Start+0x82>
 80049ec:	687b      	ldr	r3, [r7, #4]
 80049ee:	2202      	movs	r2, #2
 80049f0:	f883 203e 	strb.w	r2, [r3, #62]	; 0x3e
 80049f4:	e013      	b.n	8004a1e <HAL_TIM_PWM_Start+0xaa>
 80049f6:	683b      	ldr	r3, [r7, #0]
 80049f8:	2b04      	cmp	r3, #4
 80049fa:	d104      	bne.n	8004a06 <HAL_TIM_PWM_Start+0x92>
 80049fc:	687b      	ldr	r3, [r7, #4]
 80049fe:	2202      	movs	r2, #2
 8004a00:	f883 203f 	strb.w	r2, [r3, #63]	; 0x3f
 8004a04:	e00b      	b.n	8004a1e <HAL_TIM_PWM_Start+0xaa>
 8004a06:	683b      	ldr	r3, [r7, #0]
 8004a08:	2b08      	cmp	r3, #8
 8004a0a:	d104      	bne.n	8004a16 <HAL_TIM_PWM_Start+0xa2>
 8004a0c:	687b      	ldr	r3, [r7, #4]
 8004a0e:	2202      	movs	r2, #2
 8004a10:	f883 2040 	strb.w	r2, [r3, #64]	; 0x40
 8004a14:	e003      	b.n	8004a1e <HAL_TIM_PWM_Start+0xaa>
 8004a16:	687b      	ldr	r3, [r7, #4]
 8004a18:	2202      	movs	r2, #2
 8004a1a:	f883 2041 	strb.w	r2, [r3, #65]	; 0x41

  /* Enable the Capture compare channel */
  TIM_CCxChannelCmd(htim->Instance, Channel, TIM_CCx_ENABLE);
 8004a1e:	687b      	ldr	r3, [r7, #4]
 8004a20:	681b      	ldr	r3, [r3, #0]
 8004a22:	2201      	movs	r2, #1
 8004a24:	6839      	ldr	r1, [r7, #0]
 8004a26:	4618      	mov	r0, r3
 8004a28:	f000 fe0e 	bl	8005648 <TIM_CCxChannelCmd>

  if (IS_TIM_BREAK_INSTANCE(htim->Instance) != RESET)
 8004a2c:	687b      	ldr	r3, [r7, #4]
 8004a2e:	681b      	ldr	r3, [r3, #0]
 8004a30:	4a2d      	ldr	r2, [pc, #180]	; (8004ae8 <HAL_TIM_PWM_Start+0x174>)
 8004a32:	4293      	cmp	r3, r2
 8004a34:	d004      	beq.n	8004a40 <HAL_TIM_PWM_Start+0xcc>
 8004a36:	687b      	ldr	r3, [r7, #4]
 8004a38:	681b      	ldr	r3, [r3, #0]
 8004a3a:	4a2c      	ldr	r2, [pc, #176]	; (8004aec <HAL_TIM_PWM_Start+0x178>)
 8004a3c:	4293      	cmp	r3, r2
 8004a3e:	d101      	bne.n	8004a44 <HAL_TIM_PWM_Start+0xd0>
 8004a40:	2301      	movs	r3, #1
 8004a42:	e000      	b.n	8004a46 <HAL_TIM_PWM_Start+0xd2>
 8004a44:	2300      	movs	r3, #0
 8004a46:	2b00      	cmp	r3, #0
 8004a48:	d007      	beq.n	8004a5a <HAL_TIM_PWM_Start+0xe6>
  {
    /* Enable the main output */
    __HAL_TIM_MOE_ENABLE(htim);
 8004a4a:	687b      	ldr	r3, [r7, #4]
 8004a4c:	681b      	ldr	r3, [r3, #0]
 8004a4e:	6c5a      	ldr	r2, [r3, #68]	; 0x44
 8004a50:	687b      	ldr	r3, [r7, #4]
 8004a52:	681b      	ldr	r3, [r3, #0]
 8004a54:	f442 4200 	orr.w	r2, r2, #32768	; 0x8000
 8004a58:	645a      	str	r2, [r3, #68]	; 0x44
  }

  /* Enable the Peripheral, except in trigger mode where enable is automatically done with trigger */
  if (IS_TIM_SLAVE_INSTANCE(htim->Instance))
 8004a5a:	687b      	ldr	r3, [r7, #4]
 8004a5c:	681b      	ldr	r3, [r3, #0]
 8004a5e:	4a22      	ldr	r2, [pc, #136]	; (8004ae8 <HAL_TIM_PWM_Start+0x174>)
 8004a60:	4293      	cmp	r3, r2
 8004a62:	d022      	beq.n	8004aaa <HAL_TIM_PWM_Start+0x136>
 8004a64:	687b      	ldr	r3, [r7, #4]
 8004a66:	681b      	ldr	r3, [r3, #0]
 8004a68:	f1b3 4f80 	cmp.w	r3, #1073741824	; 0x40000000
 8004a6c:	d01d      	beq.n	8004aaa <HAL_TIM_PWM_Start+0x136>
 8004a6e:	687b      	ldr	r3, [r7, #4]
 8004a70:	681b      	ldr	r3, [r3, #0]
 8004a72:	4a1f      	ldr	r2, [pc, #124]	; (8004af0 <HAL_TIM_PWM_Start+0x17c>)
 8004a74:	4293      	cmp	r3, r2
 8004a76:	d018      	beq.n	8004aaa <HAL_TIM_PWM_Start+0x136>
 8004a78:	687b      	ldr	r3, [r7, #4]
 8004a7a:	681b      	ldr	r3, [r3, #0]
 8004a7c:	4a1d      	ldr	r2, [pc, #116]	; (8004af4 <HAL_TIM_PWM_Start+0x180>)
 8004a7e:	4293      	cmp	r3, r2
 8004a80:	d013      	beq.n	8004aaa <HAL_TIM_PWM_Start+0x136>
 8004a82:	687b      	ldr	r3, [r7, #4]
 8004a84:	681b      	ldr	r3, [r3, #0]
 8004a86:	4a1c      	ldr	r2, [pc, #112]	; (8004af8 <HAL_TIM_PWM_Start+0x184>)
 8004a88:	4293      	cmp	r3, r2
 8004a8a:	d00e      	beq.n	8004aaa <HAL_TIM_PWM_Start+0x136>
 8004a8c:	687b      	ldr	r3, [r7, #4]
 8004a8e:	681b      	ldr	r3, [r3, #0]
 8004a90:	4a16      	ldr	r2, [pc, #88]	; (8004aec <HAL_TIM_PWM_Start+0x178>)
 8004a92:	4293      	cmp	r3, r2
 8004a94:	d009      	beq.n	8004aaa <HAL_TIM_PWM_Start+0x136>
 8004a96:	687b      	ldr	r3, [r7, #4]
 8004a98:	681b      	ldr	r3, [r3, #0]
 8004a9a:	4a18      	ldr	r2, [pc, #96]	; (8004afc <HAL_TIM_PWM_Start+0x188>)
 8004a9c:	4293      	cmp	r3, r2
 8004a9e:	d004      	beq.n	8004aaa <HAL_TIM_PWM_Start+0x136>
 8004aa0:	687b      	ldr	r3, [r7, #4]
 8004aa2:	681b      	ldr	r3, [r3, #0]
 8004aa4:	4a16      	ldr	r2, [pc, #88]	; (8004b00 <HAL_TIM_PWM_Start+0x18c>)
 8004aa6:	4293      	cmp	r3, r2
 8004aa8:	d111      	bne.n	8004ace <HAL_TIM_PWM_Start+0x15a>
  {
    tmpsmcr = htim->Instance->SMCR & TIM_SMCR_SMS;
 8004aaa:	687b      	ldr	r3, [r7, #4]
 8004aac:	681b      	ldr	r3, [r3, #0]
 8004aae:	689b      	ldr	r3, [r3, #8]
 8004ab0:	f003 0307 	and.w	r3, r3, #7
 8004ab4:	60fb      	str	r3, [r7, #12]
    if (!IS_TIM_SLAVEMODE_TRIGGER_ENABLED(tmpsmcr))
 8004ab6:	68fb      	ldr	r3, [r7, #12]
 8004ab8:	2b06      	cmp	r3, #6
 8004aba:	d010      	beq.n	8004ade <HAL_TIM_PWM_Start+0x16a>
    {
      __HAL_TIM_ENABLE(htim);
 8004abc:	687b      	ldr	r3, [r7, #4]
 8004abe:	681b      	ldr	r3, [r3, #0]
 8004ac0:	681a      	ldr	r2, [r3, #0]
 8004ac2:	687b      	ldr	r3, [r7, #4]
 8004ac4:	681b      	ldr	r3, [r3, #0]
 8004ac6:	f042 0201 	orr.w	r2, r2, #1
 8004aca:	601a      	str	r2, [r3, #0]
    if (!IS_TIM_SLAVEMODE_TRIGGER_ENABLED(tmpsmcr))
 8004acc:	e007      	b.n	8004ade <HAL_TIM_PWM_Start+0x16a>
    }
  }
  else
  {
    __HAL_TIM_ENABLE(htim);
 8004ace:	687b      	ldr	r3, [r7, #4]
 8004ad0:	681b      	ldr	r3, [r3, #0]
 8004ad2:	681a      	ldr	r2, [r3, #0]
 8004ad4:	687b      	ldr	r3, [r7, #4]
 8004ad6:	681b      	ldr	r3, [r3, #0]
 8004ad8:	f042 0201 	orr.w	r2, r2, #1
 8004adc:	601a      	str	r2, [r3, #0]
  }

  /* Return function status */
  return HAL_OK;
 8004ade:	2300      	movs	r3, #0
}
 8004ae0:	4618      	mov	r0, r3
 8004ae2:	3710      	adds	r7, #16
 8004ae4:	46bd      	mov	sp, r7
 8004ae6:	bd80      	pop	{r7, pc}
 8004ae8:	40010000 	.word	0x40010000
 8004aec:	40010400 	.word	0x40010400
 8004af0:	40000400 	.word	0x40000400
 8004af4:	40000800 	.word	0x40000800
 8004af8:	40000c00 	.word	0x40000c00
 8004afc:	40014000 	.word	0x40014000
 8004b00:	40001800 	.word	0x40001800

08004b04 <HAL_TIM_IRQHandler>:
  * @brief  This function handles TIM interrupts requests.
  * @param  htim TIM  handle
  * @retval None
  */
void HAL_TIM_IRQHandler(TIM_HandleTypeDef *htim)
{
 8004b04:	b580      	push	{r7, lr}
 8004b06:	b084      	sub	sp, #16
 8004b08:	af00      	add	r7, sp, #0
 8004b0a:	6078      	str	r0, [r7, #4]
  uint32_t itsource = htim->Instance->DIER;
 8004b0c:	687b      	ldr	r3, [r7, #4]
 8004b0e:	681b      	ldr	r3, [r3, #0]
 8004b10:	68db      	ldr	r3, [r3, #12]
 8004b12:	60fb      	str	r3, [r7, #12]
  uint32_t itflag   = htim->Instance->SR;
 8004b14:	687b      	ldr	r3, [r7, #4]
 8004b16:	681b      	ldr	r3, [r3, #0]
 8004b18:	691b      	ldr	r3, [r3, #16]
 8004b1a:	60bb      	str	r3, [r7, #8]

  /* Capture compare 1 event */
  if ((itflag & (TIM_FLAG_CC1)) == (TIM_FLAG_CC1))
 8004b1c:	68bb      	ldr	r3, [r7, #8]
 8004b1e:	f003 0302 	and.w	r3, r3, #2
 8004b22:	2b00      	cmp	r3, #0
 8004b24:	d020      	beq.n	8004b68 <HAL_TIM_IRQHandler+0x64>
  {
    if ((itsource & (TIM_IT_CC1)) == (TIM_IT_CC1))
 8004b26:	68fb      	ldr	r3, [r7, #12]
 8004b28:	f003 0302 	and.w	r3, r3, #2
 8004b2c:	2b00      	cmp	r3, #0
 8004b2e:	d01b      	beq.n	8004b68 <HAL_TIM_IRQHandler+0x64>
    {
      {
        __HAL_TIM_CLEAR_FLAG(htim, TIM_FLAG_CC1);
 8004b30:	687b      	ldr	r3, [r7, #4]
 8004b32:	681b      	ldr	r3, [r3, #0]
 8004b34:	f06f 0202 	mvn.w	r2, #2
 8004b38:	611a      	str	r2, [r3, #16]
        htim->Channel = HAL_TIM_ACTIVE_CHANNEL_1;
 8004b3a:	687b      	ldr	r3, [r7, #4]
 8004b3c:	2201      	movs	r2, #1
 8004b3e:	771a      	strb	r2, [r3, #28]

        /* Input capture event */
        if ((htim->Instance->CCMR1 & TIM_CCMR1_CC1S) != 0x00U)
 8004b40:	687b      	ldr	r3, [r7, #4]
 8004b42:	681b      	ldr	r3, [r3, #0]
 8004b44:	699b      	ldr	r3, [r3, #24]
 8004b46:	f003 0303 	and.w	r3, r3, #3
 8004b4a:	2b00      	cmp	r3, #0
 8004b4c:	d003      	beq.n	8004b56 <HAL_TIM_IRQHandler+0x52>
        {
#if (USE_HAL_TIM_REGISTER_CALLBACKS == 1)
          htim->IC_CaptureCallback(htim);
#else
          HAL_TIM_IC_CaptureCallback(htim);
 8004b4e:	6878      	ldr	r0, [r7, #4]
 8004b50:	f000 fa65 	bl	800501e <HAL_TIM_IC_CaptureCallback>
 8004b54:	e005      	b.n	8004b62 <HAL_TIM_IRQHandler+0x5e>
        {
#if (USE_HAL_TIM_REGISTER_CALLBACKS == 1)
          htim->OC_DelayElapsedCallback(htim);
          htim->PWM_PulseFinishedCallback(htim);
#else
          HAL_TIM_OC_DelayElapsedCallback(htim);
 8004b56:	6878      	ldr	r0, [r7, #4]
 8004b58:	f000 fa57 	bl	800500a <HAL_TIM_OC_DelayElapsedCallback>
          HAL_TIM_PWM_PulseFinishedCallback(htim);
 8004b5c:	6878      	ldr	r0, [r7, #4]
 8004b5e:	f000 fa68 	bl	8005032 <HAL_TIM_PWM_PulseFinishedCallback>
#endif /* USE_HAL_TIM_REGISTER_CALLBACKS */
        }
        htim->Channel = HAL_TIM_ACTIVE_CHANNEL_CLEARED;
 8004b62:	687b      	ldr	r3, [r7, #4]
 8004b64:	2200      	movs	r2, #0
 8004b66:	771a      	strb	r2, [r3, #28]
      }
    }
  }
  /* Capture compare 2 event */
  if ((itflag & (TIM_FLAG_CC2)) == (TIM_FLAG_CC2))
 8004b68:	68bb      	ldr	r3, [r7, #8]
 8004b6a:	f003 0304 	and.w	r3, r3, #4
 8004b6e:	2b00      	cmp	r3, #0
 8004b70:	d020      	beq.n	8004bb4 <HAL_TIM_IRQHandler+0xb0>
  {
    if ((itsource & (TIM_IT_CC2)) == (TIM_IT_CC2))
 8004b72:	68fb      	ldr	r3, [r7, #12]
 8004b74:	f003 0304 	and.w	r3, r3, #4
 8004b78:	2b00      	cmp	r3, #0
 8004b7a:	d01b      	beq.n	8004bb4 <HAL_TIM_IRQHandler+0xb0>
    {
      __HAL_TIM_CLEAR_FLAG(htim, TIM_FLAG_CC2);
 8004b7c:	687b      	ldr	r3, [r7, #4]
 8004b7e:	681b      	ldr	r3, [r3, #0]
 8004b80:	f06f 0204 	mvn.w	r2, #4
 8004b84:	611a      	str	r2, [r3, #16]
      htim->Channel = HAL_TIM_ACTIVE_CHANNEL_2;
 8004b86:	687b      	ldr	r3, [r7, #4]
 8004b88:	2202      	movs	r2, #2
 8004b8a:	771a      	strb	r2, [r3, #28]
      /* Input capture event */
      if ((htim->Instance->CCMR1 & TIM_CCMR1_CC2S) != 0x00U)
 8004b8c:	687b      	ldr	r3, [r7, #4]
 8004b8e:	681b      	ldr	r3, [r3, #0]
 8004b90:	699b      	ldr	r3, [r3, #24]
 8004b92:	f403 7340 	and.w	r3, r3, #768	; 0x300
 8004b96:	2b00      	cmp	r3, #0
 8004b98:	d003      	beq.n	8004ba2 <HAL_TIM_IRQHandler+0x9e>
      {
#if (USE_HAL_TIM_REGISTER_CALLBACKS == 1)
        htim->IC_CaptureCallback(htim);
#else
        HAL_TIM_IC_CaptureCallback(htim);
 8004b9a:	6878      	ldr	r0, [r7, #4]
 8004b9c:	f000 fa3f 	bl	800501e <HAL_TIM_IC_CaptureCallback>
 8004ba0:	e005      	b.n	8004bae <HAL_TIM_IRQHandler+0xaa>
      {
#if (USE_HAL_TIM_REGISTER_CALLBACKS == 1)
        htim->OC_DelayElapsedCallback(htim);
        htim->PWM_PulseFinishedCallback(htim);
#else
        HAL_TIM_OC_DelayElapsedCallback(htim);
 8004ba2:	6878      	ldr	r0, [r7, #4]
 8004ba4:	f000 fa31 	bl	800500a <HAL_TIM_OC_DelayElapsedCallback>
        HAL_TIM_PWM_PulseFinishedCallback(htim);
 8004ba8:	6878      	ldr	r0, [r7, #4]
 8004baa:	f000 fa42 	bl	8005032 <HAL_TIM_PWM_PulseFinishedCallback>
#endif /* USE_HAL_TIM_REGISTER_CALLBACKS */
      }
      htim->Channel = HAL_TIM_ACTIVE_CHANNEL_CLEARED;
 8004bae:	687b      	ldr	r3, [r7, #4]
 8004bb0:	2200      	movs	r2, #0
 8004bb2:	771a      	strb	r2, [r3, #28]
    }
  }
  /* Capture compare 3 event */
  if ((itflag & (TIM_FLAG_CC3)) == (TIM_FLAG_CC3))
 8004bb4:	68bb      	ldr	r3, [r7, #8]
 8004bb6:	f003 0308 	and.w	r3, r3, #8
 8004bba:	2b00      	cmp	r3, #0
 8004bbc:	d020      	beq.n	8004c00 <HAL_TIM_IRQHandler+0xfc>
  {
    if ((itsource & (TIM_IT_CC3)) == (TIM_IT_CC3))
 8004bbe:	68fb      	ldr	r3, [r7, #12]
 8004bc0:	f003 0308 	and.w	r3, r3, #8
 8004bc4:	2b00      	cmp	r3, #0
 8004bc6:	d01b      	beq.n	8004c00 <HAL_TIM_IRQHandler+0xfc>
    {
      __HAL_TIM_CLEAR_FLAG(htim, TIM_FLAG_CC3);
 8004bc8:	687b      	ldr	r3, [r7, #4]
 8004bca:	681b      	ldr	r3, [r3, #0]
 8004bcc:	f06f 0208 	mvn.w	r2, #8
 8004bd0:	611a      	str	r2, [r3, #16]
      htim->Channel = HAL_TIM_ACTIVE_CHANNEL_3;
 8004bd2:	687b      	ldr	r3, [r7, #4]
 8004bd4:	2204      	movs	r2, #4
 8004bd6:	771a      	strb	r2, [r3, #28]
      /* Input capture event */
      if ((htim->Instance->CCMR2 & TIM_CCMR2_CC3S) != 0x00U)
 8004bd8:	687b      	ldr	r3, [r7, #4]
 8004bda:	681b      	ldr	r3, [r3, #0]
 8004bdc:	69db      	ldr	r3, [r3, #28]
 8004bde:	f003 0303 	and.w	r3, r3, #3
 8004be2:	2b00      	cmp	r3, #0
 8004be4:	d003      	beq.n	8004bee <HAL_TIM_IRQHandler+0xea>
      {
#if (USE_HAL_TIM_REGISTER_CALLBACKS == 1)
        htim->IC_CaptureCallback(htim);
#else
        HAL_TIM_IC_CaptureCallback(htim);
 8004be6:	6878      	ldr	r0, [r7, #4]
 8004be8:	f000 fa19 	bl	800501e <HAL_TIM_IC_CaptureCallback>
 8004bec:	e005      	b.n	8004bfa <HAL_TIM_IRQHandler+0xf6>
      {
#if (USE_HAL_TIM_REGISTER_CALLBACKS == 1)
        htim->OC_DelayElapsedCallback(htim);
        htim->PWM_PulseFinishedCallback(htim);
#else
        HAL_TIM_OC_DelayElapsedCallback(htim);
 8004bee:	6878      	ldr	r0, [r7, #4]
 8004bf0:	f000 fa0b 	bl	800500a <HAL_TIM_OC_DelayElapsedCallback>
        HAL_TIM_PWM_PulseFinishedCallback(htim);
 8004bf4:	6878      	ldr	r0, [r7, #4]
 8004bf6:	f000 fa1c 	bl	8005032 <HAL_TIM_PWM_PulseFinishedCallback>
#endif /* USE_HAL_TIM_REGISTER_CALLBACKS */
      }
      htim->Channel = HAL_TIM_ACTIVE_CHANNEL_CLEARED;
 8004bfa:	687b      	ldr	r3, [r7, #4]
 8004bfc:	2200      	movs	r2, #0
 8004bfe:	771a      	strb	r2, [r3, #28]
    }
  }
  /* Capture compare 4 event */
  if ((itflag & (TIM_FLAG_CC4)) == (TIM_FLAG_CC4))
 8004c00:	68bb      	ldr	r3, [r7, #8]
 8004c02:	f003 0310 	and.w	r3, r3, #16
 8004c06:	2b00      	cmp	r3, #0
 8004c08:	d020      	beq.n	8004c4c <HAL_TIM_IRQHandler+0x148>
  {
    if ((itsource & (TIM_IT_CC4)) == (TIM_IT_CC4))
 8004c0a:	68fb      	ldr	r3, [r7, #12]
 8004c0c:	f003 0310 	and.w	r3, r3, #16
 8004c10:	2b00      	cmp	r3, #0
 8004c12:	d01b      	beq.n	8004c4c <HAL_TIM_IRQHandler+0x148>
    {
      __HAL_TIM_CLEAR_FLAG(htim, TIM_FLAG_CC4);
 8004c14:	687b      	ldr	r3, [r7, #4]
 8004c16:	681b      	ldr	r3, [r3, #0]
 8004c18:	f06f 0210 	mvn.w	r2, #16
 8004c1c:	611a      	str	r2, [r3, #16]
      htim->Channel = HAL_TIM_ACTIVE_CHANNEL_4;
 8004c1e:	687b      	ldr	r3, [r7, #4]
 8004c20:	2208      	movs	r2, #8
 8004c22:	771a      	strb	r2, [r3, #28]
      /* Input capture event */
      if ((htim->Instance->CCMR2 & TIM_CCMR2_CC4S) != 0x00U)
 8004c24:	687b      	ldr	r3, [r7, #4]
 8004c26:	681b      	ldr	r3, [r3, #0]
 8004c28:	69db      	ldr	r3, [r3, #28]
 8004c2a:	f403 7340 	and.w	r3, r3, #768	; 0x300
 8004c2e:	2b00      	cmp	r3, #0
 8004c30:	d003      	beq.n	8004c3a <HAL_TIM_IRQHandler+0x136>
      {
#if (USE_HAL_TIM_REGISTER_CALLBACKS == 1)
        htim->IC_CaptureCallback(htim);
#else
        HAL_TIM_IC_CaptureCallback(htim);
 8004c32:	6878      	ldr	r0, [r7, #4]
 8004c34:	f000 f9f3 	bl	800501e <HAL_TIM_IC_CaptureCallback>
 8004c38:	e005      	b.n	8004c46 <HAL_TIM_IRQHandler+0x142>
      {
#if (USE_HAL_TIM_REGISTER_CALLBACKS == 1)
        htim->OC_DelayElapsedCallback(htim);
        htim->PWM_PulseFinishedCallback(htim);
#else
        HAL_TIM_OC_DelayElapsedCallback(htim);
 8004c3a:	6878      	ldr	r0, [r7, #4]
 8004c3c:	f000 f9e5 	bl	800500a <HAL_TIM_OC_DelayElapsedCallback>
        HAL_TIM_PWM_PulseFinishedCallback(htim);
 8004c40:	6878      	ldr	r0, [r7, #4]
 8004c42:	f000 f9f6 	bl	8005032 <HAL_TIM_PWM_PulseFinishedCallback>
#endif /* USE_HAL_TIM_REGISTER_CALLBACKS */
      }
      htim->Channel = HAL_TIM_ACTIVE_CHANNEL_CLEARED;
 8004c46:	687b      	ldr	r3, [r7, #4]
 8004c48:	2200      	movs	r2, #0
 8004c4a:	771a      	strb	r2, [r3, #28]
    }
  }
  /* TIM Update event */
  if ((itflag & (TIM_FLAG_UPDATE)) == (TIM_FLAG_UPDATE))
 8004c4c:	68bb      	ldr	r3, [r7, #8]
 8004c4e:	f003 0301 	and.w	r3, r3, #1
 8004c52:	2b00      	cmp	r3, #0
 8004c54:	d00c      	beq.n	8004c70 <HAL_TIM_IRQHandler+0x16c>
  {
    if ((itsource & (TIM_IT_UPDATE)) == (TIM_IT_UPDATE))
 8004c56:	68fb      	ldr	r3, [r7, #12]
 8004c58:	f003 0301 	and.w	r3, r3, #1
 8004c5c:	2b00      	cmp	r3, #0
 8004c5e:	d007      	beq.n	8004c70 <HAL_TIM_IRQHandler+0x16c>
    {
      __HAL_TIM_CLEAR_FLAG(htim, TIM_FLAG_UPDATE);
 8004c60:	687b      	ldr	r3, [r7, #4]
 8004c62:	681b      	ldr	r3, [r3, #0]
 8004c64:	f06f 0201 	mvn.w	r2, #1
 8004c68:	611a      	str	r2, [r3, #16]
#if (USE_HAL_TIM_REGISTER_CALLBACKS == 1)
      htim->PeriodElapsedCallback(htim);
#else
      HAL_TIM_PeriodElapsedCallback(htim);
 8004c6a:	6878      	ldr	r0, [r7, #4]
 8004c6c:	f000 f9c3 	bl	8004ff6 <HAL_TIM_PeriodElapsedCallback>
#endif /* USE_HAL_TIM_REGISTER_CALLBACKS */
    }
  }
  /* TIM Break input event */
  if ((itflag & (TIM_FLAG_BREAK)) == (TIM_FLAG_BREAK))
 8004c70:	68bb      	ldr	r3, [r7, #8]
 8004c72:	f003 0380 	and.w	r3, r3, #128	; 0x80
 8004c76:	2b00      	cmp	r3, #0
 8004c78:	d00c      	beq.n	8004c94 <HAL_TIM_IRQHandler+0x190>
  {
    if ((itsource & (TIM_IT_BREAK)) == (TIM_IT_BREAK))
 8004c7a:	68fb      	ldr	r3, [r7, #12]
 8004c7c:	f003 0380 	and.w	r3, r3, #128	; 0x80
 8004c80:	2b00      	cmp	r3, #0
 8004c82:	d007      	beq.n	8004c94 <HAL_TIM_IRQHandler+0x190>
    {
      __HAL_TIM_CLEAR_FLAG(htim, TIM_FLAG_BREAK);
 8004c84:	687b      	ldr	r3, [r7, #4]
 8004c86:	681b      	ldr	r3, [r3, #0]
 8004c88:	f06f 0280 	mvn.w	r2, #128	; 0x80
 8004c8c:	611a      	str	r2, [r3, #16]
#if (USE_HAL_TIM_REGISTER_CALLBACKS == 1)
      htim->BreakCallback(htim);
#else
      HAL_TIMEx_BreakCallback(htim);
 8004c8e:	6878      	ldr	r0, [r7, #4]
 8004c90:	f000 fd86 	bl	80057a0 <HAL_TIMEx_BreakCallback>
#endif /* USE_HAL_TIM_REGISTER_CALLBACKS */
    }
  }
  /* TIM Trigger detection event */
  if ((itflag & (TIM_FLAG_TRIGGER)) == (TIM_FLAG_TRIGGER))
 8004c94:	68bb      	ldr	r3, [r7, #8]
 8004c96:	f003 0340 	and.w	r3, r3, #64	; 0x40
 8004c9a:	2b00      	cmp	r3, #0
 8004c9c:	d00c      	beq.n	8004cb8 <HAL_TIM_IRQHandler+0x1b4>
  {
    if ((itsource & (TIM_IT_TRIGGER)) == (TIM_IT_TRIGGER))
 8004c9e:	68fb      	ldr	r3, [r7, #12]
 8004ca0:	f003 0340 	and.w	r3, r3, #64	; 0x40
 8004ca4:	2b00      	cmp	r3, #0
 8004ca6:	d007      	beq.n	8004cb8 <HAL_TIM_IRQHandler+0x1b4>
    {
      __HAL_TIM_CLEAR_FLAG(htim, TIM_FLAG_TRIGGER);
 8004ca8:	687b      	ldr	r3, [r7, #4]
 8004caa:	681b      	ldr	r3, [r3, #0]
 8004cac:	f06f 0240 	mvn.w	r2, #64	; 0x40
 8004cb0:	611a      	str	r2, [r3, #16]
#if (USE_HAL_TIM_REGISTER_CALLBACKS == 1)
      htim->TriggerCallback(htim);
#else
      HAL_TIM_TriggerCallback(htim);
 8004cb2:	6878      	ldr	r0, [r7, #4]
 8004cb4:	f000 f9c7 	bl	8005046 <HAL_TIM_TriggerCallback>
#endif /* USE_HAL_TIM_REGISTER_CALLBACKS */
    }
  }
  /* TIM commutation event */
  if ((itflag & (TIM_FLAG_COM)) == (TIM_FLAG_COM))
 8004cb8:	68bb      	ldr	r3, [r7, #8]
 8004cba:	f003 0320 	and.w	r3, r3, #32
 8004cbe:	2b00      	cmp	r3, #0
 8004cc0:	d00c      	beq.n	8004cdc <HAL_TIM_IRQHandler+0x1d8>
  {
    if ((itsource & (TIM_IT_COM)) == (TIM_IT_COM))
 8004cc2:	68fb      	ldr	r3, [r7, #12]
 8004cc4:	f003 0320 	and.w	r3, r3, #32
 8004cc8:	2b00      	cmp	r3, #0
 8004cca:	d007      	beq.n	8004cdc <HAL_TIM_IRQHandler+0x1d8>
    {
      __HAL_TIM_CLEAR_FLAG(htim, TIM_FLAG_COM);
 8004ccc:	687b      	ldr	r3, [r7, #4]
 8004cce:	681b      	ldr	r3, [r3, #0]
 8004cd0:	f06f 0220 	mvn.w	r2, #32
 8004cd4:	611a      	str	r2, [r3, #16]
#if (USE_HAL_TIM_REGISTER_CALLBACKS == 1)
      htim->CommutationCallback(htim);
#else
      HAL_TIMEx_CommutCallback(htim);
 8004cd6:	6878      	ldr	r0, [r7, #4]
 8004cd8:	f000 fd58 	bl	800578c <HAL_TIMEx_CommutCallback>
#endif /* USE_HAL_TIM_REGISTER_CALLBACKS */
    }
  }
}
 8004cdc:	bf00      	nop
 8004cde:	3710      	adds	r7, #16
 8004ce0:	46bd      	mov	sp, r7
 8004ce2:	bd80      	pop	{r7, pc}

08004ce4 <HAL_TIM_PWM_ConfigChannel>:
  * @retval HAL status
  */
HAL_StatusTypeDef HAL_TIM_PWM_ConfigChannel(TIM_HandleTypeDef *htim,
                                            const TIM_OC_InitTypeDef *sConfig,
                                            uint32_t Channel)
{
 8004ce4:	b580      	push	{r7, lr}
 8004ce6:	b086      	sub	sp, #24
 8004ce8:	af00      	add	r7, sp, #0
 8004cea:	60f8      	str	r0, [r7, #12]
 8004cec:	60b9      	str	r1, [r7, #8]
 8004cee:	607a      	str	r2, [r7, #4]
  HAL_StatusTypeDef status = HAL_OK;
 8004cf0:	2300      	movs	r3, #0
 8004cf2:	75fb      	strb	r3, [r7, #23]
  assert_param(IS_TIM_PWM_MODE(sConfig->OCMode));
  assert_param(IS_TIM_OC_POLARITY(sConfig->OCPolarity));
  assert_param(IS_TIM_FAST_STATE(sConfig->OCFastMode));

  /* Process Locked */
  __HAL_LOCK(htim);
 8004cf4:	68fb      	ldr	r3, [r7, #12]
 8004cf6:	f893 303c 	ldrb.w	r3, [r3, #60]	; 0x3c
 8004cfa:	2b01      	cmp	r3, #1
 8004cfc:	d101      	bne.n	8004d02 <HAL_TIM_PWM_ConfigChannel+0x1e>
 8004cfe:	2302      	movs	r3, #2
 8004d00:	e0ae      	b.n	8004e60 <HAL_TIM_PWM_ConfigChannel+0x17c>
 8004d02:	68fb      	ldr	r3, [r7, #12]
 8004d04:	2201      	movs	r2, #1
 8004d06:	f883 203c 	strb.w	r2, [r3, #60]	; 0x3c

  switch (Channel)
 8004d0a:	687b      	ldr	r3, [r7, #4]
 8004d0c:	2b0c      	cmp	r3, #12
 8004d0e:	f200 809f 	bhi.w	8004e50 <HAL_TIM_PWM_ConfigChannel+0x16c>
 8004d12:	a201      	add	r2, pc, #4	; (adr r2, 8004d18 <HAL_TIM_PWM_ConfigChannel+0x34>)
 8004d14:	f852 f023 	ldr.w	pc, [r2, r3, lsl #2]
 8004d18:	08004d4d 	.word	0x08004d4d
 8004d1c:	08004e51 	.word	0x08004e51
 8004d20:	08004e51 	.word	0x08004e51
 8004d24:	08004e51 	.word	0x08004e51
 8004d28:	08004d8d 	.word	0x08004d8d
 8004d2c:	08004e51 	.word	0x08004e51
 8004d30:	08004e51 	.word	0x08004e51
 8004d34:	08004e51 	.word	0x08004e51
 8004d38:	08004dcf 	.word	0x08004dcf
 8004d3c:	08004e51 	.word	0x08004e51
 8004d40:	08004e51 	.word	0x08004e51
 8004d44:	08004e51 	.word	0x08004e51
 8004d48:	08004e0f 	.word	0x08004e0f
    {
      /* Check the parameters */
      assert_param(IS_TIM_CC1_INSTANCE(htim->Instance));

      /* Configure the Channel 1 in PWM mode */
      TIM_OC1_SetConfig(htim->Instance, sConfig);
 8004d4c:	68fb      	ldr	r3, [r7, #12]
 8004d4e:	681b      	ldr	r3, [r3, #0]
 8004d50:	68b9      	ldr	r1, [r7, #8]
 8004d52:	4618      	mov	r0, r3
 8004d54:	f000 fa2e 	bl	80051b4 <TIM_OC1_SetConfig>

      /* Set the Preload enable bit for channel1 */
      htim->Instance->CCMR1 |= TIM_CCMR1_OC1PE;
 8004d58:	68fb      	ldr	r3, [r7, #12]
 8004d5a:	681b      	ldr	r3, [r3, #0]
 8004d5c:	699a      	ldr	r2, [r3, #24]
 8004d5e:	68fb      	ldr	r3, [r7, #12]
 8004d60:	681b      	ldr	r3, [r3, #0]
 8004d62:	f042 0208 	orr.w	r2, r2, #8
 8004d66:	619a      	str	r2, [r3, #24]

      /* Configure the Output Fast mode */
      htim->Instance->CCMR1 &= ~TIM_CCMR1_OC1FE;
 8004d68:	68fb      	ldr	r3, [r7, #12]
 8004d6a:	681b      	ldr	r3, [r3, #0]
 8004d6c:	699a      	ldr	r2, [r3, #24]
 8004d6e:	68fb      	ldr	r3, [r7, #12]
 8004d70:	681b      	ldr	r3, [r3, #0]
 8004d72:	f022 0204 	bic.w	r2, r2, #4
 8004d76:	619a      	str	r2, [r3, #24]
      htim->Instance->CCMR1 |= sConfig->OCFastMode;
 8004d78:	68fb      	ldr	r3, [r7, #12]
 8004d7a:	681b      	ldr	r3, [r3, #0]
 8004d7c:	6999      	ldr	r1, [r3, #24]
 8004d7e:	68bb      	ldr	r3, [r7, #8]
 8004d80:	691a      	ldr	r2, [r3, #16]
 8004d82:	68fb      	ldr	r3, [r7, #12]
 8004d84:	681b      	ldr	r3, [r3, #0]
 8004d86:	430a      	orrs	r2, r1
 8004d88:	619a      	str	r2, [r3, #24]
      break;
 8004d8a:	e064      	b.n	8004e56 <HAL_TIM_PWM_ConfigChannel+0x172>
    {
      /* Check the parameters */
      assert_param(IS_TIM_CC2_INSTANCE(htim->Instance));

      /* Configure the Channel 2 in PWM mode */
      TIM_OC2_SetConfig(htim->Instance, sConfig);
 8004d8c:	68fb      	ldr	r3, [r7, #12]
 8004d8e:	681b      	ldr	r3, [r3, #0]
 8004d90:	68b9      	ldr	r1, [r7, #8]
 8004d92:	4618      	mov	r0, r3
 8004d94:	f000 fa7e 	bl	8005294 <TIM_OC2_SetConfig>

      /* Set the Preload enable bit for channel2 */
      htim->Instance->CCMR1 |= TIM_CCMR1_OC2PE;
 8004d98:	68fb      	ldr	r3, [r7, #12]
 8004d9a:	681b      	ldr	r3, [r3, #0]
 8004d9c:	699a      	ldr	r2, [r3, #24]
 8004d9e:	68fb      	ldr	r3, [r7, #12]
 8004da0:	681b      	ldr	r3, [r3, #0]
 8004da2:	f442 6200 	orr.w	r2, r2, #2048	; 0x800
 8004da6:	619a      	str	r2, [r3, #24]

      /* Configure the Output Fast mode */
      htim->Instance->CCMR1 &= ~TIM_CCMR1_OC2FE;
 8004da8:	68fb      	ldr	r3, [r7, #12]
 8004daa:	681b      	ldr	r3, [r3, #0]
 8004dac:	699a      	ldr	r2, [r3, #24]
 8004dae:	68fb      	ldr	r3, [r7, #12]
 8004db0:	681b      	ldr	r3, [r3, #0]
 8004db2:	f422 6280 	bic.w	r2, r2, #1024	; 0x400
 8004db6:	619a      	str	r2, [r3, #24]
      htim->Instance->CCMR1 |= sConfig->OCFastMode << 8U;
 8004db8:	68fb      	ldr	r3, [r7, #12]
 8004dba:	681b      	ldr	r3, [r3, #0]
 8004dbc:	6999      	ldr	r1, [r3, #24]
 8004dbe:	68bb      	ldr	r3, [r7, #8]
 8004dc0:	691b      	ldr	r3, [r3, #16]
 8004dc2:	021a      	lsls	r2, r3, #8
 8004dc4:	68fb      	ldr	r3, [r7, #12]
 8004dc6:	681b      	ldr	r3, [r3, #0]
 8004dc8:	430a      	orrs	r2, r1
 8004dca:	619a      	str	r2, [r3, #24]
      break;
 8004dcc:	e043      	b.n	8004e56 <HAL_TIM_PWM_ConfigChannel+0x172>
    {
      /* Check the parameters */
      assert_param(IS_TIM_CC3_INSTANCE(htim->Instance));

      /* Configure the Channel 3 in PWM mode */
      TIM_OC3_SetConfig(htim->Instance, sConfig);
 8004dce:	68fb      	ldr	r3, [r7, #12]
 8004dd0:	681b      	ldr	r3, [r3, #0]
 8004dd2:	68b9      	ldr	r1, [r7, #8]
 8004dd4:	4618      	mov	r0, r3
 8004dd6:	f000 fad3 	bl	8005380 <TIM_OC3_SetConfig>

      /* Set the Preload enable bit for channel3 */
      htim->Instance->CCMR2 |= TIM_CCMR2_OC3PE;
 8004dda:	68fb      	ldr	r3, [r7, #12]
 8004ddc:	681b      	ldr	r3, [r3, #0]
 8004dde:	69da      	ldr	r2, [r3, #28]
 8004de0:	68fb      	ldr	r3, [r7, #12]
 8004de2:	681b      	ldr	r3, [r3, #0]
 8004de4:	f042 0208 	orr.w	r2, r2, #8
 8004de8:	61da      	str	r2, [r3, #28]

      /* Configure the Output Fast mode */
      htim->Instance->CCMR2 &= ~TIM_CCMR2_OC3FE;
 8004dea:	68fb      	ldr	r3, [r7, #12]
 8004dec:	681b      	ldr	r3, [r3, #0]
 8004dee:	69da      	ldr	r2, [r3, #28]
 8004df0:	68fb      	ldr	r3, [r7, #12]
 8004df2:	681b      	ldr	r3, [r3, #0]
 8004df4:	f022 0204 	bic.w	r2, r2, #4
 8004df8:	61da      	str	r2, [r3, #28]
      htim->Instance->CCMR2 |= sConfig->OCFastMode;
 8004dfa:	68fb      	ldr	r3, [r7, #12]
 8004dfc:	681b      	ldr	r3, [r3, #0]
 8004dfe:	69d9      	ldr	r1, [r3, #28]
 8004e00:	68bb      	ldr	r3, [r7, #8]
 8004e02:	691a      	ldr	r2, [r3, #16]
 8004e04:	68fb      	ldr	r3, [r7, #12]
 8004e06:	681b      	ldr	r3, [r3, #0]
 8004e08:	430a      	orrs	r2, r1
 8004e0a:	61da      	str	r2, [r3, #28]
      break;
 8004e0c:	e023      	b.n	8004e56 <HAL_TIM_PWM_ConfigChannel+0x172>
    {
      /* Check the parameters */
      assert_param(IS_TIM_CC4_INSTANCE(htim->Instance));

      /* Configure the Channel 4 in PWM mode */
      TIM_OC4_SetConfig(htim->Instance, sConfig);
 8004e0e:	68fb      	ldr	r3, [r7, #12]
 8004e10:	681b      	ldr	r3, [r3, #0]
 8004e12:	68b9      	ldr	r1, [r7, #8]
 8004e14:	4618      	mov	r0, r3
 8004e16:	f000 fb27 	bl	8005468 <TIM_OC4_SetConfig>

      /* Set the Preload enable bit for channel4 */
      htim->Instance->CCMR2 |= TIM_CCMR2_OC4PE;
 8004e1a:	68fb      	ldr	r3, [r7, #12]
 8004e1c:	681b      	ldr	r3, [r3, #0]
 8004e1e:	69da      	ldr	r2, [r3, #28]
 8004e20:	68fb      	ldr	r3, [r7, #12]
 8004e22:	681b      	ldr	r3, [r3, #0]
 8004e24:	f442 6200 	orr.w	r2, r2, #2048	; 0x800
 8004e28:	61da      	str	r2, [r3, #28]

      /* Configure the Output Fast mode */
      htim->Instance->CCMR2 &= ~TIM_CCMR2_OC4FE;
 8004e2a:	68fb      	ldr	r3, [r7, #12]
 8004e2c:	681b      	ldr	r3, [r3, #0]
 8004e2e:	69da      	ldr	r2, [r3, #28]
 8004e30:	68fb      	ldr	r3, [r7, #12]
 8004e32:	681b      	ldr	r3, [r3, #0]
 8004e34:	f422 6280 	bic.w	r2, r2, #1024	; 0x400
 8004e38:	61da      	str	r2, [r3, #28]
      htim->Instance->CCMR2 |= sConfig->OCFastMode << 8U;
 8004e3a:	68fb      	ldr	r3, [r7, #12]
 8004e3c:	681b      	ldr	r3, [r3, #0]
 8004e3e:	69d9      	ldr	r1, [r3, #28]
 8004e40:	68bb      	ldr	r3, [r7, #8]
 8004e42:	691b      	ldr	r3, [r3, #16]
 8004e44:	021a      	lsls	r2, r3, #8
 8004e46:	68fb      	ldr	r3, [r7, #12]
 8004e48:	681b      	ldr	r3, [r3, #0]
 8004e4a:	430a      	orrs	r2, r1
 8004e4c:	61da      	str	r2, [r3, #28]
      break;
 8004e4e:	e002      	b.n	8004e56 <HAL_TIM_PWM_ConfigChannel+0x172>
    }

    default:
      status = HAL_ERROR;
 8004e50:	2301      	movs	r3, #1
 8004e52:	75fb      	strb	r3, [r7, #23]
      break;
 8004e54:	bf00      	nop
  }

  __HAL_UNLOCK(htim);
 8004e56:	68fb      	ldr	r3, [r7, #12]
 8004e58:	2200      	movs	r2, #0
 8004e5a:	f883 203c 	strb.w	r2, [r3, #60]	; 0x3c

  return status;
 8004e5e:	7dfb      	ldrb	r3, [r7, #23]
}
 8004e60:	4618      	mov	r0, r3
 8004e62:	3718      	adds	r7, #24
 8004e64:	46bd      	mov	sp, r7
 8004e66:	bd80      	pop	{r7, pc}

08004e68 <HAL_TIM_ConfigClockSource>:
  * @param  sClockSourceConfig pointer to a TIM_ClockConfigTypeDef structure that
  *         contains the clock source information for the TIM peripheral.
  * @retval HAL status
  */
HAL_StatusTypeDef HAL_TIM_ConfigClockSource(TIM_HandleTypeDef *htim, const TIM_ClockConfigTypeDef *sClockSourceConfig)
{
 8004e68:	b580      	push	{r7, lr}
 8004e6a:	b084      	sub	sp, #16
 8004e6c:	af00      	add	r7, sp, #0
 8004e6e:	6078      	str	r0, [r7, #4]
 8004e70:	6039      	str	r1, [r7, #0]
  HAL_StatusTypeDef status = HAL_OK;
 8004e72:	2300      	movs	r3, #0
 8004e74:	73fb      	strb	r3, [r7, #15]
  uint32_t tmpsmcr;

  /* Process Locked */
  __HAL_LOCK(htim);
 8004e76:	687b      	ldr	r3, [r7, #4]
 8004e78:	f893 303c 	ldrb.w	r3, [r3, #60]	; 0x3c
 8004e7c:	2b01      	cmp	r3, #1
 8004e7e:	d101      	bne.n	8004e84 <HAL_TIM_ConfigClockSource+0x1c>
 8004e80:	2302      	movs	r3, #2
 8004e82:	e0b4      	b.n	8004fee <HAL_TIM_ConfigClockSource+0x186>
 8004e84:	687b      	ldr	r3, [r7, #4]
 8004e86:	2201      	movs	r2, #1
 8004e88:	f883 203c 	strb.w	r2, [r3, #60]	; 0x3c

  htim->State = HAL_TIM_STATE_BUSY;
 8004e8c:	687b      	ldr	r3, [r7, #4]
 8004e8e:	2202      	movs	r2, #2
 8004e90:	f883 203d 	strb.w	r2, [r3, #61]	; 0x3d

  /* Check the parameters */
  assert_param(IS_TIM_CLOCKSOURCE(sClockSourceConfig->ClockSource));

  /* Reset the SMS, TS, ECE, ETPS and ETRF bits */
  tmpsmcr = htim->Instance->SMCR;
 8004e94:	687b      	ldr	r3, [r7, #4]
 8004e96:	681b      	ldr	r3, [r3, #0]
 8004e98:	689b      	ldr	r3, [r3, #8]
 8004e9a:	60bb      	str	r3, [r7, #8]
  tmpsmcr &= ~(TIM_SMCR_SMS | TIM_SMCR_TS);
 8004e9c:	68bb      	ldr	r3, [r7, #8]
 8004e9e:	f023 0377 	bic.w	r3, r3, #119	; 0x77
 8004ea2:	60bb      	str	r3, [r7, #8]
  tmpsmcr &= ~(TIM_SMCR_ETF | TIM_SMCR_ETPS | TIM_SMCR_ECE | TIM_SMCR_ETP);
 8004ea4:	68bb      	ldr	r3, [r7, #8]
 8004ea6:	f423 437f 	bic.w	r3, r3, #65280	; 0xff00
 8004eaa:	60bb      	str	r3, [r7, #8]
  htim->Instance->SMCR = tmpsmcr;
 8004eac:	687b      	ldr	r3, [r7, #4]
 8004eae:	681b      	ldr	r3, [r3, #0]
 8004eb0:	68ba      	ldr	r2, [r7, #8]
 8004eb2:	609a      	str	r2, [r3, #8]

  switch (sClockSourceConfig->ClockSource)
 8004eb4:	683b      	ldr	r3, [r7, #0]
 8004eb6:	681b      	ldr	r3, [r3, #0]
 8004eb8:	f5b3 5f00 	cmp.w	r3, #8192	; 0x2000
 8004ebc:	d03e      	beq.n	8004f3c <HAL_TIM_ConfigClockSource+0xd4>
 8004ebe:	f5b3 5f00 	cmp.w	r3, #8192	; 0x2000
 8004ec2:	f200 8087 	bhi.w	8004fd4 <HAL_TIM_ConfigClockSource+0x16c>
 8004ec6:	f5b3 5f80 	cmp.w	r3, #4096	; 0x1000
 8004eca:	f000 8086 	beq.w	8004fda <HAL_TIM_ConfigClockSource+0x172>
 8004ece:	f5b3 5f80 	cmp.w	r3, #4096	; 0x1000
 8004ed2:	d87f      	bhi.n	8004fd4 <HAL_TIM_ConfigClockSource+0x16c>
 8004ed4:	2b70      	cmp	r3, #112	; 0x70
 8004ed6:	d01a      	beq.n	8004f0e <HAL_TIM_ConfigClockSource+0xa6>
 8004ed8:	2b70      	cmp	r3, #112	; 0x70
 8004eda:	d87b      	bhi.n	8004fd4 <HAL_TIM_ConfigClockSource+0x16c>
 8004edc:	2b60      	cmp	r3, #96	; 0x60
 8004ede:	d050      	beq.n	8004f82 <HAL_TIM_ConfigClockSource+0x11a>
 8004ee0:	2b60      	cmp	r3, #96	; 0x60
 8004ee2:	d877      	bhi.n	8004fd4 <HAL_TIM_ConfigClockSource+0x16c>
 8004ee4:	2b50      	cmp	r3, #80	; 0x50
 8004ee6:	d03c      	beq.n	8004f62 <HAL_TIM_ConfigClockSource+0xfa>
 8004ee8:	2b50      	cmp	r3, #80	; 0x50
 8004eea:	d873      	bhi.n	8004fd4 <HAL_TIM_ConfigClockSource+0x16c>
 8004eec:	2b40      	cmp	r3, #64	; 0x40
 8004eee:	d058      	beq.n	8004fa2 <HAL_TIM_ConfigClockSource+0x13a>
 8004ef0:	2b40      	cmp	r3, #64	; 0x40
 8004ef2:	d86f      	bhi.n	8004fd4 <HAL_TIM_ConfigClockSource+0x16c>
 8004ef4:	2b30      	cmp	r3, #48	; 0x30
 8004ef6:	d064      	beq.n	8004fc2 <HAL_TIM_ConfigClockSource+0x15a>
 8004ef8:	2b30      	cmp	r3, #48	; 0x30
 8004efa:	d86b      	bhi.n	8004fd4 <HAL_TIM_ConfigClockSource+0x16c>
 8004efc:	2b20      	cmp	r3, #32
 8004efe:	d060      	beq.n	8004fc2 <HAL_TIM_ConfigClockSource+0x15a>
 8004f00:	2b20      	cmp	r3, #32
 8004f02:	d867      	bhi.n	8004fd4 <HAL_TIM_ConfigClockSource+0x16c>
 8004f04:	2b00      	cmp	r3, #0
 8004f06:	d05c      	beq.n	8004fc2 <HAL_TIM_ConfigClockSource+0x15a>
 8004f08:	2b10      	cmp	r3, #16
 8004f0a:	d05a      	beq.n	8004fc2 <HAL_TIM_ConfigClockSource+0x15a>
 8004f0c:	e062      	b.n	8004fd4 <HAL_TIM_ConfigClockSource+0x16c>
      assert_param(IS_TIM_CLOCKPRESCALER(sClockSourceConfig->ClockPrescaler));
      assert_param(IS_TIM_CLOCKPOLARITY(sClockSourceConfig->ClockPolarity));
      assert_param(IS_TIM_CLOCKFILTER(sClockSourceConfig->ClockFilter));

      /* Configure the ETR Clock source */
      TIM_ETR_SetConfig(htim->Instance,
 8004f0e:	687b      	ldr	r3, [r7, #4]
 8004f10:	6818      	ldr	r0, [r3, #0]
                        sClockSourceConfig->ClockPrescaler,
 8004f12:	683b      	ldr	r3, [r7, #0]
 8004f14:	6899      	ldr	r1, [r3, #8]
                        sClockSourceConfig->ClockPolarity,
 8004f16:	683b      	ldr	r3, [r7, #0]
 8004f18:	685a      	ldr	r2, [r3, #4]
                        sClockSourceConfig->ClockFilter);
 8004f1a:	683b      	ldr	r3, [r7, #0]
 8004f1c:	68db      	ldr	r3, [r3, #12]
      TIM_ETR_SetConfig(htim->Instance,
 8004f1e:	f000 fb73 	bl	8005608 <TIM_ETR_SetConfig>

      /* Select the External clock mode1 and the ETRF trigger */
      tmpsmcr = htim->Instance->SMCR;
 8004f22:	687b      	ldr	r3, [r7, #4]
 8004f24:	681b      	ldr	r3, [r3, #0]
 8004f26:	689b      	ldr	r3, [r3, #8]
 8004f28:	60bb      	str	r3, [r7, #8]
      tmpsmcr |= (TIM_SLAVEMODE_EXTERNAL1 | TIM_CLOCKSOURCE_ETRMODE1);
 8004f2a:	68bb      	ldr	r3, [r7, #8]
 8004f2c:	f043 0377 	orr.w	r3, r3, #119	; 0x77
 8004f30:	60bb      	str	r3, [r7, #8]
      /* Write to TIMx SMCR */
      htim->Instance->SMCR = tmpsmcr;
 8004f32:	687b      	ldr	r3, [r7, #4]
 8004f34:	681b      	ldr	r3, [r3, #0]
 8004f36:	68ba      	ldr	r2, [r7, #8]
 8004f38:	609a      	str	r2, [r3, #8]
      break;
 8004f3a:	e04f      	b.n	8004fdc <HAL_TIM_ConfigClockSource+0x174>
      assert_param(IS_TIM_CLOCKPRESCALER(sClockSourceConfig->ClockPrescaler));
      assert_param(IS_TIM_CLOCKPOLARITY(sClockSourceConfig->ClockPolarity));
      assert_param(IS_TIM_CLOCKFILTER(sClockSourceConfig->ClockFilter));

      /* Configure the ETR Clock source */
      TIM_ETR_SetConfig(htim->Instance,
 8004f3c:	687b      	ldr	r3, [r7, #4]
 8004f3e:	6818      	ldr	r0, [r3, #0]
                        sClockSourceConfig->ClockPrescaler,
 8004f40:	683b      	ldr	r3, [r7, #0]
 8004f42:	6899      	ldr	r1, [r3, #8]
                        sClockSourceConfig->ClockPolarity,
 8004f44:	683b      	ldr	r3, [r7, #0]
 8004f46:	685a      	ldr	r2, [r3, #4]
                        sClockSourceConfig->ClockFilter);
 8004f48:	683b      	ldr	r3, [r7, #0]
 8004f4a:	68db      	ldr	r3, [r3, #12]
      TIM_ETR_SetConfig(htim->Instance,
 8004f4c:	f000 fb5c 	bl	8005608 <TIM_ETR_SetConfig>
      /* Enable the External clock mode2 */
      htim->Instance->SMCR |= TIM_SMCR_ECE;
 8004f50:	687b      	ldr	r3, [r7, #4]
 8004f52:	681b      	ldr	r3, [r3, #0]
 8004f54:	689a      	ldr	r2, [r3, #8]
 8004f56:	687b      	ldr	r3, [r7, #4]
 8004f58:	681b      	ldr	r3, [r3, #0]
 8004f5a:	f442 4280 	orr.w	r2, r2, #16384	; 0x4000
 8004f5e:	609a      	str	r2, [r3, #8]
      break;
 8004f60:	e03c      	b.n	8004fdc <HAL_TIM_ConfigClockSource+0x174>

      /* Check TI1 input conditioning related parameters */
      assert_param(IS_TIM_CLOCKPOLARITY(sClockSourceConfig->ClockPolarity));
      assert_param(IS_TIM_CLOCKFILTER(sClockSourceConfig->ClockFilter));

      TIM_TI1_ConfigInputStage(htim->Instance,
 8004f62:	687b      	ldr	r3, [r7, #4]
 8004f64:	6818      	ldr	r0, [r3, #0]
                               sClockSourceConfig->ClockPolarity,
 8004f66:	683b      	ldr	r3, [r7, #0]
 8004f68:	6859      	ldr	r1, [r3, #4]
                               sClockSourceConfig->ClockFilter);
 8004f6a:	683b      	ldr	r3, [r7, #0]
 8004f6c:	68db      	ldr	r3, [r3, #12]
      TIM_TI1_ConfigInputStage(htim->Instance,
 8004f6e:	461a      	mov	r2, r3
 8004f70:	f000 fad0 	bl	8005514 <TIM_TI1_ConfigInputStage>
      TIM_ITRx_SetConfig(htim->Instance, TIM_CLOCKSOURCE_TI1);
 8004f74:	687b      	ldr	r3, [r7, #4]
 8004f76:	681b      	ldr	r3, [r3, #0]
 8004f78:	2150      	movs	r1, #80	; 0x50
 8004f7a:	4618      	mov	r0, r3
 8004f7c:	f000 fb29 	bl	80055d2 <TIM_ITRx_SetConfig>
      break;
 8004f80:	e02c      	b.n	8004fdc <HAL_TIM_ConfigClockSource+0x174>

      /* Check TI2 input conditioning related parameters */
      assert_param(IS_TIM_CLOCKPOLARITY(sClockSourceConfig->ClockPolarity));
      assert_param(IS_TIM_CLOCKFILTER(sClockSourceConfig->ClockFilter));

      TIM_TI2_ConfigInputStage(htim->Instance,
 8004f82:	687b      	ldr	r3, [r7, #4]
 8004f84:	6818      	ldr	r0, [r3, #0]
                               sClockSourceConfig->ClockPolarity,
 8004f86:	683b      	ldr	r3, [r7, #0]
 8004f88:	6859      	ldr	r1, [r3, #4]
                               sClockSourceConfig->ClockFilter);
 8004f8a:	683b      	ldr	r3, [r7, #0]
 8004f8c:	68db      	ldr	r3, [r3, #12]
      TIM_TI2_ConfigInputStage(htim->Instance,
 8004f8e:	461a      	mov	r2, r3
 8004f90:	f000 faef 	bl	8005572 <TIM_TI2_ConfigInputStage>
      TIM_ITRx_SetConfig(htim->Instance, TIM_CLOCKSOURCE_TI2);
 8004f94:	687b      	ldr	r3, [r7, #4]
 8004f96:	681b      	ldr	r3, [r3, #0]
 8004f98:	2160      	movs	r1, #96	; 0x60
 8004f9a:	4618      	mov	r0, r3
 8004f9c:	f000 fb19 	bl	80055d2 <TIM_ITRx_SetConfig>
      break;
 8004fa0:	e01c      	b.n	8004fdc <HAL_TIM_ConfigClockSource+0x174>

      /* Check TI1 input conditioning related parameters */
      assert_param(IS_TIM_CLOCKPOLARITY(sClockSourceConfig->ClockPolarity));
      assert_param(IS_TIM_CLOCKFILTER(sClockSourceConfig->ClockFilter));

      TIM_TI1_ConfigInputStage(htim->Instance,
 8004fa2:	687b      	ldr	r3, [r7, #4]
 8004fa4:	6818      	ldr	r0, [r3, #0]
                               sClockSourceConfig->ClockPolarity,
 8004fa6:	683b      	ldr	r3, [r7, #0]
 8004fa8:	6859      	ldr	r1, [r3, #4]
                               sClockSourceConfig->ClockFilter);
 8004faa:	683b      	ldr	r3, [r7, #0]
 8004fac:	68db      	ldr	r3, [r3, #12]
      TIM_TI1_ConfigInputStage(htim->Instance,
 8004fae:	461a      	mov	r2, r3
 8004fb0:	f000 fab0 	bl	8005514 <TIM_TI1_ConfigInputStage>
      TIM_ITRx_SetConfig(htim->Instance, TIM_CLOCKSOURCE_TI1ED);
 8004fb4:	687b      	ldr	r3, [r7, #4]
 8004fb6:	681b      	ldr	r3, [r3, #0]
 8004fb8:	2140      	movs	r1, #64	; 0x40
 8004fba:	4618      	mov	r0, r3
 8004fbc:	f000 fb09 	bl	80055d2 <TIM_ITRx_SetConfig>
      break;
 8004fc0:	e00c      	b.n	8004fdc <HAL_TIM_ConfigClockSource+0x174>
    case TIM_CLOCKSOURCE_ITR3:
    {
      /* Check whether or not the timer instance supports internal trigger input */
      assert_param(IS_TIM_CLOCKSOURCE_ITRX_INSTANCE(htim->Instance));

      TIM_ITRx_SetConfig(htim->Instance, sClockSourceConfig->ClockSource);
 8004fc2:	687b      	ldr	r3, [r7, #4]
 8004fc4:	681a      	ldr	r2, [r3, #0]
 8004fc6:	683b      	ldr	r3, [r7, #0]
 8004fc8:	681b      	ldr	r3, [r3, #0]
 8004fca:	4619      	mov	r1, r3
 8004fcc:	4610      	mov	r0, r2
 8004fce:	f000 fb00 	bl	80055d2 <TIM_ITRx_SetConfig>
      break;
 8004fd2:	e003      	b.n	8004fdc <HAL_TIM_ConfigClockSource+0x174>
    }

    default:
      status = HAL_ERROR;
 8004fd4:	2301      	movs	r3, #1
 8004fd6:	73fb      	strb	r3, [r7, #15]
      break;
 8004fd8:	e000      	b.n	8004fdc <HAL_TIM_ConfigClockSource+0x174>
      break;
 8004fda:	bf00      	nop
  }
  htim->State = HAL_TIM_STATE_READY;
 8004fdc:	687b      	ldr	r3, [r7, #4]
 8004fde:	2201      	movs	r2, #1
 8004fe0:	f883 203d 	strb.w	r2, [r3, #61]	; 0x3d

  __HAL_UNLOCK(htim);
 8004fe4:	687b      	ldr	r3, [r7, #4]
 8004fe6:	2200      	movs	r2, #0
 8004fe8:	f883 203c 	strb.w	r2, [r3, #60]	; 0x3c

  return status;
 8004fec:	7bfb      	ldrb	r3, [r7, #15]
}
 8004fee:	4618      	mov	r0, r3
 8004ff0:	3710      	adds	r7, #16
 8004ff2:	46bd      	mov	sp, r7
 8004ff4:	bd80      	pop	{r7, pc}

08004ff6 <HAL_TIM_PeriodElapsedCallback>:
  * @brief  Period elapsed callback in non-blocking mode
  * @param  htim TIM handle
  * @retval None
  */
__weak void HAL_TIM_PeriodElapsedCallback(TIM_HandleTypeDef *htim)
{
 8004ff6:	b480      	push	{r7}
 8004ff8:	b083      	sub	sp, #12
 8004ffa:	af00      	add	r7, sp, #0
 8004ffc:	6078      	str	r0, [r7, #4]
  UNUSED(htim);

  /* NOTE : This function should not be modified, when the callback is needed,
            the HAL_TIM_PeriodElapsedCallback could be implemented in the user file
   */
}
 8004ffe:	bf00      	nop
 8005000:	370c      	adds	r7, #12
 8005002:	46bd      	mov	sp, r7
 8005004:	f85d 7b04 	ldr.w	r7, [sp], #4
 8005008:	4770      	bx	lr

0800500a <HAL_TIM_OC_DelayElapsedCallback>:
  * @brief  Output Compare callback in non-blocking mode
  * @param  htim TIM OC handle
  * @retval None
  */
__weak void HAL_TIM_OC_DelayElapsedCallback(TIM_HandleTypeDef *htim)
{
 800500a:	b480      	push	{r7}
 800500c:	b083      	sub	sp, #12
 800500e:	af00      	add	r7, sp, #0
 8005010:	6078      	str	r0, [r7, #4]
  UNUSED(htim);

  /* NOTE : This function should not be modified, when the callback is needed,
            the HAL_TIM_OC_DelayElapsedCallback could be implemented in the user file
   */
}
 8005012:	bf00      	nop
 8005014:	370c      	adds	r7, #12
 8005016:	46bd      	mov	sp, r7
 8005018:	f85d 7b04 	ldr.w	r7, [sp], #4
 800501c:	4770      	bx	lr

0800501e <HAL_TIM_IC_CaptureCallback>:
  * @brief  Input Capture callback in non-blocking mode
  * @param  htim TIM IC handle
  * @retval None
  */
__weak void HAL_TIM_IC_CaptureCallback(TIM_HandleTypeDef *htim)
{
 800501e:	b480      	push	{r7}
 8005020:	b083      	sub	sp, #12
 8005022:	af00      	add	r7, sp, #0
 8005024:	6078      	str	r0, [r7, #4]
  UNUSED(htim);

  /* NOTE : This function should not be modified, when the callback is needed,
            the HAL_TIM_IC_CaptureCallback could be implemented in the user file
   */
}
 8005026:	bf00      	nop
 8005028:	370c      	adds	r7, #12
 800502a:	46bd      	mov	sp, r7
 800502c:	f85d 7b04 	ldr.w	r7, [sp], #4
 8005030:	4770      	bx	lr

08005032 <HAL_TIM_PWM_PulseFinishedCallback>:
  * @brief  PWM Pulse finished callback in non-blocking mode
  * @param  htim TIM handle
  * @retval None
  */
__weak void HAL_TIM_PWM_PulseFinishedCallback(TIM_HandleTypeDef *htim)
{
 8005032:	b480      	push	{r7}
 8005034:	b083      	sub	sp, #12
 8005036:	af00      	add	r7, sp, #0
 8005038:	6078      	str	r0, [r7, #4]
  UNUSED(htim);

  /* NOTE : This function should not be modified, when the callback is needed,
            the HAL_TIM_PWM_PulseFinishedCallback could be implemented in the user file
   */
}
 800503a:	bf00      	nop
 800503c:	370c      	adds	r7, #12
 800503e:	46bd      	mov	sp, r7
 8005040:	f85d 7b04 	ldr.w	r7, [sp], #4
 8005044:	4770      	bx	lr

08005046 <HAL_TIM_TriggerCallback>:
  * @brief  Hall Trigger detection callback in non-blocking mode
  * @param  htim TIM handle
  * @retval None
  */
__weak void HAL_TIM_TriggerCallback(TIM_HandleTypeDef *htim)
{
 8005046:	b480      	push	{r7}
 8005048:	b083      	sub	sp, #12
 800504a:	af00      	add	r7, sp, #0
 800504c:	6078      	str	r0, [r7, #4]
  UNUSED(htim);

  /* NOTE : This function should not be modified, when the callback is needed,
            the HAL_TIM_TriggerCallback could be implemented in the user file
   */
}
 800504e:	bf00      	nop
 8005050:	370c      	adds	r7, #12
 8005052:	46bd      	mov	sp, r7
 8005054:	f85d 7b04 	ldr.w	r7, [sp], #4
 8005058:	4770      	bx	lr
	...

0800505c <TIM_Base_SetConfig>:
  * @param  TIMx TIM peripheral
  * @param  Structure TIM Base configuration structure
  * @retval None
  */
void TIM_Base_SetConfig(TIM_TypeDef *TIMx, const TIM_Base_InitTypeDef *Structure)
{
 800505c:	b480      	push	{r7}
 800505e:	b085      	sub	sp, #20
 8005060:	af00      	add	r7, sp, #0
 8005062:	6078      	str	r0, [r7, #4]
 8005064:	6039      	str	r1, [r7, #0]
  uint32_t tmpcr1;
  tmpcr1 = TIMx->CR1;
 8005066:	687b      	ldr	r3, [r7, #4]
 8005068:	681b      	ldr	r3, [r3, #0]
 800506a:	60fb      	str	r3, [r7, #12]

  /* Set TIM Time Base Unit parameters ---------------------------------------*/
  if (IS_TIM_COUNTER_MODE_SELECT_INSTANCE(TIMx))
 800506c:	687b      	ldr	r3, [r7, #4]
 800506e:	4a46      	ldr	r2, [pc, #280]	; (8005188 <TIM_Base_SetConfig+0x12c>)
 8005070:	4293      	cmp	r3, r2
 8005072:	d013      	beq.n	800509c <TIM_Base_SetConfig+0x40>
 8005074:	687b      	ldr	r3, [r7, #4]
 8005076:	f1b3 4f80 	cmp.w	r3, #1073741824	; 0x40000000
 800507a:	d00f      	beq.n	800509c <TIM_Base_SetConfig+0x40>
 800507c:	687b      	ldr	r3, [r7, #4]
 800507e:	4a43      	ldr	r2, [pc, #268]	; (800518c <TIM_Base_SetConfig+0x130>)
 8005080:	4293      	cmp	r3, r2
 8005082:	d00b      	beq.n	800509c <TIM_Base_SetConfig+0x40>
 8005084:	687b      	ldr	r3, [r7, #4]
 8005086:	4a42      	ldr	r2, [pc, #264]	; (8005190 <TIM_Base_SetConfig+0x134>)
 8005088:	4293      	cmp	r3, r2
 800508a:	d007      	beq.n	800509c <TIM_Base_SetConfig+0x40>
 800508c:	687b      	ldr	r3, [r7, #4]
 800508e:	4a41      	ldr	r2, [pc, #260]	; (8005194 <TIM_Base_SetConfig+0x138>)
 8005090:	4293      	cmp	r3, r2
 8005092:	d003      	beq.n	800509c <TIM_Base_SetConfig+0x40>
 8005094:	687b      	ldr	r3, [r7, #4]
 8005096:	4a40      	ldr	r2, [pc, #256]	; (8005198 <TIM_Base_SetConfig+0x13c>)
 8005098:	4293      	cmp	r3, r2
 800509a:	d108      	bne.n	80050ae <TIM_Base_SetConfig+0x52>
  {
    /* Select the Counter Mode */
    tmpcr1 &= ~(TIM_CR1_DIR | TIM_CR1_CMS);
 800509c:	68fb      	ldr	r3, [r7, #12]
 800509e:	f023 0370 	bic.w	r3, r3, #112	; 0x70
 80050a2:	60fb      	str	r3, [r7, #12]
    tmpcr1 |= Structure->CounterMode;
 80050a4:	683b      	ldr	r3, [r7, #0]
 80050a6:	685b      	ldr	r3, [r3, #4]
 80050a8:	68fa      	ldr	r2, [r7, #12]
 80050aa:	4313      	orrs	r3, r2
 80050ac:	60fb      	str	r3, [r7, #12]
  }

  if (IS_TIM_CLOCK_DIVISION_INSTANCE(TIMx))
 80050ae:	687b      	ldr	r3, [r7, #4]
 80050b0:	4a35      	ldr	r2, [pc, #212]	; (8005188 <TIM_Base_SetConfig+0x12c>)
 80050b2:	4293      	cmp	r3, r2
 80050b4:	d02b      	beq.n	800510e <TIM_Base_SetConfig+0xb2>
 80050b6:	687b      	ldr	r3, [r7, #4]
 80050b8:	f1b3 4f80 	cmp.w	r3, #1073741824	; 0x40000000
 80050bc:	d027      	beq.n	800510e <TIM_Base_SetConfig+0xb2>
 80050be:	687b      	ldr	r3, [r7, #4]
 80050c0:	4a32      	ldr	r2, [pc, #200]	; (800518c <TIM_Base_SetConfig+0x130>)
 80050c2:	4293      	cmp	r3, r2
 80050c4:	d023      	beq.n	800510e <TIM_Base_SetConfig+0xb2>
 80050c6:	687b      	ldr	r3, [r7, #4]
 80050c8:	4a31      	ldr	r2, [pc, #196]	; (8005190 <TIM_Base_SetConfig+0x134>)
 80050ca:	4293      	cmp	r3, r2
 80050cc:	d01f      	beq.n	800510e <TIM_Base_SetConfig+0xb2>
 80050ce:	687b      	ldr	r3, [r7, #4]
 80050d0:	4a30      	ldr	r2, [pc, #192]	; (8005194 <TIM_Base_SetConfig+0x138>)
 80050d2:	4293      	cmp	r3, r2
 80050d4:	d01b      	beq.n	800510e <TIM_Base_SetConfig+0xb2>
 80050d6:	687b      	ldr	r3, [r7, #4]
 80050d8:	4a2f      	ldr	r2, [pc, #188]	; (8005198 <TIM_Base_SetConfig+0x13c>)
 80050da:	4293      	cmp	r3, r2
 80050dc:	d017      	beq.n	800510e <TIM_Base_SetConfig+0xb2>
 80050de:	687b      	ldr	r3, [r7, #4]
 80050e0:	4a2e      	ldr	r2, [pc, #184]	; (800519c <TIM_Base_SetConfig+0x140>)
 80050e2:	4293      	cmp	r3, r2
 80050e4:	d013      	beq.n	800510e <TIM_Base_SetConfig+0xb2>
 80050e6:	687b      	ldr	r3, [r7, #4]
 80050e8:	4a2d      	ldr	r2, [pc, #180]	; (80051a0 <TIM_Base_SetConfig+0x144>)
 80050ea:	4293      	cmp	r3, r2
 80050ec:	d00f      	beq.n	800510e <TIM_Base_SetConfig+0xb2>
 80050ee:	687b      	ldr	r3, [r7, #4]
 80050f0:	4a2c      	ldr	r2, [pc, #176]	; (80051a4 <TIM_Base_SetConfig+0x148>)
 80050f2:	4293      	cmp	r3, r2
 80050f4:	d00b      	beq.n	800510e <TIM_Base_SetConfig+0xb2>
 80050f6:	687b      	ldr	r3, [r7, #4]
 80050f8:	4a2b      	ldr	r2, [pc, #172]	; (80051a8 <TIM_Base_SetConfig+0x14c>)
 80050fa:	4293      	cmp	r3, r2
 80050fc:	d007      	beq.n	800510e <TIM_Base_SetConfig+0xb2>
 80050fe:	687b      	ldr	r3, [r7, #4]
 8005100:	4a2a      	ldr	r2, [pc, #168]	; (80051ac <TIM_Base_SetConfig+0x150>)
 8005102:	4293      	cmp	r3, r2
 8005104:	d003      	beq.n	800510e <TIM_Base_SetConfig+0xb2>
 8005106:	687b      	ldr	r3, [r7, #4]
 8005108:	4a29      	ldr	r2, [pc, #164]	; (80051b0 <TIM_Base_SetConfig+0x154>)
 800510a:	4293      	cmp	r3, r2
 800510c:	d108      	bne.n	8005120 <TIM_Base_SetConfig+0xc4>
  {
    /* Set the clock division */
    tmpcr1 &= ~TIM_CR1_CKD;
 800510e:	68fb      	ldr	r3, [r7, #12]
 8005110:	f423 7340 	bic.w	r3, r3, #768	; 0x300
 8005114:	60fb      	str	r3, [r7, #12]
    tmpcr1 |= (uint32_t)Structure->ClockDivision;
 8005116:	683b      	ldr	r3, [r7, #0]
 8005118:	68db      	ldr	r3, [r3, #12]
 800511a:	68fa      	ldr	r2, [r7, #12]
 800511c:	4313      	orrs	r3, r2
 800511e:	60fb      	str	r3, [r7, #12]
  }

  /* Set the auto-reload preload */
  MODIFY_REG(tmpcr1, TIM_CR1_ARPE, Structure->AutoReloadPreload);
 8005120:	68fb      	ldr	r3, [r7, #12]
 8005122:	f023 0280 	bic.w	r2, r3, #128	; 0x80
 8005126:	683b      	ldr	r3, [r7, #0]
 8005128:	695b      	ldr	r3, [r3, #20]
 800512a:	4313      	orrs	r3, r2
 800512c:	60fb      	str	r3, [r7, #12]

  TIMx->CR1 = tmpcr1;
 800512e:	687b      	ldr	r3, [r7, #4]
 8005130:	68fa      	ldr	r2, [r7, #12]
 8005132:	601a      	str	r2, [r3, #0]

  /* Set the Autoreload value */
  TIMx->ARR = (uint32_t)Structure->Period ;
 8005134:	683b      	ldr	r3, [r7, #0]
 8005136:	689a      	ldr	r2, [r3, #8]
 8005138:	687b      	ldr	r3, [r7, #4]
 800513a:	62da      	str	r2, [r3, #44]	; 0x2c

  /* Set the Prescaler value */
  TIMx->PSC = Structure->Prescaler;
 800513c:	683b      	ldr	r3, [r7, #0]
 800513e:	681a      	ldr	r2, [r3, #0]
 8005140:	687b      	ldr	r3, [r7, #4]
 8005142:	629a      	str	r2, [r3, #40]	; 0x28

  if (IS_TIM_REPETITION_COUNTER_INSTANCE(TIMx))
 8005144:	687b      	ldr	r3, [r7, #4]
 8005146:	4a10      	ldr	r2, [pc, #64]	; (8005188 <TIM_Base_SetConfig+0x12c>)
 8005148:	4293      	cmp	r3, r2
 800514a:	d003      	beq.n	8005154 <TIM_Base_SetConfig+0xf8>
 800514c:	687b      	ldr	r3, [r7, #4]
 800514e:	4a12      	ldr	r2, [pc, #72]	; (8005198 <TIM_Base_SetConfig+0x13c>)
 8005150:	4293      	cmp	r3, r2
 8005152:	d103      	bne.n	800515c <TIM_Base_SetConfig+0x100>
  {
    /* Set the Repetition Counter value */
    TIMx->RCR = Structure->RepetitionCounter;
 8005154:	683b      	ldr	r3, [r7, #0]
 8005156:	691a      	ldr	r2, [r3, #16]
 8005158:	687b      	ldr	r3, [r7, #4]
 800515a:	631a      	str	r2, [r3, #48]	; 0x30
  }

  /* Generate an update event to reload the Prescaler
     and the repetition counter (only for advanced timer) value immediately */
  TIMx->EGR = TIM_EGR_UG;
 800515c:	687b      	ldr	r3, [r7, #4]
 800515e:	2201      	movs	r2, #1
 8005160:	615a      	str	r2, [r3, #20]

  /* Check if the update flag is set after the Update Generation, if so clear the UIF flag */
  if (HAL_IS_BIT_SET(TIMx->SR, TIM_FLAG_UPDATE))
 8005162:	687b      	ldr	r3, [r7, #4]
 8005164:	691b      	ldr	r3, [r3, #16]
 8005166:	f003 0301 	and.w	r3, r3, #1
 800516a:	2b01      	cmp	r3, #1
 800516c:	d105      	bne.n	800517a <TIM_Base_SetConfig+0x11e>
  {
    /* Clear the update flag */
    CLEAR_BIT(TIMx->SR, TIM_FLAG_UPDATE);
 800516e:	687b      	ldr	r3, [r7, #4]
 8005170:	691b      	ldr	r3, [r3, #16]
 8005172:	f023 0201 	bic.w	r2, r3, #1
 8005176:	687b      	ldr	r3, [r7, #4]
 8005178:	611a      	str	r2, [r3, #16]
  }
}
 800517a:	bf00      	nop
 800517c:	3714      	adds	r7, #20
 800517e:	46bd      	mov	sp, r7
 8005180:	f85d 7b04 	ldr.w	r7, [sp], #4
 8005184:	4770      	bx	lr
 8005186:	bf00      	nop
 8005188:	40010000 	.word	0x40010000
 800518c:	40000400 	.word	0x40000400
 8005190:	40000800 	.word	0x40000800
 8005194:	40000c00 	.word	0x40000c00
 8005198:	40010400 	.word	0x40010400
 800519c:	40014000 	.word	0x40014000
 80051a0:	40014400 	.word	0x40014400
 80051a4:	40014800 	.word	0x40014800
 80051a8:	40001800 	.word	0x40001800
 80051ac:	40001c00 	.word	0x40001c00
 80051b0:	40002000 	.word	0x40002000

080051b4 <TIM_OC1_SetConfig>:
  * @param  TIMx to select the TIM peripheral
  * @param  OC_Config The output configuration structure
  * @retval None
  */
static void TIM_OC1_SetConfig(TIM_TypeDef *TIMx, const TIM_OC_InitTypeDef *OC_Config)
{
 80051b4:	b480      	push	{r7}
 80051b6:	b087      	sub	sp, #28
 80051b8:	af00      	add	r7, sp, #0
 80051ba:	6078      	str	r0, [r7, #4]
 80051bc:	6039      	str	r1, [r7, #0]
  uint32_t tmpccmrx;
  uint32_t tmpccer;
  uint32_t tmpcr2;

  /* Get the TIMx CCER register value */
  tmpccer = TIMx->CCER;
 80051be:	687b      	ldr	r3, [r7, #4]
 80051c0:	6a1b      	ldr	r3, [r3, #32]
 80051c2:	617b      	str	r3, [r7, #20]

  /* Disable the Channel 1: Reset the CC1E Bit */
  TIMx->CCER &= ~TIM_CCER_CC1E;
 80051c4:	687b      	ldr	r3, [r7, #4]
 80051c6:	6a1b      	ldr	r3, [r3, #32]
 80051c8:	f023 0201 	bic.w	r2, r3, #1
 80051cc:	687b      	ldr	r3, [r7, #4]
 80051ce:	621a      	str	r2, [r3, #32]

  /* Get the TIMx CR2 register value */
  tmpcr2 =  TIMx->CR2;
 80051d0:	687b      	ldr	r3, [r7, #4]
 80051d2:	685b      	ldr	r3, [r3, #4]
 80051d4:	613b      	str	r3, [r7, #16]

  /* Get the TIMx CCMR1 register value */
  tmpccmrx = TIMx->CCMR1;
 80051d6:	687b      	ldr	r3, [r7, #4]
 80051d8:	699b      	ldr	r3, [r3, #24]
 80051da:	60fb      	str	r3, [r7, #12]

  /* Reset the Output Compare Mode Bits */
  tmpccmrx &= ~TIM_CCMR1_OC1M;
 80051dc:	68fb      	ldr	r3, [r7, #12]
 80051de:	f023 0370 	bic.w	r3, r3, #112	; 0x70
 80051e2:	60fb      	str	r3, [r7, #12]
  tmpccmrx &= ~TIM_CCMR1_CC1S;
 80051e4:	68fb      	ldr	r3, [r7, #12]
 80051e6:	f023 0303 	bic.w	r3, r3, #3
 80051ea:	60fb      	str	r3, [r7, #12]
  /* Select the Output Compare Mode */
  tmpccmrx |= OC_Config->OCMode;
 80051ec:	683b      	ldr	r3, [r7, #0]
 80051ee:	681b      	ldr	r3, [r3, #0]
 80051f0:	68fa      	ldr	r2, [r7, #12]
 80051f2:	4313      	orrs	r3, r2
 80051f4:	60fb      	str	r3, [r7, #12]

  /* Reset the Output Polarity level */
  tmpccer &= ~TIM_CCER_CC1P;
 80051f6:	697b      	ldr	r3, [r7, #20]
 80051f8:	f023 0302 	bic.w	r3, r3, #2
 80051fc:	617b      	str	r3, [r7, #20]
  /* Set the Output Compare Polarity */
  tmpccer |= OC_Config->OCPolarity;
 80051fe:	683b      	ldr	r3, [r7, #0]
 8005200:	689b      	ldr	r3, [r3, #8]
 8005202:	697a      	ldr	r2, [r7, #20]
 8005204:	4313      	orrs	r3, r2
 8005206:	617b      	str	r3, [r7, #20]

  if (IS_TIM_CCXN_INSTANCE(TIMx, TIM_CHANNEL_1))
 8005208:	687b      	ldr	r3, [r7, #4]
 800520a:	4a20      	ldr	r2, [pc, #128]	; (800528c <TIM_OC1_SetConfig+0xd8>)
 800520c:	4293      	cmp	r3, r2
 800520e:	d003      	beq.n	8005218 <TIM_OC1_SetConfig+0x64>
 8005210:	687b      	ldr	r3, [r7, #4]
 8005212:	4a1f      	ldr	r2, [pc, #124]	; (8005290 <TIM_OC1_SetConfig+0xdc>)
 8005214:	4293      	cmp	r3, r2
 8005216:	d10c      	bne.n	8005232 <TIM_OC1_SetConfig+0x7e>
  {
    /* Check parameters */
    assert_param(IS_TIM_OCN_POLARITY(OC_Config->OCNPolarity));

    /* Reset the Output N Polarity level */
    tmpccer &= ~TIM_CCER_CC1NP;
 8005218:	697b      	ldr	r3, [r7, #20]
 800521a:	f023 0308 	bic.w	r3, r3, #8
 800521e:	617b      	str	r3, [r7, #20]
    /* Set the Output N Polarity */
    tmpccer |= OC_Config->OCNPolarity;
 8005220:	683b      	ldr	r3, [r7, #0]
 8005222:	68db      	ldr	r3, [r3, #12]
 8005224:	697a      	ldr	r2, [r7, #20]
 8005226:	4313      	orrs	r3, r2
 8005228:	617b      	str	r3, [r7, #20]
    /* Reset the Output N State */
    tmpccer &= ~TIM_CCER_CC1NE;
 800522a:	697b      	ldr	r3, [r7, #20]
 800522c:	f023 0304 	bic.w	r3, r3, #4
 8005230:	617b      	str	r3, [r7, #20]
  }

  if (IS_TIM_BREAK_INSTANCE(TIMx))
 8005232:	687b      	ldr	r3, [r7, #4]
 8005234:	4a15      	ldr	r2, [pc, #84]	; (800528c <TIM_OC1_SetConfig+0xd8>)
 8005236:	4293      	cmp	r3, r2
 8005238:	d003      	beq.n	8005242 <TIM_OC1_SetConfig+0x8e>
 800523a:	687b      	ldr	r3, [r7, #4]
 800523c:	4a14      	ldr	r2, [pc, #80]	; (8005290 <TIM_OC1_SetConfig+0xdc>)
 800523e:	4293      	cmp	r3, r2
 8005240:	d111      	bne.n	8005266 <TIM_OC1_SetConfig+0xb2>
    /* Check parameters */
    assert_param(IS_TIM_OCNIDLE_STATE(OC_Config->OCNIdleState));
    assert_param(IS_TIM_OCIDLE_STATE(OC_Config->OCIdleState));

    /* Reset the Output Compare and Output Compare N IDLE State */
    tmpcr2 &= ~TIM_CR2_OIS1;
 8005242:	693b      	ldr	r3, [r7, #16]
 8005244:	f423 7380 	bic.w	r3, r3, #256	; 0x100
 8005248:	613b      	str	r3, [r7, #16]
    tmpcr2 &= ~TIM_CR2_OIS1N;
 800524a:	693b      	ldr	r3, [r7, #16]
 800524c:	f423 7300 	bic.w	r3, r3, #512	; 0x200
 8005250:	613b      	str	r3, [r7, #16]
    /* Set the Output Idle state */
    tmpcr2 |= OC_Config->OCIdleState;
 8005252:	683b      	ldr	r3, [r7, #0]
 8005254:	695b      	ldr	r3, [r3, #20]
 8005256:	693a      	ldr	r2, [r7, #16]
 8005258:	4313      	orrs	r3, r2
 800525a:	613b      	str	r3, [r7, #16]
    /* Set the Output N Idle state */
    tmpcr2 |= OC_Config->OCNIdleState;
 800525c:	683b      	ldr	r3, [r7, #0]
 800525e:	699b      	ldr	r3, [r3, #24]
 8005260:	693a      	ldr	r2, [r7, #16]
 8005262:	4313      	orrs	r3, r2
 8005264:	613b      	str	r3, [r7, #16]
  }

  /* Write to TIMx CR2 */
  TIMx->CR2 = tmpcr2;
 8005266:	687b      	ldr	r3, [r7, #4]
 8005268:	693a      	ldr	r2, [r7, #16]
 800526a:	605a      	str	r2, [r3, #4]

  /* Write to TIMx CCMR1 */
  TIMx->CCMR1 = tmpccmrx;
 800526c:	687b      	ldr	r3, [r7, #4]
 800526e:	68fa      	ldr	r2, [r7, #12]
 8005270:	619a      	str	r2, [r3, #24]

  /* Set the Capture Compare Register value */
  TIMx->CCR1 = OC_Config->Pulse;
 8005272:	683b      	ldr	r3, [r7, #0]
 8005274:	685a      	ldr	r2, [r3, #4]
 8005276:	687b      	ldr	r3, [r7, #4]
 8005278:	635a      	str	r2, [r3, #52]	; 0x34

  /* Write to TIMx CCER */
  TIMx->CCER = tmpccer;
 800527a:	687b      	ldr	r3, [r7, #4]
 800527c:	697a      	ldr	r2, [r7, #20]
 800527e:	621a      	str	r2, [r3, #32]
}
 8005280:	bf00      	nop
 8005282:	371c      	adds	r7, #28
 8005284:	46bd      	mov	sp, r7
 8005286:	f85d 7b04 	ldr.w	r7, [sp], #4
 800528a:	4770      	bx	lr
 800528c:	40010000 	.word	0x40010000
 8005290:	40010400 	.word	0x40010400

08005294 <TIM_OC2_SetConfig>:
  * @param  TIMx to select the TIM peripheral
  * @param  OC_Config The output configuration structure
  * @retval None
  */
void TIM_OC2_SetConfig(TIM_TypeDef *TIMx, const TIM_OC_InitTypeDef *OC_Config)
{
 8005294:	b480      	push	{r7}
 8005296:	b087      	sub	sp, #28
 8005298:	af00      	add	r7, sp, #0
 800529a:	6078      	str	r0, [r7, #4]
 800529c:	6039      	str	r1, [r7, #0]
  uint32_t tmpccmrx;
  uint32_t tmpccer;
  uint32_t tmpcr2;

  /* Get the TIMx CCER register value */
  tmpccer = TIMx->CCER;
 800529e:	687b      	ldr	r3, [r7, #4]
 80052a0:	6a1b      	ldr	r3, [r3, #32]
 80052a2:	617b      	str	r3, [r7, #20]

  /* Disable the Channel 2: Reset the CC2E Bit */
  TIMx->CCER &= ~TIM_CCER_CC2E;
 80052a4:	687b      	ldr	r3, [r7, #4]
 80052a6:	6a1b      	ldr	r3, [r3, #32]
 80052a8:	f023 0210 	bic.w	r2, r3, #16
 80052ac:	687b      	ldr	r3, [r7, #4]
 80052ae:	621a      	str	r2, [r3, #32]

  /* Get the TIMx CR2 register value */
  tmpcr2 =  TIMx->CR2;
 80052b0:	687b      	ldr	r3, [r7, #4]
 80052b2:	685b      	ldr	r3, [r3, #4]
 80052b4:	613b      	str	r3, [r7, #16]

  /* Get the TIMx CCMR1 register value */
  tmpccmrx = TIMx->CCMR1;
 80052b6:	687b      	ldr	r3, [r7, #4]
 80052b8:	699b      	ldr	r3, [r3, #24]
 80052ba:	60fb      	str	r3, [r7, #12]

  /* Reset the Output Compare mode and Capture/Compare selection Bits */
  tmpccmrx &= ~TIM_CCMR1_OC2M;
 80052bc:	68fb      	ldr	r3, [r7, #12]
 80052be:	f423 43e0 	bic.w	r3, r3, #28672	; 0x7000
 80052c2:	60fb      	str	r3, [r7, #12]
  tmpccmrx &= ~TIM_CCMR1_CC2S;
 80052c4:	68fb      	ldr	r3, [r7, #12]
 80052c6:	f423 7340 	bic.w	r3, r3, #768	; 0x300
 80052ca:	60fb      	str	r3, [r7, #12]

  /* Select the Output Compare Mode */
  tmpccmrx |= (OC_Config->OCMode << 8U);
 80052cc:	683b      	ldr	r3, [r7, #0]
 80052ce:	681b      	ldr	r3, [r3, #0]
 80052d0:	021b      	lsls	r3, r3, #8
 80052d2:	68fa      	ldr	r2, [r7, #12]
 80052d4:	4313      	orrs	r3, r2
 80052d6:	60fb      	str	r3, [r7, #12]

  /* Reset the Output Polarity level */
  tmpccer &= ~TIM_CCER_CC2P;
 80052d8:	697b      	ldr	r3, [r7, #20]
 80052da:	f023 0320 	bic.w	r3, r3, #32
 80052de:	617b      	str	r3, [r7, #20]
  /* Set the Output Compare Polarity */
  tmpccer |= (OC_Config->OCPolarity << 4U);
 80052e0:	683b      	ldr	r3, [r7, #0]
 80052e2:	689b      	ldr	r3, [r3, #8]
 80052e4:	011b      	lsls	r3, r3, #4
 80052e6:	697a      	ldr	r2, [r7, #20]
 80052e8:	4313      	orrs	r3, r2
 80052ea:	617b      	str	r3, [r7, #20]

  if (IS_TIM_CCXN_INSTANCE(TIMx, TIM_CHANNEL_2))
 80052ec:	687b      	ldr	r3, [r7, #4]
 80052ee:	4a22      	ldr	r2, [pc, #136]	; (8005378 <TIM_OC2_SetConfig+0xe4>)
 80052f0:	4293      	cmp	r3, r2
 80052f2:	d003      	beq.n	80052fc <TIM_OC2_SetConfig+0x68>
 80052f4:	687b      	ldr	r3, [r7, #4]
 80052f6:	4a21      	ldr	r2, [pc, #132]	; (800537c <TIM_OC2_SetConfig+0xe8>)
 80052f8:	4293      	cmp	r3, r2
 80052fa:	d10d      	bne.n	8005318 <TIM_OC2_SetConfig+0x84>
  {
    assert_param(IS_TIM_OCN_POLARITY(OC_Config->OCNPolarity));

    /* Reset the Output N Polarity level */
    tmpccer &= ~TIM_CCER_CC2NP;
 80052fc:	697b      	ldr	r3, [r7, #20]
 80052fe:	f023 0380 	bic.w	r3, r3, #128	; 0x80
 8005302:	617b      	str	r3, [r7, #20]
    /* Set the Output N Polarity */
    tmpccer |= (OC_Config->OCNPolarity << 4U);
 8005304:	683b      	ldr	r3, [r7, #0]
 8005306:	68db      	ldr	r3, [r3, #12]
 8005308:	011b      	lsls	r3, r3, #4
 800530a:	697a      	ldr	r2, [r7, #20]
 800530c:	4313      	orrs	r3, r2
 800530e:	617b      	str	r3, [r7, #20]
    /* Reset the Output N State */
    tmpccer &= ~TIM_CCER_CC2NE;
 8005310:	697b      	ldr	r3, [r7, #20]
 8005312:	f023 0340 	bic.w	r3, r3, #64	; 0x40
 8005316:	617b      	str	r3, [r7, #20]
  }

  if (IS_TIM_BREAK_INSTANCE(TIMx))
 8005318:	687b      	ldr	r3, [r7, #4]
 800531a:	4a17      	ldr	r2, [pc, #92]	; (8005378 <TIM_OC2_SetConfig+0xe4>)
 800531c:	4293      	cmp	r3, r2
 800531e:	d003      	beq.n	8005328 <TIM_OC2_SetConfig+0x94>
 8005320:	687b      	ldr	r3, [r7, #4]
 8005322:	4a16      	ldr	r2, [pc, #88]	; (800537c <TIM_OC2_SetConfig+0xe8>)
 8005324:	4293      	cmp	r3, r2
 8005326:	d113      	bne.n	8005350 <TIM_OC2_SetConfig+0xbc>
    /* Check parameters */
    assert_param(IS_TIM_OCNIDLE_STATE(OC_Config->OCNIdleState));
    assert_param(IS_TIM_OCIDLE_STATE(OC_Config->OCIdleState));

    /* Reset the Output Compare and Output Compare N IDLE State */
    tmpcr2 &= ~TIM_CR2_OIS2;
 8005328:	693b      	ldr	r3, [r7, #16]
 800532a:	f423 6380 	bic.w	r3, r3, #1024	; 0x400
 800532e:	613b      	str	r3, [r7, #16]
    tmpcr2 &= ~TIM_CR2_OIS2N;
 8005330:	693b      	ldr	r3, [r7, #16]
 8005332:	f423 6300 	bic.w	r3, r3, #2048	; 0x800
 8005336:	613b      	str	r3, [r7, #16]
    /* Set the Output Idle state */
    tmpcr2 |= (OC_Config->OCIdleState << 2U);
 8005338:	683b      	ldr	r3, [r7, #0]
 800533a:	695b      	ldr	r3, [r3, #20]
 800533c:	009b      	lsls	r3, r3, #2
 800533e:	693a      	ldr	r2, [r7, #16]
 8005340:	4313      	orrs	r3, r2
 8005342:	613b      	str	r3, [r7, #16]
    /* Set the Output N Idle state */
    tmpcr2 |= (OC_Config->OCNIdleState << 2U);
 8005344:	683b      	ldr	r3, [r7, #0]
 8005346:	699b      	ldr	r3, [r3, #24]
 8005348:	009b      	lsls	r3, r3, #2
 800534a:	693a      	ldr	r2, [r7, #16]
 800534c:	4313      	orrs	r3, r2
 800534e:	613b      	str	r3, [r7, #16]
  }

  /* Write to TIMx CR2 */
  TIMx->CR2 = tmpcr2;
 8005350:	687b      	ldr	r3, [r7, #4]
 8005352:	693a      	ldr	r2, [r7, #16]
 8005354:	605a      	str	r2, [r3, #4]

  /* Write to TIMx CCMR1 */
  TIMx->CCMR1 = tmpccmrx;
 8005356:	687b      	ldr	r3, [r7, #4]
 8005358:	68fa      	ldr	r2, [r7, #12]
 800535a:	619a      	str	r2, [r3, #24]

  /* Set the Capture Compare Register value */
  TIMx->CCR2 = OC_Config->Pulse;
 800535c:	683b      	ldr	r3, [r7, #0]
 800535e:	685a      	ldr	r2, [r3, #4]
 8005360:	687b      	ldr	r3, [r7, #4]
 8005362:	639a      	str	r2, [r3, #56]	; 0x38

  /* Write to TIMx CCER */
  TIMx->CCER = tmpccer;
 8005364:	687b      	ldr	r3, [r7, #4]
 8005366:	697a      	ldr	r2, [r7, #20]
 8005368:	621a      	str	r2, [r3, #32]
}
 800536a:	bf00      	nop
 800536c:	371c      	adds	r7, #28
 800536e:	46bd      	mov	sp, r7
 8005370:	f85d 7b04 	ldr.w	r7, [sp], #4
 8005374:	4770      	bx	lr
 8005376:	bf00      	nop
 8005378:	40010000 	.word	0x40010000
 800537c:	40010400 	.word	0x40010400

08005380 <TIM_OC3_SetConfig>:
  * @param  TIMx to select the TIM peripheral
  * @param  OC_Config The output configuration structure
  * @retval None
  */
static void TIM_OC3_SetConfig(TIM_TypeDef *TIMx, const TIM_OC_InitTypeDef *OC_Config)
{
 8005380:	b480      	push	{r7}
 8005382:	b087      	sub	sp, #28
 8005384:	af00      	add	r7, sp, #0
 8005386:	6078      	str	r0, [r7, #4]
 8005388:	6039      	str	r1, [r7, #0]
  uint32_t tmpccmrx;
  uint32_t tmpccer;
  uint32_t tmpcr2;

  /* Get the TIMx CCER register value */
  tmpccer = TIMx->CCER;
 800538a:	687b      	ldr	r3, [r7, #4]
 800538c:	6a1b      	ldr	r3, [r3, #32]
 800538e:	617b      	str	r3, [r7, #20]

  /* Disable the Channel 3: Reset the CC2E Bit */
  TIMx->CCER &= ~TIM_CCER_CC3E;
 8005390:	687b      	ldr	r3, [r7, #4]
 8005392:	6a1b      	ldr	r3, [r3, #32]
 8005394:	f423 7280 	bic.w	r2, r3, #256	; 0x100
 8005398:	687b      	ldr	r3, [r7, #4]
 800539a:	621a      	str	r2, [r3, #32]

  /* Get the TIMx CR2 register value */
  tmpcr2 =  TIMx->CR2;
 800539c:	687b      	ldr	r3, [r7, #4]
 800539e:	685b      	ldr	r3, [r3, #4]
 80053a0:	613b      	str	r3, [r7, #16]

  /* Get the TIMx CCMR2 register value */
  tmpccmrx = TIMx->CCMR2;
 80053a2:	687b      	ldr	r3, [r7, #4]
 80053a4:	69db      	ldr	r3, [r3, #28]
 80053a6:	60fb      	str	r3, [r7, #12]

  /* Reset the Output Compare mode and Capture/Compare selection Bits */
  tmpccmrx &= ~TIM_CCMR2_OC3M;
 80053a8:	68fb      	ldr	r3, [r7, #12]
 80053aa:	f023 0370 	bic.w	r3, r3, #112	; 0x70
 80053ae:	60fb      	str	r3, [r7, #12]
  tmpccmrx &= ~TIM_CCMR2_CC3S;
 80053b0:	68fb      	ldr	r3, [r7, #12]
 80053b2:	f023 0303 	bic.w	r3, r3, #3
 80053b6:	60fb      	str	r3, [r7, #12]
  /* Select the Output Compare Mode */
  tmpccmrx |= OC_Config->OCMode;
 80053b8:	683b      	ldr	r3, [r7, #0]
 80053ba:	681b      	ldr	r3, [r3, #0]
 80053bc:	68fa      	ldr	r2, [r7, #12]
 80053be:	4313      	orrs	r3, r2
 80053c0:	60fb      	str	r3, [r7, #12]

  /* Reset the Output Polarity level */
  tmpccer &= ~TIM_CCER_CC3P;
 80053c2:	697b      	ldr	r3, [r7, #20]
 80053c4:	f423 7300 	bic.w	r3, r3, #512	; 0x200
 80053c8:	617b      	str	r3, [r7, #20]
  /* Set the Output Compare Polarity */
  tmpccer |= (OC_Config->OCPolarity << 8U);
 80053ca:	683b      	ldr	r3, [r7, #0]
 80053cc:	689b      	ldr	r3, [r3, #8]
 80053ce:	021b      	lsls	r3, r3, #8
 80053d0:	697a      	ldr	r2, [r7, #20]
 80053d2:	4313      	orrs	r3, r2
 80053d4:	617b      	str	r3, [r7, #20]

  if (IS_TIM_CCXN_INSTANCE(TIMx, TIM_CHANNEL_3))
 80053d6:	687b      	ldr	r3, [r7, #4]
 80053d8:	4a21      	ldr	r2, [pc, #132]	; (8005460 <TIM_OC3_SetConfig+0xe0>)
 80053da:	4293      	cmp	r3, r2
 80053dc:	d003      	beq.n	80053e6 <TIM_OC3_SetConfig+0x66>
 80053de:	687b      	ldr	r3, [r7, #4]
 80053e0:	4a20      	ldr	r2, [pc, #128]	; (8005464 <TIM_OC3_SetConfig+0xe4>)
 80053e2:	4293      	cmp	r3, r2
 80053e4:	d10d      	bne.n	8005402 <TIM_OC3_SetConfig+0x82>
  {
    assert_param(IS_TIM_OCN_POLARITY(OC_Config->OCNPolarity));

    /* Reset the Output N Polarity level */
    tmpccer &= ~TIM_CCER_CC3NP;
 80053e6:	697b      	ldr	r3, [r7, #20]
 80053e8:	f423 6300 	bic.w	r3, r3, #2048	; 0x800
 80053ec:	617b      	str	r3, [r7, #20]
    /* Set the Output N Polarity */
    tmpccer |= (OC_Config->OCNPolarity << 8U);
 80053ee:	683b      	ldr	r3, [r7, #0]
 80053f0:	68db      	ldr	r3, [r3, #12]
 80053f2:	021b      	lsls	r3, r3, #8
 80053f4:	697a      	ldr	r2, [r7, #20]
 80053f6:	4313      	orrs	r3, r2
 80053f8:	617b      	str	r3, [r7, #20]
    /* Reset the Output N State */
    tmpccer &= ~TIM_CCER_CC3NE;
 80053fa:	697b      	ldr	r3, [r7, #20]
 80053fc:	f423 6380 	bic.w	r3, r3, #1024	; 0x400
 8005400:	617b      	str	r3, [r7, #20]
  }

  if (IS_TIM_BREAK_INSTANCE(TIMx))
 8005402:	687b      	ldr	r3, [r7, #4]
 8005404:	4a16      	ldr	r2, [pc, #88]	; (8005460 <TIM_OC3_SetConfig+0xe0>)
 8005406:	4293      	cmp	r3, r2
 8005408:	d003      	beq.n	8005412 <TIM_OC3_SetConfig+0x92>
 800540a:	687b      	ldr	r3, [r7, #4]
 800540c:	4a15      	ldr	r2, [pc, #84]	; (8005464 <TIM_OC3_SetConfig+0xe4>)
 800540e:	4293      	cmp	r3, r2
 8005410:	d113      	bne.n	800543a <TIM_OC3_SetConfig+0xba>
    /* Check parameters */
    assert_param(IS_TIM_OCNIDLE_STATE(OC_Config->OCNIdleState));
    assert_param(IS_TIM_OCIDLE_STATE(OC_Config->OCIdleState));

    /* Reset the Output Compare and Output Compare N IDLE State */
    tmpcr2 &= ~TIM_CR2_OIS3;
 8005412:	693b      	ldr	r3, [r7, #16]
 8005414:	f423 5380 	bic.w	r3, r3, #4096	; 0x1000
 8005418:	613b      	str	r3, [r7, #16]
    tmpcr2 &= ~TIM_CR2_OIS3N;
 800541a:	693b      	ldr	r3, [r7, #16]
 800541c:	f423 5300 	bic.w	r3, r3, #8192	; 0x2000
 8005420:	613b      	str	r3, [r7, #16]
    /* Set the Output Idle state */
    tmpcr2 |= (OC_Config->OCIdleState << 4U);
 8005422:	683b      	ldr	r3, [r7, #0]
 8005424:	695b      	ldr	r3, [r3, #20]
 8005426:	011b      	lsls	r3, r3, #4
 8005428:	693a      	ldr	r2, [r7, #16]
 800542a:	4313      	orrs	r3, r2
 800542c:	613b      	str	r3, [r7, #16]
    /* Set the Output N Idle state */
    tmpcr2 |= (OC_Config->OCNIdleState << 4U);
 800542e:	683b      	ldr	r3, [r7, #0]
 8005430:	699b      	ldr	r3, [r3, #24]
 8005432:	011b      	lsls	r3, r3, #4
 8005434:	693a      	ldr	r2, [r7, #16]
 8005436:	4313      	orrs	r3, r2
 8005438:	613b      	str	r3, [r7, #16]
  }

  /* Write to TIMx CR2 */
  TIMx->CR2 = tmpcr2;
 800543a:	687b      	ldr	r3, [r7, #4]
 800543c:	693a      	ldr	r2, [r7, #16]
 800543e:	605a      	str	r2, [r3, #4]

  /* Write to TIMx CCMR2 */
  TIMx->CCMR2 = tmpccmrx;
 8005440:	687b      	ldr	r3, [r7, #4]
 8005442:	68fa      	ldr	r2, [r7, #12]
 8005444:	61da      	str	r2, [r3, #28]

  /* Set the Capture Compare Register value */
  TIMx->CCR3 = OC_Config->Pulse;
 8005446:	683b      	ldr	r3, [r7, #0]
 8005448:	685a      	ldr	r2, [r3, #4]
 800544a:	687b      	ldr	r3, [r7, #4]
 800544c:	63da      	str	r2, [r3, #60]	; 0x3c

  /* Write to TIMx CCER */
  TIMx->CCER = tmpccer;
 800544e:	687b      	ldr	r3, [r7, #4]
 8005450:	697a      	ldr	r2, [r7, #20]
 8005452:	621a      	str	r2, [r3, #32]
}
 8005454:	bf00      	nop
 8005456:	371c      	adds	r7, #28
 8005458:	46bd      	mov	sp, r7
 800545a:	f85d 7b04 	ldr.w	r7, [sp], #4
 800545e:	4770      	bx	lr
 8005460:	40010000 	.word	0x40010000
 8005464:	40010400 	.word	0x40010400

08005468 <TIM_OC4_SetConfig>:
  * @param  TIMx to select the TIM peripheral
  * @param  OC_Config The output configuration structure
  * @retval None
  */
static void TIM_OC4_SetConfig(TIM_TypeDef *TIMx, const TIM_OC_InitTypeDef *OC_Config)
{
 8005468:	b480      	push	{r7}
 800546a:	b087      	sub	sp, #28
 800546c:	af00      	add	r7, sp, #0
 800546e:	6078      	str	r0, [r7, #4]
 8005470:	6039      	str	r1, [r7, #0]
  uint32_t tmpccmrx;
  uint32_t tmpccer;
  uint32_t tmpcr2;

  /* Get the TIMx CCER register value */
  tmpccer = TIMx->CCER;
 8005472:	687b      	ldr	r3, [r7, #4]
 8005474:	6a1b      	ldr	r3, [r3, #32]
 8005476:	613b      	str	r3, [r7, #16]

  /* Disable the Channel 4: Reset the CC4E Bit */
  TIMx->CCER &= ~TIM_CCER_CC4E;
 8005478:	687b      	ldr	r3, [r7, #4]
 800547a:	6a1b      	ldr	r3, [r3, #32]
 800547c:	f423 5280 	bic.w	r2, r3, #4096	; 0x1000
 8005480:	687b      	ldr	r3, [r7, #4]
 8005482:	621a      	str	r2, [r3, #32]

  /* Get the TIMx CR2 register value */
  tmpcr2 =  TIMx->CR2;
 8005484:	687b      	ldr	r3, [r7, #4]
 8005486:	685b      	ldr	r3, [r3, #4]
 8005488:	617b      	str	r3, [r7, #20]

  /* Get the TIMx CCMR2 register value */
  tmpccmrx = TIMx->CCMR2;
 800548a:	687b      	ldr	r3, [r7, #4]
 800548c:	69db      	ldr	r3, [r3, #28]
 800548e:	60fb      	str	r3, [r7, #12]

  /* Reset the Output Compare mode and Capture/Compare selection Bits */
  tmpccmrx &= ~TIM_CCMR2_OC4M;
 8005490:	68fb      	ldr	r3, [r7, #12]
 8005492:	f423 43e0 	bic.w	r3, r3, #28672	; 0x7000
 8005496:	60fb      	str	r3, [r7, #12]
  tmpccmrx &= ~TIM_CCMR2_CC4S;
 8005498:	68fb      	ldr	r3, [r7, #12]
 800549a:	f423 7340 	bic.w	r3, r3, #768	; 0x300
 800549e:	60fb      	str	r3, [r7, #12]

  /* Select the Output Compare Mode */
  tmpccmrx |= (OC_Config->OCMode << 8U);
 80054a0:	683b      	ldr	r3, [r7, #0]
 80054a2:	681b      	ldr	r3, [r3, #0]
 80054a4:	021b      	lsls	r3, r3, #8
 80054a6:	68fa      	ldr	r2, [r7, #12]
 80054a8:	4313      	orrs	r3, r2
 80054aa:	60fb      	str	r3, [r7, #12]

  /* Reset the Output Polarity level */
  tmpccer &= ~TIM_CCER_CC4P;
 80054ac:	693b      	ldr	r3, [r7, #16]
 80054ae:	f423 5300 	bic.w	r3, r3, #8192	; 0x2000
 80054b2:	613b      	str	r3, [r7, #16]
  /* Set the Output Compare Polarity */
  tmpccer |= (OC_Config->OCPolarity << 12U);
 80054b4:	683b      	ldr	r3, [r7, #0]
 80054b6:	689b      	ldr	r3, [r3, #8]
 80054b8:	031b      	lsls	r3, r3, #12
 80054ba:	693a      	ldr	r2, [r7, #16]
 80054bc:	4313      	orrs	r3, r2
 80054be:	613b      	str	r3, [r7, #16]

  if (IS_TIM_BREAK_INSTANCE(TIMx))
 80054c0:	687b      	ldr	r3, [r7, #4]
 80054c2:	4a12      	ldr	r2, [pc, #72]	; (800550c <TIM_OC4_SetConfig+0xa4>)
 80054c4:	4293      	cmp	r3, r2
 80054c6:	d003      	beq.n	80054d0 <TIM_OC4_SetConfig+0x68>
 80054c8:	687b      	ldr	r3, [r7, #4]
 80054ca:	4a11      	ldr	r2, [pc, #68]	; (8005510 <TIM_OC4_SetConfig+0xa8>)
 80054cc:	4293      	cmp	r3, r2
 80054ce:	d109      	bne.n	80054e4 <TIM_OC4_SetConfig+0x7c>
  {
    /* Check parameters */
    assert_param(IS_TIM_OCIDLE_STATE(OC_Config->OCIdleState));

    /* Reset the Output Compare IDLE State */
    tmpcr2 &= ~TIM_CR2_OIS4;
 80054d0:	697b      	ldr	r3, [r7, #20]
 80054d2:	f423 4380 	bic.w	r3, r3, #16384	; 0x4000
 80054d6:	617b      	str	r3, [r7, #20]

    /* Set the Output Idle state */
    tmpcr2 |= (OC_Config->OCIdleState << 6U);
 80054d8:	683b      	ldr	r3, [r7, #0]
 80054da:	695b      	ldr	r3, [r3, #20]
 80054dc:	019b      	lsls	r3, r3, #6
 80054de:	697a      	ldr	r2, [r7, #20]
 80054e0:	4313      	orrs	r3, r2
 80054e2:	617b      	str	r3, [r7, #20]
  }

  /* Write to TIMx CR2 */
  TIMx->CR2 = tmpcr2;
 80054e4:	687b      	ldr	r3, [r7, #4]
 80054e6:	697a      	ldr	r2, [r7, #20]
 80054e8:	605a      	str	r2, [r3, #4]

  /* Write to TIMx CCMR2 */
  TIMx->CCMR2 = tmpccmrx;
 80054ea:	687b      	ldr	r3, [r7, #4]
 80054ec:	68fa      	ldr	r2, [r7, #12]
 80054ee:	61da      	str	r2, [r3, #28]

  /* Set the Capture Compare Register value */
  TIMx->CCR4 = OC_Config->Pulse;
 80054f0:	683b      	ldr	r3, [r7, #0]
 80054f2:	685a      	ldr	r2, [r3, #4]
 80054f4:	687b      	ldr	r3, [r7, #4]
 80054f6:	641a      	str	r2, [r3, #64]	; 0x40

  /* Write to TIMx CCER */
  TIMx->CCER = tmpccer;
 80054f8:	687b      	ldr	r3, [r7, #4]
 80054fa:	693a      	ldr	r2, [r7, #16]
 80054fc:	621a      	str	r2, [r3, #32]
}
 80054fe:	bf00      	nop
 8005500:	371c      	adds	r7, #28
 8005502:	46bd      	mov	sp, r7
 8005504:	f85d 7b04 	ldr.w	r7, [sp], #4
 8005508:	4770      	bx	lr
 800550a:	bf00      	nop
 800550c:	40010000 	.word	0x40010000
 8005510:	40010400 	.word	0x40010400

08005514 <TIM_TI1_ConfigInputStage>:
  * @param  TIM_ICFilter Specifies the Input Capture Filter.
  *          This parameter must be a value between 0x00 and 0x0F.
  * @retval None
  */
static void TIM_TI1_ConfigInputStage(TIM_TypeDef *TIMx, uint32_t TIM_ICPolarity, uint32_t TIM_ICFilter)
{
 8005514:	b480      	push	{r7}
 8005516:	b087      	sub	sp, #28
 8005518:	af00      	add	r7, sp, #0
 800551a:	60f8      	str	r0, [r7, #12]
 800551c:	60b9      	str	r1, [r7, #8]
 800551e:	607a      	str	r2, [r7, #4]
  uint32_t tmpccmr1;
  uint32_t tmpccer;

  /* Disable the Channel 1: Reset the CC1E Bit */
  tmpccer = TIMx->CCER;
 8005520:	68fb      	ldr	r3, [r7, #12]
 8005522:	6a1b      	ldr	r3, [r3, #32]
 8005524:	617b      	str	r3, [r7, #20]
  TIMx->CCER &= ~TIM_CCER_CC1E;
 8005526:	68fb      	ldr	r3, [r7, #12]
 8005528:	6a1b      	ldr	r3, [r3, #32]
 800552a:	f023 0201 	bic.w	r2, r3, #1
 800552e:	68fb      	ldr	r3, [r7, #12]
 8005530:	621a      	str	r2, [r3, #32]
  tmpccmr1 = TIMx->CCMR1;
 8005532:	68fb      	ldr	r3, [r7, #12]
 8005534:	699b      	ldr	r3, [r3, #24]
 8005536:	613b      	str	r3, [r7, #16]

  /* Set the filter */
  tmpccmr1 &= ~TIM_CCMR1_IC1F;
 8005538:	693b      	ldr	r3, [r7, #16]
 800553a:	f023 03f0 	bic.w	r3, r3, #240	; 0xf0
 800553e:	613b      	str	r3, [r7, #16]
  tmpccmr1 |= (TIM_ICFilter << 4U);
 8005540:	687b      	ldr	r3, [r7, #4]
 8005542:	011b      	lsls	r3, r3, #4
 8005544:	693a      	ldr	r2, [r7, #16]
 8005546:	4313      	orrs	r3, r2
 8005548:	613b      	str	r3, [r7, #16]

  /* Select the Polarity and set the CC1E Bit */
  tmpccer &= ~(TIM_CCER_CC1P | TIM_CCER_CC1NP);
 800554a:	697b      	ldr	r3, [r7, #20]
 800554c:	f023 030a 	bic.w	r3, r3, #10
 8005550:	617b      	str	r3, [r7, #20]
  tmpccer |= TIM_ICPolarity;
 8005552:	697a      	ldr	r2, [r7, #20]
 8005554:	68bb      	ldr	r3, [r7, #8]
 8005556:	4313      	orrs	r3, r2
 8005558:	617b      	str	r3, [r7, #20]

  /* Write to TIMx CCMR1 and CCER registers */
  TIMx->CCMR1 = tmpccmr1;
 800555a:	68fb      	ldr	r3, [r7, #12]
 800555c:	693a      	ldr	r2, [r7, #16]
 800555e:	619a      	str	r2, [r3, #24]
  TIMx->CCER = tmpccer;
 8005560:	68fb      	ldr	r3, [r7, #12]
 8005562:	697a      	ldr	r2, [r7, #20]
 8005564:	621a      	str	r2, [r3, #32]
}
 8005566:	bf00      	nop
 8005568:	371c      	adds	r7, #28
 800556a:	46bd      	mov	sp, r7
 800556c:	f85d 7b04 	ldr.w	r7, [sp], #4
 8005570:	4770      	bx	lr

08005572 <TIM_TI2_ConfigInputStage>:
  * @param  TIM_ICFilter Specifies the Input Capture Filter.
  *          This parameter must be a value between 0x00 and 0x0F.
  * @retval None
  */
static void TIM_TI2_ConfigInputStage(TIM_TypeDef *TIMx, uint32_t TIM_ICPolarity, uint32_t TIM_ICFilter)
{
 8005572:	b480      	push	{r7}
 8005574:	b087      	sub	sp, #28
 8005576:	af00      	add	r7, sp, #0
 8005578:	60f8      	str	r0, [r7, #12]
 800557a:	60b9      	str	r1, [r7, #8]
 800557c:	607a      	str	r2, [r7, #4]
  uint32_t tmpccmr1;
  uint32_t tmpccer;

  /* Disable the Channel 2: Reset the CC2E Bit */
  tmpccer = TIMx->CCER;
 800557e:	68fb      	ldr	r3, [r7, #12]
 8005580:	6a1b      	ldr	r3, [r3, #32]
 8005582:	617b      	str	r3, [r7, #20]
  TIMx->CCER &= ~TIM_CCER_CC2E;
 8005584:	68fb      	ldr	r3, [r7, #12]
 8005586:	6a1b      	ldr	r3, [r3, #32]
 8005588:	f023 0210 	bic.w	r2, r3, #16
 800558c:	68fb      	ldr	r3, [r7, #12]
 800558e:	621a      	str	r2, [r3, #32]
  tmpccmr1 = TIMx->CCMR1;
 8005590:	68fb      	ldr	r3, [r7, #12]
 8005592:	699b      	ldr	r3, [r3, #24]
 8005594:	613b      	str	r3, [r7, #16]

  /* Set the filter */
  tmpccmr1 &= ~TIM_CCMR1_IC2F;
 8005596:	693b      	ldr	r3, [r7, #16]
 8005598:	f423 4370 	bic.w	r3, r3, #61440	; 0xf000
 800559c:	613b      	str	r3, [r7, #16]
  tmpccmr1 |= (TIM_ICFilter << 12U);
 800559e:	687b      	ldr	r3, [r7, #4]
 80055a0:	031b      	lsls	r3, r3, #12
 80055a2:	693a      	ldr	r2, [r7, #16]
 80055a4:	4313      	orrs	r3, r2
 80055a6:	613b      	str	r3, [r7, #16]

  /* Select the Polarity and set the CC2E Bit */
  tmpccer &= ~(TIM_CCER_CC2P | TIM_CCER_CC2NP);
 80055a8:	697b      	ldr	r3, [r7, #20]
 80055aa:	f023 03a0 	bic.w	r3, r3, #160	; 0xa0
 80055ae:	617b      	str	r3, [r7, #20]
  tmpccer |= (TIM_ICPolarity << 4U);
 80055b0:	68bb      	ldr	r3, [r7, #8]
 80055b2:	011b      	lsls	r3, r3, #4
 80055b4:	697a      	ldr	r2, [r7, #20]
 80055b6:	4313      	orrs	r3, r2
 80055b8:	617b      	str	r3, [r7, #20]

  /* Write to TIMx CCMR1 and CCER registers */
  TIMx->CCMR1 = tmpccmr1 ;
 80055ba:	68fb      	ldr	r3, [r7, #12]
 80055bc:	693a      	ldr	r2, [r7, #16]
 80055be:	619a      	str	r2, [r3, #24]
  TIMx->CCER = tmpccer;
 80055c0:	68fb      	ldr	r3, [r7, #12]
 80055c2:	697a      	ldr	r2, [r7, #20]
 80055c4:	621a      	str	r2, [r3, #32]
}
 80055c6:	bf00      	nop
 80055c8:	371c      	adds	r7, #28
 80055ca:	46bd      	mov	sp, r7
 80055cc:	f85d 7b04 	ldr.w	r7, [sp], #4
 80055d0:	4770      	bx	lr

080055d2 <TIM_ITRx_SetConfig>:
  *            @arg TIM_TS_TI2FP2: Filtered Timer Input 2
  *            @arg TIM_TS_ETRF: External Trigger input
  * @retval None
  */
static void TIM_ITRx_SetConfig(TIM_TypeDef *TIMx, uint32_t InputTriggerSource)
{
 80055d2:	b480      	push	{r7}
 80055d4:	b085      	sub	sp, #20
 80055d6:	af00      	add	r7, sp, #0
 80055d8:	6078      	str	r0, [r7, #4]
 80055da:	6039      	str	r1, [r7, #0]
  uint32_t tmpsmcr;

  /* Get the TIMx SMCR register value */
  tmpsmcr = TIMx->SMCR;
 80055dc:	687b      	ldr	r3, [r7, #4]
 80055de:	689b      	ldr	r3, [r3, #8]
 80055e0:	60fb      	str	r3, [r7, #12]
  /* Reset the TS Bits */
  tmpsmcr &= ~TIM_SMCR_TS;
 80055e2:	68fb      	ldr	r3, [r7, #12]
 80055e4:	f023 0370 	bic.w	r3, r3, #112	; 0x70
 80055e8:	60fb      	str	r3, [r7, #12]
  /* Set the Input Trigger source and the slave mode*/
  tmpsmcr |= (InputTriggerSource | TIM_SLAVEMODE_EXTERNAL1);
 80055ea:	683a      	ldr	r2, [r7, #0]
 80055ec:	68fb      	ldr	r3, [r7, #12]
 80055ee:	4313      	orrs	r3, r2
 80055f0:	f043 0307 	orr.w	r3, r3, #7
 80055f4:	60fb      	str	r3, [r7, #12]
  /* Write to TIMx SMCR */
  TIMx->SMCR = tmpsmcr;
 80055f6:	687b      	ldr	r3, [r7, #4]
 80055f8:	68fa      	ldr	r2, [r7, #12]
 80055fa:	609a      	str	r2, [r3, #8]
}
 80055fc:	bf00      	nop
 80055fe:	3714      	adds	r7, #20
 8005600:	46bd      	mov	sp, r7
 8005602:	f85d 7b04 	ldr.w	r7, [sp], #4
 8005606:	4770      	bx	lr

08005608 <TIM_ETR_SetConfig>:
  *          This parameter must be a value between 0x00 and 0x0F
  * @retval None
  */
void TIM_ETR_SetConfig(TIM_TypeDef *TIMx, uint32_t TIM_ExtTRGPrescaler,
                       uint32_t TIM_ExtTRGPolarity, uint32_t ExtTRGFilter)
{
 8005608:	b480      	push	{r7}
 800560a:	b087      	sub	sp, #28
 800560c:	af00      	add	r7, sp, #0
 800560e:	60f8      	str	r0, [r7, #12]
 8005610:	60b9      	str	r1, [r7, #8]
 8005612:	607a      	str	r2, [r7, #4]
 8005614:	603b      	str	r3, [r7, #0]
  uint32_t tmpsmcr;

  tmpsmcr = TIMx->SMCR;
 8005616:	68fb      	ldr	r3, [r7, #12]
 8005618:	689b      	ldr	r3, [r3, #8]
 800561a:	617b      	str	r3, [r7, #20]

  /* Reset the ETR Bits */
  tmpsmcr &= ~(TIM_SMCR_ETF | TIM_SMCR_ETPS | TIM_SMCR_ECE | TIM_SMCR_ETP);
 800561c:	697b      	ldr	r3, [r7, #20]
 800561e:	f423 437f 	bic.w	r3, r3, #65280	; 0xff00
 8005622:	617b      	str	r3, [r7, #20]

  /* Set the Prescaler, the Filter value and the Polarity */
  tmpsmcr |= (uint32_t)(TIM_ExtTRGPrescaler | (TIM_ExtTRGPolarity | (ExtTRGFilter << 8U)));
 8005624:	683b      	ldr	r3, [r7, #0]
 8005626:	021a      	lsls	r2, r3, #8
 8005628:	687b      	ldr	r3, [r7, #4]
 800562a:	431a      	orrs	r2, r3
 800562c:	68bb      	ldr	r3, [r7, #8]
 800562e:	4313      	orrs	r3, r2
 8005630:	697a      	ldr	r2, [r7, #20]
 8005632:	4313      	orrs	r3, r2
 8005634:	617b      	str	r3, [r7, #20]

  /* Write to TIMx SMCR */
  TIMx->SMCR = tmpsmcr;
 8005636:	68fb      	ldr	r3, [r7, #12]
 8005638:	697a      	ldr	r2, [r7, #20]
 800563a:	609a      	str	r2, [r3, #8]
}
 800563c:	bf00      	nop
 800563e:	371c      	adds	r7, #28
 8005640:	46bd      	mov	sp, r7
 8005642:	f85d 7b04 	ldr.w	r7, [sp], #4
 8005646:	4770      	bx	lr

08005648 <TIM_CCxChannelCmd>:
  * @param  ChannelState specifies the TIM Channel CCxE bit new state.
  *          This parameter can be: TIM_CCx_ENABLE or TIM_CCx_DISABLE.
  * @retval None
  */
void TIM_CCxChannelCmd(TIM_TypeDef *TIMx, uint32_t Channel, uint32_t ChannelState)
{
 8005648:	b480      	push	{r7}
 800564a:	b087      	sub	sp, #28
 800564c:	af00      	add	r7, sp, #0
 800564e:	60f8      	str	r0, [r7, #12]
 8005650:	60b9      	str	r1, [r7, #8]
 8005652:	607a      	str	r2, [r7, #4]

  /* Check the parameters */
  assert_param(IS_TIM_CC1_INSTANCE(TIMx));
  assert_param(IS_TIM_CHANNELS(Channel));

  tmp = TIM_CCER_CC1E << (Channel & 0x1FU); /* 0x1FU = 31 bits max shift */
 8005654:	68bb      	ldr	r3, [r7, #8]
 8005656:	f003 031f 	and.w	r3, r3, #31
 800565a:	2201      	movs	r2, #1
 800565c:	fa02 f303 	lsl.w	r3, r2, r3
 8005660:	617b      	str	r3, [r7, #20]

  /* Reset the CCxE Bit */
  TIMx->CCER &= ~tmp;
 8005662:	68fb      	ldr	r3, [r7, #12]
 8005664:	6a1a      	ldr	r2, [r3, #32]
 8005666:	697b      	ldr	r3, [r7, #20]
 8005668:	43db      	mvns	r3, r3
 800566a:	401a      	ands	r2, r3
 800566c:	68fb      	ldr	r3, [r7, #12]
 800566e:	621a      	str	r2, [r3, #32]

  /* Set or reset the CCxE Bit */
  TIMx->CCER |= (uint32_t)(ChannelState << (Channel & 0x1FU)); /* 0x1FU = 31 bits max shift */
 8005670:	68fb      	ldr	r3, [r7, #12]
 8005672:	6a1a      	ldr	r2, [r3, #32]
 8005674:	68bb      	ldr	r3, [r7, #8]
 8005676:	f003 031f 	and.w	r3, r3, #31
 800567a:	6879      	ldr	r1, [r7, #4]
 800567c:	fa01 f303 	lsl.w	r3, r1, r3
 8005680:	431a      	orrs	r2, r3
 8005682:	68fb      	ldr	r3, [r7, #12]
 8005684:	621a      	str	r2, [r3, #32]
}
 8005686:	bf00      	nop
 8005688:	371c      	adds	r7, #28
 800568a:	46bd      	mov	sp, r7
 800568c:	f85d 7b04 	ldr.w	r7, [sp], #4
 8005690:	4770      	bx	lr
	...

08005694 <HAL_TIMEx_MasterConfigSynchronization>:
  *         mode.
  * @retval HAL status
  */
HAL_StatusTypeDef HAL_TIMEx_MasterConfigSynchronization(TIM_HandleTypeDef *htim,
                                                        const TIM_MasterConfigTypeDef *sMasterConfig)
{
 8005694:	b480      	push	{r7}
 8005696:	b085      	sub	sp, #20
 8005698:	af00      	add	r7, sp, #0
 800569a:	6078      	str	r0, [r7, #4]
 800569c:	6039      	str	r1, [r7, #0]
  assert_param(IS_TIM_MASTER_INSTANCE(htim->Instance));
  assert_param(IS_TIM_TRGO_SOURCE(sMasterConfig->MasterOutputTrigger));
  assert_param(IS_TIM_MSM_STATE(sMasterConfig->MasterSlaveMode));

  /* Check input state */
  __HAL_LOCK(htim);
 800569e:	687b      	ldr	r3, [r7, #4]
 80056a0:	f893 303c 	ldrb.w	r3, [r3, #60]	; 0x3c
 80056a4:	2b01      	cmp	r3, #1
 80056a6:	d101      	bne.n	80056ac <HAL_TIMEx_MasterConfigSynchronization+0x18>
 80056a8:	2302      	movs	r3, #2
 80056aa:	e05a      	b.n	8005762 <HAL_TIMEx_MasterConfigSynchronization+0xce>
 80056ac:	687b      	ldr	r3, [r7, #4]
 80056ae:	2201      	movs	r2, #1
 80056b0:	f883 203c 	strb.w	r2, [r3, #60]	; 0x3c

  /* Change the handler state */
  htim->State = HAL_TIM_STATE_BUSY;
 80056b4:	687b      	ldr	r3, [r7, #4]
 80056b6:	2202      	movs	r2, #2
 80056b8:	f883 203d 	strb.w	r2, [r3, #61]	; 0x3d

  /* Get the TIMx CR2 register value */
  tmpcr2 = htim->Instance->CR2;
 80056bc:	687b      	ldr	r3, [r7, #4]
 80056be:	681b      	ldr	r3, [r3, #0]
 80056c0:	685b      	ldr	r3, [r3, #4]
 80056c2:	60fb      	str	r3, [r7, #12]

  /* Get the TIMx SMCR register value */
  tmpsmcr = htim->Instance->SMCR;
 80056c4:	687b      	ldr	r3, [r7, #4]
 80056c6:	681b      	ldr	r3, [r3, #0]
 80056c8:	689b      	ldr	r3, [r3, #8]
 80056ca:	60bb      	str	r3, [r7, #8]

  /* Reset the MMS Bits */
  tmpcr2 &= ~TIM_CR2_MMS;
 80056cc:	68fb      	ldr	r3, [r7, #12]
 80056ce:	f023 0370 	bic.w	r3, r3, #112	; 0x70
 80056d2:	60fb      	str	r3, [r7, #12]
  /* Select the TRGO source */
  tmpcr2 |=  sMasterConfig->MasterOutputTrigger;
 80056d4:	683b      	ldr	r3, [r7, #0]
 80056d6:	681b      	ldr	r3, [r3, #0]
 80056d8:	68fa      	ldr	r2, [r7, #12]
 80056da:	4313      	orrs	r3, r2
 80056dc:	60fb      	str	r3, [r7, #12]

  /* Update TIMx CR2 */
  htim->Instance->CR2 = tmpcr2;
 80056de:	687b      	ldr	r3, [r7, #4]
 80056e0:	681b      	ldr	r3, [r3, #0]
 80056e2:	68fa      	ldr	r2, [r7, #12]
 80056e4:	605a      	str	r2, [r3, #4]

  if (IS_TIM_SLAVE_INSTANCE(htim->Instance))
 80056e6:	687b      	ldr	r3, [r7, #4]
 80056e8:	681b      	ldr	r3, [r3, #0]
 80056ea:	4a21      	ldr	r2, [pc, #132]	; (8005770 <HAL_TIMEx_MasterConfigSynchronization+0xdc>)
 80056ec:	4293      	cmp	r3, r2
 80056ee:	d022      	beq.n	8005736 <HAL_TIMEx_MasterConfigSynchronization+0xa2>
 80056f0:	687b      	ldr	r3, [r7, #4]
 80056f2:	681b      	ldr	r3, [r3, #0]
 80056f4:	f1b3 4f80 	cmp.w	r3, #1073741824	; 0x40000000
 80056f8:	d01d      	beq.n	8005736 <HAL_TIMEx_MasterConfigSynchronization+0xa2>
 80056fa:	687b      	ldr	r3, [r7, #4]
 80056fc:	681b      	ldr	r3, [r3, #0]
 80056fe:	4a1d      	ldr	r2, [pc, #116]	; (8005774 <HAL_TIMEx_MasterConfigSynchronization+0xe0>)
 8005700:	4293      	cmp	r3, r2
 8005702:	d018      	beq.n	8005736 <HAL_TIMEx_MasterConfigSynchronization+0xa2>
 8005704:	687b      	ldr	r3, [r7, #4]
 8005706:	681b      	ldr	r3, [r3, #0]
 8005708:	4a1b      	ldr	r2, [pc, #108]	; (8005778 <HAL_TIMEx_MasterConfigSynchronization+0xe4>)
 800570a:	4293      	cmp	r3, r2
 800570c:	d013      	beq.n	8005736 <HAL_TIMEx_MasterConfigSynchronization+0xa2>
 800570e:	687b      	ldr	r3, [r7, #4]
 8005710:	681b      	ldr	r3, [r3, #0]
 8005712:	4a1a      	ldr	r2, [pc, #104]	; (800577c <HAL_TIMEx_MasterConfigSynchronization+0xe8>)
 8005714:	4293      	cmp	r3, r2
 8005716:	d00e      	beq.n	8005736 <HAL_TIMEx_MasterConfigSynchronization+0xa2>
 8005718:	687b      	ldr	r3, [r7, #4]
 800571a:	681b      	ldr	r3, [r3, #0]
 800571c:	4a18      	ldr	r2, [pc, #96]	; (8005780 <HAL_TIMEx_MasterConfigSynchronization+0xec>)
 800571e:	4293      	cmp	r3, r2
 8005720:	d009      	beq.n	8005736 <HAL_TIMEx_MasterConfigSynchronization+0xa2>
 8005722:	687b      	ldr	r3, [r7, #4]
 8005724:	681b      	ldr	r3, [r3, #0]
 8005726:	4a17      	ldr	r2, [pc, #92]	; (8005784 <HAL_TIMEx_MasterConfigSynchronization+0xf0>)
 8005728:	4293      	cmp	r3, r2
 800572a:	d004      	beq.n	8005736 <HAL_TIMEx_MasterConfigSynchronization+0xa2>
 800572c:	687b      	ldr	r3, [r7, #4]
 800572e:	681b      	ldr	r3, [r3, #0]
 8005730:	4a15      	ldr	r2, [pc, #84]	; (8005788 <HAL_TIMEx_MasterConfigSynchronization+0xf4>)
 8005732:	4293      	cmp	r3, r2
 8005734:	d10c      	bne.n	8005750 <HAL_TIMEx_MasterConfigSynchronization+0xbc>
  {
    /* Reset the MSM Bit */
    tmpsmcr &= ~TIM_SMCR_MSM;
 8005736:	68bb      	ldr	r3, [r7, #8]
 8005738:	f023 0380 	bic.w	r3, r3, #128	; 0x80
 800573c:	60bb      	str	r3, [r7, #8]
    /* Set master mode */
    tmpsmcr |= sMasterConfig->MasterSlaveMode;
 800573e:	683b      	ldr	r3, [r7, #0]
 8005740:	685b      	ldr	r3, [r3, #4]
 8005742:	68ba      	ldr	r2, [r7, #8]
 8005744:	4313      	orrs	r3, r2
 8005746:	60bb      	str	r3, [r7, #8]

    /* Update TIMx SMCR */
    htim->Instance->SMCR = tmpsmcr;
 8005748:	687b      	ldr	r3, [r7, #4]
 800574a:	681b      	ldr	r3, [r3, #0]
 800574c:	68ba      	ldr	r2, [r7, #8]
 800574e:	609a      	str	r2, [r3, #8]
  }

  /* Change the htim state */
  htim->State = HAL_TIM_STATE_READY;
 8005750:	687b      	ldr	r3, [r7, #4]
 8005752:	2201      	movs	r2, #1
 8005754:	f883 203d 	strb.w	r2, [r3, #61]	; 0x3d

  __HAL_UNLOCK(htim);
 8005758:	687b      	ldr	r3, [r7, #4]
 800575a:	2200      	movs	r2, #0
 800575c:	f883 203c 	strb.w	r2, [r3, #60]	; 0x3c

  return HAL_OK;
 8005760:	2300      	movs	r3, #0
}
 8005762:	4618      	mov	r0, r3
 8005764:	3714      	adds	r7, #20
 8005766:	46bd      	mov	sp, r7
 8005768:	f85d 7b04 	ldr.w	r7, [sp], #4
 800576c:	4770      	bx	lr
 800576e:	bf00      	nop
 8005770:	40010000 	.word	0x40010000
 8005774:	40000400 	.word	0x40000400
 8005778:	40000800 	.word	0x40000800
 800577c:	40000c00 	.word	0x40000c00
 8005780:	40010400 	.word	0x40010400
 8005784:	40014000 	.word	0x40014000
 8005788:	40001800 	.word	0x40001800

0800578c <HAL_TIMEx_CommutCallback>:
  * @brief  Commutation callback in non-blocking mode
  * @param  htim TIM handle
  * @retval None
  */
__weak void HAL_TIMEx_CommutCallback(TIM_HandleTypeDef *htim)
{
 800578c:	b480      	push	{r7}
 800578e:	b083      	sub	sp, #12
 8005790:	af00      	add	r7, sp, #0
 8005792:	6078      	str	r0, [r7, #4]
  UNUSED(htim);

  /* NOTE : This function should not be modified, when the callback is needed,
            the HAL_TIMEx_CommutCallback could be implemented in the user file
   */
}
 8005794:	bf00      	nop
 8005796:	370c      	adds	r7, #12
 8005798:	46bd      	mov	sp, r7
 800579a:	f85d 7b04 	ldr.w	r7, [sp], #4
 800579e:	4770      	bx	lr

080057a0 <HAL_TIMEx_BreakCallback>:
  * @brief  Break detection callback in non-blocking mode
  * @param  htim TIM handle
  * @retval None
  */
__weak void HAL_TIMEx_BreakCallback(TIM_HandleTypeDef *htim)
{
 80057a0:	b480      	push	{r7}
 80057a2:	b083      	sub	sp, #12
 80057a4:	af00      	add	r7, sp, #0
 80057a6:	6078      	str	r0, [r7, #4]
  UNUSED(htim);

  /* NOTE : This function should not be modified, when the callback is needed,
            the HAL_TIMEx_BreakCallback could be implemented in the user file
   */
}
 80057a8:	bf00      	nop
 80057aa:	370c      	adds	r7, #12
 80057ac:	46bd      	mov	sp, r7
 80057ae:	f85d 7b04 	ldr.w	r7, [sp], #4
 80057b2:	4770      	bx	lr

080057b4 <memset>:
 80057b4:	4402      	add	r2, r0
 80057b6:	4603      	mov	r3, r0
 80057b8:	4293      	cmp	r3, r2
 80057ba:	d100      	bne.n	80057be <memset+0xa>
 80057bc:	4770      	bx	lr
 80057be:	f803 1b01 	strb.w	r1, [r3], #1
 80057c2:	e7f9      	b.n	80057b8 <memset+0x4>

080057c4 <__libc_init_array>:
 80057c4:	b570      	push	{r4, r5, r6, lr}
 80057c6:	4d0d      	ldr	r5, [pc, #52]	; (80057fc <__libc_init_array+0x38>)
 80057c8:	4c0d      	ldr	r4, [pc, #52]	; (8005800 <__libc_init_array+0x3c>)
 80057ca:	1b64      	subs	r4, r4, r5
 80057cc:	10a4      	asrs	r4, r4, #2
 80057ce:	2600      	movs	r6, #0
 80057d0:	42a6      	cmp	r6, r4
 80057d2:	d109      	bne.n	80057e8 <__libc_init_array+0x24>
 80057d4:	4d0b      	ldr	r5, [pc, #44]	; (8005804 <__libc_init_array+0x40>)
 80057d6:	4c0c      	ldr	r4, [pc, #48]	; (8005808 <__libc_init_array+0x44>)
 80057d8:	f000 f818 	bl	800580c <_init>
 80057dc:	1b64      	subs	r4, r4, r5
 80057de:	10a4      	asrs	r4, r4, #2
 80057e0:	2600      	movs	r6, #0
 80057e2:	42a6      	cmp	r6, r4
 80057e4:	d105      	bne.n	80057f2 <__libc_init_array+0x2e>
 80057e6:	bd70      	pop	{r4, r5, r6, pc}
 80057e8:	f855 3b04 	ldr.w	r3, [r5], #4
 80057ec:	4798      	blx	r3
 80057ee:	3601      	adds	r6, #1
 80057f0:	e7ee      	b.n	80057d0 <__libc_init_array+0xc>
 80057f2:	f855 3b04 	ldr.w	r3, [r5], #4
 80057f6:	4798      	blx	r3
 80057f8:	3601      	adds	r6, #1
 80057fa:	e7f2      	b.n	80057e2 <__libc_init_array+0x1e>
 80057fc:	08005860 	.word	0x08005860
 8005800:	08005860 	.word	0x08005860
 8005804:	08005860 	.word	0x08005860
 8005808:	08005864 	.word	0x08005864

0800580c <_init>:
 800580c:	b5f8      	push	{r3, r4, r5, r6, r7, lr}
 800580e:	bf00      	nop
 8005810:	bcf8      	pop	{r3, r4, r5, r6, r7}
 8005812:	bc08      	pop	{r3}
 8005814:	469e      	mov	lr, r3
 8005816:	4770      	bx	lr

08005818 <_fini>:
 8005818:	b5f8      	push	{r3, r4, r5, r6, r7, lr}
 800581a:	bf00      	nop
 800581c:	bcf8      	pop	{r3, r4, r5, r6, r7}
 800581e:	bc08      	pop	{r3}
 8005820:	469e      	mov	lr, r3
 8005822:	4770      	bx	lr
