
Test.elf:     file format elf32-littlearm

Sections:
Idx Name          Size      VMA       LMA       File off  Algn
  0 .isr_vector   00000188  08000000  08000000  00010000  2**0
                  CONTENTS, ALLOC, LOAD, READONLY, DATA
  1 .text         000054fc  08000188  08000188  00010188  2**3
                  CONTENTS, ALLOC, LOAD, READONLY, CODE
  2 .rodata       00000034  08005684  08005684  00015684  2**2
                  CONTENTS, ALLOC, LOAD, READONLY, DATA
  3 .ARM.extab    00000000  080056b8  080056b8  00020014  2**0
                  CONTENTS
  4 .ARM          00000008  080056b8  080056b8  000156b8  2**2
                  CONTENTS, ALLOC, LOAD, READONLY, DATA
  5 .preinit_array 00000000  080056c0  080056c0  00020014  2**0
                  CONTENTS, ALLOC, LOAD, DATA
  6 .init_array   00000004  080056c0  080056c0  000156c0  2**2
                  CONTENTS, ALLOC, LOAD, DATA
  7 .fini_array   00000004  080056c4  080056c4  000156c4  2**2
                  CONTENTS, ALLOC, LOAD, DATA
  8 .data         00000014  20000000  080056c8  00020000  2**2
                  CONTENTS, ALLOC, LOAD, DATA
  9 .ccmram       00000000  10000000  10000000  00020014  2**0
                  CONTENTS
 10 .bss          00000108  20000014  20000014  00020014  2**2
                  ALLOC
 11 ._user_heap_stack 00000604  2000011c  2000011c  00020014  2**0
                  ALLOC
 12 .ARM.attributes 00000030  00000000  00000000  00020014  2**0
                  CONTENTS, READONLY
 13 .comment      00000043  00000000  00000000  00020044  2**0
                  CONTENTS, READONLY
 14 .debug_info   0000e754  00000000  00000000  00020087  2**0
                  CONTENTS, READONLY, DEBUGGING, OCTETS
 15 .debug_abbrev 00002269  00000000  00000000  0002e7db  2**0
                  CONTENTS, READONLY, DEBUGGING, OCTETS
 16 .debug_aranges 00000f10  00000000  00000000  00030a48  2**3
                  CONTENTS, READONLY, DEBUGGING, OCTETS
 17 .debug_rnglists 00000bcb  00000000  00000000  00031958  2**0
                  CONTENTS, READONLY, DEBUGGING, OCTETS
 18 .debug_macro  0002200f  00000000  00000000  00032523  2**0
                  CONTENTS, READONLY, DEBUGGING, OCTETS
 19 .debug_line   00011bdd  00000000  00000000  00054532  2**0
                  CONTENTS, READONLY, DEBUGGING, OCTETS
 20 .debug_str    000d4e1f  00000000  00000000  0006610f  2**0
                  CONTENTS, READONLY, DEBUGGING, OCTETS
 21 .debug_frame  00004130  00000000  00000000  0013af30  2**2
                  CONTENTS, READONLY, DEBUGGING, OCTETS
 22 .debug_line_str 0000005e  00000000  00000000  0013f060  2**0
                  CONTENTS, READONLY, DEBUGGING, OCTETS

Disassembly of section .text:

08000188 <__do_global_dtors_aux>:
 8000188:	b510      	push	{r4, lr}
 800018a:	4c05      	ldr	r4, [pc, #20]	; (80001a0 <__do_global_dtors_aux+0x18>)
 800018c:	7823      	ldrb	r3, [r4, #0]
 800018e:	b933      	cbnz	r3, 800019e <__do_global_dtors_aux+0x16>
 8000190:	4b04      	ldr	r3, [pc, #16]	; (80001a4 <__do_global_dtors_aux+0x1c>)
 8000192:	b113      	cbz	r3, 800019a <__do_global_dtors_aux+0x12>
 8000194:	4804      	ldr	r0, [pc, #16]	; (80001a8 <__do_global_dtors_aux+0x20>)
 8000196:	f3af 8000 	nop.w
 800019a:	2301      	movs	r3, #1
 800019c:	7023      	strb	r3, [r4, #0]
 800019e:	bd10      	pop	{r4, pc}
 80001a0:	20000014 	.word	0x20000014
 80001a4:	00000000 	.word	0x00000000
 80001a8:	0800566c 	.word	0x0800566c

080001ac <frame_dummy>:
 80001ac:	b508      	push	{r3, lr}
 80001ae:	4b03      	ldr	r3, [pc, #12]	; (80001bc <frame_dummy+0x10>)
 80001b0:	b11b      	cbz	r3, 80001ba <frame_dummy+0xe>
 80001b2:	4903      	ldr	r1, [pc, #12]	; (80001c0 <frame_dummy+0x14>)
 80001b4:	4803      	ldr	r0, [pc, #12]	; (80001c4 <frame_dummy+0x18>)
 80001b6:	f3af 8000 	nop.w
 80001ba:	bd08      	pop	{r3, pc}
 80001bc:	00000000 	.word	0x00000000
 80001c0:	20000018 	.word	0x20000018
 80001c4:	0800566c 	.word	0x0800566c

080001c8 <__aeabi_drsub>:
 80001c8:	f081 4100 	eor.w	r1, r1, #2147483648	; 0x80000000
 80001cc:	e002      	b.n	80001d4 <__adddf3>
 80001ce:	bf00      	nop

080001d0 <__aeabi_dsub>:
 80001d0:	f083 4300 	eor.w	r3, r3, #2147483648	; 0x80000000

080001d4 <__adddf3>:
 80001d4:	b530      	push	{r4, r5, lr}
 80001d6:	ea4f 0441 	mov.w	r4, r1, lsl #1
 80001da:	ea4f 0543 	mov.w	r5, r3, lsl #1
 80001de:	ea94 0f05 	teq	r4, r5
 80001e2:	bf08      	it	eq
 80001e4:	ea90 0f02 	teqeq	r0, r2
 80001e8:	bf1f      	itttt	ne
 80001ea:	ea54 0c00 	orrsne.w	ip, r4, r0
 80001ee:	ea55 0c02 	orrsne.w	ip, r5, r2
 80001f2:	ea7f 5c64 	mvnsne.w	ip, r4, asr #21
 80001f6:	ea7f 5c65 	mvnsne.w	ip, r5, asr #21
 80001fa:	f000 80e2 	beq.w	80003c2 <__adddf3+0x1ee>
 80001fe:	ea4f 5454 	mov.w	r4, r4, lsr #21
 8000202:	ebd4 5555 	rsbs	r5, r4, r5, lsr #21
 8000206:	bfb8      	it	lt
 8000208:	426d      	neglt	r5, r5
 800020a:	dd0c      	ble.n	8000226 <__adddf3+0x52>
 800020c:	442c      	add	r4, r5
 800020e:	ea80 0202 	eor.w	r2, r0, r2
 8000212:	ea81 0303 	eor.w	r3, r1, r3
 8000216:	ea82 0000 	eor.w	r0, r2, r0
 800021a:	ea83 0101 	eor.w	r1, r3, r1
 800021e:	ea80 0202 	eor.w	r2, r0, r2
 8000222:	ea81 0303 	eor.w	r3, r1, r3
 8000226:	2d36      	cmp	r5, #54	; 0x36
 8000228:	bf88      	it	hi
 800022a:	bd30      	pophi	{r4, r5, pc}
 800022c:	f011 4f00 	tst.w	r1, #2147483648	; 0x80000000
 8000230:	ea4f 3101 	mov.w	r1, r1, lsl #12
 8000234:	f44f 1c80 	mov.w	ip, #1048576	; 0x100000
 8000238:	ea4c 3111 	orr.w	r1, ip, r1, lsr #12
 800023c:	d002      	beq.n	8000244 <__adddf3+0x70>
 800023e:	4240      	negs	r0, r0
 8000240:	eb61 0141 	sbc.w	r1, r1, r1, lsl #1
 8000244:	f013 4f00 	tst.w	r3, #2147483648	; 0x80000000
 8000248:	ea4f 3303 	mov.w	r3, r3, lsl #12
 800024c:	ea4c 3313 	orr.w	r3, ip, r3, lsr #12
 8000250:	d002      	beq.n	8000258 <__adddf3+0x84>
 8000252:	4252      	negs	r2, r2
 8000254:	eb63 0343 	sbc.w	r3, r3, r3, lsl #1
 8000258:	ea94 0f05 	teq	r4, r5
 800025c:	f000 80a7 	beq.w	80003ae <__adddf3+0x1da>
 8000260:	f1a4 0401 	sub.w	r4, r4, #1
 8000264:	f1d5 0e20 	rsbs	lr, r5, #32
 8000268:	db0d      	blt.n	8000286 <__adddf3+0xb2>
 800026a:	fa02 fc0e 	lsl.w	ip, r2, lr
 800026e:	fa22 f205 	lsr.w	r2, r2, r5
 8000272:	1880      	adds	r0, r0, r2
 8000274:	f141 0100 	adc.w	r1, r1, #0
 8000278:	fa03 f20e 	lsl.w	r2, r3, lr
 800027c:	1880      	adds	r0, r0, r2
 800027e:	fa43 f305 	asr.w	r3, r3, r5
 8000282:	4159      	adcs	r1, r3
 8000284:	e00e      	b.n	80002a4 <__adddf3+0xd0>
 8000286:	f1a5 0520 	sub.w	r5, r5, #32
 800028a:	f10e 0e20 	add.w	lr, lr, #32
 800028e:	2a01      	cmp	r2, #1
 8000290:	fa03 fc0e 	lsl.w	ip, r3, lr
 8000294:	bf28      	it	cs
 8000296:	f04c 0c02 	orrcs.w	ip, ip, #2
 800029a:	fa43 f305 	asr.w	r3, r3, r5
 800029e:	18c0      	adds	r0, r0, r3
 80002a0:	eb51 71e3 	adcs.w	r1, r1, r3, asr #31
 80002a4:	f001 4500 	and.w	r5, r1, #2147483648	; 0x80000000
 80002a8:	d507      	bpl.n	80002ba <__adddf3+0xe6>
 80002aa:	f04f 0e00 	mov.w	lr, #0
 80002ae:	f1dc 0c00 	rsbs	ip, ip, #0
 80002b2:	eb7e 0000 	sbcs.w	r0, lr, r0
 80002b6:	eb6e 0101 	sbc.w	r1, lr, r1
 80002ba:	f5b1 1f80 	cmp.w	r1, #1048576	; 0x100000
 80002be:	d31b      	bcc.n	80002f8 <__adddf3+0x124>
 80002c0:	f5b1 1f00 	cmp.w	r1, #2097152	; 0x200000
 80002c4:	d30c      	bcc.n	80002e0 <__adddf3+0x10c>
 80002c6:	0849      	lsrs	r1, r1, #1
 80002c8:	ea5f 0030 	movs.w	r0, r0, rrx
 80002cc:	ea4f 0c3c 	mov.w	ip, ip, rrx
 80002d0:	f104 0401 	add.w	r4, r4, #1
 80002d4:	ea4f 5244 	mov.w	r2, r4, lsl #21
 80002d8:	f512 0f80 	cmn.w	r2, #4194304	; 0x400000
 80002dc:	f080 809a 	bcs.w	8000414 <__adddf3+0x240>
 80002e0:	f1bc 4f00 	cmp.w	ip, #2147483648	; 0x80000000
 80002e4:	bf08      	it	eq
 80002e6:	ea5f 0c50 	movseq.w	ip, r0, lsr #1
 80002ea:	f150 0000 	adcs.w	r0, r0, #0
 80002ee:	eb41 5104 	adc.w	r1, r1, r4, lsl #20
 80002f2:	ea41 0105 	orr.w	r1, r1, r5
 80002f6:	bd30      	pop	{r4, r5, pc}
 80002f8:	ea5f 0c4c 	movs.w	ip, ip, lsl #1
 80002fc:	4140      	adcs	r0, r0
 80002fe:	eb41 0101 	adc.w	r1, r1, r1
 8000302:	3c01      	subs	r4, #1
 8000304:	bf28      	it	cs
 8000306:	f5b1 1f80 	cmpcs.w	r1, #1048576	; 0x100000
 800030a:	d2e9      	bcs.n	80002e0 <__adddf3+0x10c>
 800030c:	f091 0f00 	teq	r1, #0
 8000310:	bf04      	itt	eq
 8000312:	4601      	moveq	r1, r0
 8000314:	2000      	moveq	r0, #0
 8000316:	fab1 f381 	clz	r3, r1
 800031a:	bf08      	it	eq
 800031c:	3320      	addeq	r3, #32
 800031e:	f1a3 030b 	sub.w	r3, r3, #11
 8000322:	f1b3 0220 	subs.w	r2, r3, #32
 8000326:	da0c      	bge.n	8000342 <__adddf3+0x16e>
 8000328:	320c      	adds	r2, #12
 800032a:	dd08      	ble.n	800033e <__adddf3+0x16a>
 800032c:	f102 0c14 	add.w	ip, r2, #20
 8000330:	f1c2 020c 	rsb	r2, r2, #12
 8000334:	fa01 f00c 	lsl.w	r0, r1, ip
 8000338:	fa21 f102 	lsr.w	r1, r1, r2
 800033c:	e00c      	b.n	8000358 <__adddf3+0x184>
 800033e:	f102 0214 	add.w	r2, r2, #20
 8000342:	bfd8      	it	le
 8000344:	f1c2 0c20 	rsble	ip, r2, #32
 8000348:	fa01 f102 	lsl.w	r1, r1, r2
 800034c:	fa20 fc0c 	lsr.w	ip, r0, ip
 8000350:	bfdc      	itt	le
 8000352:	ea41 010c 	orrle.w	r1, r1, ip
 8000356:	4090      	lslle	r0, r2
 8000358:	1ae4      	subs	r4, r4, r3
 800035a:	bfa2      	ittt	ge
 800035c:	eb01 5104 	addge.w	r1, r1, r4, lsl #20
 8000360:	4329      	orrge	r1, r5
 8000362:	bd30      	popge	{r4, r5, pc}
 8000364:	ea6f 0404 	mvn.w	r4, r4
 8000368:	3c1f      	subs	r4, #31
 800036a:	da1c      	bge.n	80003a6 <__adddf3+0x1d2>
 800036c:	340c      	adds	r4, #12
 800036e:	dc0e      	bgt.n	800038e <__adddf3+0x1ba>
 8000370:	f104 0414 	add.w	r4, r4, #20
 8000374:	f1c4 0220 	rsb	r2, r4, #32
 8000378:	fa20 f004 	lsr.w	r0, r0, r4
 800037c:	fa01 f302 	lsl.w	r3, r1, r2
 8000380:	ea40 0003 	orr.w	r0, r0, r3
 8000384:	fa21 f304 	lsr.w	r3, r1, r4
 8000388:	ea45 0103 	orr.w	r1, r5, r3
 800038c:	bd30      	pop	{r4, r5, pc}
 800038e:	f1c4 040c 	rsb	r4, r4, #12
 8000392:	f1c4 0220 	rsb	r2, r4, #32
 8000396:	fa20 f002 	lsr.w	r0, r0, r2
 800039a:	fa01 f304 	lsl.w	r3, r1, r4
 800039e:	ea40 0003 	orr.w	r0, r0, r3
 80003a2:	4629      	mov	r1, r5
 80003a4:	bd30      	pop	{r4, r5, pc}
 80003a6:	fa21 f004 	lsr.w	r0, r1, r4
 80003aa:	4629      	mov	r1, r5
 80003ac:	bd30      	pop	{r4, r5, pc}
 80003ae:	f094 0f00 	teq	r4, #0
 80003b2:	f483 1380 	eor.w	r3, r3, #1048576	; 0x100000
 80003b6:	bf06      	itte	eq
 80003b8:	f481 1180 	eoreq.w	r1, r1, #1048576	; 0x100000
 80003bc:	3401      	addeq	r4, #1
 80003be:	3d01      	subne	r5, #1
 80003c0:	e74e      	b.n	8000260 <__adddf3+0x8c>
 80003c2:	ea7f 5c64 	mvns.w	ip, r4, asr #21
 80003c6:	bf18      	it	ne
 80003c8:	ea7f 5c65 	mvnsne.w	ip, r5, asr #21
 80003cc:	d029      	beq.n	8000422 <__adddf3+0x24e>
 80003ce:	ea94 0f05 	teq	r4, r5
 80003d2:	bf08      	it	eq
 80003d4:	ea90 0f02 	teqeq	r0, r2
 80003d8:	d005      	beq.n	80003e6 <__adddf3+0x212>
 80003da:	ea54 0c00 	orrs.w	ip, r4, r0
 80003de:	bf04      	itt	eq
 80003e0:	4619      	moveq	r1, r3
 80003e2:	4610      	moveq	r0, r2
 80003e4:	bd30      	pop	{r4, r5, pc}
 80003e6:	ea91 0f03 	teq	r1, r3
 80003ea:	bf1e      	ittt	ne
 80003ec:	2100      	movne	r1, #0
 80003ee:	2000      	movne	r0, #0
 80003f0:	bd30      	popne	{r4, r5, pc}
 80003f2:	ea5f 5c54 	movs.w	ip, r4, lsr #21
 80003f6:	d105      	bne.n	8000404 <__adddf3+0x230>
 80003f8:	0040      	lsls	r0, r0, #1
 80003fa:	4149      	adcs	r1, r1
 80003fc:	bf28      	it	cs
 80003fe:	f041 4100 	orrcs.w	r1, r1, #2147483648	; 0x80000000
 8000402:	bd30      	pop	{r4, r5, pc}
 8000404:	f514 0480 	adds.w	r4, r4, #4194304	; 0x400000
 8000408:	bf3c      	itt	cc
 800040a:	f501 1180 	addcc.w	r1, r1, #1048576	; 0x100000
 800040e:	bd30      	popcc	{r4, r5, pc}
 8000410:	f001 4500 	and.w	r5, r1, #2147483648	; 0x80000000
 8000414:	f045 41fe 	orr.w	r1, r5, #2130706432	; 0x7f000000
 8000418:	f441 0170 	orr.w	r1, r1, #15728640	; 0xf00000
 800041c:	f04f 0000 	mov.w	r0, #0
 8000420:	bd30      	pop	{r4, r5, pc}
 8000422:	ea7f 5c64 	mvns.w	ip, r4, asr #21
 8000426:	bf1a      	itte	ne
 8000428:	4619      	movne	r1, r3
 800042a:	4610      	movne	r0, r2
 800042c:	ea7f 5c65 	mvnseq.w	ip, r5, asr #21
 8000430:	bf1c      	itt	ne
 8000432:	460b      	movne	r3, r1
 8000434:	4602      	movne	r2, r0
 8000436:	ea50 3401 	orrs.w	r4, r0, r1, lsl #12
 800043a:	bf06      	itte	eq
 800043c:	ea52 3503 	orrseq.w	r5, r2, r3, lsl #12
 8000440:	ea91 0f03 	teqeq	r1, r3
 8000444:	f441 2100 	orrne.w	r1, r1, #524288	; 0x80000
 8000448:	bd30      	pop	{r4, r5, pc}
 800044a:	bf00      	nop

0800044c <__aeabi_ui2d>:
 800044c:	f090 0f00 	teq	r0, #0
 8000450:	bf04      	itt	eq
 8000452:	2100      	moveq	r1, #0
 8000454:	4770      	bxeq	lr
 8000456:	b530      	push	{r4, r5, lr}
 8000458:	f44f 6480 	mov.w	r4, #1024	; 0x400
 800045c:	f104 0432 	add.w	r4, r4, #50	; 0x32
 8000460:	f04f 0500 	mov.w	r5, #0
 8000464:	f04f 0100 	mov.w	r1, #0
 8000468:	e750      	b.n	800030c <__adddf3+0x138>
 800046a:	bf00      	nop

0800046c <__aeabi_i2d>:
 800046c:	f090 0f00 	teq	r0, #0
 8000470:	bf04      	itt	eq
 8000472:	2100      	moveq	r1, #0
 8000474:	4770      	bxeq	lr
 8000476:	b530      	push	{r4, r5, lr}
 8000478:	f44f 6480 	mov.w	r4, #1024	; 0x400
 800047c:	f104 0432 	add.w	r4, r4, #50	; 0x32
 8000480:	f010 4500 	ands.w	r5, r0, #2147483648	; 0x80000000
 8000484:	bf48      	it	mi
 8000486:	4240      	negmi	r0, r0
 8000488:	f04f 0100 	mov.w	r1, #0
 800048c:	e73e      	b.n	800030c <__adddf3+0x138>
 800048e:	bf00      	nop

08000490 <__aeabi_f2d>:
 8000490:	0042      	lsls	r2, r0, #1
 8000492:	ea4f 01e2 	mov.w	r1, r2, asr #3
 8000496:	ea4f 0131 	mov.w	r1, r1, rrx
 800049a:	ea4f 7002 	mov.w	r0, r2, lsl #28
 800049e:	bf1f      	itttt	ne
 80004a0:	f012 437f 	andsne.w	r3, r2, #4278190080	; 0xff000000
 80004a4:	f093 4f7f 	teqne	r3, #4278190080	; 0xff000000
 80004a8:	f081 5160 	eorne.w	r1, r1, #939524096	; 0x38000000
 80004ac:	4770      	bxne	lr
 80004ae:	f032 427f 	bics.w	r2, r2, #4278190080	; 0xff000000
 80004b2:	bf08      	it	eq
 80004b4:	4770      	bxeq	lr
 80004b6:	f093 4f7f 	teq	r3, #4278190080	; 0xff000000
 80004ba:	bf04      	itt	eq
 80004bc:	f441 2100 	orreq.w	r1, r1, #524288	; 0x80000
 80004c0:	4770      	bxeq	lr
 80004c2:	b530      	push	{r4, r5, lr}
 80004c4:	f44f 7460 	mov.w	r4, #896	; 0x380
 80004c8:	f001 4500 	and.w	r5, r1, #2147483648	; 0x80000000
 80004cc:	f021 4100 	bic.w	r1, r1, #2147483648	; 0x80000000
 80004d0:	e71c      	b.n	800030c <__adddf3+0x138>
 80004d2:	bf00      	nop

080004d4 <__aeabi_ul2d>:
 80004d4:	ea50 0201 	orrs.w	r2, r0, r1
 80004d8:	bf08      	it	eq
 80004da:	4770      	bxeq	lr
 80004dc:	b530      	push	{r4, r5, lr}
 80004de:	f04f 0500 	mov.w	r5, #0
 80004e2:	e00a      	b.n	80004fa <__aeabi_l2d+0x16>

080004e4 <__aeabi_l2d>:
 80004e4:	ea50 0201 	orrs.w	r2, r0, r1
 80004e8:	bf08      	it	eq
 80004ea:	4770      	bxeq	lr
 80004ec:	b530      	push	{r4, r5, lr}
 80004ee:	f011 4500 	ands.w	r5, r1, #2147483648	; 0x80000000
 80004f2:	d502      	bpl.n	80004fa <__aeabi_l2d+0x16>
 80004f4:	4240      	negs	r0, r0
 80004f6:	eb61 0141 	sbc.w	r1, r1, r1, lsl #1
 80004fa:	f44f 6480 	mov.w	r4, #1024	; 0x400
 80004fe:	f104 0432 	add.w	r4, r4, #50	; 0x32
 8000502:	ea5f 5c91 	movs.w	ip, r1, lsr #22
 8000506:	f43f aed8 	beq.w	80002ba <__adddf3+0xe6>
 800050a:	f04f 0203 	mov.w	r2, #3
 800050e:	ea5f 0cdc 	movs.w	ip, ip, lsr #3
 8000512:	bf18      	it	ne
 8000514:	3203      	addne	r2, #3
 8000516:	ea5f 0cdc 	movs.w	ip, ip, lsr #3
 800051a:	bf18      	it	ne
 800051c:	3203      	addne	r2, #3
 800051e:	eb02 02dc 	add.w	r2, r2, ip, lsr #3
 8000522:	f1c2 0320 	rsb	r3, r2, #32
 8000526:	fa00 fc03 	lsl.w	ip, r0, r3
 800052a:	fa20 f002 	lsr.w	r0, r0, r2
 800052e:	fa01 fe03 	lsl.w	lr, r1, r3
 8000532:	ea40 000e 	orr.w	r0, r0, lr
 8000536:	fa21 f102 	lsr.w	r1, r1, r2
 800053a:	4414      	add	r4, r2
 800053c:	e6bd      	b.n	80002ba <__adddf3+0xe6>
 800053e:	bf00      	nop

08000540 <__aeabi_dmul>:
 8000540:	b570      	push	{r4, r5, r6, lr}
 8000542:	f04f 0cff 	mov.w	ip, #255	; 0xff
 8000546:	f44c 6ce0 	orr.w	ip, ip, #1792	; 0x700
 800054a:	ea1c 5411 	ands.w	r4, ip, r1, lsr #20
 800054e:	bf1d      	ittte	ne
 8000550:	ea1c 5513 	andsne.w	r5, ip, r3, lsr #20
 8000554:	ea94 0f0c 	teqne	r4, ip
 8000558:	ea95 0f0c 	teqne	r5, ip
 800055c:	f000 f8de 	bleq	800071c <__aeabi_dmul+0x1dc>
 8000560:	442c      	add	r4, r5
 8000562:	ea81 0603 	eor.w	r6, r1, r3
 8000566:	ea21 514c 	bic.w	r1, r1, ip, lsl #21
 800056a:	ea23 534c 	bic.w	r3, r3, ip, lsl #21
 800056e:	ea50 3501 	orrs.w	r5, r0, r1, lsl #12
 8000572:	bf18      	it	ne
 8000574:	ea52 3503 	orrsne.w	r5, r2, r3, lsl #12
 8000578:	f441 1180 	orr.w	r1, r1, #1048576	; 0x100000
 800057c:	f443 1380 	orr.w	r3, r3, #1048576	; 0x100000
 8000580:	d038      	beq.n	80005f4 <__aeabi_dmul+0xb4>
 8000582:	fba0 ce02 	umull	ip, lr, r0, r2
 8000586:	f04f 0500 	mov.w	r5, #0
 800058a:	fbe1 e502 	umlal	lr, r5, r1, r2
 800058e:	f006 4200 	and.w	r2, r6, #2147483648	; 0x80000000
 8000592:	fbe0 e503 	umlal	lr, r5, r0, r3
 8000596:	f04f 0600 	mov.w	r6, #0
 800059a:	fbe1 5603 	umlal	r5, r6, r1, r3
 800059e:	f09c 0f00 	teq	ip, #0
 80005a2:	bf18      	it	ne
 80005a4:	f04e 0e01 	orrne.w	lr, lr, #1
 80005a8:	f1a4 04ff 	sub.w	r4, r4, #255	; 0xff
 80005ac:	f5b6 7f00 	cmp.w	r6, #512	; 0x200
 80005b0:	f564 7440 	sbc.w	r4, r4, #768	; 0x300
 80005b4:	d204      	bcs.n	80005c0 <__aeabi_dmul+0x80>
 80005b6:	ea5f 0e4e 	movs.w	lr, lr, lsl #1
 80005ba:	416d      	adcs	r5, r5
 80005bc:	eb46 0606 	adc.w	r6, r6, r6
 80005c0:	ea42 21c6 	orr.w	r1, r2, r6, lsl #11
 80005c4:	ea41 5155 	orr.w	r1, r1, r5, lsr #21
 80005c8:	ea4f 20c5 	mov.w	r0, r5, lsl #11
 80005cc:	ea40 505e 	orr.w	r0, r0, lr, lsr #21
 80005d0:	ea4f 2ece 	mov.w	lr, lr, lsl #11
 80005d4:	f1b4 0cfd 	subs.w	ip, r4, #253	; 0xfd
 80005d8:	bf88      	it	hi
 80005da:	f5bc 6fe0 	cmphi.w	ip, #1792	; 0x700
 80005de:	d81e      	bhi.n	800061e <__aeabi_dmul+0xde>
 80005e0:	f1be 4f00 	cmp.w	lr, #2147483648	; 0x80000000
 80005e4:	bf08      	it	eq
 80005e6:	ea5f 0e50 	movseq.w	lr, r0, lsr #1
 80005ea:	f150 0000 	adcs.w	r0, r0, #0
 80005ee:	eb41 5104 	adc.w	r1, r1, r4, lsl #20
 80005f2:	bd70      	pop	{r4, r5, r6, pc}
 80005f4:	f006 4600 	and.w	r6, r6, #2147483648	; 0x80000000
 80005f8:	ea46 0101 	orr.w	r1, r6, r1
 80005fc:	ea40 0002 	orr.w	r0, r0, r2
 8000600:	ea81 0103 	eor.w	r1, r1, r3
 8000604:	ebb4 045c 	subs.w	r4, r4, ip, lsr #1
 8000608:	bfc2      	ittt	gt
 800060a:	ebd4 050c 	rsbsgt	r5, r4, ip
 800060e:	ea41 5104 	orrgt.w	r1, r1, r4, lsl #20
 8000612:	bd70      	popgt	{r4, r5, r6, pc}
 8000614:	f441 1180 	orr.w	r1, r1, #1048576	; 0x100000
 8000618:	f04f 0e00 	mov.w	lr, #0
 800061c:	3c01      	subs	r4, #1
 800061e:	f300 80ab 	bgt.w	8000778 <__aeabi_dmul+0x238>
 8000622:	f114 0f36 	cmn.w	r4, #54	; 0x36
 8000626:	bfde      	ittt	le
 8000628:	2000      	movle	r0, #0
 800062a:	f001 4100 	andle.w	r1, r1, #2147483648	; 0x80000000
 800062e:	bd70      	pople	{r4, r5, r6, pc}
 8000630:	f1c4 0400 	rsb	r4, r4, #0
 8000634:	3c20      	subs	r4, #32
 8000636:	da35      	bge.n	80006a4 <__aeabi_dmul+0x164>
 8000638:	340c      	adds	r4, #12
 800063a:	dc1b      	bgt.n	8000674 <__aeabi_dmul+0x134>
 800063c:	f104 0414 	add.w	r4, r4, #20
 8000640:	f1c4 0520 	rsb	r5, r4, #32
 8000644:	fa00 f305 	lsl.w	r3, r0, r5
 8000648:	fa20 f004 	lsr.w	r0, r0, r4
 800064c:	fa01 f205 	lsl.w	r2, r1, r5
 8000650:	ea40 0002 	orr.w	r0, r0, r2
 8000654:	f001 4200 	and.w	r2, r1, #2147483648	; 0x80000000
 8000658:	f021 4100 	bic.w	r1, r1, #2147483648	; 0x80000000
 800065c:	eb10 70d3 	adds.w	r0, r0, r3, lsr #31
 8000660:	fa21 f604 	lsr.w	r6, r1, r4
 8000664:	eb42 0106 	adc.w	r1, r2, r6
 8000668:	ea5e 0e43 	orrs.w	lr, lr, r3, lsl #1
 800066c:	bf08      	it	eq
 800066e:	ea20 70d3 	biceq.w	r0, r0, r3, lsr #31
 8000672:	bd70      	pop	{r4, r5, r6, pc}
 8000674:	f1c4 040c 	rsb	r4, r4, #12
 8000678:	f1c4 0520 	rsb	r5, r4, #32
 800067c:	fa00 f304 	lsl.w	r3, r0, r4
 8000680:	fa20 f005 	lsr.w	r0, r0, r5
 8000684:	fa01 f204 	lsl.w	r2, r1, r4
 8000688:	ea40 0002 	orr.w	r0, r0, r2
 800068c:	f001 4100 	and.w	r1, r1, #2147483648	; 0x80000000
 8000690:	eb10 70d3 	adds.w	r0, r0, r3, lsr #31
 8000694:	f141 0100 	adc.w	r1, r1, #0
 8000698:	ea5e 0e43 	orrs.w	lr, lr, r3, lsl #1
 800069c:	bf08      	it	eq
 800069e:	ea20 70d3 	biceq.w	r0, r0, r3, lsr #31
 80006a2:	bd70      	pop	{r4, r5, r6, pc}
 80006a4:	f1c4 0520 	rsb	r5, r4, #32
 80006a8:	fa00 f205 	lsl.w	r2, r0, r5
 80006ac:	ea4e 0e02 	orr.w	lr, lr, r2
 80006b0:	fa20 f304 	lsr.w	r3, r0, r4
 80006b4:	fa01 f205 	lsl.w	r2, r1, r5
 80006b8:	ea43 0302 	orr.w	r3, r3, r2
 80006bc:	fa21 f004 	lsr.w	r0, r1, r4
 80006c0:	f001 4100 	and.w	r1, r1, #2147483648	; 0x80000000
 80006c4:	fa21 f204 	lsr.w	r2, r1, r4
 80006c8:	ea20 0002 	bic.w	r0, r0, r2
 80006cc:	eb00 70d3 	add.w	r0, r0, r3, lsr #31
 80006d0:	ea5e 0e43 	orrs.w	lr, lr, r3, lsl #1
 80006d4:	bf08      	it	eq
 80006d6:	ea20 70d3 	biceq.w	r0, r0, r3, lsr #31
 80006da:	bd70      	pop	{r4, r5, r6, pc}
 80006dc:	f094 0f00 	teq	r4, #0
 80006e0:	d10f      	bne.n	8000702 <__aeabi_dmul+0x1c2>
 80006e2:	f001 4600 	and.w	r6, r1, #2147483648	; 0x80000000
 80006e6:	0040      	lsls	r0, r0, #1
 80006e8:	eb41 0101 	adc.w	r1, r1, r1
 80006ec:	f411 1f80 	tst.w	r1, #1048576	; 0x100000
 80006f0:	bf08      	it	eq
 80006f2:	3c01      	subeq	r4, #1
 80006f4:	d0f7      	beq.n	80006e6 <__aeabi_dmul+0x1a6>
 80006f6:	ea41 0106 	orr.w	r1, r1, r6
 80006fa:	f095 0f00 	teq	r5, #0
 80006fe:	bf18      	it	ne
 8000700:	4770      	bxne	lr
 8000702:	f003 4600 	and.w	r6, r3, #2147483648	; 0x80000000
 8000706:	0052      	lsls	r2, r2, #1
 8000708:	eb43 0303 	adc.w	r3, r3, r3
 800070c:	f413 1f80 	tst.w	r3, #1048576	; 0x100000
 8000710:	bf08      	it	eq
 8000712:	3d01      	subeq	r5, #1
 8000714:	d0f7      	beq.n	8000706 <__aeabi_dmul+0x1c6>
 8000716:	ea43 0306 	orr.w	r3, r3, r6
 800071a:	4770      	bx	lr
 800071c:	ea94 0f0c 	teq	r4, ip
 8000720:	ea0c 5513 	and.w	r5, ip, r3, lsr #20
 8000724:	bf18      	it	ne
 8000726:	ea95 0f0c 	teqne	r5, ip
 800072a:	d00c      	beq.n	8000746 <__aeabi_dmul+0x206>
 800072c:	ea50 0641 	orrs.w	r6, r0, r1, lsl #1
 8000730:	bf18      	it	ne
 8000732:	ea52 0643 	orrsne.w	r6, r2, r3, lsl #1
 8000736:	d1d1      	bne.n	80006dc <__aeabi_dmul+0x19c>
 8000738:	ea81 0103 	eor.w	r1, r1, r3
 800073c:	f001 4100 	and.w	r1, r1, #2147483648	; 0x80000000
 8000740:	f04f 0000 	mov.w	r0, #0
 8000744:	bd70      	pop	{r4, r5, r6, pc}
 8000746:	ea50 0641 	orrs.w	r6, r0, r1, lsl #1
 800074a:	bf06      	itte	eq
 800074c:	4610      	moveq	r0, r2
 800074e:	4619      	moveq	r1, r3
 8000750:	ea52 0643 	orrsne.w	r6, r2, r3, lsl #1
 8000754:	d019      	beq.n	800078a <__aeabi_dmul+0x24a>
 8000756:	ea94 0f0c 	teq	r4, ip
 800075a:	d102      	bne.n	8000762 <__aeabi_dmul+0x222>
 800075c:	ea50 3601 	orrs.w	r6, r0, r1, lsl #12
 8000760:	d113      	bne.n	800078a <__aeabi_dmul+0x24a>
 8000762:	ea95 0f0c 	teq	r5, ip
 8000766:	d105      	bne.n	8000774 <__aeabi_dmul+0x234>
 8000768:	ea52 3603 	orrs.w	r6, r2, r3, lsl #12
 800076c:	bf1c      	itt	ne
 800076e:	4610      	movne	r0, r2
 8000770:	4619      	movne	r1, r3
 8000772:	d10a      	bne.n	800078a <__aeabi_dmul+0x24a>
 8000774:	ea81 0103 	eor.w	r1, r1, r3
 8000778:	f001 4100 	and.w	r1, r1, #2147483648	; 0x80000000
 800077c:	f041 41fe 	orr.w	r1, r1, #2130706432	; 0x7f000000
 8000780:	f441 0170 	orr.w	r1, r1, #15728640	; 0xf00000
 8000784:	f04f 0000 	mov.w	r0, #0
 8000788:	bd70      	pop	{r4, r5, r6, pc}
 800078a:	f041 41fe 	orr.w	r1, r1, #2130706432	; 0x7f000000
 800078e:	f441 0178 	orr.w	r1, r1, #16252928	; 0xf80000
 8000792:	bd70      	pop	{r4, r5, r6, pc}

08000794 <__aeabi_ddiv>:
 8000794:	b570      	push	{r4, r5, r6, lr}
 8000796:	f04f 0cff 	mov.w	ip, #255	; 0xff
 800079a:	f44c 6ce0 	orr.w	ip, ip, #1792	; 0x700
 800079e:	ea1c 5411 	ands.w	r4, ip, r1, lsr #20
 80007a2:	bf1d      	ittte	ne
 80007a4:	ea1c 5513 	andsne.w	r5, ip, r3, lsr #20
 80007a8:	ea94 0f0c 	teqne	r4, ip
 80007ac:	ea95 0f0c 	teqne	r5, ip
 80007b0:	f000 f8a7 	bleq	8000902 <__aeabi_ddiv+0x16e>
 80007b4:	eba4 0405 	sub.w	r4, r4, r5
 80007b8:	ea81 0e03 	eor.w	lr, r1, r3
 80007bc:	ea52 3503 	orrs.w	r5, r2, r3, lsl #12
 80007c0:	ea4f 3101 	mov.w	r1, r1, lsl #12
 80007c4:	f000 8088 	beq.w	80008d8 <__aeabi_ddiv+0x144>
 80007c8:	ea4f 3303 	mov.w	r3, r3, lsl #12
 80007cc:	f04f 5580 	mov.w	r5, #268435456	; 0x10000000
 80007d0:	ea45 1313 	orr.w	r3, r5, r3, lsr #4
 80007d4:	ea43 6312 	orr.w	r3, r3, r2, lsr #24
 80007d8:	ea4f 2202 	mov.w	r2, r2, lsl #8
 80007dc:	ea45 1511 	orr.w	r5, r5, r1, lsr #4
 80007e0:	ea45 6510 	orr.w	r5, r5, r0, lsr #24
 80007e4:	ea4f 2600 	mov.w	r6, r0, lsl #8
 80007e8:	f00e 4100 	and.w	r1, lr, #2147483648	; 0x80000000
 80007ec:	429d      	cmp	r5, r3
 80007ee:	bf08      	it	eq
 80007f0:	4296      	cmpeq	r6, r2
 80007f2:	f144 04fd 	adc.w	r4, r4, #253	; 0xfd
 80007f6:	f504 7440 	add.w	r4, r4, #768	; 0x300
 80007fa:	d202      	bcs.n	8000802 <__aeabi_ddiv+0x6e>
 80007fc:	085b      	lsrs	r3, r3, #1
 80007fe:	ea4f 0232 	mov.w	r2, r2, rrx
 8000802:	1ab6      	subs	r6, r6, r2
 8000804:	eb65 0503 	sbc.w	r5, r5, r3
 8000808:	085b      	lsrs	r3, r3, #1
 800080a:	ea4f 0232 	mov.w	r2, r2, rrx
 800080e:	f44f 1080 	mov.w	r0, #1048576	; 0x100000
 8000812:	f44f 2c00 	mov.w	ip, #524288	; 0x80000
 8000816:	ebb6 0e02 	subs.w	lr, r6, r2
 800081a:	eb75 0e03 	sbcs.w	lr, r5, r3
 800081e:	bf22      	ittt	cs
 8000820:	1ab6      	subcs	r6, r6, r2
 8000822:	4675      	movcs	r5, lr
 8000824:	ea40 000c 	orrcs.w	r0, r0, ip
 8000828:	085b      	lsrs	r3, r3, #1
 800082a:	ea4f 0232 	mov.w	r2, r2, rrx
 800082e:	ebb6 0e02 	subs.w	lr, r6, r2
 8000832:	eb75 0e03 	sbcs.w	lr, r5, r3
 8000836:	bf22      	ittt	cs
 8000838:	1ab6      	subcs	r6, r6, r2
 800083a:	4675      	movcs	r5, lr
 800083c:	ea40 005c 	orrcs.w	r0, r0, ip, lsr #1
 8000840:	085b      	lsrs	r3, r3, #1
 8000842:	ea4f 0232 	mov.w	r2, r2, rrx
 8000846:	ebb6 0e02 	subs.w	lr, r6, r2
 800084a:	eb75 0e03 	sbcs.w	lr, r5, r3
 800084e:	bf22      	ittt	cs
 8000850:	1ab6      	subcs	r6, r6, r2
 8000852:	4675      	movcs	r5, lr
 8000854:	ea40 009c 	orrcs.w	r0, r0, ip, lsr #2
 8000858:	085b      	lsrs	r3, r3, #1
 800085a:	ea4f 0232 	mov.w	r2, r2, rrx
 800085e:	ebb6 0e02 	subs.w	lr, r6, r2
 8000862:	eb75 0e03 	sbcs.w	lr, r5, r3
 8000866:	bf22      	ittt	cs
 8000868:	1ab6      	subcs	r6, r6, r2
 800086a:	4675      	movcs	r5, lr
 800086c:	ea40 00dc 	orrcs.w	r0, r0, ip, lsr #3
 8000870:	ea55 0e06 	orrs.w	lr, r5, r6
 8000874:	d018      	beq.n	80008a8 <__aeabi_ddiv+0x114>
 8000876:	ea4f 1505 	mov.w	r5, r5, lsl #4
 800087a:	ea45 7516 	orr.w	r5, r5, r6, lsr #28
 800087e:	ea4f 1606 	mov.w	r6, r6, lsl #4
 8000882:	ea4f 03c3 	mov.w	r3, r3, lsl #3
 8000886:	ea43 7352 	orr.w	r3, r3, r2, lsr #29
 800088a:	ea4f 02c2 	mov.w	r2, r2, lsl #3
 800088e:	ea5f 1c1c 	movs.w	ip, ip, lsr #4
 8000892:	d1c0      	bne.n	8000816 <__aeabi_ddiv+0x82>
 8000894:	f411 1f80 	tst.w	r1, #1048576	; 0x100000
 8000898:	d10b      	bne.n	80008b2 <__aeabi_ddiv+0x11e>
 800089a:	ea41 0100 	orr.w	r1, r1, r0
 800089e:	f04f 0000 	mov.w	r0, #0
 80008a2:	f04f 4c00 	mov.w	ip, #2147483648	; 0x80000000
 80008a6:	e7b6      	b.n	8000816 <__aeabi_ddiv+0x82>
 80008a8:	f411 1f80 	tst.w	r1, #1048576	; 0x100000
 80008ac:	bf04      	itt	eq
 80008ae:	4301      	orreq	r1, r0
 80008b0:	2000      	moveq	r0, #0
 80008b2:	f1b4 0cfd 	subs.w	ip, r4, #253	; 0xfd
 80008b6:	bf88      	it	hi
 80008b8:	f5bc 6fe0 	cmphi.w	ip, #1792	; 0x700
 80008bc:	f63f aeaf 	bhi.w	800061e <__aeabi_dmul+0xde>
 80008c0:	ebb5 0c03 	subs.w	ip, r5, r3
 80008c4:	bf04      	itt	eq
 80008c6:	ebb6 0c02 	subseq.w	ip, r6, r2
 80008ca:	ea5f 0c50 	movseq.w	ip, r0, lsr #1
 80008ce:	f150 0000 	adcs.w	r0, r0, #0
 80008d2:	eb41 5104 	adc.w	r1, r1, r4, lsl #20
 80008d6:	bd70      	pop	{r4, r5, r6, pc}
 80008d8:	f00e 4e00 	and.w	lr, lr, #2147483648	; 0x80000000
 80008dc:	ea4e 3111 	orr.w	r1, lr, r1, lsr #12
 80008e0:	eb14 045c 	adds.w	r4, r4, ip, lsr #1
 80008e4:	bfc2      	ittt	gt
 80008e6:	ebd4 050c 	rsbsgt	r5, r4, ip
 80008ea:	ea41 5104 	orrgt.w	r1, r1, r4, lsl #20
 80008ee:	bd70      	popgt	{r4, r5, r6, pc}
 80008f0:	f441 1180 	orr.w	r1, r1, #1048576	; 0x100000
 80008f4:	f04f 0e00 	mov.w	lr, #0
 80008f8:	3c01      	subs	r4, #1
 80008fa:	e690      	b.n	800061e <__aeabi_dmul+0xde>
 80008fc:	ea45 0e06 	orr.w	lr, r5, r6
 8000900:	e68d      	b.n	800061e <__aeabi_dmul+0xde>
 8000902:	ea0c 5513 	and.w	r5, ip, r3, lsr #20
 8000906:	ea94 0f0c 	teq	r4, ip
 800090a:	bf08      	it	eq
 800090c:	ea95 0f0c 	teqeq	r5, ip
 8000910:	f43f af3b 	beq.w	800078a <__aeabi_dmul+0x24a>
 8000914:	ea94 0f0c 	teq	r4, ip
 8000918:	d10a      	bne.n	8000930 <__aeabi_ddiv+0x19c>
 800091a:	ea50 3401 	orrs.w	r4, r0, r1, lsl #12
 800091e:	f47f af34 	bne.w	800078a <__aeabi_dmul+0x24a>
 8000922:	ea95 0f0c 	teq	r5, ip
 8000926:	f47f af25 	bne.w	8000774 <__aeabi_dmul+0x234>
 800092a:	4610      	mov	r0, r2
 800092c:	4619      	mov	r1, r3
 800092e:	e72c      	b.n	800078a <__aeabi_dmul+0x24a>
 8000930:	ea95 0f0c 	teq	r5, ip
 8000934:	d106      	bne.n	8000944 <__aeabi_ddiv+0x1b0>
 8000936:	ea52 3503 	orrs.w	r5, r2, r3, lsl #12
 800093a:	f43f aefd 	beq.w	8000738 <__aeabi_dmul+0x1f8>
 800093e:	4610      	mov	r0, r2
 8000940:	4619      	mov	r1, r3
 8000942:	e722      	b.n	800078a <__aeabi_dmul+0x24a>
 8000944:	ea50 0641 	orrs.w	r6, r0, r1, lsl #1
 8000948:	bf18      	it	ne
 800094a:	ea52 0643 	orrsne.w	r6, r2, r3, lsl #1
 800094e:	f47f aec5 	bne.w	80006dc <__aeabi_dmul+0x19c>
 8000952:	ea50 0441 	orrs.w	r4, r0, r1, lsl #1
 8000956:	f47f af0d 	bne.w	8000774 <__aeabi_dmul+0x234>
 800095a:	ea52 0543 	orrs.w	r5, r2, r3, lsl #1
 800095e:	f47f aeeb 	bne.w	8000738 <__aeabi_dmul+0x1f8>
 8000962:	e712      	b.n	800078a <__aeabi_dmul+0x24a>

08000964 <__aeabi_d2f>:
 8000964:	ea4f 0241 	mov.w	r2, r1, lsl #1
 8000968:	f1b2 43e0 	subs.w	r3, r2, #1879048192	; 0x70000000
 800096c:	bf24      	itt	cs
 800096e:	f5b3 1c00 	subscs.w	ip, r3, #2097152	; 0x200000
 8000972:	f1dc 5cfe 	rsbscs	ip, ip, #532676608	; 0x1fc00000
 8000976:	d90d      	bls.n	8000994 <__aeabi_d2f+0x30>
 8000978:	f001 4c00 	and.w	ip, r1, #2147483648	; 0x80000000
 800097c:	ea4f 02c0 	mov.w	r2, r0, lsl #3
 8000980:	ea4c 7050 	orr.w	r0, ip, r0, lsr #29
 8000984:	f1b2 4f00 	cmp.w	r2, #2147483648	; 0x80000000
 8000988:	eb40 0083 	adc.w	r0, r0, r3, lsl #2
 800098c:	bf08      	it	eq
 800098e:	f020 0001 	biceq.w	r0, r0, #1
 8000992:	4770      	bx	lr
 8000994:	f011 4f80 	tst.w	r1, #1073741824	; 0x40000000
 8000998:	d121      	bne.n	80009de <__aeabi_d2f+0x7a>
 800099a:	f113 7238 	adds.w	r2, r3, #48234496	; 0x2e00000
 800099e:	bfbc      	itt	lt
 80009a0:	f001 4000 	andlt.w	r0, r1, #2147483648	; 0x80000000
 80009a4:	4770      	bxlt	lr
 80009a6:	f441 1180 	orr.w	r1, r1, #1048576	; 0x100000
 80009aa:	ea4f 5252 	mov.w	r2, r2, lsr #21
 80009ae:	f1c2 0218 	rsb	r2, r2, #24
 80009b2:	f1c2 0c20 	rsb	ip, r2, #32
 80009b6:	fa10 f30c 	lsls.w	r3, r0, ip
 80009ba:	fa20 f002 	lsr.w	r0, r0, r2
 80009be:	bf18      	it	ne
 80009c0:	f040 0001 	orrne.w	r0, r0, #1
 80009c4:	ea4f 23c1 	mov.w	r3, r1, lsl #11
 80009c8:	ea4f 23d3 	mov.w	r3, r3, lsr #11
 80009cc:	fa03 fc0c 	lsl.w	ip, r3, ip
 80009d0:	ea40 000c 	orr.w	r0, r0, ip
 80009d4:	fa23 f302 	lsr.w	r3, r3, r2
 80009d8:	ea4f 0343 	mov.w	r3, r3, lsl #1
 80009dc:	e7cc      	b.n	8000978 <__aeabi_d2f+0x14>
 80009de:	ea7f 5362 	mvns.w	r3, r2, asr #21
 80009e2:	d107      	bne.n	80009f4 <__aeabi_d2f+0x90>
 80009e4:	ea50 3301 	orrs.w	r3, r0, r1, lsl #12
 80009e8:	bf1e      	ittt	ne
 80009ea:	f04f 40fe 	movne.w	r0, #2130706432	; 0x7f000000
 80009ee:	f440 0040 	orrne.w	r0, r0, #12582912	; 0xc00000
 80009f2:	4770      	bxne	lr
 80009f4:	f001 4000 	and.w	r0, r1, #2147483648	; 0x80000000
 80009f8:	f040 40fe 	orr.w	r0, r0, #2130706432	; 0x7f000000
 80009fc:	f440 0000 	orr.w	r0, r0, #8388608	; 0x800000
 8000a00:	4770      	bx	lr
 8000a02:	bf00      	nop

08000a04 <__aeabi_uldivmod>:
 8000a04:	b953      	cbnz	r3, 8000a1c <__aeabi_uldivmod+0x18>
 8000a06:	b94a      	cbnz	r2, 8000a1c <__aeabi_uldivmod+0x18>
 8000a08:	2900      	cmp	r1, #0
 8000a0a:	bf08      	it	eq
 8000a0c:	2800      	cmpeq	r0, #0
 8000a0e:	bf1c      	itt	ne
 8000a10:	f04f 31ff 	movne.w	r1, #4294967295
 8000a14:	f04f 30ff 	movne.w	r0, #4294967295
 8000a18:	f000 b970 	b.w	8000cfc <__aeabi_idiv0>
 8000a1c:	f1ad 0c08 	sub.w	ip, sp, #8
 8000a20:	e96d ce04 	strd	ip, lr, [sp, #-16]!
 8000a24:	f000 f806 	bl	8000a34 <__udivmoddi4>
 8000a28:	f8dd e004 	ldr.w	lr, [sp, #4]
 8000a2c:	e9dd 2302 	ldrd	r2, r3, [sp, #8]
 8000a30:	b004      	add	sp, #16
 8000a32:	4770      	bx	lr

08000a34 <__udivmoddi4>:
 8000a34:	e92d 47f0 	stmdb	sp!, {r4, r5, r6, r7, r8, r9, sl, lr}
 8000a38:	9e08      	ldr	r6, [sp, #32]
 8000a3a:	460d      	mov	r5, r1
 8000a3c:	4604      	mov	r4, r0
 8000a3e:	460f      	mov	r7, r1
 8000a40:	2b00      	cmp	r3, #0
 8000a42:	d14a      	bne.n	8000ada <__udivmoddi4+0xa6>
 8000a44:	428a      	cmp	r2, r1
 8000a46:	4694      	mov	ip, r2
 8000a48:	d965      	bls.n	8000b16 <__udivmoddi4+0xe2>
 8000a4a:	fab2 f382 	clz	r3, r2
 8000a4e:	b143      	cbz	r3, 8000a62 <__udivmoddi4+0x2e>
 8000a50:	fa02 fc03 	lsl.w	ip, r2, r3
 8000a54:	f1c3 0220 	rsb	r2, r3, #32
 8000a58:	409f      	lsls	r7, r3
 8000a5a:	fa20 f202 	lsr.w	r2, r0, r2
 8000a5e:	4317      	orrs	r7, r2
 8000a60:	409c      	lsls	r4, r3
 8000a62:	ea4f 4e1c 	mov.w	lr, ip, lsr #16
 8000a66:	fa1f f58c 	uxth.w	r5, ip
 8000a6a:	fbb7 f1fe 	udiv	r1, r7, lr
 8000a6e:	0c22      	lsrs	r2, r4, #16
 8000a70:	fb0e 7711 	mls	r7, lr, r1, r7
 8000a74:	ea42 4207 	orr.w	r2, r2, r7, lsl #16
 8000a78:	fb01 f005 	mul.w	r0, r1, r5
 8000a7c:	4290      	cmp	r0, r2
 8000a7e:	d90a      	bls.n	8000a96 <__udivmoddi4+0x62>
 8000a80:	eb1c 0202 	adds.w	r2, ip, r2
 8000a84:	f101 37ff 	add.w	r7, r1, #4294967295
 8000a88:	f080 811c 	bcs.w	8000cc4 <__udivmoddi4+0x290>
 8000a8c:	4290      	cmp	r0, r2
 8000a8e:	f240 8119 	bls.w	8000cc4 <__udivmoddi4+0x290>
 8000a92:	3902      	subs	r1, #2
 8000a94:	4462      	add	r2, ip
 8000a96:	1a12      	subs	r2, r2, r0
 8000a98:	b2a4      	uxth	r4, r4
 8000a9a:	fbb2 f0fe 	udiv	r0, r2, lr
 8000a9e:	fb0e 2210 	mls	r2, lr, r0, r2
 8000aa2:	ea44 4402 	orr.w	r4, r4, r2, lsl #16
 8000aa6:	fb00 f505 	mul.w	r5, r0, r5
 8000aaa:	42a5      	cmp	r5, r4
 8000aac:	d90a      	bls.n	8000ac4 <__udivmoddi4+0x90>
 8000aae:	eb1c 0404 	adds.w	r4, ip, r4
 8000ab2:	f100 32ff 	add.w	r2, r0, #4294967295
 8000ab6:	f080 8107 	bcs.w	8000cc8 <__udivmoddi4+0x294>
 8000aba:	42a5      	cmp	r5, r4
 8000abc:	f240 8104 	bls.w	8000cc8 <__udivmoddi4+0x294>
 8000ac0:	4464      	add	r4, ip
 8000ac2:	3802      	subs	r0, #2
 8000ac4:	ea40 4001 	orr.w	r0, r0, r1, lsl #16
 8000ac8:	1b64      	subs	r4, r4, r5
 8000aca:	2100      	movs	r1, #0
 8000acc:	b11e      	cbz	r6, 8000ad6 <__udivmoddi4+0xa2>
 8000ace:	40dc      	lsrs	r4, r3
 8000ad0:	2300      	movs	r3, #0
 8000ad2:	e9c6 4300 	strd	r4, r3, [r6]
 8000ad6:	e8bd 87f0 	ldmia.w	sp!, {r4, r5, r6, r7, r8, r9, sl, pc}
 8000ada:	428b      	cmp	r3, r1
 8000adc:	d908      	bls.n	8000af0 <__udivmoddi4+0xbc>
 8000ade:	2e00      	cmp	r6, #0
 8000ae0:	f000 80ed 	beq.w	8000cbe <__udivmoddi4+0x28a>
 8000ae4:	2100      	movs	r1, #0
 8000ae6:	e9c6 0500 	strd	r0, r5, [r6]
 8000aea:	4608      	mov	r0, r1
 8000aec:	e8bd 87f0 	ldmia.w	sp!, {r4, r5, r6, r7, r8, r9, sl, pc}
 8000af0:	fab3 f183 	clz	r1, r3
 8000af4:	2900      	cmp	r1, #0
 8000af6:	d149      	bne.n	8000b8c <__udivmoddi4+0x158>
 8000af8:	42ab      	cmp	r3, r5
 8000afa:	d302      	bcc.n	8000b02 <__udivmoddi4+0xce>
 8000afc:	4282      	cmp	r2, r0
 8000afe:	f200 80f8 	bhi.w	8000cf2 <__udivmoddi4+0x2be>
 8000b02:	1a84      	subs	r4, r0, r2
 8000b04:	eb65 0203 	sbc.w	r2, r5, r3
 8000b08:	2001      	movs	r0, #1
 8000b0a:	4617      	mov	r7, r2
 8000b0c:	2e00      	cmp	r6, #0
 8000b0e:	d0e2      	beq.n	8000ad6 <__udivmoddi4+0xa2>
 8000b10:	e9c6 4700 	strd	r4, r7, [r6]
 8000b14:	e7df      	b.n	8000ad6 <__udivmoddi4+0xa2>
 8000b16:	b902      	cbnz	r2, 8000b1a <__udivmoddi4+0xe6>
 8000b18:	deff      	udf	#255	; 0xff
 8000b1a:	fab2 f382 	clz	r3, r2
 8000b1e:	2b00      	cmp	r3, #0
 8000b20:	f040 8090 	bne.w	8000c44 <__udivmoddi4+0x210>
 8000b24:	1a8a      	subs	r2, r1, r2
 8000b26:	ea4f 471c 	mov.w	r7, ip, lsr #16
 8000b2a:	fa1f fe8c 	uxth.w	lr, ip
 8000b2e:	2101      	movs	r1, #1
 8000b30:	fbb2 f5f7 	udiv	r5, r2, r7
 8000b34:	fb07 2015 	mls	r0, r7, r5, r2
 8000b38:	0c22      	lsrs	r2, r4, #16
 8000b3a:	ea42 4200 	orr.w	r2, r2, r0, lsl #16
 8000b3e:	fb0e f005 	mul.w	r0, lr, r5
 8000b42:	4290      	cmp	r0, r2
 8000b44:	d908      	bls.n	8000b58 <__udivmoddi4+0x124>
 8000b46:	eb1c 0202 	adds.w	r2, ip, r2
 8000b4a:	f105 38ff 	add.w	r8, r5, #4294967295
 8000b4e:	d202      	bcs.n	8000b56 <__udivmoddi4+0x122>
 8000b50:	4290      	cmp	r0, r2
 8000b52:	f200 80cb 	bhi.w	8000cec <__udivmoddi4+0x2b8>
 8000b56:	4645      	mov	r5, r8
 8000b58:	1a12      	subs	r2, r2, r0
 8000b5a:	b2a4      	uxth	r4, r4
 8000b5c:	fbb2 f0f7 	udiv	r0, r2, r7
 8000b60:	fb07 2210 	mls	r2, r7, r0, r2
 8000b64:	ea44 4402 	orr.w	r4, r4, r2, lsl #16
 8000b68:	fb0e fe00 	mul.w	lr, lr, r0
 8000b6c:	45a6      	cmp	lr, r4
 8000b6e:	d908      	bls.n	8000b82 <__udivmoddi4+0x14e>
 8000b70:	eb1c 0404 	adds.w	r4, ip, r4
 8000b74:	f100 32ff 	add.w	r2, r0, #4294967295
 8000b78:	d202      	bcs.n	8000b80 <__udivmoddi4+0x14c>
 8000b7a:	45a6      	cmp	lr, r4
 8000b7c:	f200 80bb 	bhi.w	8000cf6 <__udivmoddi4+0x2c2>
 8000b80:	4610      	mov	r0, r2
 8000b82:	eba4 040e 	sub.w	r4, r4, lr
 8000b86:	ea40 4005 	orr.w	r0, r0, r5, lsl #16
 8000b8a:	e79f      	b.n	8000acc <__udivmoddi4+0x98>
 8000b8c:	f1c1 0720 	rsb	r7, r1, #32
 8000b90:	408b      	lsls	r3, r1
 8000b92:	fa22 fc07 	lsr.w	ip, r2, r7
 8000b96:	ea4c 0c03 	orr.w	ip, ip, r3
 8000b9a:	fa05 f401 	lsl.w	r4, r5, r1
 8000b9e:	fa20 f307 	lsr.w	r3, r0, r7
 8000ba2:	40fd      	lsrs	r5, r7
 8000ba4:	ea4f 491c 	mov.w	r9, ip, lsr #16
 8000ba8:	4323      	orrs	r3, r4
 8000baa:	fbb5 f8f9 	udiv	r8, r5, r9
 8000bae:	fa1f fe8c 	uxth.w	lr, ip
 8000bb2:	fb09 5518 	mls	r5, r9, r8, r5
 8000bb6:	0c1c      	lsrs	r4, r3, #16
 8000bb8:	ea44 4405 	orr.w	r4, r4, r5, lsl #16
 8000bbc:	fb08 f50e 	mul.w	r5, r8, lr
 8000bc0:	42a5      	cmp	r5, r4
 8000bc2:	fa02 f201 	lsl.w	r2, r2, r1
 8000bc6:	fa00 f001 	lsl.w	r0, r0, r1
 8000bca:	d90b      	bls.n	8000be4 <__udivmoddi4+0x1b0>
 8000bcc:	eb1c 0404 	adds.w	r4, ip, r4
 8000bd0:	f108 3aff 	add.w	sl, r8, #4294967295
 8000bd4:	f080 8088 	bcs.w	8000ce8 <__udivmoddi4+0x2b4>
 8000bd8:	42a5      	cmp	r5, r4
 8000bda:	f240 8085 	bls.w	8000ce8 <__udivmoddi4+0x2b4>
 8000bde:	f1a8 0802 	sub.w	r8, r8, #2
 8000be2:	4464      	add	r4, ip
 8000be4:	1b64      	subs	r4, r4, r5
 8000be6:	b29d      	uxth	r5, r3
 8000be8:	fbb4 f3f9 	udiv	r3, r4, r9
 8000bec:	fb09 4413 	mls	r4, r9, r3, r4
 8000bf0:	ea45 4404 	orr.w	r4, r5, r4, lsl #16
 8000bf4:	fb03 fe0e 	mul.w	lr, r3, lr
 8000bf8:	45a6      	cmp	lr, r4
 8000bfa:	d908      	bls.n	8000c0e <__udivmoddi4+0x1da>
 8000bfc:	eb1c 0404 	adds.w	r4, ip, r4
 8000c00:	f103 35ff 	add.w	r5, r3, #4294967295
 8000c04:	d26c      	bcs.n	8000ce0 <__udivmoddi4+0x2ac>
 8000c06:	45a6      	cmp	lr, r4
 8000c08:	d96a      	bls.n	8000ce0 <__udivmoddi4+0x2ac>
 8000c0a:	3b02      	subs	r3, #2
 8000c0c:	4464      	add	r4, ip
 8000c0e:	ea43 4308 	orr.w	r3, r3, r8, lsl #16
 8000c12:	fba3 9502 	umull	r9, r5, r3, r2
 8000c16:	eba4 040e 	sub.w	r4, r4, lr
 8000c1a:	42ac      	cmp	r4, r5
 8000c1c:	46c8      	mov	r8, r9
 8000c1e:	46ae      	mov	lr, r5
 8000c20:	d356      	bcc.n	8000cd0 <__udivmoddi4+0x29c>
 8000c22:	d053      	beq.n	8000ccc <__udivmoddi4+0x298>
 8000c24:	b156      	cbz	r6, 8000c3c <__udivmoddi4+0x208>
 8000c26:	ebb0 0208 	subs.w	r2, r0, r8
 8000c2a:	eb64 040e 	sbc.w	r4, r4, lr
 8000c2e:	fa04 f707 	lsl.w	r7, r4, r7
 8000c32:	40ca      	lsrs	r2, r1
 8000c34:	40cc      	lsrs	r4, r1
 8000c36:	4317      	orrs	r7, r2
 8000c38:	e9c6 7400 	strd	r7, r4, [r6]
 8000c3c:	4618      	mov	r0, r3
 8000c3e:	2100      	movs	r1, #0
 8000c40:	e8bd 87f0 	ldmia.w	sp!, {r4, r5, r6, r7, r8, r9, sl, pc}
 8000c44:	f1c3 0120 	rsb	r1, r3, #32
 8000c48:	fa02 fc03 	lsl.w	ip, r2, r3
 8000c4c:	fa20 f201 	lsr.w	r2, r0, r1
 8000c50:	fa25 f101 	lsr.w	r1, r5, r1
 8000c54:	409d      	lsls	r5, r3
 8000c56:	432a      	orrs	r2, r5
 8000c58:	ea4f 471c 	mov.w	r7, ip, lsr #16
 8000c5c:	fa1f fe8c 	uxth.w	lr, ip
 8000c60:	fbb1 f0f7 	udiv	r0, r1, r7
 8000c64:	fb07 1510 	mls	r5, r7, r0, r1
 8000c68:	0c11      	lsrs	r1, r2, #16
 8000c6a:	ea41 4105 	orr.w	r1, r1, r5, lsl #16
 8000c6e:	fb00 f50e 	mul.w	r5, r0, lr
 8000c72:	428d      	cmp	r5, r1
 8000c74:	fa04 f403 	lsl.w	r4, r4, r3
 8000c78:	d908      	bls.n	8000c8c <__udivmoddi4+0x258>
 8000c7a:	eb1c 0101 	adds.w	r1, ip, r1
 8000c7e:	f100 38ff 	add.w	r8, r0, #4294967295
 8000c82:	d22f      	bcs.n	8000ce4 <__udivmoddi4+0x2b0>
 8000c84:	428d      	cmp	r5, r1
 8000c86:	d92d      	bls.n	8000ce4 <__udivmoddi4+0x2b0>
 8000c88:	3802      	subs	r0, #2
 8000c8a:	4461      	add	r1, ip
 8000c8c:	1b49      	subs	r1, r1, r5
 8000c8e:	b292      	uxth	r2, r2
 8000c90:	fbb1 f5f7 	udiv	r5, r1, r7
 8000c94:	fb07 1115 	mls	r1, r7, r5, r1
 8000c98:	ea42 4201 	orr.w	r2, r2, r1, lsl #16
 8000c9c:	fb05 f10e 	mul.w	r1, r5, lr
 8000ca0:	4291      	cmp	r1, r2
 8000ca2:	d908      	bls.n	8000cb6 <__udivmoddi4+0x282>
 8000ca4:	eb1c 0202 	adds.w	r2, ip, r2
 8000ca8:	f105 38ff 	add.w	r8, r5, #4294967295
 8000cac:	d216      	bcs.n	8000cdc <__udivmoddi4+0x2a8>
 8000cae:	4291      	cmp	r1, r2
 8000cb0:	d914      	bls.n	8000cdc <__udivmoddi4+0x2a8>
 8000cb2:	3d02      	subs	r5, #2
 8000cb4:	4462      	add	r2, ip
 8000cb6:	1a52      	subs	r2, r2, r1
 8000cb8:	ea45 4100 	orr.w	r1, r5, r0, lsl #16
 8000cbc:	e738      	b.n	8000b30 <__udivmoddi4+0xfc>
 8000cbe:	4631      	mov	r1, r6
 8000cc0:	4630      	mov	r0, r6
 8000cc2:	e708      	b.n	8000ad6 <__udivmoddi4+0xa2>
 8000cc4:	4639      	mov	r1, r7
 8000cc6:	e6e6      	b.n	8000a96 <__udivmoddi4+0x62>
 8000cc8:	4610      	mov	r0, r2
 8000cca:	e6fb      	b.n	8000ac4 <__udivmoddi4+0x90>
 8000ccc:	4548      	cmp	r0, r9
 8000cce:	d2a9      	bcs.n	8000c24 <__udivmoddi4+0x1f0>
 8000cd0:	ebb9 0802 	subs.w	r8, r9, r2
 8000cd4:	eb65 0e0c 	sbc.w	lr, r5, ip
 8000cd8:	3b01      	subs	r3, #1
 8000cda:	e7a3      	b.n	8000c24 <__udivmoddi4+0x1f0>
 8000cdc:	4645      	mov	r5, r8
 8000cde:	e7ea      	b.n	8000cb6 <__udivmoddi4+0x282>
 8000ce0:	462b      	mov	r3, r5
 8000ce2:	e794      	b.n	8000c0e <__udivmoddi4+0x1da>
 8000ce4:	4640      	mov	r0, r8
 8000ce6:	e7d1      	b.n	8000c8c <__udivmoddi4+0x258>
 8000ce8:	46d0      	mov	r8, sl
 8000cea:	e77b      	b.n	8000be4 <__udivmoddi4+0x1b0>
 8000cec:	3d02      	subs	r5, #2
 8000cee:	4462      	add	r2, ip
 8000cf0:	e732      	b.n	8000b58 <__udivmoddi4+0x124>
 8000cf2:	4608      	mov	r0, r1
 8000cf4:	e70a      	b.n	8000b0c <__udivmoddi4+0xd8>
 8000cf6:	4464      	add	r4, ip
 8000cf8:	3802      	subs	r0, #2
 8000cfa:	e742      	b.n	8000b82 <__udivmoddi4+0x14e>

08000cfc <__aeabi_idiv0>:
 8000cfc:	4770      	bx	lr
 8000cfe:	bf00      	nop

08000d00 <lcd10usDelay>:
}
#endif /* USE_BUSY_FLAG */

/*!	\brief	Creates delay multiples of 10us. */
static void lcd10usDelay(volatile uint32_t us)
{
 8000d00:	b480      	push	{r7}
 8000d02:	b083      	sub	sp, #12
 8000d04:	af00      	add	r7, sp, #0
 8000d06:	6078      	str	r0, [r7, #4]
	/* Ñonversion to us */
	us *= MCU_FREQ_VALUE;
 8000d08:	4b0b      	ldr	r3, [pc, #44]	; (8000d38 <lcd10usDelay+0x38>)
 8000d0a:	681b      	ldr	r3, [r3, #0]
 8000d0c:	4a0b      	ldr	r2, [pc, #44]	; (8000d3c <lcd10usDelay+0x3c>)
 8000d0e:	fba2 2303 	umull	r2, r3, r2, r3
 8000d12:	0c9b      	lsrs	r3, r3, #18
 8000d14:	687a      	ldr	r2, [r7, #4]
 8000d16:	fb02 f303 	mul.w	r3, r2, r3
 8000d1a:	607b      	str	r3, [r7, #4]
	/* Wait */
	while (us > 0u)
 8000d1c:	e002      	b.n	8000d24 <lcd10usDelay+0x24>
	{
		us--;
 8000d1e:	687b      	ldr	r3, [r7, #4]
 8000d20:	3b01      	subs	r3, #1
 8000d22:	607b      	str	r3, [r7, #4]
	while (us > 0u)
 8000d24:	687b      	ldr	r3, [r7, #4]
 8000d26:	2b00      	cmp	r3, #0
 8000d28:	d1f9      	bne.n	8000d1e <lcd10usDelay+0x1e>
	}
}
 8000d2a:	bf00      	nop
 8000d2c:	bf00      	nop
 8000d2e:	370c      	adds	r7, #12
 8000d30:	46bd      	mov	sp, r7
 8000d32:	f85d 7b04 	ldr.w	r7, [sp], #4
 8000d36:	4770      	bx	lr
 8000d38:	20000008 	.word	0x20000008
 8000d3c:	431bde83 	.word	0x431bde83

08000d40 <lcdStrobe>:

/*!	\brief	Initiate the transfer of data/commands to LCD. */
static void lcdStrobe(void)
{/* Low level function. */
 8000d40:	b580      	push	{r7, lr}
 8000d42:	af00      	add	r7, sp, #0
	SET(LCD_E_OUT, LCD_E);
 8000d44:	4b08      	ldr	r3, [pc, #32]	; (8000d68 <lcdStrobe+0x28>)
 8000d46:	695b      	ldr	r3, [r3, #20]
 8000d48:	4a07      	ldr	r2, [pc, #28]	; (8000d68 <lcdStrobe+0x28>)
 8000d4a:	f443 6300 	orr.w	r3, r3, #2048	; 0x800
 8000d4e:	6153      	str	r3, [r2, #20]
	lcd10usDelay(ENABLE_CYCLE_TIME);
 8000d50:	2001      	movs	r0, #1
 8000d52:	f7ff ffd5 	bl	8000d00 <lcd10usDelay>
	CLR(LCD_E_OUT, LCD_E);	/* Enable strobe */
 8000d56:	4b04      	ldr	r3, [pc, #16]	; (8000d68 <lcdStrobe+0x28>)
 8000d58:	695b      	ldr	r3, [r3, #20]
 8000d5a:	4a03      	ldr	r2, [pc, #12]	; (8000d68 <lcdStrobe+0x28>)
 8000d5c:	f423 6300 	bic.w	r3, r3, #2048	; 0x800
 8000d60:	6153      	str	r3, [r2, #20]
}
 8000d62:	bf00      	nop
 8000d64:	bd80      	pop	{r7, pc}
 8000d66:	bf00      	nop
 8000d68:	40021000 	.word	0x40021000

08000d6c <lcdHigh>:

/*!	\brief	Send the msb nibble of the data / command to LCD. */
static void lcdHigh(uint8_t data)
{/* Low level function. */
 8000d6c:	b480      	push	{r7}
 8000d6e:	b083      	sub	sp, #12
 8000d70:	af00      	add	r7, sp, #0
 8000d72:	4603      	mov	r3, r0
 8000d74:	71fb      	strb	r3, [r7, #7]
	if(data & LCD_D7_MASK) SET(LCD_D7_OUT, LCD_D7); else CLR(LCD_D7_OUT, LCD_D7);
 8000d76:	f997 3007 	ldrsb.w	r3, [r7, #7]
 8000d7a:	2b00      	cmp	r3, #0
 8000d7c:	da06      	bge.n	8000d8c <lcdHigh+0x20>
 8000d7e:	4b24      	ldr	r3, [pc, #144]	; (8000e10 <lcdHigh+0xa4>)
 8000d80:	695b      	ldr	r3, [r3, #20]
 8000d82:	4a23      	ldr	r2, [pc, #140]	; (8000e10 <lcdHigh+0xa4>)
 8000d84:	f443 4300 	orr.w	r3, r3, #32768	; 0x8000
 8000d88:	6153      	str	r3, [r2, #20]
 8000d8a:	e005      	b.n	8000d98 <lcdHigh+0x2c>
 8000d8c:	4b20      	ldr	r3, [pc, #128]	; (8000e10 <lcdHigh+0xa4>)
 8000d8e:	695b      	ldr	r3, [r3, #20]
 8000d90:	4a1f      	ldr	r2, [pc, #124]	; (8000e10 <lcdHigh+0xa4>)
 8000d92:	f423 4300 	bic.w	r3, r3, #32768	; 0x8000
 8000d96:	6153      	str	r3, [r2, #20]
	if(data & LCD_D6_MASK) SET(LCD_D6_OUT, LCD_D6); else CLR(LCD_D6_OUT, LCD_D6);
 8000d98:	79fb      	ldrb	r3, [r7, #7]
 8000d9a:	f003 0340 	and.w	r3, r3, #64	; 0x40
 8000d9e:	2b00      	cmp	r3, #0
 8000da0:	d006      	beq.n	8000db0 <lcdHigh+0x44>
 8000da2:	4b1b      	ldr	r3, [pc, #108]	; (8000e10 <lcdHigh+0xa4>)
 8000da4:	695b      	ldr	r3, [r3, #20]
 8000da6:	4a1a      	ldr	r2, [pc, #104]	; (8000e10 <lcdHigh+0xa4>)
 8000da8:	f443 4380 	orr.w	r3, r3, #16384	; 0x4000
 8000dac:	6153      	str	r3, [r2, #20]
 8000dae:	e005      	b.n	8000dbc <lcdHigh+0x50>
 8000db0:	4b17      	ldr	r3, [pc, #92]	; (8000e10 <lcdHigh+0xa4>)
 8000db2:	695b      	ldr	r3, [r3, #20]
 8000db4:	4a16      	ldr	r2, [pc, #88]	; (8000e10 <lcdHigh+0xa4>)
 8000db6:	f423 4380 	bic.w	r3, r3, #16384	; 0x4000
 8000dba:	6153      	str	r3, [r2, #20]
	if(data & LCD_D5_MASK) SET(LCD_D5_OUT, LCD_D5); else CLR(LCD_D5_OUT, LCD_D5);
 8000dbc:	79fb      	ldrb	r3, [r7, #7]
 8000dbe:	f003 0320 	and.w	r3, r3, #32
 8000dc2:	2b00      	cmp	r3, #0
 8000dc4:	d006      	beq.n	8000dd4 <lcdHigh+0x68>
 8000dc6:	4b12      	ldr	r3, [pc, #72]	; (8000e10 <lcdHigh+0xa4>)
 8000dc8:	695b      	ldr	r3, [r3, #20]
 8000dca:	4a11      	ldr	r2, [pc, #68]	; (8000e10 <lcdHigh+0xa4>)
 8000dcc:	f443 5300 	orr.w	r3, r3, #8192	; 0x2000
 8000dd0:	6153      	str	r3, [r2, #20]
 8000dd2:	e005      	b.n	8000de0 <lcdHigh+0x74>
 8000dd4:	4b0e      	ldr	r3, [pc, #56]	; (8000e10 <lcdHigh+0xa4>)
 8000dd6:	695b      	ldr	r3, [r3, #20]
 8000dd8:	4a0d      	ldr	r2, [pc, #52]	; (8000e10 <lcdHigh+0xa4>)
 8000dda:	f423 5300 	bic.w	r3, r3, #8192	; 0x2000
 8000dde:	6153      	str	r3, [r2, #20]
	if(data & LCD_D4_MASK) SET(LCD_D4_OUT, LCD_D4); else CLR(LCD_D4_OUT, LCD_D4);
 8000de0:	79fb      	ldrb	r3, [r7, #7]
 8000de2:	f003 0310 	and.w	r3, r3, #16
 8000de6:	2b00      	cmp	r3, #0
 8000de8:	d006      	beq.n	8000df8 <lcdHigh+0x8c>
 8000dea:	4b09      	ldr	r3, [pc, #36]	; (8000e10 <lcdHigh+0xa4>)
 8000dec:	695b      	ldr	r3, [r3, #20]
 8000dee:	4a08      	ldr	r2, [pc, #32]	; (8000e10 <lcdHigh+0xa4>)
 8000df0:	f443 5380 	orr.w	r3, r3, #4096	; 0x1000
 8000df4:	6153      	str	r3, [r2, #20]
}
 8000df6:	e005      	b.n	8000e04 <lcdHigh+0x98>
	if(data & LCD_D4_MASK) SET(LCD_D4_OUT, LCD_D4); else CLR(LCD_D4_OUT, LCD_D4);
 8000df8:	4b05      	ldr	r3, [pc, #20]	; (8000e10 <lcdHigh+0xa4>)
 8000dfa:	695b      	ldr	r3, [r3, #20]
 8000dfc:	4a04      	ldr	r2, [pc, #16]	; (8000e10 <lcdHigh+0xa4>)
 8000dfe:	f423 5380 	bic.w	r3, r3, #4096	; 0x1000
 8000e02:	6153      	str	r3, [r2, #20]
}
 8000e04:	bf00      	nop
 8000e06:	370c      	adds	r7, #12
 8000e08:	46bd      	mov	sp, r7
 8000e0a:	f85d 7b04 	ldr.w	r7, [sp], #4
 8000e0e:	4770      	bx	lr
 8000e10:	40021000 	.word	0x40021000

08000e14 <lcdLow>:

/*!	\brief	Send the lsb nibble of the data / command to LCD. */
static void lcdLow(uint8_t data)
{/* Low level function. */
 8000e14:	b480      	push	{r7}
 8000e16:	b083      	sub	sp, #12
 8000e18:	af00      	add	r7, sp, #0
 8000e1a:	4603      	mov	r3, r0
 8000e1c:	71fb      	strb	r3, [r7, #7]
	if(data & LCD_D3_MASK) SET(LCD_D7_OUT, LCD_D7); else CLR(LCD_D7_OUT, LCD_D7);
 8000e1e:	79fb      	ldrb	r3, [r7, #7]
 8000e20:	f003 0308 	and.w	r3, r3, #8
 8000e24:	2b00      	cmp	r3, #0
 8000e26:	d006      	beq.n	8000e36 <lcdLow+0x22>
 8000e28:	4b24      	ldr	r3, [pc, #144]	; (8000ebc <lcdLow+0xa8>)
 8000e2a:	695b      	ldr	r3, [r3, #20]
 8000e2c:	4a23      	ldr	r2, [pc, #140]	; (8000ebc <lcdLow+0xa8>)
 8000e2e:	f443 4300 	orr.w	r3, r3, #32768	; 0x8000
 8000e32:	6153      	str	r3, [r2, #20]
 8000e34:	e005      	b.n	8000e42 <lcdLow+0x2e>
 8000e36:	4b21      	ldr	r3, [pc, #132]	; (8000ebc <lcdLow+0xa8>)
 8000e38:	695b      	ldr	r3, [r3, #20]
 8000e3a:	4a20      	ldr	r2, [pc, #128]	; (8000ebc <lcdLow+0xa8>)
 8000e3c:	f423 4300 	bic.w	r3, r3, #32768	; 0x8000
 8000e40:	6153      	str	r3, [r2, #20]
	if(data & LCD_D2_MASK) SET(LCD_D6_OUT, LCD_D6); else CLR(LCD_D6_OUT, LCD_D6);
 8000e42:	79fb      	ldrb	r3, [r7, #7]
 8000e44:	f003 0304 	and.w	r3, r3, #4
 8000e48:	2b00      	cmp	r3, #0
 8000e4a:	d006      	beq.n	8000e5a <lcdLow+0x46>
 8000e4c:	4b1b      	ldr	r3, [pc, #108]	; (8000ebc <lcdLow+0xa8>)
 8000e4e:	695b      	ldr	r3, [r3, #20]
 8000e50:	4a1a      	ldr	r2, [pc, #104]	; (8000ebc <lcdLow+0xa8>)
 8000e52:	f443 4380 	orr.w	r3, r3, #16384	; 0x4000
 8000e56:	6153      	str	r3, [r2, #20]
 8000e58:	e005      	b.n	8000e66 <lcdLow+0x52>
 8000e5a:	4b18      	ldr	r3, [pc, #96]	; (8000ebc <lcdLow+0xa8>)
 8000e5c:	695b      	ldr	r3, [r3, #20]
 8000e5e:	4a17      	ldr	r2, [pc, #92]	; (8000ebc <lcdLow+0xa8>)
 8000e60:	f423 4380 	bic.w	r3, r3, #16384	; 0x4000
 8000e64:	6153      	str	r3, [r2, #20]
	if(data & LCD_D1_MASK) SET(LCD_D5_OUT, LCD_D5); else CLR(LCD_D5_OUT, LCD_D5);
 8000e66:	79fb      	ldrb	r3, [r7, #7]
 8000e68:	f003 0302 	and.w	r3, r3, #2
 8000e6c:	2b00      	cmp	r3, #0
 8000e6e:	d006      	beq.n	8000e7e <lcdLow+0x6a>
 8000e70:	4b12      	ldr	r3, [pc, #72]	; (8000ebc <lcdLow+0xa8>)
 8000e72:	695b      	ldr	r3, [r3, #20]
 8000e74:	4a11      	ldr	r2, [pc, #68]	; (8000ebc <lcdLow+0xa8>)
 8000e76:	f443 5300 	orr.w	r3, r3, #8192	; 0x2000
 8000e7a:	6153      	str	r3, [r2, #20]
 8000e7c:	e005      	b.n	8000e8a <lcdLow+0x76>
 8000e7e:	4b0f      	ldr	r3, [pc, #60]	; (8000ebc <lcdLow+0xa8>)
 8000e80:	695b      	ldr	r3, [r3, #20]
 8000e82:	4a0e      	ldr	r2, [pc, #56]	; (8000ebc <lcdLow+0xa8>)
 8000e84:	f423 5300 	bic.w	r3, r3, #8192	; 0x2000
 8000e88:	6153      	str	r3, [r2, #20]
	if(data & LCD_D0_MASK) SET(LCD_D4_OUT, LCD_D4); else CLR(LCD_D4_OUT, LCD_D4);
 8000e8a:	79fb      	ldrb	r3, [r7, #7]
 8000e8c:	f003 0301 	and.w	r3, r3, #1
 8000e90:	2b00      	cmp	r3, #0
 8000e92:	d006      	beq.n	8000ea2 <lcdLow+0x8e>
 8000e94:	4b09      	ldr	r3, [pc, #36]	; (8000ebc <lcdLow+0xa8>)
 8000e96:	695b      	ldr	r3, [r3, #20]
 8000e98:	4a08      	ldr	r2, [pc, #32]	; (8000ebc <lcdLow+0xa8>)
 8000e9a:	f443 5380 	orr.w	r3, r3, #4096	; 0x1000
 8000e9e:	6153      	str	r3, [r2, #20]
}
 8000ea0:	e005      	b.n	8000eae <lcdLow+0x9a>
	if(data & LCD_D0_MASK) SET(LCD_D4_OUT, LCD_D4); else CLR(LCD_D4_OUT, LCD_D4);
 8000ea2:	4b06      	ldr	r3, [pc, #24]	; (8000ebc <lcdLow+0xa8>)
 8000ea4:	695b      	ldr	r3, [r3, #20]
 8000ea6:	4a05      	ldr	r2, [pc, #20]	; (8000ebc <lcdLow+0xa8>)
 8000ea8:	f423 5380 	bic.w	r3, r3, #4096	; 0x1000
 8000eac:	6153      	str	r3, [r2, #20]
}
 8000eae:	bf00      	nop
 8000eb0:	370c      	adds	r7, #12
 8000eb2:	46bd      	mov	sp, r7
 8000eb4:	f85d 7b04 	ldr.w	r7, [sp], #4
 8000eb8:	4770      	bx	lr
 8000eba:	bf00      	nop
 8000ebc:	40021000 	.word	0x40021000

08000ec0 <lcdWrite>:

/*!	\brief	Send data/commands to the display. */
static void lcdWrite(uint8_t data)
{/* Low level function. */
 8000ec0:	b580      	push	{r7, lr}
 8000ec2:	b082      	sub	sp, #8
 8000ec4:	af00      	add	r7, sp, #0
 8000ec6:	4603      	mov	r3, r0
 8000ec8:	71fb      	strb	r3, [r7, #7]
#if (USE_BUSY_FLAG)
	/* Write data/commands to LCD. */
	CLR(LCD_RW_OUT, LCD_RW);
#endif /* USE_BUSY_FLAG */

	lcdHigh(data);
 8000eca:	79fb      	ldrb	r3, [r7, #7]
 8000ecc:	4618      	mov	r0, r3
 8000ece:	f7ff ff4d 	bl	8000d6c <lcdHigh>
	lcdStrobe();
 8000ed2:	f7ff ff35 	bl	8000d40 <lcdStrobe>
	lcdLow(data);
 8000ed6:	79fb      	ldrb	r3, [r7, #7]
 8000ed8:	4618      	mov	r0, r3
 8000eda:	f7ff ff9b 	bl	8000e14 <lcdLow>
	lcdStrobe();
 8000ede:	f7ff ff2f 	bl	8000d40 <lcdStrobe>

	/* The busy flag must be checked after the 4-bit data has been transferred twice. */
#if (USE_BUSY_FLAG)
	lcd_busy_delay();
#else
	lcd10usDelay(BUSY_CYCLE_TIME);
 8000ee2:	2005      	movs	r0, #5
 8000ee4:	f7ff ff0c 	bl	8000d00 <lcd10usDelay>
#endif /* USE_BUSY_FLAG */
}
 8000ee8:	bf00      	nop
 8000eea:	3708      	adds	r7, #8
 8000eec:	46bd      	mov	sp, r7
 8000eee:	bd80      	pop	{r7, pc}

08000ef0 <lcdConfig>:

/*!	\brief	Initializing by instruction. 4-bit interface initialization. */
static void lcdConfig(uint8_t param)
{/* Low level function. */
 8000ef0:	b580      	push	{r7, lr}
 8000ef2:	b082      	sub	sp, #8
 8000ef4:	af00      	add	r7, sp, #0
 8000ef6:	4603      	mov	r3, r0
 8000ef8:	71fb      	strb	r3, [r7, #7]
	/* Send commands to LCD. */
	CLR(LCD_RS_OUT, LCD_RS);
 8000efa:	4b10      	ldr	r3, [pc, #64]	; (8000f3c <lcdConfig+0x4c>)
 8000efc:	695b      	ldr	r3, [r3, #20]
 8000efe:	4a0f      	ldr	r2, [pc, #60]	; (8000f3c <lcdConfig+0x4c>)
 8000f00:	f023 0380 	bic.w	r3, r3, #128	; 0x80
 8000f04:	6153      	str	r3, [r2, #20]
#if (USE_BUSY_FLAG)
	/* Write data/commands to LCD. */
	CLR(LCD_RW_OUT, LCD_RW);
#endif /* USE_BUSY_FLAG */

	lcdHigh(param);
 8000f06:	79fb      	ldrb	r3, [r7, #7]
 8000f08:	4618      	mov	r0, r3
 8000f0a:	f7ff ff2f 	bl	8000d6c <lcdHigh>
	lcdStrobe();		// Change 8-bit interface to 4-bit interface
 8000f0e:	f7ff ff17 	bl	8000d40 <lcdStrobe>
	lcd10usDelay(BUSY_CYCLE_TIME);
 8000f12:	2005      	movs	r0, #5
 8000f14:	f7ff fef4 	bl	8000d00 <lcd10usDelay>
	lcdStrobe();		/* DB7 to DB4 of the "Function set" instruction is written twice. */
 8000f18:	f7ff ff12 	bl	8000d40 <lcdStrobe>
	lcd10usDelay(BUSY_CYCLE_TIME);
 8000f1c:	2005      	movs	r0, #5
 8000f1e:	f7ff feef 	bl	8000d00 <lcd10usDelay>
	lcdLow(param);
 8000f22:	79fb      	ldrb	r3, [r7, #7]
 8000f24:	4618      	mov	r0, r3
 8000f26:	f7ff ff75 	bl	8000e14 <lcdLow>
	lcdStrobe();		// 4-bit, two lines, 5x8 pixel
 8000f2a:	f7ff ff09 	bl	8000d40 <lcdStrobe>
	lcd10usDelay(BUSY_CYCLE_TIME);
 8000f2e:	2005      	movs	r0, #5
 8000f30:	f7ff fee6 	bl	8000d00 <lcd10usDelay>
	/* Note: The number of display lines and character font cannot be changed after this point. */
}
 8000f34:	bf00      	nop
 8000f36:	3708      	adds	r7, #8
 8000f38:	46bd      	mov	sp, r7
 8000f3a:	bd80      	pop	{r7, pc}
 8000f3c:	40021000 	.word	0x40021000

08000f40 <lcdClrScr>:
 * 				and returns the display to its original status if it was shifted.
 * 				In other words, the display disappears and the cursor
 * 				or blinking goes to the left edge of the display (in the first line if 2 lines are displayed).
 * 				It also sets I/D to 1 (increment mode) in entry mode (S of entry mode does not change). */
void lcdClrScr(void)
{
 8000f40:	b580      	push	{r7, lr}
 8000f42:	af00      	add	r7, sp, #0
	/* Send a command to LCD. */
	CLR(LCD_RS_OUT, LCD_RS);
 8000f44:	4b06      	ldr	r3, [pc, #24]	; (8000f60 <lcdClrScr+0x20>)
 8000f46:	695b      	ldr	r3, [r3, #20]
 8000f48:	4a05      	ldr	r2, [pc, #20]	; (8000f60 <lcdClrScr+0x20>)
 8000f4a:	f023 0380 	bic.w	r3, r3, #128	; 0x80
 8000f4e:	6153      	str	r3, [r2, #20]
	/* Clear screen */
	lcdWrite(0x01u);
 8000f50:	2001      	movs	r0, #1
 8000f52:	f7ff ffb5 	bl	8000ec0 <lcdWrite>
	/* Busy delay */
#if (USE_BUSY_FLAG)
	lcd_busy_delay();
#else
	lcd10usDelay(CLRSCR_CYCLE_TIME);
 8000f56:	20c8      	movs	r0, #200	; 0xc8
 8000f58:	f7ff fed2 	bl	8000d00 <lcd10usDelay>
#endif /* USE_BUSY_FLAG */
}
 8000f5c:	bf00      	nop
 8000f5e:	bd80      	pop	{r7, pc}
 8000f60:	40021000 	.word	0x40021000

08000f64 <lcdReturn>:
 * 				and returns the display to its original status if it was shifted.
 * 				The DDRAM contents do not change.
 * 				The cursor or blinking go to the left edge of the display
 * 				(in the first line if 2 lines are displayed). */
void lcdReturn(void)
{
 8000f64:	b580      	push	{r7, lr}
 8000f66:	af00      	add	r7, sp, #0
	/* Send a command to LCD. */
	CLR(LCD_RS_OUT, LCD_RS);
 8000f68:	4b06      	ldr	r3, [pc, #24]	; (8000f84 <lcdReturn+0x20>)
 8000f6a:	695b      	ldr	r3, [r3, #20]
 8000f6c:	4a05      	ldr	r2, [pc, #20]	; (8000f84 <lcdReturn+0x20>)
 8000f6e:	f023 0380 	bic.w	r3, r3, #128	; 0x80
 8000f72:	6153      	str	r3, [r2, #20]
	/* Return home */
	lcdWrite(0x02u);
 8000f74:	2002      	movs	r0, #2
 8000f76:	f7ff ffa3 	bl	8000ec0 <lcdWrite>
	/* Busy delay */
#if (USE_BUSY_FLAG)
	lcd_busy_delay();
#else
	lcd10usDelay(RETHOME_CYCLE_TIME);
 8000f7a:	20c8      	movs	r0, #200	; 0xc8
 8000f7c:	f7ff fec0 	bl	8000d00 <lcd10usDelay>
#endif /* USE_BUSY_FLAG */
}
 8000f80:	bf00      	nop
 8000f82:	bd80      	pop	{r7, pc}
 8000f84:	40021000 	.word	0x40021000

08000f88 <cursorShift>:
 * 				without writing or reading display data.
 * 				This function is used to correct or search the display.
 * 				In a 2-line display, the cursor moves to the second line
 * 				when it passes the 40th digit of the first line. */
void cursorShift(uint8_t direction)
{
 8000f88:	b580      	push	{r7, lr}
 8000f8a:	b082      	sub	sp, #8
 8000f8c:	af00      	add	r7, sp, #0
 8000f8e:	4603      	mov	r3, r0
 8000f90:	71fb      	strb	r3, [r7, #7]
	/* Send a command to LCD. */
	CLR(LCD_RS_OUT, LCD_RS);
 8000f92:	4b0c      	ldr	r3, [pc, #48]	; (8000fc4 <cursorShift+0x3c>)
 8000f94:	695b      	ldr	r3, [r3, #20]
 8000f96:	4a0b      	ldr	r2, [pc, #44]	; (8000fc4 <cursorShift+0x3c>)
 8000f98:	f023 0380 	bic.w	r3, r3, #128	; 0x80
 8000f9c:	6153      	str	r3, [r2, #20]
	/* Shift cursor */
	switch (direction)
 8000f9e:	79fb      	ldrb	r3, [r7, #7]
 8000fa0:	2b3c      	cmp	r3, #60	; 0x3c
 8000fa2:	d002      	beq.n	8000faa <cursorShift+0x22>
 8000fa4:	2b3e      	cmp	r3, #62	; 0x3e
 8000fa6:	d004      	beq.n	8000fb2 <cursorShift+0x2a>
			lcdWrite(0x14u);
			break;

		default:
			/* Ignore this command */
			break;
 8000fa8:	e007      	b.n	8000fba <cursorShift+0x32>
			lcdWrite(0x10u);
 8000faa:	2010      	movs	r0, #16
 8000fac:	f7ff ff88 	bl	8000ec0 <lcdWrite>
			break;
 8000fb0:	e003      	b.n	8000fba <cursorShift+0x32>
			lcdWrite(0x14u);
 8000fb2:	2014      	movs	r0, #20
 8000fb4:	f7ff ff84 	bl	8000ec0 <lcdWrite>
			break;
 8000fb8:	bf00      	nop
	}
}
 8000fba:	bf00      	nop
 8000fbc:	3708      	adds	r7, #8
 8000fbe:	46bd      	mov	sp, r7
 8000fc0:	bd80      	pop	{r7, pc}
 8000fc2:	bf00      	nop
 8000fc4:	40021000 	.word	0x40021000

08000fc8 <lcdGoto>:

/*!	\details	Go to the specified (DDRAM/CGRAM) memory address.*/
void lcdGoto(uint8_t line, uint8_t address)
{
 8000fc8:	b580      	push	{r7, lr}
 8000fca:	b082      	sub	sp, #8
 8000fcc:	af00      	add	r7, sp, #0
 8000fce:	4603      	mov	r3, r0
 8000fd0:	460a      	mov	r2, r1
 8000fd2:	71fb      	strb	r3, [r7, #7]
 8000fd4:	4613      	mov	r3, r2
 8000fd6:	71bb      	strb	r3, [r7, #6]
	/* Send a command to LCD. */
	CLR(LCD_RS_OUT, LCD_RS);
 8000fd8:	4b22      	ldr	r3, [pc, #136]	; (8001064 <lcdGoto+0x9c>)
 8000fda:	695b      	ldr	r3, [r3, #20]
 8000fdc:	4a21      	ldr	r2, [pc, #132]	; (8001064 <lcdGoto+0x9c>)
 8000fde:	f023 0380 	bic.w	r3, r3, #128	; 0x80
 8000fe2:	6153      	str	r3, [r2, #20]
	/* Set DDRAM/CGRAM address. */
	switch (line)
 8000fe4:	79fb      	ldrb	r3, [r7, #7]
 8000fe6:	3b01      	subs	r3, #1
 8000fe8:	2b04      	cmp	r3, #4
 8000fea:	d835      	bhi.n	8001058 <lcdGoto+0x90>
 8000fec:	a201      	add	r2, pc, #4	; (adr r2, 8000ff4 <lcdGoto+0x2c>)
 8000fee:	f852 f023 	ldr.w	pc, [r2, r3, lsl #2]
 8000ff2:	bf00      	nop
 8000ff4:	08001009 	.word	0x08001009
 8000ff8:	08001019 	.word	0x08001019
 8000ffc:	08001029 	.word	0x08001029
 8001000:	08001039 	.word	0x08001039
 8001004:	08001049 	.word	0x08001049
	{
		/* Set DDRAM address. */
		case LCD_1st_LINE: lcdWrite(0x80u | START_ADDRESS_1st_LINE | address); break;
 8001008:	79bb      	ldrb	r3, [r7, #6]
 800100a:	f063 037f 	orn	r3, r3, #127	; 0x7f
 800100e:	b2db      	uxtb	r3, r3
 8001010:	4618      	mov	r0, r3
 8001012:	f7ff ff55 	bl	8000ec0 <lcdWrite>
 8001016:	e020      	b.n	800105a <lcdGoto+0x92>
		case LCD_2nd_LINE: lcdWrite(0x80u | START_ADDRESS_2nd_LINE | address); break;
 8001018:	79bb      	ldrb	r3, [r7, #6]
 800101a:	f063 033f 	orn	r3, r3, #63	; 0x3f
 800101e:	b2db      	uxtb	r3, r3
 8001020:	4618      	mov	r0, r3
 8001022:	f7ff ff4d 	bl	8000ec0 <lcdWrite>
 8001026:	e018      	b.n	800105a <lcdGoto+0x92>
		case LCD_3rd_LINE: lcdWrite(0x80u | START_ADDRESS_3rd_LINE | address); break;
 8001028:	79bb      	ldrb	r3, [r7, #6]
 800102a:	f063 036f 	orn	r3, r3, #111	; 0x6f
 800102e:	b2db      	uxtb	r3, r3
 8001030:	4618      	mov	r0, r3
 8001032:	f7ff ff45 	bl	8000ec0 <lcdWrite>
 8001036:	e010      	b.n	800105a <lcdGoto+0x92>
		case LCD_4th_LINE: lcdWrite(0x80u | START_ADDRESS_4th_LINE | address); break;
 8001038:	79bb      	ldrb	r3, [r7, #6]
 800103a:	f063 032f 	orn	r3, r3, #47	; 0x2f
 800103e:	b2db      	uxtb	r3, r3
 8001040:	4618      	mov	r0, r3
 8001042:	f7ff ff3d 	bl	8000ec0 <lcdWrite>
 8001046:	e008      	b.n	800105a <lcdGoto+0x92>
		/* Set CGRAM address. */
		case CGRAM : lcdWrite(0x40u | address); break;
 8001048:	79bb      	ldrb	r3, [r7, #6]
 800104a:	f043 0340 	orr.w	r3, r3, #64	; 0x40
 800104e:	b2db      	uxtb	r3, r3
 8001050:	4618      	mov	r0, r3
 8001052:	f7ff ff35 	bl	8000ec0 <lcdWrite>
 8001056:	e000      	b.n	800105a <lcdGoto+0x92>

		default:
			/* Ignore this command */
			break;
 8001058:	bf00      	nop
	}
}
 800105a:	bf00      	nop
 800105c:	3708      	adds	r7, #8
 800105e:	46bd      	mov	sp, r7
 8001060:	bd80      	pop	{r7, pc}
 8001062:	bf00      	nop
 8001064:	40021000 	.word	0x40021000

08001068 <lcdSetMode>:

/*!	\details	Change LCD settings. */
void lcdSetMode(uint8_t param)
{
 8001068:	b580      	push	{r7, lr}
 800106a:	b082      	sub	sp, #8
 800106c:	af00      	add	r7, sp, #0
 800106e:	4603      	mov	r3, r0
 8001070:	71fb      	strb	r3, [r7, #7]
	/* Send a command to LCD. */
	CLR(LCD_RS_OUT, LCD_RS);
 8001072:	4b07      	ldr	r3, [pc, #28]	; (8001090 <lcdSetMode+0x28>)
 8001074:	695b      	ldr	r3, [r3, #20]
 8001076:	4a06      	ldr	r2, [pc, #24]	; (8001090 <lcdSetMode+0x28>)
 8001078:	f023 0380 	bic.w	r3, r3, #128	; 0x80
 800107c:	6153      	str	r3, [r2, #20]
	lcdWrite(param);
 800107e:	79fb      	ldrb	r3, [r7, #7]
 8001080:	4618      	mov	r0, r3
 8001082:	f7ff ff1d 	bl	8000ec0 <lcdWrite>
}
 8001086:	bf00      	nop
 8001088:	3708      	adds	r7, #8
 800108a:	46bd      	mov	sp, r7
 800108c:	bd80      	pop	{r7, pc}
 800108e:	bf00      	nop
 8001090:	40021000 	.word	0x40021000

08001094 <lcdPutc>:

/*!	\details	Write a single char to the current memory space (DDRAM/CGRAM). */
void lcdPutc(uint8_t data)
{
 8001094:	b580      	push	{r7, lr}
 8001096:	b082      	sub	sp, #8
 8001098:	af00      	add	r7, sp, #0
 800109a:	4603      	mov	r3, r0
 800109c:	71fb      	strb	r3, [r7, #7]
	/* Send data to LCD. */
	SET(LCD_RS_OUT, LCD_RS);
 800109e:	4b08      	ldr	r3, [pc, #32]	; (80010c0 <lcdPutc+0x2c>)
 80010a0:	695b      	ldr	r3, [r3, #20]
 80010a2:	4a07      	ldr	r2, [pc, #28]	; (80010c0 <lcdPutc+0x2c>)
 80010a4:	f043 0380 	orr.w	r3, r3, #128	; 0x80
 80010a8:	6153      	str	r3, [r2, #20]
	lcdWrite(data);
 80010aa:	79fb      	ldrb	r3, [r7, #7]
 80010ac:	4618      	mov	r0, r3
 80010ae:	f7ff ff07 	bl	8000ec0 <lcdWrite>
	/* Note:
	 * After execution of the CGRAM/DDRAM data write/read instruction, the RAM address counter is incremented
	 * or decremented by 1. The RAM address counter is updated after the busy flag turns off.
	 * tADD is the time elapsed after the busy flag turns off until the address counter is updated. */
	lcd10usDelay(AC_UPDATE_TIME);	/* Update RAM address counter delay. */
 80010b2:	2001      	movs	r0, #1
 80010b4:	f7ff fe24 	bl	8000d00 <lcd10usDelay>
}
 80010b8:	bf00      	nop
 80010ba:	3708      	adds	r7, #8
 80010bc:	46bd      	mov	sp, r7
 80010be:	bd80      	pop	{r7, pc}
 80010c0:	40021000 	.word	0x40021000

080010c4 <lcdPuts>:

/*!	\details	Writes ANSI-C string to LCD (DDRAM memory space). */
//void lcdPuts(const uint8_t *str)
void lcdPuts(const char *str)
{
 80010c4:	b580      	push	{r7, lr}
 80010c6:	b084      	sub	sp, #16
 80010c8:	af00      	add	r7, sp, #0
 80010ca:	6078      	str	r0, [r7, #4]
	/* Send a ANSI-C string to LCD. */
	while ('\0' != *str)
 80010cc:	e028      	b.n	8001120 <lcdPuts+0x5c>
	{
#if ( USE_FORMATTED_OUTPUT )
		if(('\n' == *str))
 80010ce:	687b      	ldr	r3, [r7, #4]
 80010d0:	781b      	ldrb	r3, [r3, #0]
 80010d2:	2b0a      	cmp	r3, #10
 80010d4:	d104      	bne.n	80010e0 <lcdPuts+0x1c>
		{/*New line */
			lcdGoto(LCD_2nd_LINE, 0u);
 80010d6:	2100      	movs	r1, #0
 80010d8:	2002      	movs	r0, #2
 80010da:	f7ff ff75 	bl	8000fc8 <lcdGoto>
 80010de:	e01c      	b.n	800111a <lcdPuts+0x56>
		}
		else if(('\r' == *str))
 80010e0:	687b      	ldr	r3, [r7, #4]
 80010e2:	781b      	ldrb	r3, [r3, #0]
 80010e4:	2b0d      	cmp	r3, #13
 80010e6:	d102      	bne.n	80010ee <lcdPuts+0x2a>
		{/* Return home */
			lcdReturn();
 80010e8:	f7ff ff3c 	bl	8000f64 <lcdReturn>
 80010ec:	e015      	b.n	800111a <lcdPuts+0x56>
		}
		else if(('\t' == *str))
 80010ee:	687b      	ldr	r3, [r7, #4]
 80010f0:	781b      	ldrb	r3, [r3, #0]
 80010f2:	2b09      	cmp	r3, #9
 80010f4:	d10c      	bne.n	8001110 <lcdPuts+0x4c>
		{/* Tab space */
			uint8_t i;

			for(i=0u; i<TAB_SPACE; i++)
 80010f6:	2300      	movs	r3, #0
 80010f8:	73fb      	strb	r3, [r7, #15]
 80010fa:	e005      	b.n	8001108 <lcdPuts+0x44>
			{/* Shift cursor to the right. */
				cursorShift(RIGHT);
 80010fc:	203e      	movs	r0, #62	; 0x3e
 80010fe:	f7ff ff43 	bl	8000f88 <cursorShift>
			for(i=0u; i<TAB_SPACE; i++)
 8001102:	7bfb      	ldrb	r3, [r7, #15]
 8001104:	3301      	adds	r3, #1
 8001106:	73fb      	strb	r3, [r7, #15]
 8001108:	7bfb      	ldrb	r3, [r7, #15]
 800110a:	2b03      	cmp	r3, #3
 800110c:	d9f6      	bls.n	80010fc <lcdPuts+0x38>
 800110e:	e004      	b.n	800111a <lcdPuts+0x56>
		}
		else
#endif
		{
			/* Display a symbol. */
			lcdPutc(*str);
 8001110:	687b      	ldr	r3, [r7, #4]
 8001112:	781b      	ldrb	r3, [r3, #0]
 8001114:	4618      	mov	r0, r3
 8001116:	f7ff ffbd 	bl	8001094 <lcdPutc>
		}
		/* Get the next symbol. */
		str++;
 800111a:	687b      	ldr	r3, [r7, #4]
 800111c:	3301      	adds	r3, #1
 800111e:	607b      	str	r3, [r7, #4]
	while ('\0' != *str)
 8001120:	687b      	ldr	r3, [r7, #4]
 8001122:	781b      	ldrb	r3, [r3, #0]
 8001124:	2b00      	cmp	r3, #0
 8001126:	d1d2      	bne.n	80010ce <lcdPuts+0xa>
	}
}
 8001128:	bf00      	nop
 800112a:	bf00      	nop
 800112c:	3710      	adds	r7, #16
 800112e:	46bd      	mov	sp, r7
 8001130:	bd80      	pop	{r7, pc}

08001132 <lcdLoadChar>:

/*!	\details	Load the user-defined symbol into the CGRAM memory. */
void lcdLoadChar(uint8_t* vector, uint8_t position)
{
 8001132:	b580      	push	{r7, lr}
 8001134:	b084      	sub	sp, #16
 8001136:	af00      	add	r7, sp, #0
 8001138:	6078      	str	r0, [r7, #4]
 800113a:	460b      	mov	r3, r1
 800113c:	70fb      	strb	r3, [r7, #3]
	uint8_t i;
	/* Go to the CGRAM memory space: 0 to 7 */
	lcdGoto(CGRAM, (position * FONT_HEIGHT));
 800113e:	78fb      	ldrb	r3, [r7, #3]
 8001140:	00db      	lsls	r3, r3, #3
 8001142:	b2db      	uxtb	r3, r3
 8001144:	4619      	mov	r1, r3
 8001146:	2005      	movs	r0, #5
 8001148:	f7ff ff3e 	bl	8000fc8 <lcdGoto>

	for(i = 0u; i < FONT_HEIGHT; i++)
 800114c:	2300      	movs	r3, #0
 800114e:	73fb      	strb	r3, [r7, #15]
 8001150:	e009      	b.n	8001166 <lcdLoadChar+0x34>
	{/* Load one row of pixels into the CGRAM register. */
		lcdPutc(vector[i]);
 8001152:	7bfb      	ldrb	r3, [r7, #15]
 8001154:	687a      	ldr	r2, [r7, #4]
 8001156:	4413      	add	r3, r2
 8001158:	781b      	ldrb	r3, [r3, #0]
 800115a:	4618      	mov	r0, r3
 800115c:	f7ff ff9a 	bl	8001094 <lcdPutc>
	for(i = 0u; i < FONT_HEIGHT; i++)
 8001160:	7bfb      	ldrb	r3, [r7, #15]
 8001162:	3301      	adds	r3, #1
 8001164:	73fb      	strb	r3, [r7, #15]
 8001166:	7bfb      	ldrb	r3, [r7, #15]
 8001168:	2b07      	cmp	r3, #7
 800116a:	d9f2      	bls.n	8001152 <lcdLoadChar+0x20>
	}

	/* Return to the DDRAM memory space. */
	lcdGoto(LCD_1st_LINE, 0u);
 800116c:	2100      	movs	r1, #0
 800116e:	2001      	movs	r0, #1
 8001170:	f7ff ff2a 	bl	8000fc8 <lcdGoto>
}
 8001174:	bf00      	nop
 8001176:	3710      	adds	r7, #16
 8001178:	46bd      	mov	sp, r7
 800117a:	bd80      	pop	{r7, pc}

0800117c <lcdPow10>:
	cursorShift(LEFT);		// Ðóõàºìî êóðñîð íà îäíó ïîçèö³þ âë³âî
}

/*!	\brief	Returns 10^n value. */
static uint32_t lcdPow10(uint8_t n)
{
 800117c:	b480      	push	{r7}
 800117e:	b085      	sub	sp, #20
 8001180:	af00      	add	r7, sp, #0
 8001182:	4603      	mov	r3, r0
 8001184:	71fb      	strb	r3, [r7, #7]
	uint32_t retval = 1u;
 8001186:	2301      	movs	r3, #1
 8001188:	60fb      	str	r3, [r7, #12]

	while (n > 0u)
 800118a:	e008      	b.n	800119e <lcdPow10+0x22>
	{
		retval *= 10u;
 800118c:	68fa      	ldr	r2, [r7, #12]
 800118e:	4613      	mov	r3, r2
 8001190:	009b      	lsls	r3, r3, #2
 8001192:	4413      	add	r3, r2
 8001194:	005b      	lsls	r3, r3, #1
 8001196:	60fb      	str	r3, [r7, #12]
		n--;
 8001198:	79fb      	ldrb	r3, [r7, #7]
 800119a:	3b01      	subs	r3, #1
 800119c:	71fb      	strb	r3, [r7, #7]
	while (n > 0u)
 800119e:	79fb      	ldrb	r3, [r7, #7]
 80011a0:	2b00      	cmp	r3, #0
 80011a2:	d1f3      	bne.n	800118c <lcdPow10+0x10>
	}

	return retval;
 80011a4:	68fb      	ldr	r3, [r7, #12]
}
 80011a6:	4618      	mov	r0, r3
 80011a8:	3714      	adds	r7, #20
 80011aa:	46bd      	mov	sp, r7
 80011ac:	f85d 7b04 	ldr.w	r7, [sp], #4
 80011b0:	4770      	bx	lr
	...

080011b4 <lcdItos>:

/*!	\brief	Display a integer number: +/- 2147483647. */
void lcdItos(int32_t value)
{
 80011b4:	b580      	push	{r7, lr}
 80011b6:	b084      	sub	sp, #16
 80011b8:	af00      	add	r7, sp, #0
 80011ba:	6078      	str	r0, [r7, #4]
	int32_t i;

	if (value < 0)
 80011bc:	687b      	ldr	r3, [r7, #4]
 80011be:	2b00      	cmp	r3, #0
 80011c0:	da05      	bge.n	80011ce <lcdItos+0x1a>
	{
		lcdPutc('-');
 80011c2:	202d      	movs	r0, #45	; 0x2d
 80011c4:	f7ff ff66 	bl	8001094 <lcdPutc>
		value = -value;
 80011c8:	687b      	ldr	r3, [r7, #4]
 80011ca:	425b      	negs	r3, r3
 80011cc:	607b      	str	r3, [r7, #4]
	}

	i = 1;
 80011ce:	2301      	movs	r3, #1
 80011d0:	60fb      	str	r3, [r7, #12]
	while ((value / i) > 9)
 80011d2:	e005      	b.n	80011e0 <lcdItos+0x2c>
	{
		i *= 10;
 80011d4:	68fa      	ldr	r2, [r7, #12]
 80011d6:	4613      	mov	r3, r2
 80011d8:	009b      	lsls	r3, r3, #2
 80011da:	4413      	add	r3, r2
 80011dc:	005b      	lsls	r3, r3, #1
 80011de:	60fb      	str	r3, [r7, #12]
	while ((value / i) > 9)
 80011e0:	687a      	ldr	r2, [r7, #4]
 80011e2:	68fb      	ldr	r3, [r7, #12]
 80011e4:	fb92 f3f3 	sdiv	r3, r2, r3
 80011e8:	2b09      	cmp	r3, #9
 80011ea:	dcf3      	bgt.n	80011d4 <lcdItos+0x20>
	}

	lcdPutc(value/i + '0');	/* Display at least one symbol */
 80011ec:	687a      	ldr	r2, [r7, #4]
 80011ee:	68fb      	ldr	r3, [r7, #12]
 80011f0:	fb92 f3f3 	sdiv	r3, r2, r3
 80011f4:	b2db      	uxtb	r3, r3
 80011f6:	3330      	adds	r3, #48	; 0x30
 80011f8:	b2db      	uxtb	r3, r3
 80011fa:	4618      	mov	r0, r3
 80011fc:	f7ff ff4a 	bl	8001094 <lcdPutc>
	i /= 10;
 8001200:	68fb      	ldr	r3, [r7, #12]
 8001202:	4a16      	ldr	r2, [pc, #88]	; (800125c <lcdItos+0xa8>)
 8001204:	fb82 1203 	smull	r1, r2, r2, r3
 8001208:	1092      	asrs	r2, r2, #2
 800120a:	17db      	asrs	r3, r3, #31
 800120c:	1ad3      	subs	r3, r2, r3
 800120e:	60fb      	str	r3, [r7, #12]

	while (i > 0)
 8001210:	e01c      	b.n	800124c <lcdItos+0x98>
	{
		lcdPutc('0' + ((value % (i*10)) / i));
 8001212:	68fa      	ldr	r2, [r7, #12]
 8001214:	4613      	mov	r3, r2
 8001216:	009b      	lsls	r3, r3, #2
 8001218:	4413      	add	r3, r2
 800121a:	005b      	lsls	r3, r3, #1
 800121c:	461a      	mov	r2, r3
 800121e:	687b      	ldr	r3, [r7, #4]
 8001220:	fb93 f1f2 	sdiv	r1, r3, r2
 8001224:	fb01 f202 	mul.w	r2, r1, r2
 8001228:	1a9a      	subs	r2, r3, r2
 800122a:	68fb      	ldr	r3, [r7, #12]
 800122c:	fb92 f3f3 	sdiv	r3, r2, r3
 8001230:	b2db      	uxtb	r3, r3
 8001232:	3330      	adds	r3, #48	; 0x30
 8001234:	b2db      	uxtb	r3, r3
 8001236:	4618      	mov	r0, r3
 8001238:	f7ff ff2c 	bl	8001094 <lcdPutc>
		i /= 10;
 800123c:	68fb      	ldr	r3, [r7, #12]
 800123e:	4a07      	ldr	r2, [pc, #28]	; (800125c <lcdItos+0xa8>)
 8001240:	fb82 1203 	smull	r1, r2, r2, r3
 8001244:	1092      	asrs	r2, r2, #2
 8001246:	17db      	asrs	r3, r3, #31
 8001248:	1ad3      	subs	r3, r2, r3
 800124a:	60fb      	str	r3, [r7, #12]
	while (i > 0)
 800124c:	68fb      	ldr	r3, [r7, #12]
 800124e:	2b00      	cmp	r3, #0
 8001250:	dcdf      	bgt.n	8001212 <lcdItos+0x5e>
	}
}
 8001252:	bf00      	nop
 8001254:	bf00      	nop
 8001256:	3710      	adds	r7, #16
 8001258:	46bd      	mov	sp, r7
 800125a:	bd80      	pop	{r7, pc}
 800125c:	66666667 	.word	0x66666667

08001260 <lcdFtos>:

/*!	\brief	Display a floating point number. */
void lcdFtos(float value, uint8_t n)
{
 8001260:	b580      	push	{r7, lr}
 8001262:	b082      	sub	sp, #8
 8001264:	af00      	add	r7, sp, #0
 8001266:	ed87 0a01 	vstr	s0, [r7, #4]
 800126a:	4603      	mov	r3, r0
 800126c:	70fb      	strb	r3, [r7, #3]
	if (value < 0.0)
 800126e:	edd7 7a01 	vldr	s15, [r7, #4]
 8001272:	eef5 7ac0 	vcmpe.f32	s15, #0.0
 8001276:	eef1 fa10 	vmrs	APSR_nzcv, fpscr
 800127a:	d508      	bpl.n	800128e <lcdFtos+0x2e>
	{
		lcdPutc('-');
 800127c:	202d      	movs	r0, #45	; 0x2d
 800127e:	f7ff ff09 	bl	8001094 <lcdPutc>
		value = -value;
 8001282:	edd7 7a01 	vldr	s15, [r7, #4]
 8001286:	eef1 7a67 	vneg.f32	s15, s15
 800128a:	edc7 7a01 	vstr	s15, [r7, #4]
	}

	lcdItos((int32_t)value); // Âèâ³ä ö³ëî¿ ÷àñòèíè
 800128e:	edd7 7a01 	vldr	s15, [r7, #4]
 8001292:	eefd 7ae7 	vcvt.s32.f32	s15, s15
 8001296:	ee17 0a90 	vmov	r0, s15
 800129a:	f7ff ff8b 	bl	80011b4 <lcdItos>

	if (n > 0u)
 800129e:	78fb      	ldrb	r3, [r7, #3]
 80012a0:	2b00      	cmp	r3, #0
 80012a2:	d016      	beq.n	80012d2 <lcdFtos+0x72>
	{
		lcdPutc('.'); // Êðàïêà
 80012a4:	202e      	movs	r0, #46	; 0x2e
 80012a6:	f7ff fef5 	bl	8001094 <lcdPutc>

		lcdNtos((uint32_t)(value * (float)lcdPow10(n)), n); // Âèâ³ä äðîáîâî¿ ÷àñòèíè
 80012aa:	78fb      	ldrb	r3, [r7, #3]
 80012ac:	4618      	mov	r0, r3
 80012ae:	f7ff ff65 	bl	800117c <lcdPow10>
 80012b2:	ee07 0a90 	vmov	s15, r0
 80012b6:	eeb8 7a67 	vcvt.f32.u32	s14, s15
 80012ba:	edd7 7a01 	vldr	s15, [r7, #4]
 80012be:	ee67 7a27 	vmul.f32	s15, s14, s15
 80012c2:	eefc 7ae7 	vcvt.u32.f32	s15, s15
 80012c6:	78fb      	ldrb	r3, [r7, #3]
 80012c8:	4619      	mov	r1, r3
 80012ca:	ee17 0a90 	vmov	r0, s15
 80012ce:	f000 f805 	bl	80012dc <lcdNtos>
	}
}
 80012d2:	bf00      	nop
 80012d4:	3708      	adds	r7, #8
 80012d6:	46bd      	mov	sp, r7
 80012d8:	bd80      	pop	{r7, pc}
	...

080012dc <lcdNtos>:

/*!	\brief	Display "n" right digits of "value". */
void lcdNtos(uint32_t value, uint8_t n)
{
 80012dc:	b580      	push	{r7, lr}
 80012de:	b084      	sub	sp, #16
 80012e0:	af00      	add	r7, sp, #0
 80012e2:	6078      	str	r0, [r7, #4]
 80012e4:	460b      	mov	r3, r1
 80012e6:	70fb      	strb	r3, [r7, #3]
	if (n > 0u)
 80012e8:	78fb      	ldrb	r3, [r7, #3]
 80012ea:	2b00      	cmp	r3, #0
 80012ec:	d023      	beq.n	8001336 <lcdNtos+0x5a>
	{
		uint32_t i = lcdPow10(n - 1u);
 80012ee:	78fb      	ldrb	r3, [r7, #3]
 80012f0:	3b01      	subs	r3, #1
 80012f2:	b2db      	uxtb	r3, r3
 80012f4:	4618      	mov	r0, r3
 80012f6:	f7ff ff41 	bl	800117c <lcdPow10>
 80012fa:	60f8      	str	r0, [r7, #12]

		while (i > 0u)	/* Display at least one symbol */
 80012fc:	e018      	b.n	8001330 <lcdNtos+0x54>
		{
			lcdPutc('0' + ((value/i) % 10u));
 80012fe:	687a      	ldr	r2, [r7, #4]
 8001300:	68fb      	ldr	r3, [r7, #12]
 8001302:	fbb2 f1f3 	udiv	r1, r2, r3
 8001306:	4b0e      	ldr	r3, [pc, #56]	; (8001340 <lcdNtos+0x64>)
 8001308:	fba3 2301 	umull	r2, r3, r3, r1
 800130c:	08da      	lsrs	r2, r3, #3
 800130e:	4613      	mov	r3, r2
 8001310:	009b      	lsls	r3, r3, #2
 8001312:	4413      	add	r3, r2
 8001314:	005b      	lsls	r3, r3, #1
 8001316:	1aca      	subs	r2, r1, r3
 8001318:	b2d3      	uxtb	r3, r2
 800131a:	3330      	adds	r3, #48	; 0x30
 800131c:	b2db      	uxtb	r3, r3
 800131e:	4618      	mov	r0, r3
 8001320:	f7ff feb8 	bl	8001094 <lcdPutc>

			i /= 10u;
 8001324:	68fb      	ldr	r3, [r7, #12]
 8001326:	4a06      	ldr	r2, [pc, #24]	; (8001340 <lcdNtos+0x64>)
 8001328:	fba2 2303 	umull	r2, r3, r2, r3
 800132c:	08db      	lsrs	r3, r3, #3
 800132e:	60fb      	str	r3, [r7, #12]
		while (i > 0u)	/* Display at least one symbol */
 8001330:	68fb      	ldr	r3, [r7, #12]
 8001332:	2b00      	cmp	r3, #0
 8001334:	d1e3      	bne.n	80012fe <lcdNtos+0x22>
		}
	}
}
 8001336:	bf00      	nop
 8001338:	3710      	adds	r7, #16
 800133a:	46bd      	mov	sp, r7
 800133c:	bd80      	pop	{r7, pc}
 800133e:	bf00      	nop
 8001340:	cccccccd 	.word	0xcccccccd

08001344 <lcdInit>:
#endif

/*!	\brief	Initialize the LCD.
 * 	\note	This library use the 4-bit interface. */
void lcdInit(void)
{
 8001344:	b580      	push	{r7, lr}
 8001346:	af00      	add	r7, sp, #0
	/* GPIO initialization. */
	setAllPinsAsOutputs();
 8001348:	f000 f81d 	bl	8001386 <lcdGpioInit>
	/* LCD initialization. */
	lcdWrite(0x30);
 800134c:	2030      	movs	r0, #48	; 0x30
 800134e:	f7ff fdb7 	bl	8000ec0 <lcdWrite>
	lcd10usDelay(INIT_CYCLE_TIME);
 8001352:	f44f 70c8 	mov.w	r0, #400	; 0x190
 8001356:	f7ff fcd3 	bl	8000d00 <lcd10usDelay>
	lcdWrite(0x30);
 800135a:	2030      	movs	r0, #48	; 0x30
 800135c:	f7ff fdb0 	bl	8000ec0 <lcdWrite>
	lcd10usDelay(INIT_CYCLE_TIME);
 8001360:	f44f 70c8 	mov.w	r0, #400	; 0x190
 8001364:	f7ff fccc 	bl	8000d00 <lcd10usDelay>
	lcdConfig(DEFAULT_DISPLAY_CONFIG);
 8001368:	2028      	movs	r0, #40	; 0x28
 800136a:	f7ff fdc1 	bl	8000ef0 <lcdConfig>
	lcdSetMode(DEFAULT_VIEW_MODE);
 800136e:	200c      	movs	r0, #12
 8001370:	f7ff fe7a 	bl	8001068 <lcdSetMode>
	lcdSetMode(DEFAULT_ENTRY_MODE);
 8001374:	2006      	movs	r0, #6
 8001376:	f7ff fe77 	bl	8001068 <lcdSetMode>
	lcdClrScr();
 800137a:	f7ff fde1 	bl	8000f40 <lcdClrScr>
	lcdReturn();
 800137e:	f7ff fdf1 	bl	8000f64 <lcdReturn>
	#if (USE_PROGRESS_BAR)
		lcdInitBar();
	#endif
}
 8001382:	bf00      	nop
 8001384:	bd80      	pop	{r7, pc}

08001386 <lcdGpioInit>:

void lcdGpioInit(void)
{
 8001386:	b480      	push	{r7}
 8001388:	af00      	add	r7, sp, #0
  	 GPIO_InitStruct.Speed = GPIO_SPEED_FREQ_LOW;
  	 HAL_GPIO_Init(GPIOC, &GPIO_InitStruct);

  	 HAL_GPIO_WritePin(GPIOC, GPIO_PIN_0|GPIO_PIN_1|GPIO_PIN_4|GPIO_PIN_5|GPIO_PIN_6|GPIO_PIN_7, GPIO_PIN_RESET);
	 */
}
 800138a:	bf00      	nop
 800138c:	46bd      	mov	sp, r7
 800138e:	f85d 7b04 	ldr.w	r7, [sp], #4
 8001392:	4770      	bx	lr

08001394 <main>:
/**
  * @brief  The application entry point.
  * @retval int
  */
int main(void)
{
 8001394:	b580      	push	{r7, lr}
 8001396:	b082      	sub	sp, #8
 8001398:	af00      	add	r7, sp, #0
  /* USER CODE END 1 */

  /* MCU Configuration--------------------------------------------------------*/

  /* Reset of all peripherals, Initializes the Flash interface and the Systick. */
  HAL_Init();
 800139a:	f000 fd5b 	bl	8001e54 <HAL_Init>
  /* USER CODE BEGIN Init */

  /* USER CODE END Init */

  /* Configure the system clock */
  SystemClock_Config();
 800139e:	f000 f863 	bl	8001468 <SystemClock_Config>
  /* USER CODE BEGIN SysInit */

  /* USER CODE END SysInit */

  /* Initialize all configured peripherals */
  MX_GPIO_Init();
 80013a2:	f000 f9cb 	bl	800173c <MX_GPIO_Init>
  MX_I2C1_Init();
 80013a6:	f000 f90f 	bl	80015c8 <MX_I2C1_Init>
  MX_ADC1_Init();
 80013aa:	f000 f8bb 	bl	8001524 <MX_ADC1_Init>
  MX_TIM4_Init();
 80013ae:	f000 f939 	bl	8001624 <MX_TIM4_Init>
  /* USER CODE BEGIN 2 */
  // temperature-humidity sensor
  SHT2x_Init(&hi2c1);
 80013b2:	4825      	ldr	r0, [pc, #148]	; (8001448 <main+0xb4>)
 80013b4:	f000 fa92 	bl	80018dc <SHT2x_Init>
  SHT2x_SetResolution(RES_14_12);
 80013b8:	2000      	movs	r0, #0
 80013ba:	f000 fb8b 	bl	8001ad4 <SHT2x_SetResolution>
  SHT2x_SoftReset();
 80013be:	f000 fa9d 	bl	80018fc <SHT2x_SoftReset>
  // LCD display
  lcdInit();
 80013c2:	f7ff ffbf 	bl	8001344 <lcdInit>
  // load degree symbol
  lcdLoadChar(deg_sym,6);
 80013c6:	2106      	movs	r1, #6
 80013c8:	4820      	ldr	r0, [pc, #128]	; (800144c <main+0xb8>)
 80013ca:	f7ff feb2 	bl	8001132 <lcdLoadChar>
  //PWM timer
  HAL_TIM_PWM_Start(&htim4, TIM_CHANNEL_1);
 80013ce:	2100      	movs	r1, #0
 80013d0:	481f      	ldr	r0, [pc, #124]	; (8001450 <main+0xbc>)
 80013d2:	f003 f9ff 	bl	80047d4 <HAL_TIM_PWM_Start>
  HAL_TIM_PWM_Start(&htim4, TIM_CHANNEL_2);
 80013d6:	2104      	movs	r1, #4
 80013d8:	481d      	ldr	r0, [pc, #116]	; (8001450 <main+0xbc>)
 80013da:	f003 f9fb 	bl	80047d4 <HAL_TIM_PWM_Start>
  HAL_TIM_PWM_Start(&htim4, TIM_CHANNEL_3);
 80013de:	2108      	movs	r1, #8
 80013e0:	481b      	ldr	r0, [pc, #108]	; (8001450 <main+0xbc>)
 80013e2:	f003 f9f7 	bl	80047d4 <HAL_TIM_PWM_Start>
  HAL_TIM_PWM_Start(&htim4, TIM_CHANNEL_4);
 80013e6:	210c      	movs	r1, #12
 80013e8:	4819      	ldr	r0, [pc, #100]	; (8001450 <main+0xbc>)
 80013ea:	f003 f9f3 	bl	80047d4 <HAL_TIM_PWM_Start>
  /* USER CODE END 2 */

  /* Infinite loop */
  /* USER CODE BEGIN WHILE */

  HAL_ADC_Start_IT(&hadc1);
 80013ee:	4819      	ldr	r0, [pc, #100]	; (8001454 <main+0xc0>)
 80013f0:	f000 fe0a 	bl	8002008 <HAL_ADC_Start_IT>

  while (1)
  {
	  float cel = SHT2x_GetTemperature(1);
 80013f4:	2001      	movs	r0, #1
 80013f6:	f000 fae7 	bl	80019c8 <SHT2x_GetTemperature>
 80013fa:	ed87 0a01 	vstr	s0, [r7, #4]
	  float rh = SHT2x_GetRelativeHumidity(1);
 80013fe:	2001      	movs	r0, #1
 8001400:	f000 fb28 	bl	8001a54 <SHT2x_GetRelativeHumidity>
 8001404:	ed87 0a00 	vstr	s0, [r7]

	  lcdClrScr();
 8001408:	f7ff fd9a 	bl	8000f40 <lcdClrScr>
	  lcdPuts("Temp: ");
 800140c:	4812      	ldr	r0, [pc, #72]	; (8001458 <main+0xc4>)
 800140e:	f7ff fe59 	bl	80010c4 <lcdPuts>
	  lcdFtos(cel, 3);
 8001412:	2003      	movs	r0, #3
 8001414:	ed97 0a01 	vldr	s0, [r7, #4]
 8001418:	f7ff ff22 	bl	8001260 <lcdFtos>
	  lcdPutc(6);
 800141c:	2006      	movs	r0, #6
 800141e:	f7ff fe39 	bl	8001094 <lcdPutc>
	  lcdPuts("C\n");
 8001422:	480e      	ldr	r0, [pc, #56]	; (800145c <main+0xc8>)
 8001424:	f7ff fe4e 	bl	80010c4 <lcdPuts>
	  lcdPuts("Hum : ");
 8001428:	480d      	ldr	r0, [pc, #52]	; (8001460 <main+0xcc>)
 800142a:	f7ff fe4b 	bl	80010c4 <lcdPuts>
	  lcdFtos(rh, 3);
 800142e:	2003      	movs	r0, #3
 8001430:	ed97 0a00 	vldr	s0, [r7]
 8001434:	f7ff ff14 	bl	8001260 <lcdFtos>
	  lcdPuts(" %");
 8001438:	480a      	ldr	r0, [pc, #40]	; (8001464 <main+0xd0>)
 800143a:	f7ff fe43 	bl	80010c4 <lcdPuts>
	  HAL_Delay(500);
 800143e:	f44f 70fa 	mov.w	r0, #500	; 0x1f4
 8001442:	f000 fd79 	bl	8001f38 <HAL_Delay>
  {
 8001446:	e7d5      	b.n	80013f4 <main+0x60>
 8001448:	20000078 	.word	0x20000078
 800144c:	20000000 	.word	0x20000000
 8001450:	200000cc 	.word	0x200000cc
 8001454:	20000030 	.word	0x20000030
 8001458:	08005684 	.word	0x08005684
 800145c:	0800568c 	.word	0x0800568c
 8001460:	08005690 	.word	0x08005690
 8001464:	08005698 	.word	0x08005698

08001468 <SystemClock_Config>:
/**
  * @brief System Clock Configuration
  * @retval None
  */
void SystemClock_Config(void)
{
 8001468:	b580      	push	{r7, lr}
 800146a:	b094      	sub	sp, #80	; 0x50
 800146c:	af00      	add	r7, sp, #0
  RCC_OscInitTypeDef RCC_OscInitStruct = {0};
 800146e:	f107 0320 	add.w	r3, r7, #32
 8001472:	2230      	movs	r2, #48	; 0x30
 8001474:	2100      	movs	r1, #0
 8001476:	4618      	mov	r0, r3
 8001478:	f004 f8cc 	bl	8005614 <memset>
  RCC_ClkInitTypeDef RCC_ClkInitStruct = {0};
 800147c:	f107 030c 	add.w	r3, r7, #12
 8001480:	2200      	movs	r2, #0
 8001482:	601a      	str	r2, [r3, #0]
 8001484:	605a      	str	r2, [r3, #4]
 8001486:	609a      	str	r2, [r3, #8]
 8001488:	60da      	str	r2, [r3, #12]
 800148a:	611a      	str	r2, [r3, #16]

  /** Configure the main internal regulator output voltage
  */
  __HAL_RCC_PWR_CLK_ENABLE();
 800148c:	2300      	movs	r3, #0
 800148e:	60bb      	str	r3, [r7, #8]
 8001490:	4b22      	ldr	r3, [pc, #136]	; (800151c <SystemClock_Config+0xb4>)
 8001492:	6c1b      	ldr	r3, [r3, #64]	; 0x40
 8001494:	4a21      	ldr	r2, [pc, #132]	; (800151c <SystemClock_Config+0xb4>)
 8001496:	f043 5380 	orr.w	r3, r3, #268435456	; 0x10000000
 800149a:	6413      	str	r3, [r2, #64]	; 0x40
 800149c:	4b1f      	ldr	r3, [pc, #124]	; (800151c <SystemClock_Config+0xb4>)
 800149e:	6c1b      	ldr	r3, [r3, #64]	; 0x40
 80014a0:	f003 5380 	and.w	r3, r3, #268435456	; 0x10000000
 80014a4:	60bb      	str	r3, [r7, #8]
 80014a6:	68bb      	ldr	r3, [r7, #8]
  __HAL_PWR_VOLTAGESCALING_CONFIG(PWR_REGULATOR_VOLTAGE_SCALE1);
 80014a8:	2300      	movs	r3, #0
 80014aa:	607b      	str	r3, [r7, #4]
 80014ac:	4b1c      	ldr	r3, [pc, #112]	; (8001520 <SystemClock_Config+0xb8>)
 80014ae:	681b      	ldr	r3, [r3, #0]
 80014b0:	4a1b      	ldr	r2, [pc, #108]	; (8001520 <SystemClock_Config+0xb8>)
 80014b2:	f443 4380 	orr.w	r3, r3, #16384	; 0x4000
 80014b6:	6013      	str	r3, [r2, #0]
 80014b8:	4b19      	ldr	r3, [pc, #100]	; (8001520 <SystemClock_Config+0xb8>)
 80014ba:	681b      	ldr	r3, [r3, #0]
 80014bc:	f403 4380 	and.w	r3, r3, #16384	; 0x4000
 80014c0:	607b      	str	r3, [r7, #4]
 80014c2:	687b      	ldr	r3, [r7, #4]

  /** Initializes the RCC Oscillators according to the specified parameters
  * in the RCC_OscInitTypeDef structure.
  */
  RCC_OscInitStruct.OscillatorType = RCC_OSCILLATORTYPE_HSI;
 80014c4:	2302      	movs	r3, #2
 80014c6:	623b      	str	r3, [r7, #32]
  RCC_OscInitStruct.HSIState = RCC_HSI_ON;
 80014c8:	2301      	movs	r3, #1
 80014ca:	62fb      	str	r3, [r7, #44]	; 0x2c
  RCC_OscInitStruct.HSICalibrationValue = RCC_HSICALIBRATION_DEFAULT;
 80014cc:	2310      	movs	r3, #16
 80014ce:	633b      	str	r3, [r7, #48]	; 0x30
  RCC_OscInitStruct.PLL.PLLState = RCC_PLL_NONE;
 80014d0:	2300      	movs	r3, #0
 80014d2:	63bb      	str	r3, [r7, #56]	; 0x38
  if (HAL_RCC_OscConfig(&RCC_OscInitStruct) != HAL_OK)
 80014d4:	f107 0320 	add.w	r3, r7, #32
 80014d8:	4618      	mov	r0, r3
 80014da:	f002 fc8f 	bl	8003dfc <HAL_RCC_OscConfig>
 80014de:	4603      	mov	r3, r0
 80014e0:	2b00      	cmp	r3, #0
 80014e2:	d001      	beq.n	80014e8 <SystemClock_Config+0x80>
  {
    Error_Handler();
 80014e4:	f000 f9f4 	bl	80018d0 <Error_Handler>
  }

  /** Initializes the CPU, AHB and APB buses clocks
  */
  RCC_ClkInitStruct.ClockType = RCC_CLOCKTYPE_HCLK|RCC_CLOCKTYPE_SYSCLK
 80014e8:	230f      	movs	r3, #15
 80014ea:	60fb      	str	r3, [r7, #12]
                              |RCC_CLOCKTYPE_PCLK1|RCC_CLOCKTYPE_PCLK2;
  RCC_ClkInitStruct.SYSCLKSource = RCC_SYSCLKSOURCE_HSI;
 80014ec:	2300      	movs	r3, #0
 80014ee:	613b      	str	r3, [r7, #16]
  RCC_ClkInitStruct.AHBCLKDivider = RCC_SYSCLK_DIV1;
 80014f0:	2300      	movs	r3, #0
 80014f2:	617b      	str	r3, [r7, #20]
  RCC_ClkInitStruct.APB1CLKDivider = RCC_HCLK_DIV1;
 80014f4:	2300      	movs	r3, #0
 80014f6:	61bb      	str	r3, [r7, #24]
  RCC_ClkInitStruct.APB2CLKDivider = RCC_HCLK_DIV1;
 80014f8:	2300      	movs	r3, #0
 80014fa:	61fb      	str	r3, [r7, #28]

  if (HAL_RCC_ClockConfig(&RCC_ClkInitStruct, FLASH_LATENCY_0) != HAL_OK)
 80014fc:	f107 030c 	add.w	r3, r7, #12
 8001500:	2100      	movs	r1, #0
 8001502:	4618      	mov	r0, r3
 8001504:	f002 fef2 	bl	80042ec <HAL_RCC_ClockConfig>
 8001508:	4603      	mov	r3, r0
 800150a:	2b00      	cmp	r3, #0
 800150c:	d001      	beq.n	8001512 <SystemClock_Config+0xaa>
  {
    Error_Handler();
 800150e:	f000 f9df 	bl	80018d0 <Error_Handler>
  }
}
 8001512:	bf00      	nop
 8001514:	3750      	adds	r7, #80	; 0x50
 8001516:	46bd      	mov	sp, r7
 8001518:	bd80      	pop	{r7, pc}
 800151a:	bf00      	nop
 800151c:	40023800 	.word	0x40023800
 8001520:	40007000 	.word	0x40007000

08001524 <MX_ADC1_Init>:
  * @brief ADC1 Initialization Function
  * @param None
  * @retval None
  */
static void MX_ADC1_Init(void)
{
 8001524:	b580      	push	{r7, lr}
 8001526:	b084      	sub	sp, #16
 8001528:	af00      	add	r7, sp, #0

  /* USER CODE BEGIN ADC1_Init 0 */

  /* USER CODE END ADC1_Init 0 */

  ADC_ChannelConfTypeDef sConfig = {0};
 800152a:	463b      	mov	r3, r7
 800152c:	2200      	movs	r2, #0
 800152e:	601a      	str	r2, [r3, #0]
 8001530:	605a      	str	r2, [r3, #4]
 8001532:	609a      	str	r2, [r3, #8]
 8001534:	60da      	str	r2, [r3, #12]

  /* USER CODE END ADC1_Init 1 */

  /** Configure the global features of the ADC (Clock, Resolution, Data Alignment and number of conversion)
  */
  hadc1.Instance = ADC1;
 8001536:	4b21      	ldr	r3, [pc, #132]	; (80015bc <MX_ADC1_Init+0x98>)
 8001538:	4a21      	ldr	r2, [pc, #132]	; (80015c0 <MX_ADC1_Init+0x9c>)
 800153a:	601a      	str	r2, [r3, #0]
  hadc1.Init.ClockPrescaler = ADC_CLOCK_SYNC_PCLK_DIV2;
 800153c:	4b1f      	ldr	r3, [pc, #124]	; (80015bc <MX_ADC1_Init+0x98>)
 800153e:	2200      	movs	r2, #0
 8001540:	605a      	str	r2, [r3, #4]
  hadc1.Init.Resolution = ADC_RESOLUTION_12B;
 8001542:	4b1e      	ldr	r3, [pc, #120]	; (80015bc <MX_ADC1_Init+0x98>)
 8001544:	2200      	movs	r2, #0
 8001546:	609a      	str	r2, [r3, #8]
  hadc1.Init.ScanConvMode = DISABLE;
 8001548:	4b1c      	ldr	r3, [pc, #112]	; (80015bc <MX_ADC1_Init+0x98>)
 800154a:	2200      	movs	r2, #0
 800154c:	611a      	str	r2, [r3, #16]
  hadc1.Init.ContinuousConvMode = DISABLE;
 800154e:	4b1b      	ldr	r3, [pc, #108]	; (80015bc <MX_ADC1_Init+0x98>)
 8001550:	2200      	movs	r2, #0
 8001552:	761a      	strb	r2, [r3, #24]
  hadc1.Init.DiscontinuousConvMode = DISABLE;
 8001554:	4b19      	ldr	r3, [pc, #100]	; (80015bc <MX_ADC1_Init+0x98>)
 8001556:	2200      	movs	r2, #0
 8001558:	f883 2020 	strb.w	r2, [r3, #32]
  hadc1.Init.ExternalTrigConvEdge = ADC_EXTERNALTRIGCONVEDGE_NONE;
 800155c:	4b17      	ldr	r3, [pc, #92]	; (80015bc <MX_ADC1_Init+0x98>)
 800155e:	2200      	movs	r2, #0
 8001560:	62da      	str	r2, [r3, #44]	; 0x2c
  hadc1.Init.ExternalTrigConv = ADC_SOFTWARE_START;
 8001562:	4b16      	ldr	r3, [pc, #88]	; (80015bc <MX_ADC1_Init+0x98>)
 8001564:	4a17      	ldr	r2, [pc, #92]	; (80015c4 <MX_ADC1_Init+0xa0>)
 8001566:	629a      	str	r2, [r3, #40]	; 0x28
  hadc1.Init.DataAlign = ADC_DATAALIGN_RIGHT;
 8001568:	4b14      	ldr	r3, [pc, #80]	; (80015bc <MX_ADC1_Init+0x98>)
 800156a:	2200      	movs	r2, #0
 800156c:	60da      	str	r2, [r3, #12]
  hadc1.Init.NbrOfConversion = 1;
 800156e:	4b13      	ldr	r3, [pc, #76]	; (80015bc <MX_ADC1_Init+0x98>)
 8001570:	2201      	movs	r2, #1
 8001572:	61da      	str	r2, [r3, #28]
  hadc1.Init.DMAContinuousRequests = DISABLE;
 8001574:	4b11      	ldr	r3, [pc, #68]	; (80015bc <MX_ADC1_Init+0x98>)
 8001576:	2200      	movs	r2, #0
 8001578:	f883 2030 	strb.w	r2, [r3, #48]	; 0x30
  hadc1.Init.EOCSelection = ADC_EOC_SINGLE_CONV;
 800157c:	4b0f      	ldr	r3, [pc, #60]	; (80015bc <MX_ADC1_Init+0x98>)
 800157e:	2201      	movs	r2, #1
 8001580:	615a      	str	r2, [r3, #20]
  if (HAL_ADC_Init(&hadc1) != HAL_OK)
 8001582:	480e      	ldr	r0, [pc, #56]	; (80015bc <MX_ADC1_Init+0x98>)
 8001584:	f000 fcfc 	bl	8001f80 <HAL_ADC_Init>
 8001588:	4603      	mov	r3, r0
 800158a:	2b00      	cmp	r3, #0
 800158c:	d001      	beq.n	8001592 <MX_ADC1_Init+0x6e>
  {
    Error_Handler();
 800158e:	f000 f99f 	bl	80018d0 <Error_Handler>
  }

  /** Configure for the selected ADC regular channel its corresponding rank in the sequencer and its sample time.
  */
  sConfig.Channel = ADC_CHANNEL_3;
 8001592:	2303      	movs	r3, #3
 8001594:	603b      	str	r3, [r7, #0]
  sConfig.Rank = 1;
 8001596:	2301      	movs	r3, #1
 8001598:	607b      	str	r3, [r7, #4]
  sConfig.SamplingTime = ADC_SAMPLETIME_480CYCLES;
 800159a:	2307      	movs	r3, #7
 800159c:	60bb      	str	r3, [r7, #8]
  if (HAL_ADC_ConfigChannel(&hadc1, &sConfig) != HAL_OK)
 800159e:	463b      	mov	r3, r7
 80015a0:	4619      	mov	r1, r3
 80015a2:	4806      	ldr	r0, [pc, #24]	; (80015bc <MX_ADC1_Init+0x98>)
 80015a4:	f000 ff40 	bl	8002428 <HAL_ADC_ConfigChannel>
 80015a8:	4603      	mov	r3, r0
 80015aa:	2b00      	cmp	r3, #0
 80015ac:	d001      	beq.n	80015b2 <MX_ADC1_Init+0x8e>
  {
    Error_Handler();
 80015ae:	f000 f98f 	bl	80018d0 <Error_Handler>
  }
  /* USER CODE BEGIN ADC1_Init 2 */

  /* USER CODE END ADC1_Init 2 */

}
 80015b2:	bf00      	nop
 80015b4:	3710      	adds	r7, #16
 80015b6:	46bd      	mov	sp, r7
 80015b8:	bd80      	pop	{r7, pc}
 80015ba:	bf00      	nop
 80015bc:	20000030 	.word	0x20000030
 80015c0:	40012000 	.word	0x40012000
 80015c4:	0f000001 	.word	0x0f000001

080015c8 <MX_I2C1_Init>:
  * @brief I2C1 Initialization Function
  * @param None
  * @retval None
  */
static void MX_I2C1_Init(void)
{
 80015c8:	b580      	push	{r7, lr}
 80015ca:	af00      	add	r7, sp, #0
  /* USER CODE END I2C1_Init 0 */

  /* USER CODE BEGIN I2C1_Init 1 */

  /* USER CODE END I2C1_Init 1 */
  hi2c1.Instance = I2C1;
 80015cc:	4b12      	ldr	r3, [pc, #72]	; (8001618 <MX_I2C1_Init+0x50>)
 80015ce:	4a13      	ldr	r2, [pc, #76]	; (800161c <MX_I2C1_Init+0x54>)
 80015d0:	601a      	str	r2, [r3, #0]
  hi2c1.Init.ClockSpeed = 100000;
 80015d2:	4b11      	ldr	r3, [pc, #68]	; (8001618 <MX_I2C1_Init+0x50>)
 80015d4:	4a12      	ldr	r2, [pc, #72]	; (8001620 <MX_I2C1_Init+0x58>)
 80015d6:	605a      	str	r2, [r3, #4]
  hi2c1.Init.DutyCycle = I2C_DUTYCYCLE_2;
 80015d8:	4b0f      	ldr	r3, [pc, #60]	; (8001618 <MX_I2C1_Init+0x50>)
 80015da:	2200      	movs	r2, #0
 80015dc:	609a      	str	r2, [r3, #8]
  hi2c1.Init.OwnAddress1 = 0;
 80015de:	4b0e      	ldr	r3, [pc, #56]	; (8001618 <MX_I2C1_Init+0x50>)
 80015e0:	2200      	movs	r2, #0
 80015e2:	60da      	str	r2, [r3, #12]
  hi2c1.Init.AddressingMode = I2C_ADDRESSINGMODE_7BIT;
 80015e4:	4b0c      	ldr	r3, [pc, #48]	; (8001618 <MX_I2C1_Init+0x50>)
 80015e6:	f44f 4280 	mov.w	r2, #16384	; 0x4000
 80015ea:	611a      	str	r2, [r3, #16]
  hi2c1.Init.DualAddressMode = I2C_DUALADDRESS_DISABLE;
 80015ec:	4b0a      	ldr	r3, [pc, #40]	; (8001618 <MX_I2C1_Init+0x50>)
 80015ee:	2200      	movs	r2, #0
 80015f0:	615a      	str	r2, [r3, #20]
  hi2c1.Init.OwnAddress2 = 0;
 80015f2:	4b09      	ldr	r3, [pc, #36]	; (8001618 <MX_I2C1_Init+0x50>)
 80015f4:	2200      	movs	r2, #0
 80015f6:	619a      	str	r2, [r3, #24]
  hi2c1.Init.GeneralCallMode = I2C_GENERALCALL_DISABLE;
 80015f8:	4b07      	ldr	r3, [pc, #28]	; (8001618 <MX_I2C1_Init+0x50>)
 80015fa:	2200      	movs	r2, #0
 80015fc:	61da      	str	r2, [r3, #28]
  hi2c1.Init.NoStretchMode = I2C_NOSTRETCH_DISABLE;
 80015fe:	4b06      	ldr	r3, [pc, #24]	; (8001618 <MX_I2C1_Init+0x50>)
 8001600:	2200      	movs	r2, #0
 8001602:	621a      	str	r2, [r3, #32]
  if (HAL_I2C_Init(&hi2c1) != HAL_OK)
 8001604:	4804      	ldr	r0, [pc, #16]	; (8001618 <MX_I2C1_Init+0x50>)
 8001606:	f001 fbff 	bl	8002e08 <HAL_I2C_Init>
 800160a:	4603      	mov	r3, r0
 800160c:	2b00      	cmp	r3, #0
 800160e:	d001      	beq.n	8001614 <MX_I2C1_Init+0x4c>
  {
    Error_Handler();
 8001610:	f000 f95e 	bl	80018d0 <Error_Handler>
  }
  /* USER CODE BEGIN I2C1_Init 2 */

  /* USER CODE END I2C1_Init 2 */

}
 8001614:	bf00      	nop
 8001616:	bd80      	pop	{r7, pc}
 8001618:	20000078 	.word	0x20000078
 800161c:	40005400 	.word	0x40005400
 8001620:	000186a0 	.word	0x000186a0

08001624 <MX_TIM4_Init>:
  * @brief TIM4 Initialization Function
  * @param None
  * @retval None
  */
static void MX_TIM4_Init(void)
{
 8001624:	b580      	push	{r7, lr}
 8001626:	b08e      	sub	sp, #56	; 0x38
 8001628:	af00      	add	r7, sp, #0

  /* USER CODE BEGIN TIM4_Init 0 */

  /* USER CODE END TIM4_Init 0 */

  TIM_ClockConfigTypeDef sClockSourceConfig = {0};
 800162a:	f107 0328 	add.w	r3, r7, #40	; 0x28
 800162e:	2200      	movs	r2, #0
 8001630:	601a      	str	r2, [r3, #0]
 8001632:	605a      	str	r2, [r3, #4]
 8001634:	609a      	str	r2, [r3, #8]
 8001636:	60da      	str	r2, [r3, #12]
  TIM_MasterConfigTypeDef sMasterConfig = {0};
 8001638:	f107 0320 	add.w	r3, r7, #32
 800163c:	2200      	movs	r2, #0
 800163e:	601a      	str	r2, [r3, #0]
 8001640:	605a      	str	r2, [r3, #4]
  TIM_OC_InitTypeDef sConfigOC = {0};
 8001642:	1d3b      	adds	r3, r7, #4
 8001644:	2200      	movs	r2, #0
 8001646:	601a      	str	r2, [r3, #0]
 8001648:	605a      	str	r2, [r3, #4]
 800164a:	609a      	str	r2, [r3, #8]
 800164c:	60da      	str	r2, [r3, #12]
 800164e:	611a      	str	r2, [r3, #16]
 8001650:	615a      	str	r2, [r3, #20]
 8001652:	619a      	str	r2, [r3, #24]

  /* USER CODE BEGIN TIM4_Init 1 */

  /* USER CODE END TIM4_Init 1 */
  htim4.Instance = TIM4;
 8001654:	4b37      	ldr	r3, [pc, #220]	; (8001734 <MX_TIM4_Init+0x110>)
 8001656:	4a38      	ldr	r2, [pc, #224]	; (8001738 <MX_TIM4_Init+0x114>)
 8001658:	601a      	str	r2, [r3, #0]
  htim4.Init.Prescaler = 160;
 800165a:	4b36      	ldr	r3, [pc, #216]	; (8001734 <MX_TIM4_Init+0x110>)
 800165c:	22a0      	movs	r2, #160	; 0xa0
 800165e:	605a      	str	r2, [r3, #4]
  htim4.Init.CounterMode = TIM_COUNTERMODE_DOWN;
 8001660:	4b34      	ldr	r3, [pc, #208]	; (8001734 <MX_TIM4_Init+0x110>)
 8001662:	2210      	movs	r2, #16
 8001664:	609a      	str	r2, [r3, #8]
  htim4.Init.Period = 1000;
 8001666:	4b33      	ldr	r3, [pc, #204]	; (8001734 <MX_TIM4_Init+0x110>)
 8001668:	f44f 727a 	mov.w	r2, #1000	; 0x3e8
 800166c:	60da      	str	r2, [r3, #12]
  htim4.Init.ClockDivision = TIM_CLOCKDIVISION_DIV1;
 800166e:	4b31      	ldr	r3, [pc, #196]	; (8001734 <MX_TIM4_Init+0x110>)
 8001670:	2200      	movs	r2, #0
 8001672:	611a      	str	r2, [r3, #16]
  htim4.Init.AutoReloadPreload = TIM_AUTORELOAD_PRELOAD_DISABLE;
 8001674:	4b2f      	ldr	r3, [pc, #188]	; (8001734 <MX_TIM4_Init+0x110>)
 8001676:	2200      	movs	r2, #0
 8001678:	619a      	str	r2, [r3, #24]
  if (HAL_TIM_Base_Init(&htim4) != HAL_OK)
 800167a:	482e      	ldr	r0, [pc, #184]	; (8001734 <MX_TIM4_Init+0x110>)
 800167c:	f003 f802 	bl	8004684 <HAL_TIM_Base_Init>
 8001680:	4603      	mov	r3, r0
 8001682:	2b00      	cmp	r3, #0
 8001684:	d001      	beq.n	800168a <MX_TIM4_Init+0x66>
  {
    Error_Handler();
 8001686:	f000 f923 	bl	80018d0 <Error_Handler>
  }
  sClockSourceConfig.ClockSource = TIM_CLOCKSOURCE_INTERNAL;
 800168a:	f44f 5380 	mov.w	r3, #4096	; 0x1000
 800168e:	62bb      	str	r3, [r7, #40]	; 0x28
  if (HAL_TIM_ConfigClockSource(&htim4, &sClockSourceConfig) != HAL_OK)
 8001690:	f107 0328 	add.w	r3, r7, #40	; 0x28
 8001694:	4619      	mov	r1, r3
 8001696:	4827      	ldr	r0, [pc, #156]	; (8001734 <MX_TIM4_Init+0x110>)
 8001698:	f003 fb16 	bl	8004cc8 <HAL_TIM_ConfigClockSource>
 800169c:	4603      	mov	r3, r0
 800169e:	2b00      	cmp	r3, #0
 80016a0:	d001      	beq.n	80016a6 <MX_TIM4_Init+0x82>
  {
    Error_Handler();
 80016a2:	f000 f915 	bl	80018d0 <Error_Handler>
  }
  if (HAL_TIM_PWM_Init(&htim4) != HAL_OK)
 80016a6:	4823      	ldr	r0, [pc, #140]	; (8001734 <MX_TIM4_Init+0x110>)
 80016a8:	f003 f83b 	bl	8004722 <HAL_TIM_PWM_Init>
 80016ac:	4603      	mov	r3, r0
 80016ae:	2b00      	cmp	r3, #0
 80016b0:	d001      	beq.n	80016b6 <MX_TIM4_Init+0x92>
  {
    Error_Handler();
 80016b2:	f000 f90d 	bl	80018d0 <Error_Handler>
  }
  sMasterConfig.MasterOutputTrigger = TIM_TRGO_RESET;
 80016b6:	2300      	movs	r3, #0
 80016b8:	623b      	str	r3, [r7, #32]
  sMasterConfig.MasterSlaveMode = TIM_MASTERSLAVEMODE_DISABLE;
 80016ba:	2300      	movs	r3, #0
 80016bc:	627b      	str	r3, [r7, #36]	; 0x24
  if (HAL_TIMEx_MasterConfigSynchronization(&htim4, &sMasterConfig) != HAL_OK)
 80016be:	f107 0320 	add.w	r3, r7, #32
 80016c2:	4619      	mov	r1, r3
 80016c4:	481b      	ldr	r0, [pc, #108]	; (8001734 <MX_TIM4_Init+0x110>)
 80016c6:	f003 ff15 	bl	80054f4 <HAL_TIMEx_MasterConfigSynchronization>
 80016ca:	4603      	mov	r3, r0
 80016cc:	2b00      	cmp	r3, #0
 80016ce:	d001      	beq.n	80016d4 <MX_TIM4_Init+0xb0>
  {
    Error_Handler();
 80016d0:	f000 f8fe 	bl	80018d0 <Error_Handler>
  }
  sConfigOC.OCMode = TIM_OCMODE_PWM1;
 80016d4:	2360      	movs	r3, #96	; 0x60
 80016d6:	607b      	str	r3, [r7, #4]
  sConfigOC.Pulse = 0;
 80016d8:	2300      	movs	r3, #0
 80016da:	60bb      	str	r3, [r7, #8]
  sConfigOC.OCPolarity = TIM_OCPOLARITY_HIGH;
 80016dc:	2300      	movs	r3, #0
 80016de:	60fb      	str	r3, [r7, #12]
  sConfigOC.OCFastMode = TIM_OCFAST_DISABLE;
 80016e0:	2300      	movs	r3, #0
 80016e2:	617b      	str	r3, [r7, #20]
  if (HAL_TIM_PWM_ConfigChannel(&htim4, &sConfigOC, TIM_CHANNEL_1) != HAL_OK)
 80016e4:	1d3b      	adds	r3, r7, #4
 80016e6:	2200      	movs	r2, #0
 80016e8:	4619      	mov	r1, r3
 80016ea:	4812      	ldr	r0, [pc, #72]	; (8001734 <MX_TIM4_Init+0x110>)
 80016ec:	f003 fa2a 	bl	8004b44 <HAL_TIM_PWM_ConfigChannel>
 80016f0:	4603      	mov	r3, r0
 80016f2:	2b00      	cmp	r3, #0
 80016f4:	d001      	beq.n	80016fa <MX_TIM4_Init+0xd6>
  {
    Error_Handler();
 80016f6:	f000 f8eb 	bl	80018d0 <Error_Handler>
  }
  if (HAL_TIM_PWM_ConfigChannel(&htim4, &sConfigOC, TIM_CHANNEL_3) != HAL_OK)
 80016fa:	1d3b      	adds	r3, r7, #4
 80016fc:	2208      	movs	r2, #8
 80016fe:	4619      	mov	r1, r3
 8001700:	480c      	ldr	r0, [pc, #48]	; (8001734 <MX_TIM4_Init+0x110>)
 8001702:	f003 fa1f 	bl	8004b44 <HAL_TIM_PWM_ConfigChannel>
 8001706:	4603      	mov	r3, r0
 8001708:	2b00      	cmp	r3, #0
 800170a:	d001      	beq.n	8001710 <MX_TIM4_Init+0xec>
  {
    Error_Handler();
 800170c:	f000 f8e0 	bl	80018d0 <Error_Handler>
  }
  if (HAL_TIM_PWM_ConfigChannel(&htim4, &sConfigOC, TIM_CHANNEL_4) != HAL_OK)
 8001710:	1d3b      	adds	r3, r7, #4
 8001712:	220c      	movs	r2, #12
 8001714:	4619      	mov	r1, r3
 8001716:	4807      	ldr	r0, [pc, #28]	; (8001734 <MX_TIM4_Init+0x110>)
 8001718:	f003 fa14 	bl	8004b44 <HAL_TIM_PWM_ConfigChannel>
 800171c:	4603      	mov	r3, r0
 800171e:	2b00      	cmp	r3, #0
 8001720:	d001      	beq.n	8001726 <MX_TIM4_Init+0x102>
  {
    Error_Handler();
 8001722:	f000 f8d5 	bl	80018d0 <Error_Handler>
  }
  /* USER CODE BEGIN TIM4_Init 2 */

  /* USER CODE END TIM4_Init 2 */
  HAL_TIM_MspPostInit(&htim4);
 8001726:	4803      	ldr	r0, [pc, #12]	; (8001734 <MX_TIM4_Init+0x110>)
 8001728:	f000 fae0 	bl	8001cec <HAL_TIM_MspPostInit>

}
 800172c:	bf00      	nop
 800172e:	3738      	adds	r7, #56	; 0x38
 8001730:	46bd      	mov	sp, r7
 8001732:	bd80      	pop	{r7, pc}
 8001734:	200000cc 	.word	0x200000cc
 8001738:	40000800 	.word	0x40000800

0800173c <MX_GPIO_Init>:
  * @brief GPIO Initialization Function
  * @param None
  * @retval None
  */
static void MX_GPIO_Init(void)
{
 800173c:	b580      	push	{r7, lr}
 800173e:	b08a      	sub	sp, #40	; 0x28
 8001740:	af00      	add	r7, sp, #0
  GPIO_InitTypeDef GPIO_InitStruct = {0};
 8001742:	f107 0314 	add.w	r3, r7, #20
 8001746:	2200      	movs	r2, #0
 8001748:	601a      	str	r2, [r3, #0]
 800174a:	605a      	str	r2, [r3, #4]
 800174c:	609a      	str	r2, [r3, #8]
 800174e:	60da      	str	r2, [r3, #12]
 8001750:	611a      	str	r2, [r3, #16]
/* USER CODE BEGIN MX_GPIO_Init_1 */
/* USER CODE END MX_GPIO_Init_1 */

  /* GPIO Ports Clock Enable */
  __HAL_RCC_GPIOA_CLK_ENABLE();
 8001752:	2300      	movs	r3, #0
 8001754:	613b      	str	r3, [r7, #16]
 8001756:	4b27      	ldr	r3, [pc, #156]	; (80017f4 <MX_GPIO_Init+0xb8>)
 8001758:	6b1b      	ldr	r3, [r3, #48]	; 0x30
 800175a:	4a26      	ldr	r2, [pc, #152]	; (80017f4 <MX_GPIO_Init+0xb8>)
 800175c:	f043 0301 	orr.w	r3, r3, #1
 8001760:	6313      	str	r3, [r2, #48]	; 0x30
 8001762:	4b24      	ldr	r3, [pc, #144]	; (80017f4 <MX_GPIO_Init+0xb8>)
 8001764:	6b1b      	ldr	r3, [r3, #48]	; 0x30
 8001766:	f003 0301 	and.w	r3, r3, #1
 800176a:	613b      	str	r3, [r7, #16]
 800176c:	693b      	ldr	r3, [r7, #16]
  __HAL_RCC_GPIOE_CLK_ENABLE();
 800176e:	2300      	movs	r3, #0
 8001770:	60fb      	str	r3, [r7, #12]
 8001772:	4b20      	ldr	r3, [pc, #128]	; (80017f4 <MX_GPIO_Init+0xb8>)
 8001774:	6b1b      	ldr	r3, [r3, #48]	; 0x30
 8001776:	4a1f      	ldr	r2, [pc, #124]	; (80017f4 <MX_GPIO_Init+0xb8>)
 8001778:	f043 0310 	orr.w	r3, r3, #16
 800177c:	6313      	str	r3, [r2, #48]	; 0x30
 800177e:	4b1d      	ldr	r3, [pc, #116]	; (80017f4 <MX_GPIO_Init+0xb8>)
 8001780:	6b1b      	ldr	r3, [r3, #48]	; 0x30
 8001782:	f003 0310 	and.w	r3, r3, #16
 8001786:	60fb      	str	r3, [r7, #12]
 8001788:	68fb      	ldr	r3, [r7, #12]
  __HAL_RCC_GPIOD_CLK_ENABLE();
 800178a:	2300      	movs	r3, #0
 800178c:	60bb      	str	r3, [r7, #8]
 800178e:	4b19      	ldr	r3, [pc, #100]	; (80017f4 <MX_GPIO_Init+0xb8>)
 8001790:	6b1b      	ldr	r3, [r3, #48]	; 0x30
 8001792:	4a18      	ldr	r2, [pc, #96]	; (80017f4 <MX_GPIO_Init+0xb8>)
 8001794:	f043 0308 	orr.w	r3, r3, #8
 8001798:	6313      	str	r3, [r2, #48]	; 0x30
 800179a:	4b16      	ldr	r3, [pc, #88]	; (80017f4 <MX_GPIO_Init+0xb8>)
 800179c:	6b1b      	ldr	r3, [r3, #48]	; 0x30
 800179e:	f003 0308 	and.w	r3, r3, #8
 80017a2:	60bb      	str	r3, [r7, #8]
 80017a4:	68bb      	ldr	r3, [r7, #8]
  __HAL_RCC_GPIOB_CLK_ENABLE();
 80017a6:	2300      	movs	r3, #0
 80017a8:	607b      	str	r3, [r7, #4]
 80017aa:	4b12      	ldr	r3, [pc, #72]	; (80017f4 <MX_GPIO_Init+0xb8>)
 80017ac:	6b1b      	ldr	r3, [r3, #48]	; 0x30
 80017ae:	4a11      	ldr	r2, [pc, #68]	; (80017f4 <MX_GPIO_Init+0xb8>)
 80017b0:	f043 0302 	orr.w	r3, r3, #2
 80017b4:	6313      	str	r3, [r2, #48]	; 0x30
 80017b6:	4b0f      	ldr	r3, [pc, #60]	; (80017f4 <MX_GPIO_Init+0xb8>)
 80017b8:	6b1b      	ldr	r3, [r3, #48]	; 0x30
 80017ba:	f003 0302 	and.w	r3, r3, #2
 80017be:	607b      	str	r3, [r7, #4]
 80017c0:	687b      	ldr	r3, [r7, #4]

  /*Configure GPIO pin Output Level */
  HAL_GPIO_WritePin(GPIOE, LCD_RS_Pin|LCD_RW_Pin|LCD_E_Pin|LCD_D4_Pin
 80017c2:	2200      	movs	r2, #0
 80017c4:	f64f 4180 	movw	r1, #64640	; 0xfc80
 80017c8:	480b      	ldr	r0, [pc, #44]	; (80017f8 <MX_GPIO_Init+0xbc>)
 80017ca:	f001 fb03 	bl	8002dd4 <HAL_GPIO_WritePin>
                          |LCD_D5_Pin|LCD_D6_Pin|LCD_D7_Pin, GPIO_PIN_RESET);

  /*Configure GPIO pins : LCD_RS_Pin LCD_RW_Pin LCD_E_Pin LCD_D4_Pin
                           LCD_D5_Pin LCD_D6_Pin LCD_D7_Pin */
  GPIO_InitStruct.Pin = LCD_RS_Pin|LCD_RW_Pin|LCD_E_Pin|LCD_D4_Pin
 80017ce:	f64f 4380 	movw	r3, #64640	; 0xfc80
 80017d2:	617b      	str	r3, [r7, #20]
                          |LCD_D5_Pin|LCD_D6_Pin|LCD_D7_Pin;
  GPIO_InitStruct.Mode = GPIO_MODE_OUTPUT_PP;
 80017d4:	2301      	movs	r3, #1
 80017d6:	61bb      	str	r3, [r7, #24]
  GPIO_InitStruct.Pull = GPIO_NOPULL;
 80017d8:	2300      	movs	r3, #0
 80017da:	61fb      	str	r3, [r7, #28]
  GPIO_InitStruct.Speed = GPIO_SPEED_FREQ_LOW;
 80017dc:	2300      	movs	r3, #0
 80017de:	623b      	str	r3, [r7, #32]
  HAL_GPIO_Init(GPIOE, &GPIO_InitStruct);
 80017e0:	f107 0314 	add.w	r3, r7, #20
 80017e4:	4619      	mov	r1, r3
 80017e6:	4804      	ldr	r0, [pc, #16]	; (80017f8 <MX_GPIO_Init+0xbc>)
 80017e8:	f001 f958 	bl	8002a9c <HAL_GPIO_Init>

/* USER CODE BEGIN MX_GPIO_Init_2 */
/* USER CODE END MX_GPIO_Init_2 */
}
 80017ec:	bf00      	nop
 80017ee:	3728      	adds	r7, #40	; 0x28
 80017f0:	46bd      	mov	sp, r7
 80017f2:	bd80      	pop	{r7, pc}
 80017f4:	40023800 	.word	0x40023800
 80017f8:	40021000 	.word	0x40021000

080017fc <HAL_ADC_ConvCpltCallback>:

/* USER CODE BEGIN 4 */

void HAL_ADC_ConvCpltCallback(ADC_HandleTypeDef* hadc)
{
 80017fc:	b580      	push	{r7, lr}
 80017fe:	b088      	sub	sp, #32
 8001800:	af00      	add	r7, sp, #0
 8001802:	6078      	str	r0, [r7, #4]
  uint32_t adcValue;

  if(hadc->Instance == ADC1)
 8001804:	687b      	ldr	r3, [r7, #4]
 8001806:	681b      	ldr	r3, [r3, #0]
 8001808:	4a29      	ldr	r2, [pc, #164]	; (80018b0 <HAL_ADC_ConvCpltCallback+0xb4>)
 800180a:	4293      	cmp	r3, r2
 800180c:	d14c      	bne.n	80018a8 <HAL_ADC_ConvCpltCallback+0xac>
  {
        adcValue = HAL_ADC_GetValue(&hadc1);
 800180e:	4829      	ldr	r0, [pc, #164]	; (80018b4 <HAL_ADC_ConvCpltCallback+0xb8>)
 8001810:	f000 fde8 	bl	80023e4 <HAL_ADC_GetValue>
 8001814:	61f8      	str	r0, [r7, #28]

        float volts = adcValue * 5.0 / 4096.0;
 8001816:	69f8      	ldr	r0, [r7, #28]
 8001818:	f7fe fe18 	bl	800044c <__aeabi_ui2d>
 800181c:	f04f 0200 	mov.w	r2, #0
 8001820:	4b25      	ldr	r3, [pc, #148]	; (80018b8 <HAL_ADC_ConvCpltCallback+0xbc>)
 8001822:	f7fe fe8d 	bl	8000540 <__aeabi_dmul>
 8001826:	4602      	mov	r2, r0
 8001828:	460b      	mov	r3, r1
 800182a:	4610      	mov	r0, r2
 800182c:	4619      	mov	r1, r3
 800182e:	f04f 0200 	mov.w	r2, #0
 8001832:	4b22      	ldr	r3, [pc, #136]	; (80018bc <HAL_ADC_ConvCpltCallback+0xc0>)
 8001834:	f7fe ffae 	bl	8000794 <__aeabi_ddiv>
 8001838:	4602      	mov	r2, r0
 800183a:	460b      	mov	r3, r1
 800183c:	4610      	mov	r0, r2
 800183e:	4619      	mov	r1, r3
 8001840:	f7ff f890 	bl	8000964 <__aeabi_d2f>
 8001844:	4603      	mov	r3, r0
 8001846:	61bb      	str	r3, [r7, #24]
        float amps = volts / 10000.0;  // across 10,000 Ohms
 8001848:	ed97 7a06 	vldr	s14, [r7, #24]
 800184c:	eddf 6a1c 	vldr	s13, [pc, #112]	; 80018c0 <HAL_ADC_ConvCpltCallback+0xc4>
 8001850:	eec7 7a26 	vdiv.f32	s15, s14, s13
 8001854:	edc7 7a05 	vstr	s15, [r7, #20]
        float microamps = amps * 1000000;
 8001858:	edd7 7a05 	vldr	s15, [r7, #20]
 800185c:	ed9f 7a19 	vldr	s14, [pc, #100]	; 80018c4 <HAL_ADC_ConvCpltCallback+0xc8>
 8001860:	ee67 7a87 	vmul.f32	s15, s15, s14
 8001864:	edc7 7a04 	vstr	s15, [r7, #16]
        float lux = microamps * 2.0;
 8001868:	edd7 7a04 	vldr	s15, [r7, #16]
 800186c:	ee77 7aa7 	vadd.f32	s15, s15, s15
 8001870:	edc7 7a03 	vstr	s15, [r7, #12]

        uint32_t dutyCycle = 1000 - lux;
 8001874:	ed9f 7a14 	vldr	s14, [pc, #80]	; 80018c8 <HAL_ADC_ConvCpltCallback+0xcc>
 8001878:	edd7 7a03 	vldr	s15, [r7, #12]
 800187c:	ee77 7a67 	vsub.f32	s15, s14, s15
 8001880:	eefc 7ae7 	vcvt.u32.f32	s15, s15
 8001884:	ee17 3a90 	vmov	r3, s15
 8001888:	60bb      	str	r3, [r7, #8]

        TIM4->CCR1=dutyCycle;
 800188a:	4a10      	ldr	r2, [pc, #64]	; (80018cc <HAL_ADC_ConvCpltCallback+0xd0>)
 800188c:	68bb      	ldr	r3, [r7, #8]
 800188e:	6353      	str	r3, [r2, #52]	; 0x34
        TIM4->CCR2=dutyCycle;
 8001890:	4a0e      	ldr	r2, [pc, #56]	; (80018cc <HAL_ADC_ConvCpltCallback+0xd0>)
 8001892:	68bb      	ldr	r3, [r7, #8]
 8001894:	6393      	str	r3, [r2, #56]	; 0x38
        TIM4->CCR3=dutyCycle;
 8001896:	4a0d      	ldr	r2, [pc, #52]	; (80018cc <HAL_ADC_ConvCpltCallback+0xd0>)
 8001898:	68bb      	ldr	r3, [r7, #8]
 800189a:	63d3      	str	r3, [r2, #60]	; 0x3c
        TIM4->CCR4=dutyCycle;
 800189c:	4a0b      	ldr	r2, [pc, #44]	; (80018cc <HAL_ADC_ConvCpltCallback+0xd0>)
 800189e:	68bb      	ldr	r3, [r7, #8]
 80018a0:	6413      	str	r3, [r2, #64]	; 0x40

        HAL_ADC_Start_IT(&hadc1);
 80018a2:	4804      	ldr	r0, [pc, #16]	; (80018b4 <HAL_ADC_ConvCpltCallback+0xb8>)
 80018a4:	f000 fbb0 	bl	8002008 <HAL_ADC_Start_IT>
  }
}
 80018a8:	bf00      	nop
 80018aa:	3720      	adds	r7, #32
 80018ac:	46bd      	mov	sp, r7
 80018ae:	bd80      	pop	{r7, pc}
 80018b0:	40012000 	.word	0x40012000
 80018b4:	20000030 	.word	0x20000030
 80018b8:	40140000 	.word	0x40140000
 80018bc:	40b00000 	.word	0x40b00000
 80018c0:	461c4000 	.word	0x461c4000
 80018c4:	49742400 	.word	0x49742400
 80018c8:	447a0000 	.word	0x447a0000
 80018cc:	40000800 	.word	0x40000800

080018d0 <Error_Handler>:
/**
  * @brief  This function is executed in case of error occurrence.
  * @retval None
  */
void Error_Handler(void)
{
 80018d0:	b480      	push	{r7}
 80018d2:	af00      	add	r7, sp, #0
  \details Disables IRQ interrupts by setting special-purpose register PRIMASK.
           Can only be executed in Privileged modes.
 */
__STATIC_FORCEINLINE void __disable_irq(void)
{
  __ASM volatile ("cpsid i" : : : "memory");
 80018d4:	b672      	cpsid	i
}
 80018d6:	bf00      	nop
  /* USER CODE BEGIN Error_Handler_Debug */
  /* User can add his own implementation to report the HAL error return state */
  __disable_irq();
  while (1)
 80018d8:	e7fe      	b.n	80018d8 <Error_Handler+0x8>
	...

080018dc <SHT2x_Init>:
	
/**
 * @brief Initializes the SHT2x temperature/humidity sensor.
 * @param hi2c User I2C handle pointer.
 */
void SHT2x_Init(I2C_HandleTypeDef *hi2c) {
 80018dc:	b480      	push	{r7}
 80018de:	b083      	sub	sp, #12
 80018e0:	af00      	add	r7, sp, #0
 80018e2:	6078      	str	r0, [r7, #4]
	_sht2x_ui2c = hi2c;
 80018e4:	4a04      	ldr	r2, [pc, #16]	; (80018f8 <SHT2x_Init+0x1c>)
 80018e6:	687b      	ldr	r3, [r7, #4]
 80018e8:	6013      	str	r3, [r2, #0]
}
 80018ea:	bf00      	nop
 80018ec:	370c      	adds	r7, #12
 80018ee:	46bd      	mov	sp, r7
 80018f0:	f85d 7b04 	ldr.w	r7, [sp], #4
 80018f4:	4770      	bx	lr
 80018f6:	bf00      	nop
 80018f8:	20000114 	.word	0x20000114

080018fc <SHT2x_SoftReset>:

/**
 *  @brief Performs a soft reset.
 */
void SHT2x_SoftReset(void){
 80018fc:	b580      	push	{r7, lr}
 80018fe:	b084      	sub	sp, #16
 8001900:	af02      	add	r7, sp, #8
	uint8_t cmd = SHT2x_SOFT_RESET;
 8001902:	23fe      	movs	r3, #254	; 0xfe
 8001904:	71fb      	strb	r3, [r7, #7]
	HAL_I2C_Master_Transmit(_sht2x_ui2c, SHT2x_I2C_ADDR << 1, &cmd, 1, SHT2x_TIMEOUT);
 8001906:	4b07      	ldr	r3, [pc, #28]	; (8001924 <SHT2x_SoftReset+0x28>)
 8001908:	6818      	ldr	r0, [r3, #0]
 800190a:	1dfa      	adds	r2, r7, #7
 800190c:	f44f 737a 	mov.w	r3, #1000	; 0x3e8
 8001910:	9300      	str	r3, [sp, #0]
 8001912:	2301      	movs	r3, #1
 8001914:	2180      	movs	r1, #128	; 0x80
 8001916:	f001 fbbb 	bl	8003090 <HAL_I2C_Master_Transmit>
}
 800191a:	bf00      	nop
 800191c:	3708      	adds	r7, #8
 800191e:	46bd      	mov	sp, r7
 8001920:	bd80      	pop	{r7, pc}
 8001922:	bf00      	nop
 8001924:	20000114 	.word	0x20000114

08001928 <SHT2x_ReadUserReg>:

/**
 * @brief Gets the value stored in user register.
 * @return 8-bit value stored in user register, 0 to 255.
 */
uint8_t SHT2x_ReadUserReg(void) {
 8001928:	b580      	push	{r7, lr}
 800192a:	b084      	sub	sp, #16
 800192c:	af02      	add	r7, sp, #8
	uint8_t val;
	uint8_t cmd = SHT2x_READ_REG;
 800192e:	23e7      	movs	r3, #231	; 0xe7
 8001930:	71bb      	strb	r3, [r7, #6]
	HAL_I2C_Master_Transmit(_sht2x_ui2c, SHT2x_I2C_ADDR << 1, &cmd, 1, SHT2x_TIMEOUT);
 8001932:	4b0c      	ldr	r3, [pc, #48]	; (8001964 <SHT2x_ReadUserReg+0x3c>)
 8001934:	6818      	ldr	r0, [r3, #0]
 8001936:	1dba      	adds	r2, r7, #6
 8001938:	f44f 737a 	mov.w	r3, #1000	; 0x3e8
 800193c:	9300      	str	r3, [sp, #0]
 800193e:	2301      	movs	r3, #1
 8001940:	2180      	movs	r1, #128	; 0x80
 8001942:	f001 fba5 	bl	8003090 <HAL_I2C_Master_Transmit>
	HAL_I2C_Master_Receive(_sht2x_ui2c, SHT2x_I2C_ADDR << 1, &val, 1, SHT2x_TIMEOUT);
 8001946:	4b07      	ldr	r3, [pc, #28]	; (8001964 <SHT2x_ReadUserReg+0x3c>)
 8001948:	6818      	ldr	r0, [r3, #0]
 800194a:	1dfa      	adds	r2, r7, #7
 800194c:	f44f 737a 	mov.w	r3, #1000	; 0x3e8
 8001950:	9300      	str	r3, [sp, #0]
 8001952:	2301      	movs	r3, #1
 8001954:	2180      	movs	r1, #128	; 0x80
 8001956:	f001 fc99 	bl	800328c <HAL_I2C_Master_Receive>
	return val;
 800195a:	79fb      	ldrb	r3, [r7, #7]
}
 800195c:	4618      	mov	r0, r3
 800195e:	3708      	adds	r7, #8
 8001960:	46bd      	mov	sp, r7
 8001962:	bd80      	pop	{r7, pc}
 8001964:	20000114 	.word	0x20000114

08001968 <SHT2x_GetRaw>:
/**
 * @brief Sends the designated command to sensor and read a 16-bit raw value.
 * @param cmd Command to send to sensor.
 * @return 16-bit raw value, 0 to 65535.
 */
uint16_t SHT2x_GetRaw(uint8_t cmd) {
 8001968:	b580      	push	{r7, lr}
 800196a:	b086      	sub	sp, #24
 800196c:	af02      	add	r7, sp, #8
 800196e:	4603      	mov	r3, r0
 8001970:	71fb      	strb	r3, [r7, #7]
	uint8_t val[3] = { 0 };
 8001972:	4b13      	ldr	r3, [pc, #76]	; (80019c0 <SHT2x_GetRaw+0x58>)
 8001974:	881b      	ldrh	r3, [r3, #0]
 8001976:	81bb      	strh	r3, [r7, #12]
 8001978:	2300      	movs	r3, #0
 800197a:	73bb      	strb	r3, [r7, #14]
	HAL_I2C_Master_Transmit(_sht2x_ui2c, SHT2x_I2C_ADDR << 1, &cmd, 1, SHT2x_TIMEOUT);
 800197c:	4b11      	ldr	r3, [pc, #68]	; (80019c4 <SHT2x_GetRaw+0x5c>)
 800197e:	6818      	ldr	r0, [r3, #0]
 8001980:	1dfa      	adds	r2, r7, #7
 8001982:	f44f 737a 	mov.w	r3, #1000	; 0x3e8
 8001986:	9300      	str	r3, [sp, #0]
 8001988:	2301      	movs	r3, #1
 800198a:	2180      	movs	r1, #128	; 0x80
 800198c:	f001 fb80 	bl	8003090 <HAL_I2C_Master_Transmit>
	HAL_I2C_Master_Receive(_sht2x_ui2c, SHT2x_I2C_ADDR << 1, val, 3, SHT2x_TIMEOUT);
 8001990:	4b0c      	ldr	r3, [pc, #48]	; (80019c4 <SHT2x_GetRaw+0x5c>)
 8001992:	6818      	ldr	r0, [r3, #0]
 8001994:	f107 020c 	add.w	r2, r7, #12
 8001998:	f44f 737a 	mov.w	r3, #1000	; 0x3e8
 800199c:	9300      	str	r3, [sp, #0]
 800199e:	2303      	movs	r3, #3
 80019a0:	2180      	movs	r1, #128	; 0x80
 80019a2:	f001 fc73 	bl	800328c <HAL_I2C_Master_Receive>
	return val[0] << 8 | val[1];
 80019a6:	7b3b      	ldrb	r3, [r7, #12]
 80019a8:	021b      	lsls	r3, r3, #8
 80019aa:	b21a      	sxth	r2, r3
 80019ac:	7b7b      	ldrb	r3, [r7, #13]
 80019ae:	b21b      	sxth	r3, r3
 80019b0:	4313      	orrs	r3, r2
 80019b2:	b21b      	sxth	r3, r3
 80019b4:	b29b      	uxth	r3, r3
}
 80019b6:	4618      	mov	r0, r3
 80019b8:	3710      	adds	r7, #16
 80019ba:	46bd      	mov	sp, r7
 80019bc:	bd80      	pop	{r7, pc}
 80019be:	bf00      	nop
 80019c0:	0800569c 	.word	0x0800569c
 80019c4:	20000114 	.word	0x20000114

080019c8 <SHT2x_GetTemperature>:
/**
 * @brief Measures and gets the current temperature.
 * @param hold Holding mode, 0 for no hold master, 1 for hold master.
 * @return Floating point temperature value.
 */
float SHT2x_GetTemperature(uint8_t hold) {
 80019c8:	b580      	push	{r7, lr}
 80019ca:	b084      	sub	sp, #16
 80019cc:	af00      	add	r7, sp, #0
 80019ce:	4603      	mov	r3, r0
 80019d0:	71fb      	strb	r3, [r7, #7]
	uint8_t cmd = (hold ? SHT2x_READ_TEMP_HOLD : SHT2x_READ_TEMP_NOHOLD);
 80019d2:	79fb      	ldrb	r3, [r7, #7]
 80019d4:	2b00      	cmp	r3, #0
 80019d6:	d001      	beq.n	80019dc <SHT2x_GetTemperature+0x14>
 80019d8:	23e3      	movs	r3, #227	; 0xe3
 80019da:	e000      	b.n	80019de <SHT2x_GetTemperature+0x16>
 80019dc:	23f3      	movs	r3, #243	; 0xf3
 80019de:	73fb      	strb	r3, [r7, #15]
	return -46.85 + 175.72 * (SHT2x_GetRaw(cmd) / 65536.0);
 80019e0:	7bfb      	ldrb	r3, [r7, #15]
 80019e2:	4618      	mov	r0, r3
 80019e4:	f7ff ffc0 	bl	8001968 <SHT2x_GetRaw>
 80019e8:	4603      	mov	r3, r0
 80019ea:	4618      	mov	r0, r3
 80019ec:	f7fe fd3e 	bl	800046c <__aeabi_i2d>
 80019f0:	f04f 0200 	mov.w	r2, #0
 80019f4:	4b16      	ldr	r3, [pc, #88]	; (8001a50 <SHT2x_GetTemperature+0x88>)
 80019f6:	f7fe fecd 	bl	8000794 <__aeabi_ddiv>
 80019fa:	4602      	mov	r2, r0
 80019fc:	460b      	mov	r3, r1
 80019fe:	4610      	mov	r0, r2
 8001a00:	4619      	mov	r1, r3
 8001a02:	a30f      	add	r3, pc, #60	; (adr r3, 8001a40 <SHT2x_GetTemperature+0x78>)
 8001a04:	e9d3 2300 	ldrd	r2, r3, [r3]
 8001a08:	f7fe fd9a 	bl	8000540 <__aeabi_dmul>
 8001a0c:	4602      	mov	r2, r0
 8001a0e:	460b      	mov	r3, r1
 8001a10:	4610      	mov	r0, r2
 8001a12:	4619      	mov	r1, r3
 8001a14:	a30c      	add	r3, pc, #48	; (adr r3, 8001a48 <SHT2x_GetTemperature+0x80>)
 8001a16:	e9d3 2300 	ldrd	r2, r3, [r3]
 8001a1a:	f7fe fbd9 	bl	80001d0 <__aeabi_dsub>
 8001a1e:	4602      	mov	r2, r0
 8001a20:	460b      	mov	r3, r1
 8001a22:	4610      	mov	r0, r2
 8001a24:	4619      	mov	r1, r3
 8001a26:	f7fe ff9d 	bl	8000964 <__aeabi_d2f>
 8001a2a:	4603      	mov	r3, r0
 8001a2c:	ee07 3a90 	vmov	s15, r3
}
 8001a30:	eeb0 0a67 	vmov.f32	s0, s15
 8001a34:	3710      	adds	r7, #16
 8001a36:	46bd      	mov	sp, r7
 8001a38:	bd80      	pop	{r7, pc}
 8001a3a:	bf00      	nop
 8001a3c:	f3af 8000 	nop.w
 8001a40:	3d70a3d7 	.word	0x3d70a3d7
 8001a44:	4065f70a 	.word	0x4065f70a
 8001a48:	cccccccd 	.word	0xcccccccd
 8001a4c:	40476ccc 	.word	0x40476ccc
 8001a50:	40f00000 	.word	0x40f00000

08001a54 <SHT2x_GetRelativeHumidity>:
/**
 * @brief Measures and gets the current relative humidity.
 * @param hold Holding mode, 0 for no hold master, 1 for hold master.
 * @return Floating point relative humidity value.
 */
float SHT2x_GetRelativeHumidity(uint8_t hold) {
 8001a54:	b580      	push	{r7, lr}
 8001a56:	b084      	sub	sp, #16
 8001a58:	af00      	add	r7, sp, #0
 8001a5a:	4603      	mov	r3, r0
 8001a5c:	71fb      	strb	r3, [r7, #7]
	uint8_t cmd = (hold ? SHT2x_READ_RH_HOLD : SHT2x_READ_RH_NOHOLD);
 8001a5e:	79fb      	ldrb	r3, [r7, #7]
 8001a60:	2b00      	cmp	r3, #0
 8001a62:	d001      	beq.n	8001a68 <SHT2x_GetRelativeHumidity+0x14>
 8001a64:	23e5      	movs	r3, #229	; 0xe5
 8001a66:	e000      	b.n	8001a6a <SHT2x_GetRelativeHumidity+0x16>
 8001a68:	23f5      	movs	r3, #245	; 0xf5
 8001a6a:	73fb      	strb	r3, [r7, #15]
	return -6 + 125.00 * (SHT2x_GetRaw(cmd) / 65536.0);
 8001a6c:	7bfb      	ldrb	r3, [r7, #15]
 8001a6e:	4618      	mov	r0, r3
 8001a70:	f7ff ff7a 	bl	8001968 <SHT2x_GetRaw>
 8001a74:	4603      	mov	r3, r0
 8001a76:	4618      	mov	r0, r3
 8001a78:	f7fe fcf8 	bl	800046c <__aeabi_i2d>
 8001a7c:	f04f 0200 	mov.w	r2, #0
 8001a80:	4b11      	ldr	r3, [pc, #68]	; (8001ac8 <SHT2x_GetRelativeHumidity+0x74>)
 8001a82:	f7fe fe87 	bl	8000794 <__aeabi_ddiv>
 8001a86:	4602      	mov	r2, r0
 8001a88:	460b      	mov	r3, r1
 8001a8a:	4610      	mov	r0, r2
 8001a8c:	4619      	mov	r1, r3
 8001a8e:	f04f 0200 	mov.w	r2, #0
 8001a92:	4b0e      	ldr	r3, [pc, #56]	; (8001acc <SHT2x_GetRelativeHumidity+0x78>)
 8001a94:	f7fe fd54 	bl	8000540 <__aeabi_dmul>
 8001a98:	4602      	mov	r2, r0
 8001a9a:	460b      	mov	r3, r1
 8001a9c:	4610      	mov	r0, r2
 8001a9e:	4619      	mov	r1, r3
 8001aa0:	f04f 0200 	mov.w	r2, #0
 8001aa4:	4b0a      	ldr	r3, [pc, #40]	; (8001ad0 <SHT2x_GetRelativeHumidity+0x7c>)
 8001aa6:	f7fe fb93 	bl	80001d0 <__aeabi_dsub>
 8001aaa:	4602      	mov	r2, r0
 8001aac:	460b      	mov	r3, r1
 8001aae:	4610      	mov	r0, r2
 8001ab0:	4619      	mov	r1, r3
 8001ab2:	f7fe ff57 	bl	8000964 <__aeabi_d2f>
 8001ab6:	4603      	mov	r3, r0
 8001ab8:	ee07 3a90 	vmov	s15, r3
}
 8001abc:	eeb0 0a67 	vmov.f32	s0, s15
 8001ac0:	3710      	adds	r7, #16
 8001ac2:	46bd      	mov	sp, r7
 8001ac4:	bd80      	pop	{r7, pc}
 8001ac6:	bf00      	nop
 8001ac8:	40f00000 	.word	0x40f00000
 8001acc:	405f4000 	.word	0x405f4000
 8001ad0:	40180000 	.word	0x40180000

08001ad4 <SHT2x_SetResolution>:
 * @brief Sets the measurement resolution.
 * @param res Enum resolution.
 * @note Available resolutions: RES_14_12, RES_12_8, RES_13_10, RES_11_11.
 * @note RES_14_12 = 14-bit temperature and 12-bit RH resolution, etc.
 */
void SHT2x_SetResolution(SHT2x_Resolution res) {
 8001ad4:	b580      	push	{r7, lr}
 8001ad6:	b086      	sub	sp, #24
 8001ad8:	af02      	add	r7, sp, #8
 8001ada:	4603      	mov	r3, r0
 8001adc:	71fb      	strb	r3, [r7, #7]
	uint8_t val = SHT2x_ReadUserReg();
 8001ade:	f7ff ff23 	bl	8001928 <SHT2x_ReadUserReg>
 8001ae2:	4603      	mov	r3, r0
 8001ae4:	73fb      	strb	r3, [r7, #15]
	val = (val & 0x7e) | res;
 8001ae6:	f997 300f 	ldrsb.w	r3, [r7, #15]
 8001aea:	f003 037e 	and.w	r3, r3, #126	; 0x7e
 8001aee:	b25a      	sxtb	r2, r3
 8001af0:	f997 3007 	ldrsb.w	r3, [r7, #7]
 8001af4:	4313      	orrs	r3, r2
 8001af6:	b25b      	sxtb	r3, r3
 8001af8:	73fb      	strb	r3, [r7, #15]
	uint8_t temp[2] = { SHT2x_WRITE_REG, val };
 8001afa:	23e6      	movs	r3, #230	; 0xe6
 8001afc:	733b      	strb	r3, [r7, #12]
 8001afe:	7bfb      	ldrb	r3, [r7, #15]
 8001b00:	737b      	strb	r3, [r7, #13]
	HAL_I2C_Master_Transmit(_sht2x_ui2c, SHT2x_I2C_ADDR << 1, temp, 2, SHT2x_TIMEOUT);
 8001b02:	4b07      	ldr	r3, [pc, #28]	; (8001b20 <SHT2x_SetResolution+0x4c>)
 8001b04:	6818      	ldr	r0, [r3, #0]
 8001b06:	f107 020c 	add.w	r2, r7, #12
 8001b0a:	f44f 737a 	mov.w	r3, #1000	; 0x3e8
 8001b0e:	9300      	str	r3, [sp, #0]
 8001b10:	2302      	movs	r3, #2
 8001b12:	2180      	movs	r1, #128	; 0x80
 8001b14:	f001 fabc 	bl	8003090 <HAL_I2C_Master_Transmit>
}
 8001b18:	bf00      	nop
 8001b1a:	3710      	adds	r7, #16
 8001b1c:	46bd      	mov	sp, r7
 8001b1e:	bd80      	pop	{r7, pc}
 8001b20:	20000114 	.word	0x20000114

08001b24 <HAL_MspInit>:
void HAL_TIM_MspPostInit(TIM_HandleTypeDef *htim);
                    /**
  * Initializes the Global MSP.
  */
void HAL_MspInit(void)
{
 8001b24:	b480      	push	{r7}
 8001b26:	b083      	sub	sp, #12
 8001b28:	af00      	add	r7, sp, #0
  /* USER CODE BEGIN MspInit 0 */

  /* USER CODE END MspInit 0 */

  __HAL_RCC_SYSCFG_CLK_ENABLE();
 8001b2a:	2300      	movs	r3, #0
 8001b2c:	607b      	str	r3, [r7, #4]
 8001b2e:	4b10      	ldr	r3, [pc, #64]	; (8001b70 <HAL_MspInit+0x4c>)
 8001b30:	6c5b      	ldr	r3, [r3, #68]	; 0x44
 8001b32:	4a0f      	ldr	r2, [pc, #60]	; (8001b70 <HAL_MspInit+0x4c>)
 8001b34:	f443 4380 	orr.w	r3, r3, #16384	; 0x4000
 8001b38:	6453      	str	r3, [r2, #68]	; 0x44
 8001b3a:	4b0d      	ldr	r3, [pc, #52]	; (8001b70 <HAL_MspInit+0x4c>)
 8001b3c:	6c5b      	ldr	r3, [r3, #68]	; 0x44
 8001b3e:	f403 4380 	and.w	r3, r3, #16384	; 0x4000
 8001b42:	607b      	str	r3, [r7, #4]
 8001b44:	687b      	ldr	r3, [r7, #4]
  __HAL_RCC_PWR_CLK_ENABLE();
 8001b46:	2300      	movs	r3, #0
 8001b48:	603b      	str	r3, [r7, #0]
 8001b4a:	4b09      	ldr	r3, [pc, #36]	; (8001b70 <HAL_MspInit+0x4c>)
 8001b4c:	6c1b      	ldr	r3, [r3, #64]	; 0x40
 8001b4e:	4a08      	ldr	r2, [pc, #32]	; (8001b70 <HAL_MspInit+0x4c>)
 8001b50:	f043 5380 	orr.w	r3, r3, #268435456	; 0x10000000
 8001b54:	6413      	str	r3, [r2, #64]	; 0x40
 8001b56:	4b06      	ldr	r3, [pc, #24]	; (8001b70 <HAL_MspInit+0x4c>)
 8001b58:	6c1b      	ldr	r3, [r3, #64]	; 0x40
 8001b5a:	f003 5380 	and.w	r3, r3, #268435456	; 0x10000000
 8001b5e:	603b      	str	r3, [r7, #0]
 8001b60:	683b      	ldr	r3, [r7, #0]
  /* System interrupt init*/

  /* USER CODE BEGIN MspInit 1 */

  /* USER CODE END MspInit 1 */
}
 8001b62:	bf00      	nop
 8001b64:	370c      	adds	r7, #12
 8001b66:	46bd      	mov	sp, r7
 8001b68:	f85d 7b04 	ldr.w	r7, [sp], #4
 8001b6c:	4770      	bx	lr
 8001b6e:	bf00      	nop
 8001b70:	40023800 	.word	0x40023800

08001b74 <HAL_ADC_MspInit>:
* This function configures the hardware resources used in this example
* @param hadc: ADC handle pointer
* @retval None
*/
void HAL_ADC_MspInit(ADC_HandleTypeDef* hadc)
{
 8001b74:	b580      	push	{r7, lr}
 8001b76:	b08a      	sub	sp, #40	; 0x28
 8001b78:	af00      	add	r7, sp, #0
 8001b7a:	6078      	str	r0, [r7, #4]
  GPIO_InitTypeDef GPIO_InitStruct = {0};
 8001b7c:	f107 0314 	add.w	r3, r7, #20
 8001b80:	2200      	movs	r2, #0
 8001b82:	601a      	str	r2, [r3, #0]
 8001b84:	605a      	str	r2, [r3, #4]
 8001b86:	609a      	str	r2, [r3, #8]
 8001b88:	60da      	str	r2, [r3, #12]
 8001b8a:	611a      	str	r2, [r3, #16]
  if(hadc->Instance==ADC1)
 8001b8c:	687b      	ldr	r3, [r7, #4]
 8001b8e:	681b      	ldr	r3, [r3, #0]
 8001b90:	4a1b      	ldr	r2, [pc, #108]	; (8001c00 <HAL_ADC_MspInit+0x8c>)
 8001b92:	4293      	cmp	r3, r2
 8001b94:	d12f      	bne.n	8001bf6 <HAL_ADC_MspInit+0x82>
  {
  /* USER CODE BEGIN ADC1_MspInit 0 */

  /* USER CODE END ADC1_MspInit 0 */
    /* Peripheral clock enable */
    __HAL_RCC_ADC1_CLK_ENABLE();
 8001b96:	2300      	movs	r3, #0
 8001b98:	613b      	str	r3, [r7, #16]
 8001b9a:	4b1a      	ldr	r3, [pc, #104]	; (8001c04 <HAL_ADC_MspInit+0x90>)
 8001b9c:	6c5b      	ldr	r3, [r3, #68]	; 0x44
 8001b9e:	4a19      	ldr	r2, [pc, #100]	; (8001c04 <HAL_ADC_MspInit+0x90>)
 8001ba0:	f443 7380 	orr.w	r3, r3, #256	; 0x100
 8001ba4:	6453      	str	r3, [r2, #68]	; 0x44
 8001ba6:	4b17      	ldr	r3, [pc, #92]	; (8001c04 <HAL_ADC_MspInit+0x90>)
 8001ba8:	6c5b      	ldr	r3, [r3, #68]	; 0x44
 8001baa:	f403 7380 	and.w	r3, r3, #256	; 0x100
 8001bae:	613b      	str	r3, [r7, #16]
 8001bb0:	693b      	ldr	r3, [r7, #16]

    __HAL_RCC_GPIOA_CLK_ENABLE();
 8001bb2:	2300      	movs	r3, #0
 8001bb4:	60fb      	str	r3, [r7, #12]
 8001bb6:	4b13      	ldr	r3, [pc, #76]	; (8001c04 <HAL_ADC_MspInit+0x90>)
 8001bb8:	6b1b      	ldr	r3, [r3, #48]	; 0x30
 8001bba:	4a12      	ldr	r2, [pc, #72]	; (8001c04 <HAL_ADC_MspInit+0x90>)
 8001bbc:	f043 0301 	orr.w	r3, r3, #1
 8001bc0:	6313      	str	r3, [r2, #48]	; 0x30
 8001bc2:	4b10      	ldr	r3, [pc, #64]	; (8001c04 <HAL_ADC_MspInit+0x90>)
 8001bc4:	6b1b      	ldr	r3, [r3, #48]	; 0x30
 8001bc6:	f003 0301 	and.w	r3, r3, #1
 8001bca:	60fb      	str	r3, [r7, #12]
 8001bcc:	68fb      	ldr	r3, [r7, #12]
    /**ADC1 GPIO Configuration
    PA3     ------> ADC1_IN3
    */
    GPIO_InitStruct.Pin = GPIO_PIN_3;
 8001bce:	2308      	movs	r3, #8
 8001bd0:	617b      	str	r3, [r7, #20]
    GPIO_InitStruct.Mode = GPIO_MODE_ANALOG;
 8001bd2:	2303      	movs	r3, #3
 8001bd4:	61bb      	str	r3, [r7, #24]
    GPIO_InitStruct.Pull = GPIO_NOPULL;
 8001bd6:	2300      	movs	r3, #0
 8001bd8:	61fb      	str	r3, [r7, #28]
    HAL_GPIO_Init(GPIOA, &GPIO_InitStruct);
 8001bda:	f107 0314 	add.w	r3, r7, #20
 8001bde:	4619      	mov	r1, r3
 8001be0:	4809      	ldr	r0, [pc, #36]	; (8001c08 <HAL_ADC_MspInit+0x94>)
 8001be2:	f000 ff5b 	bl	8002a9c <HAL_GPIO_Init>

    /* ADC1 interrupt Init */
    HAL_NVIC_SetPriority(ADC_IRQn, 0, 0);
 8001be6:	2200      	movs	r2, #0
 8001be8:	2100      	movs	r1, #0
 8001bea:	2012      	movs	r0, #18
 8001bec:	f000 ff1f 	bl	8002a2e <HAL_NVIC_SetPriority>
    HAL_NVIC_EnableIRQ(ADC_IRQn);
 8001bf0:	2012      	movs	r0, #18
 8001bf2:	f000 ff38 	bl	8002a66 <HAL_NVIC_EnableIRQ>
  /* USER CODE BEGIN ADC1_MspInit 1 */

  /* USER CODE END ADC1_MspInit 1 */
  }

}
 8001bf6:	bf00      	nop
 8001bf8:	3728      	adds	r7, #40	; 0x28
 8001bfa:	46bd      	mov	sp, r7
 8001bfc:	bd80      	pop	{r7, pc}
 8001bfe:	bf00      	nop
 8001c00:	40012000 	.word	0x40012000
 8001c04:	40023800 	.word	0x40023800
 8001c08:	40020000 	.word	0x40020000

08001c0c <HAL_I2C_MspInit>:
* This function configures the hardware resources used in this example
* @param hi2c: I2C handle pointer
* @retval None
*/
void HAL_I2C_MspInit(I2C_HandleTypeDef* hi2c)
{
 8001c0c:	b580      	push	{r7, lr}
 8001c0e:	b08a      	sub	sp, #40	; 0x28
 8001c10:	af00      	add	r7, sp, #0
 8001c12:	6078      	str	r0, [r7, #4]
  GPIO_InitTypeDef GPIO_InitStruct = {0};
 8001c14:	f107 0314 	add.w	r3, r7, #20
 8001c18:	2200      	movs	r2, #0
 8001c1a:	601a      	str	r2, [r3, #0]
 8001c1c:	605a      	str	r2, [r3, #4]
 8001c1e:	609a      	str	r2, [r3, #8]
 8001c20:	60da      	str	r2, [r3, #12]
 8001c22:	611a      	str	r2, [r3, #16]
  if(hi2c->Instance==I2C1)
 8001c24:	687b      	ldr	r3, [r7, #4]
 8001c26:	681b      	ldr	r3, [r3, #0]
 8001c28:	4a19      	ldr	r2, [pc, #100]	; (8001c90 <HAL_I2C_MspInit+0x84>)
 8001c2a:	4293      	cmp	r3, r2
 8001c2c:	d12b      	bne.n	8001c86 <HAL_I2C_MspInit+0x7a>
  {
  /* USER CODE BEGIN I2C1_MspInit 0 */

  /* USER CODE END I2C1_MspInit 0 */

    __HAL_RCC_GPIOB_CLK_ENABLE();
 8001c2e:	2300      	movs	r3, #0
 8001c30:	613b      	str	r3, [r7, #16]
 8001c32:	4b18      	ldr	r3, [pc, #96]	; (8001c94 <HAL_I2C_MspInit+0x88>)
 8001c34:	6b1b      	ldr	r3, [r3, #48]	; 0x30
 8001c36:	4a17      	ldr	r2, [pc, #92]	; (8001c94 <HAL_I2C_MspInit+0x88>)
 8001c38:	f043 0302 	orr.w	r3, r3, #2
 8001c3c:	6313      	str	r3, [r2, #48]	; 0x30
 8001c3e:	4b15      	ldr	r3, [pc, #84]	; (8001c94 <HAL_I2C_MspInit+0x88>)
 8001c40:	6b1b      	ldr	r3, [r3, #48]	; 0x30
 8001c42:	f003 0302 	and.w	r3, r3, #2
 8001c46:	613b      	str	r3, [r7, #16]
 8001c48:	693b      	ldr	r3, [r7, #16]
    /**I2C1 GPIO Configuration
    PB6     ------> I2C1_SCL
    PB7     ------> I2C1_SDA
    */
    GPIO_InitStruct.Pin = GPIO_PIN_6|GPIO_PIN_7;
 8001c4a:	23c0      	movs	r3, #192	; 0xc0
 8001c4c:	617b      	str	r3, [r7, #20]
    GPIO_InitStruct.Mode = GPIO_MODE_AF_OD;
 8001c4e:	2312      	movs	r3, #18
 8001c50:	61bb      	str	r3, [r7, #24]
    GPIO_InitStruct.Pull = GPIO_NOPULL;
 8001c52:	2300      	movs	r3, #0
 8001c54:	61fb      	str	r3, [r7, #28]
    GPIO_InitStruct.Speed = GPIO_SPEED_FREQ_VERY_HIGH;
 8001c56:	2303      	movs	r3, #3
 8001c58:	623b      	str	r3, [r7, #32]
    GPIO_InitStruct.Alternate = GPIO_AF4_I2C1;
 8001c5a:	2304      	movs	r3, #4
 8001c5c:	627b      	str	r3, [r7, #36]	; 0x24
    HAL_GPIO_Init(GPIOB, &GPIO_InitStruct);
 8001c5e:	f107 0314 	add.w	r3, r7, #20
 8001c62:	4619      	mov	r1, r3
 8001c64:	480c      	ldr	r0, [pc, #48]	; (8001c98 <HAL_I2C_MspInit+0x8c>)
 8001c66:	f000 ff19 	bl	8002a9c <HAL_GPIO_Init>

    /* Peripheral clock enable */
    __HAL_RCC_I2C1_CLK_ENABLE();
 8001c6a:	2300      	movs	r3, #0
 8001c6c:	60fb      	str	r3, [r7, #12]
 8001c6e:	4b09      	ldr	r3, [pc, #36]	; (8001c94 <HAL_I2C_MspInit+0x88>)
 8001c70:	6c1b      	ldr	r3, [r3, #64]	; 0x40
 8001c72:	4a08      	ldr	r2, [pc, #32]	; (8001c94 <HAL_I2C_MspInit+0x88>)
 8001c74:	f443 1300 	orr.w	r3, r3, #2097152	; 0x200000
 8001c78:	6413      	str	r3, [r2, #64]	; 0x40
 8001c7a:	4b06      	ldr	r3, [pc, #24]	; (8001c94 <HAL_I2C_MspInit+0x88>)
 8001c7c:	6c1b      	ldr	r3, [r3, #64]	; 0x40
 8001c7e:	f403 1300 	and.w	r3, r3, #2097152	; 0x200000
 8001c82:	60fb      	str	r3, [r7, #12]
 8001c84:	68fb      	ldr	r3, [r7, #12]
  /* USER CODE BEGIN I2C1_MspInit 1 */

  /* USER CODE END I2C1_MspInit 1 */
  }

}
 8001c86:	bf00      	nop
 8001c88:	3728      	adds	r7, #40	; 0x28
 8001c8a:	46bd      	mov	sp, r7
 8001c8c:	bd80      	pop	{r7, pc}
 8001c8e:	bf00      	nop
 8001c90:	40005400 	.word	0x40005400
 8001c94:	40023800 	.word	0x40023800
 8001c98:	40020400 	.word	0x40020400

08001c9c <HAL_TIM_Base_MspInit>:
* This function configures the hardware resources used in this example
* @param htim_base: TIM_Base handle pointer
* @retval None
*/
void HAL_TIM_Base_MspInit(TIM_HandleTypeDef* htim_base)
{
 8001c9c:	b580      	push	{r7, lr}
 8001c9e:	b084      	sub	sp, #16
 8001ca0:	af00      	add	r7, sp, #0
 8001ca2:	6078      	str	r0, [r7, #4]
  if(htim_base->Instance==TIM4)
 8001ca4:	687b      	ldr	r3, [r7, #4]
 8001ca6:	681b      	ldr	r3, [r3, #0]
 8001ca8:	4a0e      	ldr	r2, [pc, #56]	; (8001ce4 <HAL_TIM_Base_MspInit+0x48>)
 8001caa:	4293      	cmp	r3, r2
 8001cac:	d115      	bne.n	8001cda <HAL_TIM_Base_MspInit+0x3e>
  {
  /* USER CODE BEGIN TIM4_MspInit 0 */

  /* USER CODE END TIM4_MspInit 0 */
    /* Peripheral clock enable */
    __HAL_RCC_TIM4_CLK_ENABLE();
 8001cae:	2300      	movs	r3, #0
 8001cb0:	60fb      	str	r3, [r7, #12]
 8001cb2:	4b0d      	ldr	r3, [pc, #52]	; (8001ce8 <HAL_TIM_Base_MspInit+0x4c>)
 8001cb4:	6c1b      	ldr	r3, [r3, #64]	; 0x40
 8001cb6:	4a0c      	ldr	r2, [pc, #48]	; (8001ce8 <HAL_TIM_Base_MspInit+0x4c>)
 8001cb8:	f043 0304 	orr.w	r3, r3, #4
 8001cbc:	6413      	str	r3, [r2, #64]	; 0x40
 8001cbe:	4b0a      	ldr	r3, [pc, #40]	; (8001ce8 <HAL_TIM_Base_MspInit+0x4c>)
 8001cc0:	6c1b      	ldr	r3, [r3, #64]	; 0x40
 8001cc2:	f003 0304 	and.w	r3, r3, #4
 8001cc6:	60fb      	str	r3, [r7, #12]
 8001cc8:	68fb      	ldr	r3, [r7, #12]
    /* TIM4 interrupt Init */
    HAL_NVIC_SetPriority(TIM4_IRQn, 0, 0);
 8001cca:	2200      	movs	r2, #0
 8001ccc:	2100      	movs	r1, #0
 8001cce:	201e      	movs	r0, #30
 8001cd0:	f000 fead 	bl	8002a2e <HAL_NVIC_SetPriority>
    HAL_NVIC_EnableIRQ(TIM4_IRQn);
 8001cd4:	201e      	movs	r0, #30
 8001cd6:	f000 fec6 	bl	8002a66 <HAL_NVIC_EnableIRQ>
  /* USER CODE BEGIN TIM4_MspInit 1 */

  /* USER CODE END TIM4_MspInit 1 */
  }

}
 8001cda:	bf00      	nop
 8001cdc:	3710      	adds	r7, #16
 8001cde:	46bd      	mov	sp, r7
 8001ce0:	bd80      	pop	{r7, pc}
 8001ce2:	bf00      	nop
 8001ce4:	40000800 	.word	0x40000800
 8001ce8:	40023800 	.word	0x40023800

08001cec <HAL_TIM_MspPostInit>:

void HAL_TIM_MspPostInit(TIM_HandleTypeDef* htim)
{
 8001cec:	b580      	push	{r7, lr}
 8001cee:	b088      	sub	sp, #32
 8001cf0:	af00      	add	r7, sp, #0
 8001cf2:	6078      	str	r0, [r7, #4]
  GPIO_InitTypeDef GPIO_InitStruct = {0};
 8001cf4:	f107 030c 	add.w	r3, r7, #12
 8001cf8:	2200      	movs	r2, #0
 8001cfa:	601a      	str	r2, [r3, #0]
 8001cfc:	605a      	str	r2, [r3, #4]
 8001cfe:	609a      	str	r2, [r3, #8]
 8001d00:	60da      	str	r2, [r3, #12]
 8001d02:	611a      	str	r2, [r3, #16]
  if(htim->Instance==TIM4)
 8001d04:	687b      	ldr	r3, [r7, #4]
 8001d06:	681b      	ldr	r3, [r3, #0]
 8001d08:	4a12      	ldr	r2, [pc, #72]	; (8001d54 <HAL_TIM_MspPostInit+0x68>)
 8001d0a:	4293      	cmp	r3, r2
 8001d0c:	d11e      	bne.n	8001d4c <HAL_TIM_MspPostInit+0x60>
  {
  /* USER CODE BEGIN TIM4_MspPostInit 0 */

  /* USER CODE END TIM4_MspPostInit 0 */

    __HAL_RCC_GPIOD_CLK_ENABLE();
 8001d0e:	2300      	movs	r3, #0
 8001d10:	60bb      	str	r3, [r7, #8]
 8001d12:	4b11      	ldr	r3, [pc, #68]	; (8001d58 <HAL_TIM_MspPostInit+0x6c>)
 8001d14:	6b1b      	ldr	r3, [r3, #48]	; 0x30
 8001d16:	4a10      	ldr	r2, [pc, #64]	; (8001d58 <HAL_TIM_MspPostInit+0x6c>)
 8001d18:	f043 0308 	orr.w	r3, r3, #8
 8001d1c:	6313      	str	r3, [r2, #48]	; 0x30
 8001d1e:	4b0e      	ldr	r3, [pc, #56]	; (8001d58 <HAL_TIM_MspPostInit+0x6c>)
 8001d20:	6b1b      	ldr	r3, [r3, #48]	; 0x30
 8001d22:	f003 0308 	and.w	r3, r3, #8
 8001d26:	60bb      	str	r3, [r7, #8]
 8001d28:	68bb      	ldr	r3, [r7, #8]
    /**TIM4 GPIO Configuration
    PD12     ------> TIM4_CH1
    PD14     ------> TIM4_CH3
    PD15     ------> TIM4_CH4
    */
    GPIO_InitStruct.Pin = GPIO_PIN_12|GPIO_PIN_14|GPIO_PIN_15;
 8001d2a:	f44f 4350 	mov.w	r3, #53248	; 0xd000
 8001d2e:	60fb      	str	r3, [r7, #12]
    GPIO_InitStruct.Mode = GPIO_MODE_AF_PP;
 8001d30:	2302      	movs	r3, #2
 8001d32:	613b      	str	r3, [r7, #16]
    GPIO_InitStruct.Pull = GPIO_NOPULL;
 8001d34:	2300      	movs	r3, #0
 8001d36:	617b      	str	r3, [r7, #20]
    GPIO_InitStruct.Speed = GPIO_SPEED_FREQ_LOW;
 8001d38:	2300      	movs	r3, #0
 8001d3a:	61bb      	str	r3, [r7, #24]
    GPIO_InitStruct.Alternate = GPIO_AF2_TIM4;
 8001d3c:	2302      	movs	r3, #2
 8001d3e:	61fb      	str	r3, [r7, #28]
    HAL_GPIO_Init(GPIOD, &GPIO_InitStruct);
 8001d40:	f107 030c 	add.w	r3, r7, #12
 8001d44:	4619      	mov	r1, r3
 8001d46:	4805      	ldr	r0, [pc, #20]	; (8001d5c <HAL_TIM_MspPostInit+0x70>)
 8001d48:	f000 fea8 	bl	8002a9c <HAL_GPIO_Init>
  /* USER CODE BEGIN TIM4_MspPostInit 1 */

  /* USER CODE END TIM4_MspPostInit 1 */
  }

}
 8001d4c:	bf00      	nop
 8001d4e:	3720      	adds	r7, #32
 8001d50:	46bd      	mov	sp, r7
 8001d52:	bd80      	pop	{r7, pc}
 8001d54:	40000800 	.word	0x40000800
 8001d58:	40023800 	.word	0x40023800
 8001d5c:	40020c00 	.word	0x40020c00

08001d60 <NMI_Handler>:
/******************************************************************************/
/**
  * @brief This function handles Non maskable interrupt.
  */
void NMI_Handler(void)
{
 8001d60:	b480      	push	{r7}
 8001d62:	af00      	add	r7, sp, #0
  /* USER CODE BEGIN NonMaskableInt_IRQn 0 */

  /* USER CODE END NonMaskableInt_IRQn 0 */
  /* USER CODE BEGIN NonMaskableInt_IRQn 1 */
   while (1)
 8001d64:	e7fe      	b.n	8001d64 <NMI_Handler+0x4>

08001d66 <HardFault_Handler>:

/**
  * @brief This function handles Hard fault interrupt.
  */
void HardFault_Handler(void)
{
 8001d66:	b480      	push	{r7}
 8001d68:	af00      	add	r7, sp, #0
  /* USER CODE BEGIN HardFault_IRQn 0 */

  /* USER CODE END HardFault_IRQn 0 */
  while (1)
 8001d6a:	e7fe      	b.n	8001d6a <HardFault_Handler+0x4>

08001d6c <MemManage_Handler>:

/**
  * @brief This function handles Memory management fault.
  */
void MemManage_Handler(void)
{
 8001d6c:	b480      	push	{r7}
 8001d6e:	af00      	add	r7, sp, #0
  /* USER CODE BEGIN MemoryManagement_IRQn 0 */

  /* USER CODE END MemoryManagement_IRQn 0 */
  while (1)
 8001d70:	e7fe      	b.n	8001d70 <MemManage_Handler+0x4>

08001d72 <BusFault_Handler>:

/**
  * @brief This function handles Pre-fetch fault, memory access fault.
  */
void BusFault_Handler(void)
{
 8001d72:	b480      	push	{r7}
 8001d74:	af00      	add	r7, sp, #0
  /* USER CODE BEGIN BusFault_IRQn 0 */

  /* USER CODE END BusFault_IRQn 0 */
  while (1)
 8001d76:	e7fe      	b.n	8001d76 <BusFault_Handler+0x4>

08001d78 <UsageFault_Handler>:

/**
  * @brief This function handles Undefined instruction or illegal state.
  */
void UsageFault_Handler(void)
{
 8001d78:	b480      	push	{r7}
 8001d7a:	af00      	add	r7, sp, #0
  /* USER CODE BEGIN UsageFault_IRQn 0 */

  /* USER CODE END UsageFault_IRQn 0 */
  while (1)
 8001d7c:	e7fe      	b.n	8001d7c <UsageFault_Handler+0x4>

08001d7e <SVC_Handler>:

/**
  * @brief This function handles System service call via SWI instruction.
  */
void SVC_Handler(void)
{
 8001d7e:	b480      	push	{r7}
 8001d80:	af00      	add	r7, sp, #0

  /* USER CODE END SVCall_IRQn 0 */
  /* USER CODE BEGIN SVCall_IRQn 1 */

  /* USER CODE END SVCall_IRQn 1 */
}
 8001d82:	bf00      	nop
 8001d84:	46bd      	mov	sp, r7
 8001d86:	f85d 7b04 	ldr.w	r7, [sp], #4
 8001d8a:	4770      	bx	lr

08001d8c <DebugMon_Handler>:

/**
  * @brief This function handles Debug monitor.
  */
void DebugMon_Handler(void)
{
 8001d8c:	b480      	push	{r7}
 8001d8e:	af00      	add	r7, sp, #0

  /* USER CODE END DebugMonitor_IRQn 0 */
  /* USER CODE BEGIN DebugMonitor_IRQn 1 */

  /* USER CODE END DebugMonitor_IRQn 1 */
}
 8001d90:	bf00      	nop
 8001d92:	46bd      	mov	sp, r7
 8001d94:	f85d 7b04 	ldr.w	r7, [sp], #4
 8001d98:	4770      	bx	lr

08001d9a <PendSV_Handler>:

/**
  * @brief This function handles Pendable request for system service.
  */
void PendSV_Handler(void)
{
 8001d9a:	b480      	push	{r7}
 8001d9c:	af00      	add	r7, sp, #0

  /* USER CODE END PendSV_IRQn 0 */
  /* USER CODE BEGIN PendSV_IRQn 1 */

  /* USER CODE END PendSV_IRQn 1 */
}
 8001d9e:	bf00      	nop
 8001da0:	46bd      	mov	sp, r7
 8001da2:	f85d 7b04 	ldr.w	r7, [sp], #4
 8001da6:	4770      	bx	lr

08001da8 <SysTick_Handler>:

/**
  * @brief This function handles System tick timer.
  */
void SysTick_Handler(void)
{
 8001da8:	b580      	push	{r7, lr}
 8001daa:	af00      	add	r7, sp, #0
  /* USER CODE BEGIN SysTick_IRQn 0 */

  /* USER CODE END SysTick_IRQn 0 */
  HAL_IncTick();
 8001dac:	f000 f8a4 	bl	8001ef8 <HAL_IncTick>
  /* USER CODE BEGIN SysTick_IRQn 1 */

  /* USER CODE END SysTick_IRQn 1 */
}
 8001db0:	bf00      	nop
 8001db2:	bd80      	pop	{r7, pc}

08001db4 <ADC_IRQHandler>:

/**
  * @brief This function handles ADC1, ADC2 and ADC3 global interrupts.
  */
void ADC_IRQHandler(void)
{
 8001db4:	b580      	push	{r7, lr}
 8001db6:	af00      	add	r7, sp, #0
  /* USER CODE BEGIN ADC_IRQn 0 */

  /* USER CODE END ADC_IRQn 0 */
  HAL_ADC_IRQHandler(&hadc1);
 8001db8:	4802      	ldr	r0, [pc, #8]	; (8001dc4 <ADC_IRQHandler+0x10>)
 8001dba:	f000 fa03 	bl	80021c4 <HAL_ADC_IRQHandler>
  /* USER CODE BEGIN ADC_IRQn 1 */

  /* USER CODE END ADC_IRQn 1 */
}
 8001dbe:	bf00      	nop
 8001dc0:	bd80      	pop	{r7, pc}
 8001dc2:	bf00      	nop
 8001dc4:	20000030 	.word	0x20000030

08001dc8 <TIM4_IRQHandler>:

/**
  * @brief This function handles TIM4 global interrupt.
  */
void TIM4_IRQHandler(void)
{
 8001dc8:	b580      	push	{r7, lr}
 8001dca:	af00      	add	r7, sp, #0
  /* USER CODE BEGIN TIM4_IRQn 0 */

  /* USER CODE END TIM4_IRQn 0 */
  HAL_TIM_IRQHandler(&htim4);
 8001dcc:	4802      	ldr	r0, [pc, #8]	; (8001dd8 <TIM4_IRQHandler+0x10>)
 8001dce:	f002 fdc9 	bl	8004964 <HAL_TIM_IRQHandler>
  /* USER CODE BEGIN TIM4_IRQn 1 */

  /* USER CODE END TIM4_IRQn 1 */
}
 8001dd2:	bf00      	nop
 8001dd4:	bd80      	pop	{r7, pc}
 8001dd6:	bf00      	nop
 8001dd8:	200000cc 	.word	0x200000cc

08001ddc <SystemInit>:
  *         configuration.
  * @param  None
  * @retval None
  */
void SystemInit(void)
{
 8001ddc:	b480      	push	{r7}
 8001dde:	af00      	add	r7, sp, #0
  /* FPU settings ------------------------------------------------------------*/
  #if (__FPU_PRESENT == 1) && (__FPU_USED == 1)
    SCB->CPACR |= ((3UL << 10*2)|(3UL << 11*2));  /* set CP10 and CP11 Full Access */
 8001de0:	4b06      	ldr	r3, [pc, #24]	; (8001dfc <SystemInit+0x20>)
 8001de2:	f8d3 3088 	ldr.w	r3, [r3, #136]	; 0x88
 8001de6:	4a05      	ldr	r2, [pc, #20]	; (8001dfc <SystemInit+0x20>)
 8001de8:	f443 0370 	orr.w	r3, r3, #15728640	; 0xf00000
 8001dec:	f8c2 3088 	str.w	r3, [r2, #136]	; 0x88

  /* Configure the Vector Table location -------------------------------------*/
#if defined(USER_VECT_TAB_ADDRESS)
  SCB->VTOR = VECT_TAB_BASE_ADDRESS | VECT_TAB_OFFSET; /* Vector Table Relocation in Internal SRAM */
#endif /* USER_VECT_TAB_ADDRESS */
}
 8001df0:	bf00      	nop
 8001df2:	46bd      	mov	sp, r7
 8001df4:	f85d 7b04 	ldr.w	r7, [sp], #4
 8001df8:	4770      	bx	lr
 8001dfa:	bf00      	nop
 8001dfc:	e000ed00 	.word	0xe000ed00

08001e00 <Reset_Handler>:

    .section  .text.Reset_Handler
  .weak  Reset_Handler
  .type  Reset_Handler, %function
Reset_Handler:  
  ldr   sp, =_estack     /* set stack pointer */
 8001e00:	f8df d034 	ldr.w	sp, [pc, #52]	; 8001e38 <LoopFillZerobss+0xe>
  
/* Call the clock system initialization function.*/
  bl  SystemInit  
 8001e04:	f7ff ffea 	bl	8001ddc <SystemInit>

/* Copy the data segment initializers from flash to SRAM */  
  ldr r0, =_sdata
 8001e08:	480c      	ldr	r0, [pc, #48]	; (8001e3c <LoopFillZerobss+0x12>)
  ldr r1, =_edata
 8001e0a:	490d      	ldr	r1, [pc, #52]	; (8001e40 <LoopFillZerobss+0x16>)
  ldr r2, =_sidata
 8001e0c:	4a0d      	ldr	r2, [pc, #52]	; (8001e44 <LoopFillZerobss+0x1a>)
  movs r3, #0
 8001e0e:	2300      	movs	r3, #0
  b LoopCopyDataInit
 8001e10:	e002      	b.n	8001e18 <LoopCopyDataInit>

08001e12 <CopyDataInit>:

CopyDataInit:
  ldr r4, [r2, r3]
 8001e12:	58d4      	ldr	r4, [r2, r3]
  str r4, [r0, r3]
 8001e14:	50c4      	str	r4, [r0, r3]
  adds r3, r3, #4
 8001e16:	3304      	adds	r3, #4

08001e18 <LoopCopyDataInit>:

LoopCopyDataInit:
  adds r4, r0, r3
 8001e18:	18c4      	adds	r4, r0, r3
  cmp r4, r1
 8001e1a:	428c      	cmp	r4, r1
  bcc CopyDataInit
 8001e1c:	d3f9      	bcc.n	8001e12 <CopyDataInit>
  
/* Zero fill the bss segment. */
  ldr r2, =_sbss
 8001e1e:	4a0a      	ldr	r2, [pc, #40]	; (8001e48 <LoopFillZerobss+0x1e>)
  ldr r4, =_ebss
 8001e20:	4c0a      	ldr	r4, [pc, #40]	; (8001e4c <LoopFillZerobss+0x22>)
  movs r3, #0
 8001e22:	2300      	movs	r3, #0
  b LoopFillZerobss
 8001e24:	e001      	b.n	8001e2a <LoopFillZerobss>

08001e26 <FillZerobss>:

FillZerobss:
  str  r3, [r2]
 8001e26:	6013      	str	r3, [r2, #0]
  adds r2, r2, #4
 8001e28:	3204      	adds	r2, #4

08001e2a <LoopFillZerobss>:

LoopFillZerobss:
  cmp r2, r4
 8001e2a:	42a2      	cmp	r2, r4
  bcc FillZerobss
 8001e2c:	d3fb      	bcc.n	8001e26 <FillZerobss>

/* Call static constructors */
    bl __libc_init_array
 8001e2e:	f003 fbf9 	bl	8005624 <__libc_init_array>
/* Call the application's entry point.*/
  bl  main
 8001e32:	f7ff faaf 	bl	8001394 <main>
  bx  lr    
 8001e36:	4770      	bx	lr
  ldr   sp, =_estack     /* set stack pointer */
 8001e38:	20020000 	.word	0x20020000
  ldr r0, =_sdata
 8001e3c:	20000000 	.word	0x20000000
  ldr r1, =_edata
 8001e40:	20000014 	.word	0x20000014
  ldr r2, =_sidata
 8001e44:	080056c8 	.word	0x080056c8
  ldr r2, =_sbss
 8001e48:	20000014 	.word	0x20000014
  ldr r4, =_ebss
 8001e4c:	2000011c 	.word	0x2000011c

08001e50 <CAN1_RX0_IRQHandler>:
 * @retval None       
*/
    .section  .text.Default_Handler,"ax",%progbits
Default_Handler:
Infinite_Loop:
  b  Infinite_Loop
 8001e50:	e7fe      	b.n	8001e50 <CAN1_RX0_IRQHandler>
	...

08001e54 <HAL_Init>:
  *         need to ensure that the SysTick time base is always set to 1 millisecond
  *         to have correct HAL operation.
  * @retval HAL status
  */
HAL_StatusTypeDef HAL_Init(void)
{
 8001e54:	b580      	push	{r7, lr}
 8001e56:	af00      	add	r7, sp, #0
  /* Configure Flash prefetch, Instruction cache, Data cache */ 
#if (INSTRUCTION_CACHE_ENABLE != 0U)
  __HAL_FLASH_INSTRUCTION_CACHE_ENABLE();
 8001e58:	4b0e      	ldr	r3, [pc, #56]	; (8001e94 <HAL_Init+0x40>)
 8001e5a:	681b      	ldr	r3, [r3, #0]
 8001e5c:	4a0d      	ldr	r2, [pc, #52]	; (8001e94 <HAL_Init+0x40>)
 8001e5e:	f443 7300 	orr.w	r3, r3, #512	; 0x200
 8001e62:	6013      	str	r3, [r2, #0]
#endif /* INSTRUCTION_CACHE_ENABLE */

#if (DATA_CACHE_ENABLE != 0U)
  __HAL_FLASH_DATA_CACHE_ENABLE();
 8001e64:	4b0b      	ldr	r3, [pc, #44]	; (8001e94 <HAL_Init+0x40>)
 8001e66:	681b      	ldr	r3, [r3, #0]
 8001e68:	4a0a      	ldr	r2, [pc, #40]	; (8001e94 <HAL_Init+0x40>)
 8001e6a:	f443 6380 	orr.w	r3, r3, #1024	; 0x400
 8001e6e:	6013      	str	r3, [r2, #0]
#endif /* DATA_CACHE_ENABLE */

#if (PREFETCH_ENABLE != 0U)
  __HAL_FLASH_PREFETCH_BUFFER_ENABLE();
 8001e70:	4b08      	ldr	r3, [pc, #32]	; (8001e94 <HAL_Init+0x40>)
 8001e72:	681b      	ldr	r3, [r3, #0]
 8001e74:	4a07      	ldr	r2, [pc, #28]	; (8001e94 <HAL_Init+0x40>)
 8001e76:	f443 7380 	orr.w	r3, r3, #256	; 0x100
 8001e7a:	6013      	str	r3, [r2, #0]
#endif /* PREFETCH_ENABLE */

  /* Set Interrupt Group Priority */
  HAL_NVIC_SetPriorityGrouping(NVIC_PRIORITYGROUP_4);
 8001e7c:	2003      	movs	r0, #3
 8001e7e:	f000 fdcb 	bl	8002a18 <HAL_NVIC_SetPriorityGrouping>

  /* Use systick as time base source and configure 1ms tick (default clock after Reset is HSI) */
  HAL_InitTick(TICK_INT_PRIORITY);
 8001e82:	200f      	movs	r0, #15
 8001e84:	f000 f808 	bl	8001e98 <HAL_InitTick>

  /* Init the low level hardware */
  HAL_MspInit();
 8001e88:	f7ff fe4c 	bl	8001b24 <HAL_MspInit>

  /* Return function status */
  return HAL_OK;
 8001e8c:	2300      	movs	r3, #0
}
 8001e8e:	4618      	mov	r0, r3
 8001e90:	bd80      	pop	{r7, pc}
 8001e92:	bf00      	nop
 8001e94:	40023c00 	.word	0x40023c00

08001e98 <HAL_InitTick>:
  *       implementation  in user file.
  * @param TickPriority Tick interrupt priority.
  * @retval HAL status
  */
__weak HAL_StatusTypeDef HAL_InitTick(uint32_t TickPriority)
{
 8001e98:	b580      	push	{r7, lr}
 8001e9a:	b082      	sub	sp, #8
 8001e9c:	af00      	add	r7, sp, #0
 8001e9e:	6078      	str	r0, [r7, #4]
  /* Configure the SysTick to have interrupt in 1ms time basis*/
  if (HAL_SYSTICK_Config(SystemCoreClock / (1000U / uwTickFreq)) > 0U)
 8001ea0:	4b12      	ldr	r3, [pc, #72]	; (8001eec <HAL_InitTick+0x54>)
 8001ea2:	681a      	ldr	r2, [r3, #0]
 8001ea4:	4b12      	ldr	r3, [pc, #72]	; (8001ef0 <HAL_InitTick+0x58>)
 8001ea6:	781b      	ldrb	r3, [r3, #0]
 8001ea8:	4619      	mov	r1, r3
 8001eaa:	f44f 737a 	mov.w	r3, #1000	; 0x3e8
 8001eae:	fbb3 f3f1 	udiv	r3, r3, r1
 8001eb2:	fbb2 f3f3 	udiv	r3, r2, r3
 8001eb6:	4618      	mov	r0, r3
 8001eb8:	f000 fde3 	bl	8002a82 <HAL_SYSTICK_Config>
 8001ebc:	4603      	mov	r3, r0
 8001ebe:	2b00      	cmp	r3, #0
 8001ec0:	d001      	beq.n	8001ec6 <HAL_InitTick+0x2e>
  {
    return HAL_ERROR;
 8001ec2:	2301      	movs	r3, #1
 8001ec4:	e00e      	b.n	8001ee4 <HAL_InitTick+0x4c>
  }

  /* Configure the SysTick IRQ priority */
  if (TickPriority < (1UL << __NVIC_PRIO_BITS))
 8001ec6:	687b      	ldr	r3, [r7, #4]
 8001ec8:	2b0f      	cmp	r3, #15
 8001eca:	d80a      	bhi.n	8001ee2 <HAL_InitTick+0x4a>
  {
    HAL_NVIC_SetPriority(SysTick_IRQn, TickPriority, 0U);
 8001ecc:	2200      	movs	r2, #0
 8001ece:	6879      	ldr	r1, [r7, #4]
 8001ed0:	f04f 30ff 	mov.w	r0, #4294967295
 8001ed4:	f000 fdab 	bl	8002a2e <HAL_NVIC_SetPriority>
    uwTickPrio = TickPriority;
 8001ed8:	4a06      	ldr	r2, [pc, #24]	; (8001ef4 <HAL_InitTick+0x5c>)
 8001eda:	687b      	ldr	r3, [r7, #4]
 8001edc:	6013      	str	r3, [r2, #0]
  {
    return HAL_ERROR;
  }

  /* Return function status */
  return HAL_OK;
 8001ede:	2300      	movs	r3, #0
 8001ee0:	e000      	b.n	8001ee4 <HAL_InitTick+0x4c>
    return HAL_ERROR;
 8001ee2:	2301      	movs	r3, #1
}
 8001ee4:	4618      	mov	r0, r3
 8001ee6:	3708      	adds	r7, #8
 8001ee8:	46bd      	mov	sp, r7
 8001eea:	bd80      	pop	{r7, pc}
 8001eec:	20000008 	.word	0x20000008
 8001ef0:	20000010 	.word	0x20000010
 8001ef4:	2000000c 	.word	0x2000000c

08001ef8 <HAL_IncTick>:
 * @note This function is declared as __weak to be overwritten in case of other 
  *      implementations in user file.
  * @retval None
  */
__weak void HAL_IncTick(void)
{
 8001ef8:	b480      	push	{r7}
 8001efa:	af00      	add	r7, sp, #0
  uwTick += uwTickFreq;
 8001efc:	4b06      	ldr	r3, [pc, #24]	; (8001f18 <HAL_IncTick+0x20>)
 8001efe:	781b      	ldrb	r3, [r3, #0]
 8001f00:	461a      	mov	r2, r3
 8001f02:	4b06      	ldr	r3, [pc, #24]	; (8001f1c <HAL_IncTick+0x24>)
 8001f04:	681b      	ldr	r3, [r3, #0]
 8001f06:	4413      	add	r3, r2
 8001f08:	4a04      	ldr	r2, [pc, #16]	; (8001f1c <HAL_IncTick+0x24>)
 8001f0a:	6013      	str	r3, [r2, #0]
}
 8001f0c:	bf00      	nop
 8001f0e:	46bd      	mov	sp, r7
 8001f10:	f85d 7b04 	ldr.w	r7, [sp], #4
 8001f14:	4770      	bx	lr
 8001f16:	bf00      	nop
 8001f18:	20000010 	.word	0x20000010
 8001f1c:	20000118 	.word	0x20000118

08001f20 <HAL_GetTick>:
  * @note This function is declared as __weak to be overwritten in case of other 
  *       implementations in user file.
  * @retval tick value
  */
__weak uint32_t HAL_GetTick(void)
{
 8001f20:	b480      	push	{r7}
 8001f22:	af00      	add	r7, sp, #0
  return uwTick;
 8001f24:	4b03      	ldr	r3, [pc, #12]	; (8001f34 <HAL_GetTick+0x14>)
 8001f26:	681b      	ldr	r3, [r3, #0]
}
 8001f28:	4618      	mov	r0, r3
 8001f2a:	46bd      	mov	sp, r7
 8001f2c:	f85d 7b04 	ldr.w	r7, [sp], #4
 8001f30:	4770      	bx	lr
 8001f32:	bf00      	nop
 8001f34:	20000118 	.word	0x20000118

08001f38 <HAL_Delay>:
  *       implementations in user file.
  * @param Delay specifies the delay time length, in milliseconds.
  * @retval None
  */
__weak void HAL_Delay(uint32_t Delay)
{
 8001f38:	b580      	push	{r7, lr}
 8001f3a:	b084      	sub	sp, #16
 8001f3c:	af00      	add	r7, sp, #0
 8001f3e:	6078      	str	r0, [r7, #4]
  uint32_t tickstart = HAL_GetTick();
 8001f40:	f7ff ffee 	bl	8001f20 <HAL_GetTick>
 8001f44:	60b8      	str	r0, [r7, #8]
  uint32_t wait = Delay;
 8001f46:	687b      	ldr	r3, [r7, #4]
 8001f48:	60fb      	str	r3, [r7, #12]

  /* Add a freq to guarantee minimum wait */
  if (wait < HAL_MAX_DELAY)
 8001f4a:	68fb      	ldr	r3, [r7, #12]
 8001f4c:	f1b3 3fff 	cmp.w	r3, #4294967295
 8001f50:	d005      	beq.n	8001f5e <HAL_Delay+0x26>
  {
    wait += (uint32_t)(uwTickFreq);
 8001f52:	4b0a      	ldr	r3, [pc, #40]	; (8001f7c <HAL_Delay+0x44>)
 8001f54:	781b      	ldrb	r3, [r3, #0]
 8001f56:	461a      	mov	r2, r3
 8001f58:	68fb      	ldr	r3, [r7, #12]
 8001f5a:	4413      	add	r3, r2
 8001f5c:	60fb      	str	r3, [r7, #12]
  }

  while((HAL_GetTick() - tickstart) < wait)
 8001f5e:	bf00      	nop
 8001f60:	f7ff ffde 	bl	8001f20 <HAL_GetTick>
 8001f64:	4602      	mov	r2, r0
 8001f66:	68bb      	ldr	r3, [r7, #8]
 8001f68:	1ad3      	subs	r3, r2, r3
 8001f6a:	68fa      	ldr	r2, [r7, #12]
 8001f6c:	429a      	cmp	r2, r3
 8001f6e:	d8f7      	bhi.n	8001f60 <HAL_Delay+0x28>
  {
  }
}
 8001f70:	bf00      	nop
 8001f72:	bf00      	nop
 8001f74:	3710      	adds	r7, #16
 8001f76:	46bd      	mov	sp, r7
 8001f78:	bd80      	pop	{r7, pc}
 8001f7a:	bf00      	nop
 8001f7c:	20000010 	.word	0x20000010

08001f80 <HAL_ADC_Init>:
  * @param  hadc pointer to a ADC_HandleTypeDef structure that contains
  *         the configuration information for the specified ADC.
  * @retval HAL status
  */
HAL_StatusTypeDef HAL_ADC_Init(ADC_HandleTypeDef *hadc)
{
 8001f80:	b580      	push	{r7, lr}
 8001f82:	b084      	sub	sp, #16
 8001f84:	af00      	add	r7, sp, #0
 8001f86:	6078      	str	r0, [r7, #4]
  HAL_StatusTypeDef tmp_hal_status = HAL_OK;
 8001f88:	2300      	movs	r3, #0
 8001f8a:	73fb      	strb	r3, [r7, #15]

  /* Check ADC handle */
  if (hadc == NULL)
 8001f8c:	687b      	ldr	r3, [r7, #4]
 8001f8e:	2b00      	cmp	r3, #0
 8001f90:	d101      	bne.n	8001f96 <HAL_ADC_Init+0x16>
  {
    return HAL_ERROR;
 8001f92:	2301      	movs	r3, #1
 8001f94:	e033      	b.n	8001ffe <HAL_ADC_Init+0x7e>
  if (hadc->Init.ExternalTrigConv != ADC_SOFTWARE_START)
  {
    assert_param(IS_ADC_EXT_TRIG_EDGE(hadc->Init.ExternalTrigConvEdge));
  }

  if (hadc->State == HAL_ADC_STATE_RESET)
 8001f96:	687b      	ldr	r3, [r7, #4]
 8001f98:	6c1b      	ldr	r3, [r3, #64]	; 0x40
 8001f9a:	2b00      	cmp	r3, #0
 8001f9c:	d109      	bne.n	8001fb2 <HAL_ADC_Init+0x32>

    /* Init the low level hardware */
    hadc->MspInitCallback(hadc);
#else
    /* Init the low level hardware */
    HAL_ADC_MspInit(hadc);
 8001f9e:	6878      	ldr	r0, [r7, #4]
 8001fa0:	f7ff fde8 	bl	8001b74 <HAL_ADC_MspInit>
#endif /* USE_HAL_ADC_REGISTER_CALLBACKS */

    /* Initialize ADC error code */
    ADC_CLEAR_ERRORCODE(hadc);
 8001fa4:	687b      	ldr	r3, [r7, #4]
 8001fa6:	2200      	movs	r2, #0
 8001fa8:	645a      	str	r2, [r3, #68]	; 0x44

    /* Allocate lock resource and initialize it */
    hadc->Lock = HAL_UNLOCKED;
 8001faa:	687b      	ldr	r3, [r7, #4]
 8001fac:	2200      	movs	r2, #0
 8001fae:	f883 203c 	strb.w	r2, [r3, #60]	; 0x3c
  }

  /* Configuration of ADC parameters if previous preliminary actions are      */
  /* correctly completed.                                                     */
  if (HAL_IS_BIT_CLR(hadc->State, HAL_ADC_STATE_ERROR_INTERNAL))
 8001fb2:	687b      	ldr	r3, [r7, #4]
 8001fb4:	6c1b      	ldr	r3, [r3, #64]	; 0x40
 8001fb6:	f003 0310 	and.w	r3, r3, #16
 8001fba:	2b00      	cmp	r3, #0
 8001fbc:	d118      	bne.n	8001ff0 <HAL_ADC_Init+0x70>
  {
    /* Set ADC state */
    ADC_STATE_CLR_SET(hadc->State,
 8001fbe:	687b      	ldr	r3, [r7, #4]
 8001fc0:	6c1b      	ldr	r3, [r3, #64]	; 0x40
 8001fc2:	f423 5388 	bic.w	r3, r3, #4352	; 0x1100
 8001fc6:	f023 0302 	bic.w	r3, r3, #2
 8001fca:	f043 0202 	orr.w	r2, r3, #2
 8001fce:	687b      	ldr	r3, [r7, #4]
 8001fd0:	641a      	str	r2, [r3, #64]	; 0x40
                      HAL_ADC_STATE_REG_BUSY | HAL_ADC_STATE_INJ_BUSY,
                      HAL_ADC_STATE_BUSY_INTERNAL);

    /* Set ADC parameters */
    ADC_Init(hadc);
 8001fd2:	6878      	ldr	r0, [r7, #4]
 8001fd4:	f000 fb4a 	bl	800266c <ADC_Init>

    /* Set ADC error code to none */
    ADC_CLEAR_ERRORCODE(hadc);
 8001fd8:	687b      	ldr	r3, [r7, #4]
 8001fda:	2200      	movs	r2, #0
 8001fdc:	645a      	str	r2, [r3, #68]	; 0x44

    /* Set the ADC state */
    ADC_STATE_CLR_SET(hadc->State,
 8001fde:	687b      	ldr	r3, [r7, #4]
 8001fe0:	6c1b      	ldr	r3, [r3, #64]	; 0x40
 8001fe2:	f023 0303 	bic.w	r3, r3, #3
 8001fe6:	f043 0201 	orr.w	r2, r3, #1
 8001fea:	687b      	ldr	r3, [r7, #4]
 8001fec:	641a      	str	r2, [r3, #64]	; 0x40
 8001fee:	e001      	b.n	8001ff4 <HAL_ADC_Init+0x74>
                      HAL_ADC_STATE_BUSY_INTERNAL,
                      HAL_ADC_STATE_READY);
  }
  else
  {
    tmp_hal_status = HAL_ERROR;
 8001ff0:	2301      	movs	r3, #1
 8001ff2:	73fb      	strb	r3, [r7, #15]
  }

  /* Release Lock */
  __HAL_UNLOCK(hadc);
 8001ff4:	687b      	ldr	r3, [r7, #4]
 8001ff6:	2200      	movs	r2, #0
 8001ff8:	f883 203c 	strb.w	r2, [r3, #60]	; 0x3c

  /* Return function status */
  return tmp_hal_status;
 8001ffc:	7bfb      	ldrb	r3, [r7, #15]
}
 8001ffe:	4618      	mov	r0, r3
 8002000:	3710      	adds	r7, #16
 8002002:	46bd      	mov	sp, r7
 8002004:	bd80      	pop	{r7, pc}
	...

08002008 <HAL_ADC_Start_IT>:
  * @param  hadc pointer to a ADC_HandleTypeDef structure that contains
  *         the configuration information for the specified ADC.
  * @retval HAL status.
  */
HAL_StatusTypeDef HAL_ADC_Start_IT(ADC_HandleTypeDef *hadc)
{
 8002008:	b480      	push	{r7}
 800200a:	b085      	sub	sp, #20
 800200c:	af00      	add	r7, sp, #0
 800200e:	6078      	str	r0, [r7, #4]
  __IO uint32_t counter = 0U;
 8002010:	2300      	movs	r3, #0
 8002012:	60bb      	str	r3, [r7, #8]
  /* Check the parameters */
  assert_param(IS_FUNCTIONAL_STATE(hadc->Init.ContinuousConvMode));
  assert_param(IS_ADC_EXT_TRIG_EDGE(hadc->Init.ExternalTrigConvEdge));

  /* Process locked */
  __HAL_LOCK(hadc);
 8002014:	687b      	ldr	r3, [r7, #4]
 8002016:	f893 303c 	ldrb.w	r3, [r3, #60]	; 0x3c
 800201a:	2b01      	cmp	r3, #1
 800201c:	d101      	bne.n	8002022 <HAL_ADC_Start_IT+0x1a>
 800201e:	2302      	movs	r3, #2
 8002020:	e0bd      	b.n	800219e <HAL_ADC_Start_IT+0x196>
 8002022:	687b      	ldr	r3, [r7, #4]
 8002024:	2201      	movs	r2, #1
 8002026:	f883 203c 	strb.w	r2, [r3, #60]	; 0x3c

  /* Enable the ADC peripheral */
  /* Check if ADC peripheral is disabled in order to enable it and wait during
  Tstab time the ADC's stabilization */
  if ((hadc->Instance->CR2 & ADC_CR2_ADON) != ADC_CR2_ADON)
 800202a:	687b      	ldr	r3, [r7, #4]
 800202c:	681b      	ldr	r3, [r3, #0]
 800202e:	689b      	ldr	r3, [r3, #8]
 8002030:	f003 0301 	and.w	r3, r3, #1
 8002034:	2b01      	cmp	r3, #1
 8002036:	d018      	beq.n	800206a <HAL_ADC_Start_IT+0x62>
  {
    /* Enable the Peripheral */
    __HAL_ADC_ENABLE(hadc);
 8002038:	687b      	ldr	r3, [r7, #4]
 800203a:	681b      	ldr	r3, [r3, #0]
 800203c:	689a      	ldr	r2, [r3, #8]
 800203e:	687b      	ldr	r3, [r7, #4]
 8002040:	681b      	ldr	r3, [r3, #0]
 8002042:	f042 0201 	orr.w	r2, r2, #1
 8002046:	609a      	str	r2, [r3, #8]

    /* Delay for ADC stabilization time */
    /* Compute number of CPU cycles to wait for */
    counter = (ADC_STAB_DELAY_US * (SystemCoreClock / 1000000U));
 8002048:	4b58      	ldr	r3, [pc, #352]	; (80021ac <HAL_ADC_Start_IT+0x1a4>)
 800204a:	681b      	ldr	r3, [r3, #0]
 800204c:	4a58      	ldr	r2, [pc, #352]	; (80021b0 <HAL_ADC_Start_IT+0x1a8>)
 800204e:	fba2 2303 	umull	r2, r3, r2, r3
 8002052:	0c9a      	lsrs	r2, r3, #18
 8002054:	4613      	mov	r3, r2
 8002056:	005b      	lsls	r3, r3, #1
 8002058:	4413      	add	r3, r2
 800205a:	60bb      	str	r3, [r7, #8]
    while (counter != 0U)
 800205c:	e002      	b.n	8002064 <HAL_ADC_Start_IT+0x5c>
    {
      counter--;
 800205e:	68bb      	ldr	r3, [r7, #8]
 8002060:	3b01      	subs	r3, #1
 8002062:	60bb      	str	r3, [r7, #8]
    while (counter != 0U)
 8002064:	68bb      	ldr	r3, [r7, #8]
 8002066:	2b00      	cmp	r3, #0
 8002068:	d1f9      	bne.n	800205e <HAL_ADC_Start_IT+0x56>
    }
  }

  /* Start conversion if ADC is effectively enabled */
  if (HAL_IS_BIT_SET(hadc->Instance->CR2, ADC_CR2_ADON))
 800206a:	687b      	ldr	r3, [r7, #4]
 800206c:	681b      	ldr	r3, [r3, #0]
 800206e:	689b      	ldr	r3, [r3, #8]
 8002070:	f003 0301 	and.w	r3, r3, #1
 8002074:	2b01      	cmp	r3, #1
 8002076:	f040 8085 	bne.w	8002184 <HAL_ADC_Start_IT+0x17c>
  {
    /* Set ADC state                                                          */
    /* - Clear state bitfield related to regular group conversion results     */
    /* - Set state bitfield related to regular group operation                */
    ADC_STATE_CLR_SET(hadc->State,
 800207a:	687b      	ldr	r3, [r7, #4]
 800207c:	6c1b      	ldr	r3, [r3, #64]	; 0x40
 800207e:	f423 63e0 	bic.w	r3, r3, #1792	; 0x700
 8002082:	f023 0301 	bic.w	r3, r3, #1
 8002086:	f443 7280 	orr.w	r2, r3, #256	; 0x100
 800208a:	687b      	ldr	r3, [r7, #4]
 800208c:	641a      	str	r2, [r3, #64]	; 0x40
                      HAL_ADC_STATE_READY | HAL_ADC_STATE_REG_EOC | HAL_ADC_STATE_REG_OVR,
                      HAL_ADC_STATE_REG_BUSY);

    /* If conversions on group regular are also triggering group injected,    */
    /* update ADC state.                                                      */
    if (READ_BIT(hadc->Instance->CR1, ADC_CR1_JAUTO) != RESET)
 800208e:	687b      	ldr	r3, [r7, #4]
 8002090:	681b      	ldr	r3, [r3, #0]
 8002092:	685b      	ldr	r3, [r3, #4]
 8002094:	f403 6380 	and.w	r3, r3, #1024	; 0x400
 8002098:	2b00      	cmp	r3, #0
 800209a:	d007      	beq.n	80020ac <HAL_ADC_Start_IT+0xa4>
    {
      ADC_STATE_CLR_SET(hadc->State, HAL_ADC_STATE_INJ_EOC, HAL_ADC_STATE_INJ_BUSY);
 800209c:	687b      	ldr	r3, [r7, #4]
 800209e:	6c1b      	ldr	r3, [r3, #64]	; 0x40
 80020a0:	f423 5340 	bic.w	r3, r3, #12288	; 0x3000
 80020a4:	f443 5280 	orr.w	r2, r3, #4096	; 0x1000
 80020a8:	687b      	ldr	r3, [r7, #4]
 80020aa:	641a      	str	r2, [r3, #64]	; 0x40
    }

    /* State machine update: Check if an injected conversion is ongoing */
    if (HAL_IS_BIT_SET(hadc->State, HAL_ADC_STATE_INJ_BUSY))
 80020ac:	687b      	ldr	r3, [r7, #4]
 80020ae:	6c1b      	ldr	r3, [r3, #64]	; 0x40
 80020b0:	f403 5380 	and.w	r3, r3, #4096	; 0x1000
 80020b4:	f5b3 5f80 	cmp.w	r3, #4096	; 0x1000
 80020b8:	d106      	bne.n	80020c8 <HAL_ADC_Start_IT+0xc0>
    {
      /* Reset ADC error code fields related to conversions on group regular */
      CLEAR_BIT(hadc->ErrorCode, (HAL_ADC_ERROR_OVR | HAL_ADC_ERROR_DMA));
 80020ba:	687b      	ldr	r3, [r7, #4]
 80020bc:	6c5b      	ldr	r3, [r3, #68]	; 0x44
 80020be:	f023 0206 	bic.w	r2, r3, #6
 80020c2:	687b      	ldr	r3, [r7, #4]
 80020c4:	645a      	str	r2, [r3, #68]	; 0x44
 80020c6:	e002      	b.n	80020ce <HAL_ADC_Start_IT+0xc6>
    }
    else
    {
      /* Reset ADC all error code fields */
      ADC_CLEAR_ERRORCODE(hadc);
 80020c8:	687b      	ldr	r3, [r7, #4]
 80020ca:	2200      	movs	r2, #0
 80020cc:	645a      	str	r2, [r3, #68]	; 0x44
    }

    /* Process unlocked */
    /* Unlock before starting ADC conversions: in case of potential           */
    /* interruption, to let the process to ADC IRQ Handler.                   */
    __HAL_UNLOCK(hadc);
 80020ce:	687b      	ldr	r3, [r7, #4]
 80020d0:	2200      	movs	r2, #0
 80020d2:	f883 203c 	strb.w	r2, [r3, #60]	; 0x3c

    /* Pointer to the common control register to which is belonging hadc    */
    /* (Depending on STM32F4 product, there may be up to 3 ADCs and 1 common */
    /* control register)                                                    */
    tmpADC_Common = ADC_COMMON_REGISTER(hadc);
 80020d6:	4b37      	ldr	r3, [pc, #220]	; (80021b4 <HAL_ADC_Start_IT+0x1ac>)
 80020d8:	60fb      	str	r3, [r7, #12]

    /* Clear regular group conversion flag and overrun flag */
    /* (To ensure of no unknown state from potential previous ADC operations) */
    __HAL_ADC_CLEAR_FLAG(hadc, ADC_FLAG_EOC | ADC_FLAG_OVR);
 80020da:	687b      	ldr	r3, [r7, #4]
 80020dc:	681b      	ldr	r3, [r3, #0]
 80020de:	f06f 0222 	mvn.w	r2, #34	; 0x22
 80020e2:	601a      	str	r2, [r3, #0]

    /* Enable end of conversion interrupt for regular group */
    __HAL_ADC_ENABLE_IT(hadc, (ADC_IT_EOC | ADC_IT_OVR));
 80020e4:	687b      	ldr	r3, [r7, #4]
 80020e6:	681b      	ldr	r3, [r3, #0]
 80020e8:	685b      	ldr	r3, [r3, #4]
 80020ea:	687a      	ldr	r2, [r7, #4]
 80020ec:	6812      	ldr	r2, [r2, #0]
 80020ee:	f043 6380 	orr.w	r3, r3, #67108864	; 0x4000000
 80020f2:	f043 0320 	orr.w	r3, r3, #32
 80020f6:	6053      	str	r3, [r2, #4]

    /* Check if Multimode enabled */
    if (HAL_IS_BIT_CLR(tmpADC_Common->CCR, ADC_CCR_MULTI))
 80020f8:	68fb      	ldr	r3, [r7, #12]
 80020fa:	685b      	ldr	r3, [r3, #4]
 80020fc:	f003 031f 	and.w	r3, r3, #31
 8002100:	2b00      	cmp	r3, #0
 8002102:	d12a      	bne.n	800215a <HAL_ADC_Start_IT+0x152>
    {
#if defined(ADC2) && defined(ADC3)
      if ((hadc->Instance == ADC1) || ((hadc->Instance == ADC2) && ((ADC->CCR & ADC_CCR_MULTI_Msk) < ADC_CCR_MULTI_0)) \
 8002104:	687b      	ldr	r3, [r7, #4]
 8002106:	681b      	ldr	r3, [r3, #0]
 8002108:	4a2b      	ldr	r2, [pc, #172]	; (80021b8 <HAL_ADC_Start_IT+0x1b0>)
 800210a:	4293      	cmp	r3, r2
 800210c:	d015      	beq.n	800213a <HAL_ADC_Start_IT+0x132>
 800210e:	687b      	ldr	r3, [r7, #4]
 8002110:	681b      	ldr	r3, [r3, #0]
 8002112:	4a2a      	ldr	r2, [pc, #168]	; (80021bc <HAL_ADC_Start_IT+0x1b4>)
 8002114:	4293      	cmp	r3, r2
 8002116:	d105      	bne.n	8002124 <HAL_ADC_Start_IT+0x11c>
 8002118:	4b26      	ldr	r3, [pc, #152]	; (80021b4 <HAL_ADC_Start_IT+0x1ac>)
 800211a:	685b      	ldr	r3, [r3, #4]
 800211c:	f003 031f 	and.w	r3, r3, #31
 8002120:	2b00      	cmp	r3, #0
 8002122:	d00a      	beq.n	800213a <HAL_ADC_Start_IT+0x132>
          || ((hadc->Instance == ADC3) && ((ADC->CCR & ADC_CCR_MULTI_Msk) < ADC_CCR_MULTI_4)))
 8002124:	687b      	ldr	r3, [r7, #4]
 8002126:	681b      	ldr	r3, [r3, #0]
 8002128:	4a25      	ldr	r2, [pc, #148]	; (80021c0 <HAL_ADC_Start_IT+0x1b8>)
 800212a:	4293      	cmp	r3, r2
 800212c:	d136      	bne.n	800219c <HAL_ADC_Start_IT+0x194>
 800212e:	4b21      	ldr	r3, [pc, #132]	; (80021b4 <HAL_ADC_Start_IT+0x1ac>)
 8002130:	685b      	ldr	r3, [r3, #4]
 8002132:	f003 0310 	and.w	r3, r3, #16
 8002136:	2b00      	cmp	r3, #0
 8002138:	d130      	bne.n	800219c <HAL_ADC_Start_IT+0x194>
      {
#endif /* ADC2 || ADC3 */
        /* if no external trigger present enable software conversion of regular channels */
        if ((hadc->Instance->CR2 & ADC_CR2_EXTEN) == RESET)
 800213a:	687b      	ldr	r3, [r7, #4]
 800213c:	681b      	ldr	r3, [r3, #0]
 800213e:	689b      	ldr	r3, [r3, #8]
 8002140:	f003 5340 	and.w	r3, r3, #805306368	; 0x30000000
 8002144:	2b00      	cmp	r3, #0
 8002146:	d129      	bne.n	800219c <HAL_ADC_Start_IT+0x194>
        {
          /* Enable the selected ADC software conversion for regular group */
          hadc->Instance->CR2 |= (uint32_t)ADC_CR2_SWSTART;
 8002148:	687b      	ldr	r3, [r7, #4]
 800214a:	681b      	ldr	r3, [r3, #0]
 800214c:	689a      	ldr	r2, [r3, #8]
 800214e:	687b      	ldr	r3, [r7, #4]
 8002150:	681b      	ldr	r3, [r3, #0]
 8002152:	f042 4280 	orr.w	r2, r2, #1073741824	; 0x40000000
 8002156:	609a      	str	r2, [r3, #8]
 8002158:	e020      	b.n	800219c <HAL_ADC_Start_IT+0x194>
#endif /* ADC2 || ADC3 */
    }
    else
    {
      /* if instance of handle correspond to ADC1 and  no external trigger present enable software conversion of regular channels */
      if ((hadc->Instance == ADC1) && ((hadc->Instance->CR2 & ADC_CR2_EXTEN) == RESET))
 800215a:	687b      	ldr	r3, [r7, #4]
 800215c:	681b      	ldr	r3, [r3, #0]
 800215e:	4a16      	ldr	r2, [pc, #88]	; (80021b8 <HAL_ADC_Start_IT+0x1b0>)
 8002160:	4293      	cmp	r3, r2
 8002162:	d11b      	bne.n	800219c <HAL_ADC_Start_IT+0x194>
 8002164:	687b      	ldr	r3, [r7, #4]
 8002166:	681b      	ldr	r3, [r3, #0]
 8002168:	689b      	ldr	r3, [r3, #8]
 800216a:	f003 5340 	and.w	r3, r3, #805306368	; 0x30000000
 800216e:	2b00      	cmp	r3, #0
 8002170:	d114      	bne.n	800219c <HAL_ADC_Start_IT+0x194>
      {
        /* Enable the selected ADC software conversion for regular group */
        hadc->Instance->CR2 |= (uint32_t)ADC_CR2_SWSTART;
 8002172:	687b      	ldr	r3, [r7, #4]
 8002174:	681b      	ldr	r3, [r3, #0]
 8002176:	689a      	ldr	r2, [r3, #8]
 8002178:	687b      	ldr	r3, [r7, #4]
 800217a:	681b      	ldr	r3, [r3, #0]
 800217c:	f042 4280 	orr.w	r2, r2, #1073741824	; 0x40000000
 8002180:	609a      	str	r2, [r3, #8]
 8002182:	e00b      	b.n	800219c <HAL_ADC_Start_IT+0x194>
    }
  }
  else
  {
    /* Update ADC state machine to error */
    SET_BIT(hadc->State, HAL_ADC_STATE_ERROR_INTERNAL);
 8002184:	687b      	ldr	r3, [r7, #4]
 8002186:	6c1b      	ldr	r3, [r3, #64]	; 0x40
 8002188:	f043 0210 	orr.w	r2, r3, #16
 800218c:	687b      	ldr	r3, [r7, #4]
 800218e:	641a      	str	r2, [r3, #64]	; 0x40

    /* Set ADC error code to ADC IP internal error */
    SET_BIT(hadc->ErrorCode, HAL_ADC_ERROR_INTERNAL);
 8002190:	687b      	ldr	r3, [r7, #4]
 8002192:	6c5b      	ldr	r3, [r3, #68]	; 0x44
 8002194:	f043 0201 	orr.w	r2, r3, #1
 8002198:	687b      	ldr	r3, [r7, #4]
 800219a:	645a      	str	r2, [r3, #68]	; 0x44
  }

  /* Return function status */
  return HAL_OK;
 800219c:	2300      	movs	r3, #0
}
 800219e:	4618      	mov	r0, r3
 80021a0:	3714      	adds	r7, #20
 80021a2:	46bd      	mov	sp, r7
 80021a4:	f85d 7b04 	ldr.w	r7, [sp], #4
 80021a8:	4770      	bx	lr
 80021aa:	bf00      	nop
 80021ac:	20000008 	.word	0x20000008
 80021b0:	431bde83 	.word	0x431bde83
 80021b4:	40012300 	.word	0x40012300
 80021b8:	40012000 	.word	0x40012000
 80021bc:	40012100 	.word	0x40012100
 80021c0:	40012200 	.word	0x40012200

080021c4 <HAL_ADC_IRQHandler>:
  * @param  hadc pointer to a ADC_HandleTypeDef structure that contains
  *         the configuration information for the specified ADC.
  * @retval None
  */
void HAL_ADC_IRQHandler(ADC_HandleTypeDef *hadc)
{
 80021c4:	b580      	push	{r7, lr}
 80021c6:	b086      	sub	sp, #24
 80021c8:	af00      	add	r7, sp, #0
 80021ca:	6078      	str	r0, [r7, #4]
  uint32_t tmp1 = 0U, tmp2 = 0U;
 80021cc:	2300      	movs	r3, #0
 80021ce:	617b      	str	r3, [r7, #20]
 80021d0:	2300      	movs	r3, #0
 80021d2:	613b      	str	r3, [r7, #16]

  uint32_t tmp_sr = hadc->Instance->SR;
 80021d4:	687b      	ldr	r3, [r7, #4]
 80021d6:	681b      	ldr	r3, [r3, #0]
 80021d8:	681b      	ldr	r3, [r3, #0]
 80021da:	60fb      	str	r3, [r7, #12]
  uint32_t tmp_cr1 = hadc->Instance->CR1;
 80021dc:	687b      	ldr	r3, [r7, #4]
 80021de:	681b      	ldr	r3, [r3, #0]
 80021e0:	685b      	ldr	r3, [r3, #4]
 80021e2:	60bb      	str	r3, [r7, #8]
  /* Check the parameters */
  assert_param(IS_FUNCTIONAL_STATE(hadc->Init.ContinuousConvMode));
  assert_param(IS_ADC_REGULAR_LENGTH(hadc->Init.NbrOfConversion));
  assert_param(IS_ADC_EOCSelection(hadc->Init.EOCSelection));

  tmp1 = tmp_sr & ADC_FLAG_EOC;
 80021e4:	68fb      	ldr	r3, [r7, #12]
 80021e6:	f003 0302 	and.w	r3, r3, #2
 80021ea:	617b      	str	r3, [r7, #20]
  tmp2 = tmp_cr1 & ADC_IT_EOC;
 80021ec:	68bb      	ldr	r3, [r7, #8]
 80021ee:	f003 0320 	and.w	r3, r3, #32
 80021f2:	613b      	str	r3, [r7, #16]
  /* Check End of conversion flag for regular channels */
  if (tmp1 && tmp2)
 80021f4:	697b      	ldr	r3, [r7, #20]
 80021f6:	2b00      	cmp	r3, #0
 80021f8:	d049      	beq.n	800228e <HAL_ADC_IRQHandler+0xca>
 80021fa:	693b      	ldr	r3, [r7, #16]
 80021fc:	2b00      	cmp	r3, #0
 80021fe:	d046      	beq.n	800228e <HAL_ADC_IRQHandler+0xca>
  {
    /* Update state machine on conversion status if not in error state */
    if (HAL_IS_BIT_CLR(hadc->State, HAL_ADC_STATE_ERROR_INTERNAL))
 8002200:	687b      	ldr	r3, [r7, #4]
 8002202:	6c1b      	ldr	r3, [r3, #64]	; 0x40
 8002204:	f003 0310 	and.w	r3, r3, #16
 8002208:	2b00      	cmp	r3, #0
 800220a:	d105      	bne.n	8002218 <HAL_ADC_IRQHandler+0x54>
    {
      /* Set ADC state */
      SET_BIT(hadc->State, HAL_ADC_STATE_REG_EOC);
 800220c:	687b      	ldr	r3, [r7, #4]
 800220e:	6c1b      	ldr	r3, [r3, #64]	; 0x40
 8002210:	f443 7200 	orr.w	r2, r3, #512	; 0x200
 8002214:	687b      	ldr	r3, [r7, #4]
 8002216:	641a      	str	r2, [r3, #64]	; 0x40
    /* by external trigger, continuous mode or scan sequence on going.      */
    /* Note: On STM32F4, there is no independent flag of end of sequence.   */
    /*       The test of scan sequence on going is done either with scan    */
    /*       sequence disabled or with end of conversion flag set to        */
    /*       of end of sequence.                                            */
    if (ADC_IS_SOFTWARE_START_REGULAR(hadc)                   &&
 8002218:	687b      	ldr	r3, [r7, #4]
 800221a:	681b      	ldr	r3, [r3, #0]
 800221c:	689b      	ldr	r3, [r3, #8]
 800221e:	f003 5340 	and.w	r3, r3, #805306368	; 0x30000000
 8002222:	2b00      	cmp	r3, #0
 8002224:	d12b      	bne.n	800227e <HAL_ADC_IRQHandler+0xba>
        (hadc->Init.ContinuousConvMode == DISABLE)            &&
 8002226:	687b      	ldr	r3, [r7, #4]
 8002228:	7e1b      	ldrb	r3, [r3, #24]
    if (ADC_IS_SOFTWARE_START_REGULAR(hadc)                   &&
 800222a:	2b00      	cmp	r3, #0
 800222c:	d127      	bne.n	800227e <HAL_ADC_IRQHandler+0xba>
        (HAL_IS_BIT_CLR(hadc->Instance->SQR1, ADC_SQR1_L) ||
 800222e:	687b      	ldr	r3, [r7, #4]
 8002230:	681b      	ldr	r3, [r3, #0]
 8002232:	6adb      	ldr	r3, [r3, #44]	; 0x2c
 8002234:	f403 0370 	and.w	r3, r3, #15728640	; 0xf00000
        (hadc->Init.ContinuousConvMode == DISABLE)            &&
 8002238:	2b00      	cmp	r3, #0
 800223a:	d006      	beq.n	800224a <HAL_ADC_IRQHandler+0x86>
         HAL_IS_BIT_CLR(hadc->Instance->CR2, ADC_CR2_EOCS)))
 800223c:	687b      	ldr	r3, [r7, #4]
 800223e:	681b      	ldr	r3, [r3, #0]
 8002240:	689b      	ldr	r3, [r3, #8]
 8002242:	f403 6380 	and.w	r3, r3, #1024	; 0x400
        (HAL_IS_BIT_CLR(hadc->Instance->SQR1, ADC_SQR1_L) ||
 8002246:	2b00      	cmp	r3, #0
 8002248:	d119      	bne.n	800227e <HAL_ADC_IRQHandler+0xba>
    {
      /* Disable ADC end of single conversion interrupt on group regular */
      /* Note: Overrun interrupt was enabled with EOC interrupt in          */
      /* HAL_ADC_Start_IT(), but is not disabled here because can be used   */
      /* by overrun IRQ process below.                                      */
      __HAL_ADC_DISABLE_IT(hadc, ADC_IT_EOC);
 800224a:	687b      	ldr	r3, [r7, #4]
 800224c:	681b      	ldr	r3, [r3, #0]
 800224e:	685a      	ldr	r2, [r3, #4]
 8002250:	687b      	ldr	r3, [r7, #4]
 8002252:	681b      	ldr	r3, [r3, #0]
 8002254:	f022 0220 	bic.w	r2, r2, #32
 8002258:	605a      	str	r2, [r3, #4]

      /* Set ADC state */
      CLEAR_BIT(hadc->State, HAL_ADC_STATE_REG_BUSY);
 800225a:	687b      	ldr	r3, [r7, #4]
 800225c:	6c1b      	ldr	r3, [r3, #64]	; 0x40
 800225e:	f423 7280 	bic.w	r2, r3, #256	; 0x100
 8002262:	687b      	ldr	r3, [r7, #4]
 8002264:	641a      	str	r2, [r3, #64]	; 0x40

      if (HAL_IS_BIT_CLR(hadc->State, HAL_ADC_STATE_INJ_BUSY))
 8002266:	687b      	ldr	r3, [r7, #4]
 8002268:	6c1b      	ldr	r3, [r3, #64]	; 0x40
 800226a:	f403 5380 	and.w	r3, r3, #4096	; 0x1000
 800226e:	2b00      	cmp	r3, #0
 8002270:	d105      	bne.n	800227e <HAL_ADC_IRQHandler+0xba>
      {
        SET_BIT(hadc->State, HAL_ADC_STATE_READY);
 8002272:	687b      	ldr	r3, [r7, #4]
 8002274:	6c1b      	ldr	r3, [r3, #64]	; 0x40
 8002276:	f043 0201 	orr.w	r2, r3, #1
 800227a:	687b      	ldr	r3, [r7, #4]
 800227c:	641a      	str	r2, [r3, #64]	; 0x40

    /* Conversion complete callback */
#if (USE_HAL_ADC_REGISTER_CALLBACKS == 1)
    hadc->ConvCpltCallback(hadc);
#else
    HAL_ADC_ConvCpltCallback(hadc);
 800227e:	6878      	ldr	r0, [r7, #4]
 8002280:	f7ff fabc 	bl	80017fc <HAL_ADC_ConvCpltCallback>
#endif /* USE_HAL_ADC_REGISTER_CALLBACKS */

    /* Clear regular group conversion flag */
    __HAL_ADC_CLEAR_FLAG(hadc, ADC_FLAG_STRT | ADC_FLAG_EOC);
 8002284:	687b      	ldr	r3, [r7, #4]
 8002286:	681b      	ldr	r3, [r3, #0]
 8002288:	f06f 0212 	mvn.w	r2, #18
 800228c:	601a      	str	r2, [r3, #0]
  }

  tmp1 = tmp_sr & ADC_FLAG_JEOC;
 800228e:	68fb      	ldr	r3, [r7, #12]
 8002290:	f003 0304 	and.w	r3, r3, #4
 8002294:	617b      	str	r3, [r7, #20]
  tmp2 = tmp_cr1 & ADC_IT_JEOC;
 8002296:	68bb      	ldr	r3, [r7, #8]
 8002298:	f003 0380 	and.w	r3, r3, #128	; 0x80
 800229c:	613b      	str	r3, [r7, #16]
  /* Check End of conversion flag for injected channels */
  if (tmp1 && tmp2)
 800229e:	697b      	ldr	r3, [r7, #20]
 80022a0:	2b00      	cmp	r3, #0
 80022a2:	d057      	beq.n	8002354 <HAL_ADC_IRQHandler+0x190>
 80022a4:	693b      	ldr	r3, [r7, #16]
 80022a6:	2b00      	cmp	r3, #0
 80022a8:	d054      	beq.n	8002354 <HAL_ADC_IRQHandler+0x190>
  {
    /* Update state machine on conversion status if not in error state */
    if (HAL_IS_BIT_CLR(hadc->State, HAL_ADC_STATE_ERROR_INTERNAL))
 80022aa:	687b      	ldr	r3, [r7, #4]
 80022ac:	6c1b      	ldr	r3, [r3, #64]	; 0x40
 80022ae:	f003 0310 	and.w	r3, r3, #16
 80022b2:	2b00      	cmp	r3, #0
 80022b4:	d105      	bne.n	80022c2 <HAL_ADC_IRQHandler+0xfe>
    {
      /* Set ADC state */
      SET_BIT(hadc->State, HAL_ADC_STATE_INJ_EOC);
 80022b6:	687b      	ldr	r3, [r7, #4]
 80022b8:	6c1b      	ldr	r3, [r3, #64]	; 0x40
 80022ba:	f443 5200 	orr.w	r2, r3, #8192	; 0x2000
 80022be:	687b      	ldr	r3, [r7, #4]
 80022c0:	641a      	str	r2, [r3, #64]	; 0x40

    /* Determine whether any further conversion upcoming on group injected  */
    /* by external trigger, scan sequence on going or by automatic injected */
    /* conversion from group regular (same conditions as group regular      */
    /* interruption disabling above).                                       */
    if (ADC_IS_SOFTWARE_START_INJECTED(hadc)                    &&
 80022c2:	687b      	ldr	r3, [r7, #4]
 80022c4:	681b      	ldr	r3, [r3, #0]
 80022c6:	689b      	ldr	r3, [r3, #8]
 80022c8:	f403 1340 	and.w	r3, r3, #3145728	; 0x300000
 80022cc:	2b00      	cmp	r3, #0
 80022ce:	d139      	bne.n	8002344 <HAL_ADC_IRQHandler+0x180>
        (HAL_IS_BIT_CLR(hadc->Instance->JSQR, ADC_JSQR_JL)  ||
 80022d0:	687b      	ldr	r3, [r7, #4]
 80022d2:	681b      	ldr	r3, [r3, #0]
 80022d4:	6b9b      	ldr	r3, [r3, #56]	; 0x38
 80022d6:	f403 1340 	and.w	r3, r3, #3145728	; 0x300000
    if (ADC_IS_SOFTWARE_START_INJECTED(hadc)                    &&
 80022da:	2b00      	cmp	r3, #0
 80022dc:	d006      	beq.n	80022ec <HAL_ADC_IRQHandler+0x128>
         HAL_IS_BIT_CLR(hadc->Instance->CR2, ADC_CR2_EOCS)) &&
 80022de:	687b      	ldr	r3, [r7, #4]
 80022e0:	681b      	ldr	r3, [r3, #0]
 80022e2:	689b      	ldr	r3, [r3, #8]
 80022e4:	f403 6380 	and.w	r3, r3, #1024	; 0x400
        (HAL_IS_BIT_CLR(hadc->Instance->JSQR, ADC_JSQR_JL)  ||
 80022e8:	2b00      	cmp	r3, #0
 80022ea:	d12b      	bne.n	8002344 <HAL_ADC_IRQHandler+0x180>
        (HAL_IS_BIT_CLR(hadc->Instance->CR1, ADC_CR1_JAUTO) &&
 80022ec:	687b      	ldr	r3, [r7, #4]
 80022ee:	681b      	ldr	r3, [r3, #0]
 80022f0:	685b      	ldr	r3, [r3, #4]
 80022f2:	f403 6380 	and.w	r3, r3, #1024	; 0x400
         HAL_IS_BIT_CLR(hadc->Instance->CR2, ADC_CR2_EOCS)) &&
 80022f6:	2b00      	cmp	r3, #0
 80022f8:	d124      	bne.n	8002344 <HAL_ADC_IRQHandler+0x180>
         (ADC_IS_SOFTWARE_START_REGULAR(hadc)       &&
 80022fa:	687b      	ldr	r3, [r7, #4]
 80022fc:	681b      	ldr	r3, [r3, #0]
 80022fe:	689b      	ldr	r3, [r3, #8]
 8002300:	f003 5340 	and.w	r3, r3, #805306368	; 0x30000000
        (HAL_IS_BIT_CLR(hadc->Instance->CR1, ADC_CR1_JAUTO) &&
 8002304:	2b00      	cmp	r3, #0
 8002306:	d11d      	bne.n	8002344 <HAL_ADC_IRQHandler+0x180>
          (hadc->Init.ContinuousConvMode == DISABLE))))
 8002308:	687b      	ldr	r3, [r7, #4]
 800230a:	7e1b      	ldrb	r3, [r3, #24]
         (ADC_IS_SOFTWARE_START_REGULAR(hadc)       &&
 800230c:	2b00      	cmp	r3, #0
 800230e:	d119      	bne.n	8002344 <HAL_ADC_IRQHandler+0x180>
    {
      /* Disable ADC end of single conversion interrupt on group injected */
      __HAL_ADC_DISABLE_IT(hadc, ADC_IT_JEOC);
 8002310:	687b      	ldr	r3, [r7, #4]
 8002312:	681b      	ldr	r3, [r3, #0]
 8002314:	685a      	ldr	r2, [r3, #4]
 8002316:	687b      	ldr	r3, [r7, #4]
 8002318:	681b      	ldr	r3, [r3, #0]
 800231a:	f022 0280 	bic.w	r2, r2, #128	; 0x80
 800231e:	605a      	str	r2, [r3, #4]

      /* Set ADC state */
      CLEAR_BIT(hadc->State, HAL_ADC_STATE_INJ_BUSY);
 8002320:	687b      	ldr	r3, [r7, #4]
 8002322:	6c1b      	ldr	r3, [r3, #64]	; 0x40
 8002324:	f423 5280 	bic.w	r2, r3, #4096	; 0x1000
 8002328:	687b      	ldr	r3, [r7, #4]
 800232a:	641a      	str	r2, [r3, #64]	; 0x40

      if (HAL_IS_BIT_CLR(hadc->State, HAL_ADC_STATE_REG_BUSY))
 800232c:	687b      	ldr	r3, [r7, #4]
 800232e:	6c1b      	ldr	r3, [r3, #64]	; 0x40
 8002330:	f403 7380 	and.w	r3, r3, #256	; 0x100
 8002334:	2b00      	cmp	r3, #0
 8002336:	d105      	bne.n	8002344 <HAL_ADC_IRQHandler+0x180>
      {
        SET_BIT(hadc->State, HAL_ADC_STATE_READY);
 8002338:	687b      	ldr	r3, [r7, #4]
 800233a:	6c1b      	ldr	r3, [r3, #64]	; 0x40
 800233c:	f043 0201 	orr.w	r2, r3, #1
 8002340:	687b      	ldr	r3, [r7, #4]
 8002342:	641a      	str	r2, [r3, #64]	; 0x40
    /* Conversion complete callback */
    /* Conversion complete callback */
#if (USE_HAL_ADC_REGISTER_CALLBACKS == 1)
    hadc->InjectedConvCpltCallback(hadc);
#else
    HAL_ADCEx_InjectedConvCpltCallback(hadc);
 8002344:	6878      	ldr	r0, [r7, #4]
 8002346:	f000 fa8d 	bl	8002864 <HAL_ADCEx_InjectedConvCpltCallback>
#endif /* USE_HAL_ADC_REGISTER_CALLBACKS */

    /* Clear injected group conversion flag */
    __HAL_ADC_CLEAR_FLAG(hadc, (ADC_FLAG_JSTRT | ADC_FLAG_JEOC));
 800234a:	687b      	ldr	r3, [r7, #4]
 800234c:	681b      	ldr	r3, [r3, #0]
 800234e:	f06f 020c 	mvn.w	r2, #12
 8002352:	601a      	str	r2, [r3, #0]
  }

  tmp1 = tmp_sr & ADC_FLAG_AWD;
 8002354:	68fb      	ldr	r3, [r7, #12]
 8002356:	f003 0301 	and.w	r3, r3, #1
 800235a:	617b      	str	r3, [r7, #20]
  tmp2 = tmp_cr1 & ADC_IT_AWD;
 800235c:	68bb      	ldr	r3, [r7, #8]
 800235e:	f003 0340 	and.w	r3, r3, #64	; 0x40
 8002362:	613b      	str	r3, [r7, #16]
  /* Check Analog watchdog flag */
  if (tmp1 && tmp2)
 8002364:	697b      	ldr	r3, [r7, #20]
 8002366:	2b00      	cmp	r3, #0
 8002368:	d017      	beq.n	800239a <HAL_ADC_IRQHandler+0x1d6>
 800236a:	693b      	ldr	r3, [r7, #16]
 800236c:	2b00      	cmp	r3, #0
 800236e:	d014      	beq.n	800239a <HAL_ADC_IRQHandler+0x1d6>
  {
    if (__HAL_ADC_GET_FLAG(hadc, ADC_FLAG_AWD))
 8002370:	687b      	ldr	r3, [r7, #4]
 8002372:	681b      	ldr	r3, [r3, #0]
 8002374:	681b      	ldr	r3, [r3, #0]
 8002376:	f003 0301 	and.w	r3, r3, #1
 800237a:	2b01      	cmp	r3, #1
 800237c:	d10d      	bne.n	800239a <HAL_ADC_IRQHandler+0x1d6>
    {
      /* Set ADC state */
      SET_BIT(hadc->State, HAL_ADC_STATE_AWD1);
 800237e:	687b      	ldr	r3, [r7, #4]
 8002380:	6c1b      	ldr	r3, [r3, #64]	; 0x40
 8002382:	f443 3280 	orr.w	r2, r3, #65536	; 0x10000
 8002386:	687b      	ldr	r3, [r7, #4]
 8002388:	641a      	str	r2, [r3, #64]	; 0x40

      /* Level out of window callback */
#if (USE_HAL_ADC_REGISTER_CALLBACKS == 1)
      hadc->LevelOutOfWindowCallback(hadc);
#else
      HAL_ADC_LevelOutOfWindowCallback(hadc);
 800238a:	6878      	ldr	r0, [r7, #4]
 800238c:	f000 f837 	bl	80023fe <HAL_ADC_LevelOutOfWindowCallback>
#endif /* USE_HAL_ADC_REGISTER_CALLBACKS */

      /* Clear the ADC analog watchdog flag */
      __HAL_ADC_CLEAR_FLAG(hadc, ADC_FLAG_AWD);
 8002390:	687b      	ldr	r3, [r7, #4]
 8002392:	681b      	ldr	r3, [r3, #0]
 8002394:	f06f 0201 	mvn.w	r2, #1
 8002398:	601a      	str	r2, [r3, #0]
    }
  }

  tmp1 = tmp_sr & ADC_FLAG_OVR;
 800239a:	68fb      	ldr	r3, [r7, #12]
 800239c:	f003 0320 	and.w	r3, r3, #32
 80023a0:	617b      	str	r3, [r7, #20]
  tmp2 = tmp_cr1 & ADC_IT_OVR;
 80023a2:	68bb      	ldr	r3, [r7, #8]
 80023a4:	f003 6380 	and.w	r3, r3, #67108864	; 0x4000000
 80023a8:	613b      	str	r3, [r7, #16]
  /* Check Overrun flag */
  if (tmp1 && tmp2)
 80023aa:	697b      	ldr	r3, [r7, #20]
 80023ac:	2b00      	cmp	r3, #0
 80023ae:	d015      	beq.n	80023dc <HAL_ADC_IRQHandler+0x218>
 80023b0:	693b      	ldr	r3, [r7, #16]
 80023b2:	2b00      	cmp	r3, #0
 80023b4:	d012      	beq.n	80023dc <HAL_ADC_IRQHandler+0x218>
    /* Note: On STM32F4, ADC overrun can be set through other parameters    */
    /*       refer to description of parameter "EOCSelection" for more      */
    /*       details.                                                       */

    /* Set ADC error code to overrun */
    SET_BIT(hadc->ErrorCode, HAL_ADC_ERROR_OVR);
 80023b6:	687b      	ldr	r3, [r7, #4]
 80023b8:	6c5b      	ldr	r3, [r3, #68]	; 0x44
 80023ba:	f043 0202 	orr.w	r2, r3, #2
 80023be:	687b      	ldr	r3, [r7, #4]
 80023c0:	645a      	str	r2, [r3, #68]	; 0x44

    /* Clear ADC overrun flag */
    __HAL_ADC_CLEAR_FLAG(hadc, ADC_FLAG_OVR);
 80023c2:	687b      	ldr	r3, [r7, #4]
 80023c4:	681b      	ldr	r3, [r3, #0]
 80023c6:	f06f 0220 	mvn.w	r2, #32
 80023ca:	601a      	str	r2, [r3, #0]

    /* Error callback */
#if (USE_HAL_ADC_REGISTER_CALLBACKS == 1)
    hadc->ErrorCallback(hadc);
#else
    HAL_ADC_ErrorCallback(hadc);
 80023cc:	6878      	ldr	r0, [r7, #4]
 80023ce:	f000 f820 	bl	8002412 <HAL_ADC_ErrorCallback>
#endif /* USE_HAL_ADC_REGISTER_CALLBACKS */

    /* Clear the Overrun flag */
    __HAL_ADC_CLEAR_FLAG(hadc, ADC_FLAG_OVR);
 80023d2:	687b      	ldr	r3, [r7, #4]
 80023d4:	681b      	ldr	r3, [r3, #0]
 80023d6:	f06f 0220 	mvn.w	r2, #32
 80023da:	601a      	str	r2, [r3, #0]
  }
}
 80023dc:	bf00      	nop
 80023de:	3718      	adds	r7, #24
 80023e0:	46bd      	mov	sp, r7
 80023e2:	bd80      	pop	{r7, pc}

080023e4 <HAL_ADC_GetValue>:
  * @param  hadc pointer to a ADC_HandleTypeDef structure that contains
  *         the configuration information for the specified ADC.
  * @retval Converted value
  */
uint32_t HAL_ADC_GetValue(ADC_HandleTypeDef *hadc)
{
 80023e4:	b480      	push	{r7}
 80023e6:	b083      	sub	sp, #12
 80023e8:	af00      	add	r7, sp, #0
 80023ea:	6078      	str	r0, [r7, #4]
  /* Return the selected ADC converted value */
  return hadc->Instance->DR;
 80023ec:	687b      	ldr	r3, [r7, #4]
 80023ee:	681b      	ldr	r3, [r3, #0]
 80023f0:	6cdb      	ldr	r3, [r3, #76]	; 0x4c
}
 80023f2:	4618      	mov	r0, r3
 80023f4:	370c      	adds	r7, #12
 80023f6:	46bd      	mov	sp, r7
 80023f8:	f85d 7b04 	ldr.w	r7, [sp], #4
 80023fc:	4770      	bx	lr

080023fe <HAL_ADC_LevelOutOfWindowCallback>:
  * @param  hadc pointer to a ADC_HandleTypeDef structure that contains
  *         the configuration information for the specified ADC.
  * @retval None
  */
__weak void HAL_ADC_LevelOutOfWindowCallback(ADC_HandleTypeDef *hadc)
{
 80023fe:	b480      	push	{r7}
 8002400:	b083      	sub	sp, #12
 8002402:	af00      	add	r7, sp, #0
 8002404:	6078      	str	r0, [r7, #4]
  /* Prevent unused argument(s) compilation warning */
  UNUSED(hadc);
  /* NOTE : This function Should not be modified, when the callback is needed,
            the HAL_ADC_LevelOoutOfWindowCallback could be implemented in the user file
   */
}
 8002406:	bf00      	nop
 8002408:	370c      	adds	r7, #12
 800240a:	46bd      	mov	sp, r7
 800240c:	f85d 7b04 	ldr.w	r7, [sp], #4
 8002410:	4770      	bx	lr

08002412 <HAL_ADC_ErrorCallback>:
  * @param  hadc pointer to a ADC_HandleTypeDef structure that contains
  *         the configuration information for the specified ADC.
  * @retval None
  */
__weak void HAL_ADC_ErrorCallback(ADC_HandleTypeDef *hadc)
{
 8002412:	b480      	push	{r7}
 8002414:	b083      	sub	sp, #12
 8002416:	af00      	add	r7, sp, #0
 8002418:	6078      	str	r0, [r7, #4]
  /* Prevent unused argument(s) compilation warning */
  UNUSED(hadc);
  /* NOTE : This function Should not be modified, when the callback is needed,
            the HAL_ADC_ErrorCallback could be implemented in the user file
   */
}
 800241a:	bf00      	nop
 800241c:	370c      	adds	r7, #12
 800241e:	46bd      	mov	sp, r7
 8002420:	f85d 7b04 	ldr.w	r7, [sp], #4
 8002424:	4770      	bx	lr
	...

08002428 <HAL_ADC_ConfigChannel>:
*         the configuration information for the specified ADC.
* @param  sConfig ADC configuration structure.
* @retval HAL status
*/
HAL_StatusTypeDef HAL_ADC_ConfigChannel(ADC_HandleTypeDef *hadc, ADC_ChannelConfTypeDef *sConfig)
{
 8002428:	b480      	push	{r7}
 800242a:	b085      	sub	sp, #20
 800242c:	af00      	add	r7, sp, #0
 800242e:	6078      	str	r0, [r7, #4]
 8002430:	6039      	str	r1, [r7, #0]
  __IO uint32_t counter = 0U;
 8002432:	2300      	movs	r3, #0
 8002434:	60bb      	str	r3, [r7, #8]
  assert_param(IS_ADC_CHANNEL(sConfig->Channel));
  assert_param(IS_ADC_REGULAR_RANK(sConfig->Rank));
  assert_param(IS_ADC_SAMPLE_TIME(sConfig->SamplingTime));

  /* Process locked */
  __HAL_LOCK(hadc);
 8002436:	687b      	ldr	r3, [r7, #4]
 8002438:	f893 303c 	ldrb.w	r3, [r3, #60]	; 0x3c
 800243c:	2b01      	cmp	r3, #1
 800243e:	d101      	bne.n	8002444 <HAL_ADC_ConfigChannel+0x1c>
 8002440:	2302      	movs	r3, #2
 8002442:	e105      	b.n	8002650 <HAL_ADC_ConfigChannel+0x228>
 8002444:	687b      	ldr	r3, [r7, #4]
 8002446:	2201      	movs	r2, #1
 8002448:	f883 203c 	strb.w	r2, [r3, #60]	; 0x3c

  /* if ADC_Channel_10 ... ADC_Channel_18 is selected */
  if (sConfig->Channel > ADC_CHANNEL_9)
 800244c:	683b      	ldr	r3, [r7, #0]
 800244e:	681b      	ldr	r3, [r3, #0]
 8002450:	2b09      	cmp	r3, #9
 8002452:	d925      	bls.n	80024a0 <HAL_ADC_ConfigChannel+0x78>
  {
    /* Clear the old sample time */
    hadc->Instance->SMPR1 &= ~ADC_SMPR1(ADC_SMPR1_SMP10, sConfig->Channel);
 8002454:	687b      	ldr	r3, [r7, #4]
 8002456:	681b      	ldr	r3, [r3, #0]
 8002458:	68d9      	ldr	r1, [r3, #12]
 800245a:	683b      	ldr	r3, [r7, #0]
 800245c:	681b      	ldr	r3, [r3, #0]
 800245e:	b29b      	uxth	r3, r3
 8002460:	461a      	mov	r2, r3
 8002462:	4613      	mov	r3, r2
 8002464:	005b      	lsls	r3, r3, #1
 8002466:	4413      	add	r3, r2
 8002468:	3b1e      	subs	r3, #30
 800246a:	2207      	movs	r2, #7
 800246c:	fa02 f303 	lsl.w	r3, r2, r3
 8002470:	43da      	mvns	r2, r3
 8002472:	687b      	ldr	r3, [r7, #4]
 8002474:	681b      	ldr	r3, [r3, #0]
 8002476:	400a      	ands	r2, r1
 8002478:	60da      	str	r2, [r3, #12]

    /* Set the new sample time */
    hadc->Instance->SMPR1 |= ADC_SMPR1(sConfig->SamplingTime, sConfig->Channel);
 800247a:	687b      	ldr	r3, [r7, #4]
 800247c:	681b      	ldr	r3, [r3, #0]
 800247e:	68d9      	ldr	r1, [r3, #12]
 8002480:	683b      	ldr	r3, [r7, #0]
 8002482:	689a      	ldr	r2, [r3, #8]
 8002484:	683b      	ldr	r3, [r7, #0]
 8002486:	681b      	ldr	r3, [r3, #0]
 8002488:	b29b      	uxth	r3, r3
 800248a:	4618      	mov	r0, r3
 800248c:	4603      	mov	r3, r0
 800248e:	005b      	lsls	r3, r3, #1
 8002490:	4403      	add	r3, r0
 8002492:	3b1e      	subs	r3, #30
 8002494:	409a      	lsls	r2, r3
 8002496:	687b      	ldr	r3, [r7, #4]
 8002498:	681b      	ldr	r3, [r3, #0]
 800249a:	430a      	orrs	r2, r1
 800249c:	60da      	str	r2, [r3, #12]
 800249e:	e022      	b.n	80024e6 <HAL_ADC_ConfigChannel+0xbe>
  }
  else /* ADC_Channel include in ADC_Channel_[0..9] */
  {
    /* Clear the old sample time */
    hadc->Instance->SMPR2 &= ~ADC_SMPR2(ADC_SMPR2_SMP0, sConfig->Channel);
 80024a0:	687b      	ldr	r3, [r7, #4]
 80024a2:	681b      	ldr	r3, [r3, #0]
 80024a4:	6919      	ldr	r1, [r3, #16]
 80024a6:	683b      	ldr	r3, [r7, #0]
 80024a8:	681b      	ldr	r3, [r3, #0]
 80024aa:	b29b      	uxth	r3, r3
 80024ac:	461a      	mov	r2, r3
 80024ae:	4613      	mov	r3, r2
 80024b0:	005b      	lsls	r3, r3, #1
 80024b2:	4413      	add	r3, r2
 80024b4:	2207      	movs	r2, #7
 80024b6:	fa02 f303 	lsl.w	r3, r2, r3
 80024ba:	43da      	mvns	r2, r3
 80024bc:	687b      	ldr	r3, [r7, #4]
 80024be:	681b      	ldr	r3, [r3, #0]
 80024c0:	400a      	ands	r2, r1
 80024c2:	611a      	str	r2, [r3, #16]

    /* Set the new sample time */
    hadc->Instance->SMPR2 |= ADC_SMPR2(sConfig->SamplingTime, sConfig->Channel);
 80024c4:	687b      	ldr	r3, [r7, #4]
 80024c6:	681b      	ldr	r3, [r3, #0]
 80024c8:	6919      	ldr	r1, [r3, #16]
 80024ca:	683b      	ldr	r3, [r7, #0]
 80024cc:	689a      	ldr	r2, [r3, #8]
 80024ce:	683b      	ldr	r3, [r7, #0]
 80024d0:	681b      	ldr	r3, [r3, #0]
 80024d2:	b29b      	uxth	r3, r3
 80024d4:	4618      	mov	r0, r3
 80024d6:	4603      	mov	r3, r0
 80024d8:	005b      	lsls	r3, r3, #1
 80024da:	4403      	add	r3, r0
 80024dc:	409a      	lsls	r2, r3
 80024de:	687b      	ldr	r3, [r7, #4]
 80024e0:	681b      	ldr	r3, [r3, #0]
 80024e2:	430a      	orrs	r2, r1
 80024e4:	611a      	str	r2, [r3, #16]
  }

  /* For Rank 1 to 6 */
  if (sConfig->Rank < 7U)
 80024e6:	683b      	ldr	r3, [r7, #0]
 80024e8:	685b      	ldr	r3, [r3, #4]
 80024ea:	2b06      	cmp	r3, #6
 80024ec:	d824      	bhi.n	8002538 <HAL_ADC_ConfigChannel+0x110>
  {
    /* Clear the old SQx bits for the selected rank */
    hadc->Instance->SQR3 &= ~ADC_SQR3_RK(ADC_SQR3_SQ1, sConfig->Rank);
 80024ee:	687b      	ldr	r3, [r7, #4]
 80024f0:	681b      	ldr	r3, [r3, #0]
 80024f2:	6b59      	ldr	r1, [r3, #52]	; 0x34
 80024f4:	683b      	ldr	r3, [r7, #0]
 80024f6:	685a      	ldr	r2, [r3, #4]
 80024f8:	4613      	mov	r3, r2
 80024fa:	009b      	lsls	r3, r3, #2
 80024fc:	4413      	add	r3, r2
 80024fe:	3b05      	subs	r3, #5
 8002500:	221f      	movs	r2, #31
 8002502:	fa02 f303 	lsl.w	r3, r2, r3
 8002506:	43da      	mvns	r2, r3
 8002508:	687b      	ldr	r3, [r7, #4]
 800250a:	681b      	ldr	r3, [r3, #0]
 800250c:	400a      	ands	r2, r1
 800250e:	635a      	str	r2, [r3, #52]	; 0x34

    /* Set the SQx bits for the selected rank */
    hadc->Instance->SQR3 |= ADC_SQR3_RK(sConfig->Channel, sConfig->Rank);
 8002510:	687b      	ldr	r3, [r7, #4]
 8002512:	681b      	ldr	r3, [r3, #0]
 8002514:	6b59      	ldr	r1, [r3, #52]	; 0x34
 8002516:	683b      	ldr	r3, [r7, #0]
 8002518:	681b      	ldr	r3, [r3, #0]
 800251a:	b29b      	uxth	r3, r3
 800251c:	4618      	mov	r0, r3
 800251e:	683b      	ldr	r3, [r7, #0]
 8002520:	685a      	ldr	r2, [r3, #4]
 8002522:	4613      	mov	r3, r2
 8002524:	009b      	lsls	r3, r3, #2
 8002526:	4413      	add	r3, r2
 8002528:	3b05      	subs	r3, #5
 800252a:	fa00 f203 	lsl.w	r2, r0, r3
 800252e:	687b      	ldr	r3, [r7, #4]
 8002530:	681b      	ldr	r3, [r3, #0]
 8002532:	430a      	orrs	r2, r1
 8002534:	635a      	str	r2, [r3, #52]	; 0x34
 8002536:	e04c      	b.n	80025d2 <HAL_ADC_ConfigChannel+0x1aa>
  }
  /* For Rank 7 to 12 */
  else if (sConfig->Rank < 13U)
 8002538:	683b      	ldr	r3, [r7, #0]
 800253a:	685b      	ldr	r3, [r3, #4]
 800253c:	2b0c      	cmp	r3, #12
 800253e:	d824      	bhi.n	800258a <HAL_ADC_ConfigChannel+0x162>
  {
    /* Clear the old SQx bits for the selected rank */
    hadc->Instance->SQR2 &= ~ADC_SQR2_RK(ADC_SQR2_SQ7, sConfig->Rank);
 8002540:	687b      	ldr	r3, [r7, #4]
 8002542:	681b      	ldr	r3, [r3, #0]
 8002544:	6b19      	ldr	r1, [r3, #48]	; 0x30
 8002546:	683b      	ldr	r3, [r7, #0]
 8002548:	685a      	ldr	r2, [r3, #4]
 800254a:	4613      	mov	r3, r2
 800254c:	009b      	lsls	r3, r3, #2
 800254e:	4413      	add	r3, r2
 8002550:	3b23      	subs	r3, #35	; 0x23
 8002552:	221f      	movs	r2, #31
 8002554:	fa02 f303 	lsl.w	r3, r2, r3
 8002558:	43da      	mvns	r2, r3
 800255a:	687b      	ldr	r3, [r7, #4]
 800255c:	681b      	ldr	r3, [r3, #0]
 800255e:	400a      	ands	r2, r1
 8002560:	631a      	str	r2, [r3, #48]	; 0x30

    /* Set the SQx bits for the selected rank */
    hadc->Instance->SQR2 |= ADC_SQR2_RK(sConfig->Channel, sConfig->Rank);
 8002562:	687b      	ldr	r3, [r7, #4]
 8002564:	681b      	ldr	r3, [r3, #0]
 8002566:	6b19      	ldr	r1, [r3, #48]	; 0x30
 8002568:	683b      	ldr	r3, [r7, #0]
 800256a:	681b      	ldr	r3, [r3, #0]
 800256c:	b29b      	uxth	r3, r3
 800256e:	4618      	mov	r0, r3
 8002570:	683b      	ldr	r3, [r7, #0]
 8002572:	685a      	ldr	r2, [r3, #4]
 8002574:	4613      	mov	r3, r2
 8002576:	009b      	lsls	r3, r3, #2
 8002578:	4413      	add	r3, r2
 800257a:	3b23      	subs	r3, #35	; 0x23
 800257c:	fa00 f203 	lsl.w	r2, r0, r3
 8002580:	687b      	ldr	r3, [r7, #4]
 8002582:	681b      	ldr	r3, [r3, #0]
 8002584:	430a      	orrs	r2, r1
 8002586:	631a      	str	r2, [r3, #48]	; 0x30
 8002588:	e023      	b.n	80025d2 <HAL_ADC_ConfigChannel+0x1aa>
  }
  /* For Rank 13 to 16 */
  else
  {
    /* Clear the old SQx bits for the selected rank */
    hadc->Instance->SQR1 &= ~ADC_SQR1_RK(ADC_SQR1_SQ13, sConfig->Rank);
 800258a:	687b      	ldr	r3, [r7, #4]
 800258c:	681b      	ldr	r3, [r3, #0]
 800258e:	6ad9      	ldr	r1, [r3, #44]	; 0x2c
 8002590:	683b      	ldr	r3, [r7, #0]
 8002592:	685a      	ldr	r2, [r3, #4]
 8002594:	4613      	mov	r3, r2
 8002596:	009b      	lsls	r3, r3, #2
 8002598:	4413      	add	r3, r2
 800259a:	3b41      	subs	r3, #65	; 0x41
 800259c:	221f      	movs	r2, #31
 800259e:	fa02 f303 	lsl.w	r3, r2, r3
 80025a2:	43da      	mvns	r2, r3
 80025a4:	687b      	ldr	r3, [r7, #4]
 80025a6:	681b      	ldr	r3, [r3, #0]
 80025a8:	400a      	ands	r2, r1
 80025aa:	62da      	str	r2, [r3, #44]	; 0x2c

    /* Set the SQx bits for the selected rank */
    hadc->Instance->SQR1 |= ADC_SQR1_RK(sConfig->Channel, sConfig->Rank);
 80025ac:	687b      	ldr	r3, [r7, #4]
 80025ae:	681b      	ldr	r3, [r3, #0]
 80025b0:	6ad9      	ldr	r1, [r3, #44]	; 0x2c
 80025b2:	683b      	ldr	r3, [r7, #0]
 80025b4:	681b      	ldr	r3, [r3, #0]
 80025b6:	b29b      	uxth	r3, r3
 80025b8:	4618      	mov	r0, r3
 80025ba:	683b      	ldr	r3, [r7, #0]
 80025bc:	685a      	ldr	r2, [r3, #4]
 80025be:	4613      	mov	r3, r2
 80025c0:	009b      	lsls	r3, r3, #2
 80025c2:	4413      	add	r3, r2
 80025c4:	3b41      	subs	r3, #65	; 0x41
 80025c6:	fa00 f203 	lsl.w	r2, r0, r3
 80025ca:	687b      	ldr	r3, [r7, #4]
 80025cc:	681b      	ldr	r3, [r3, #0]
 80025ce:	430a      	orrs	r2, r1
 80025d0:	62da      	str	r2, [r3, #44]	; 0x2c
  }

  /* Pointer to the common control register to which is belonging hadc    */
  /* (Depending on STM32F4 product, there may be up to 3 ADCs and 1 common */
  /* control register)                                                    */
  tmpADC_Common = ADC_COMMON_REGISTER(hadc);
 80025d2:	4b22      	ldr	r3, [pc, #136]	; (800265c <HAL_ADC_ConfigChannel+0x234>)
 80025d4:	60fb      	str	r3, [r7, #12]

  /* if ADC1 Channel_18 is selected for VBAT Channel ennable VBATE */
  if ((hadc->Instance == ADC1) && (sConfig->Channel == ADC_CHANNEL_VBAT))
 80025d6:	687b      	ldr	r3, [r7, #4]
 80025d8:	681b      	ldr	r3, [r3, #0]
 80025da:	4a21      	ldr	r2, [pc, #132]	; (8002660 <HAL_ADC_ConfigChannel+0x238>)
 80025dc:	4293      	cmp	r3, r2
 80025de:	d109      	bne.n	80025f4 <HAL_ADC_ConfigChannel+0x1cc>
 80025e0:	683b      	ldr	r3, [r7, #0]
 80025e2:	681b      	ldr	r3, [r3, #0]
 80025e4:	2b12      	cmp	r3, #18
 80025e6:	d105      	bne.n	80025f4 <HAL_ADC_ConfigChannel+0x1cc>
    if ((uint16_t)ADC_CHANNEL_TEMPSENSOR == (uint16_t)ADC_CHANNEL_VBAT)
    {
      tmpADC_Common->CCR &= ~ADC_CCR_TSVREFE;
    }
    /* Enable the VBAT channel*/
    tmpADC_Common->CCR |= ADC_CCR_VBATE;
 80025e8:	68fb      	ldr	r3, [r7, #12]
 80025ea:	685b      	ldr	r3, [r3, #4]
 80025ec:	f443 0280 	orr.w	r2, r3, #4194304	; 0x400000
 80025f0:	68fb      	ldr	r3, [r7, #12]
 80025f2:	605a      	str	r2, [r3, #4]
  }

  /* if ADC1 Channel_16 or Channel_18 is selected for Temperature sensor or
     Channel_17 is selected for VREFINT enable TSVREFE */
  if ((hadc->Instance == ADC1) && ((sConfig->Channel == ADC_CHANNEL_TEMPSENSOR) || (sConfig->Channel == ADC_CHANNEL_VREFINT)))
 80025f4:	687b      	ldr	r3, [r7, #4]
 80025f6:	681b      	ldr	r3, [r3, #0]
 80025f8:	4a19      	ldr	r2, [pc, #100]	; (8002660 <HAL_ADC_ConfigChannel+0x238>)
 80025fa:	4293      	cmp	r3, r2
 80025fc:	d123      	bne.n	8002646 <HAL_ADC_ConfigChannel+0x21e>
 80025fe:	683b      	ldr	r3, [r7, #0]
 8002600:	681b      	ldr	r3, [r3, #0]
 8002602:	2b10      	cmp	r3, #16
 8002604:	d003      	beq.n	800260e <HAL_ADC_ConfigChannel+0x1e6>
 8002606:	683b      	ldr	r3, [r7, #0]
 8002608:	681b      	ldr	r3, [r3, #0]
 800260a:	2b11      	cmp	r3, #17
 800260c:	d11b      	bne.n	8002646 <HAL_ADC_ConfigChannel+0x21e>
    if ((uint16_t)ADC_CHANNEL_TEMPSENSOR == (uint16_t)ADC_CHANNEL_VBAT)
    {
      tmpADC_Common->CCR &= ~ADC_CCR_VBATE;
    }
    /* Enable the Temperature sensor and VREFINT channel*/
    tmpADC_Common->CCR |= ADC_CCR_TSVREFE;
 800260e:	68fb      	ldr	r3, [r7, #12]
 8002610:	685b      	ldr	r3, [r3, #4]
 8002612:	f443 0200 	orr.w	r2, r3, #8388608	; 0x800000
 8002616:	68fb      	ldr	r3, [r7, #12]
 8002618:	605a      	str	r2, [r3, #4]

    if (sConfig->Channel == ADC_CHANNEL_TEMPSENSOR)
 800261a:	683b      	ldr	r3, [r7, #0]
 800261c:	681b      	ldr	r3, [r3, #0]
 800261e:	2b10      	cmp	r3, #16
 8002620:	d111      	bne.n	8002646 <HAL_ADC_ConfigChannel+0x21e>
    {
      /* Delay for temperature sensor stabilization time */
      /* Compute number of CPU cycles to wait for */
      counter = (ADC_TEMPSENSOR_DELAY_US * (SystemCoreClock / 1000000U));
 8002622:	4b10      	ldr	r3, [pc, #64]	; (8002664 <HAL_ADC_ConfigChannel+0x23c>)
 8002624:	681b      	ldr	r3, [r3, #0]
 8002626:	4a10      	ldr	r2, [pc, #64]	; (8002668 <HAL_ADC_ConfigChannel+0x240>)
 8002628:	fba2 2303 	umull	r2, r3, r2, r3
 800262c:	0c9a      	lsrs	r2, r3, #18
 800262e:	4613      	mov	r3, r2
 8002630:	009b      	lsls	r3, r3, #2
 8002632:	4413      	add	r3, r2
 8002634:	005b      	lsls	r3, r3, #1
 8002636:	60bb      	str	r3, [r7, #8]
      while (counter != 0U)
 8002638:	e002      	b.n	8002640 <HAL_ADC_ConfigChannel+0x218>
      {
        counter--;
 800263a:	68bb      	ldr	r3, [r7, #8]
 800263c:	3b01      	subs	r3, #1
 800263e:	60bb      	str	r3, [r7, #8]
      while (counter != 0U)
 8002640:	68bb      	ldr	r3, [r7, #8]
 8002642:	2b00      	cmp	r3, #0
 8002644:	d1f9      	bne.n	800263a <HAL_ADC_ConfigChannel+0x212>
      }
    }
  }

  /* Process unlocked */
  __HAL_UNLOCK(hadc);
 8002646:	687b      	ldr	r3, [r7, #4]
 8002648:	2200      	movs	r2, #0
 800264a:	f883 203c 	strb.w	r2, [r3, #60]	; 0x3c

  /* Return function status */
  return HAL_OK;
 800264e:	2300      	movs	r3, #0
}
 8002650:	4618      	mov	r0, r3
 8002652:	3714      	adds	r7, #20
 8002654:	46bd      	mov	sp, r7
 8002656:	f85d 7b04 	ldr.w	r7, [sp], #4
 800265a:	4770      	bx	lr
 800265c:	40012300 	.word	0x40012300
 8002660:	40012000 	.word	0x40012000
 8002664:	20000008 	.word	0x20000008
 8002668:	431bde83 	.word	0x431bde83

0800266c <ADC_Init>:
  * @param  hadc pointer to a ADC_HandleTypeDef structure that contains
  *         the configuration information for the specified ADC.
  * @retval None
  */
static void ADC_Init(ADC_HandleTypeDef *hadc)
{
 800266c:	b480      	push	{r7}
 800266e:	b085      	sub	sp, #20
 8002670:	af00      	add	r7, sp, #0
 8002672:	6078      	str	r0, [r7, #4]

  /* Set ADC parameters */
  /* Pointer to the common control register to which is belonging hadc    */
  /* (Depending on STM32F4 product, there may be up to 3 ADCs and 1 common */
  /* control register)                                                    */
  tmpADC_Common = ADC_COMMON_REGISTER(hadc);
 8002674:	4b79      	ldr	r3, [pc, #484]	; (800285c <ADC_Init+0x1f0>)
 8002676:	60fb      	str	r3, [r7, #12]

  /* Set the ADC clock prescaler */
  tmpADC_Common->CCR &= ~(ADC_CCR_ADCPRE);
 8002678:	68fb      	ldr	r3, [r7, #12]
 800267a:	685b      	ldr	r3, [r3, #4]
 800267c:	f423 3240 	bic.w	r2, r3, #196608	; 0x30000
 8002680:	68fb      	ldr	r3, [r7, #12]
 8002682:	605a      	str	r2, [r3, #4]
  tmpADC_Common->CCR |=  hadc->Init.ClockPrescaler;
 8002684:	68fb      	ldr	r3, [r7, #12]
 8002686:	685a      	ldr	r2, [r3, #4]
 8002688:	687b      	ldr	r3, [r7, #4]
 800268a:	685b      	ldr	r3, [r3, #4]
 800268c:	431a      	orrs	r2, r3
 800268e:	68fb      	ldr	r3, [r7, #12]
 8002690:	605a      	str	r2, [r3, #4]

  /* Set ADC scan mode */
  hadc->Instance->CR1 &= ~(ADC_CR1_SCAN);
 8002692:	687b      	ldr	r3, [r7, #4]
 8002694:	681b      	ldr	r3, [r3, #0]
 8002696:	685a      	ldr	r2, [r3, #4]
 8002698:	687b      	ldr	r3, [r7, #4]
 800269a:	681b      	ldr	r3, [r3, #0]
 800269c:	f422 7280 	bic.w	r2, r2, #256	; 0x100
 80026a0:	605a      	str	r2, [r3, #4]
  hadc->Instance->CR1 |=  ADC_CR1_SCANCONV(hadc->Init.ScanConvMode);
 80026a2:	687b      	ldr	r3, [r7, #4]
 80026a4:	681b      	ldr	r3, [r3, #0]
 80026a6:	6859      	ldr	r1, [r3, #4]
 80026a8:	687b      	ldr	r3, [r7, #4]
 80026aa:	691b      	ldr	r3, [r3, #16]
 80026ac:	021a      	lsls	r2, r3, #8
 80026ae:	687b      	ldr	r3, [r7, #4]
 80026b0:	681b      	ldr	r3, [r3, #0]
 80026b2:	430a      	orrs	r2, r1
 80026b4:	605a      	str	r2, [r3, #4]

  /* Set ADC resolution */
  hadc->Instance->CR1 &= ~(ADC_CR1_RES);
 80026b6:	687b      	ldr	r3, [r7, #4]
 80026b8:	681b      	ldr	r3, [r3, #0]
 80026ba:	685a      	ldr	r2, [r3, #4]
 80026bc:	687b      	ldr	r3, [r7, #4]
 80026be:	681b      	ldr	r3, [r3, #0]
 80026c0:	f022 7240 	bic.w	r2, r2, #50331648	; 0x3000000
 80026c4:	605a      	str	r2, [r3, #4]
  hadc->Instance->CR1 |=  hadc->Init.Resolution;
 80026c6:	687b      	ldr	r3, [r7, #4]
 80026c8:	681b      	ldr	r3, [r3, #0]
 80026ca:	6859      	ldr	r1, [r3, #4]
 80026cc:	687b      	ldr	r3, [r7, #4]
 80026ce:	689a      	ldr	r2, [r3, #8]
 80026d0:	687b      	ldr	r3, [r7, #4]
 80026d2:	681b      	ldr	r3, [r3, #0]
 80026d4:	430a      	orrs	r2, r1
 80026d6:	605a      	str	r2, [r3, #4]

  /* Set ADC data alignment */
  hadc->Instance->CR2 &= ~(ADC_CR2_ALIGN);
 80026d8:	687b      	ldr	r3, [r7, #4]
 80026da:	681b      	ldr	r3, [r3, #0]
 80026dc:	689a      	ldr	r2, [r3, #8]
 80026de:	687b      	ldr	r3, [r7, #4]
 80026e0:	681b      	ldr	r3, [r3, #0]
 80026e2:	f422 6200 	bic.w	r2, r2, #2048	; 0x800
 80026e6:	609a      	str	r2, [r3, #8]
  hadc->Instance->CR2 |= hadc->Init.DataAlign;
 80026e8:	687b      	ldr	r3, [r7, #4]
 80026ea:	681b      	ldr	r3, [r3, #0]
 80026ec:	6899      	ldr	r1, [r3, #8]
 80026ee:	687b      	ldr	r3, [r7, #4]
 80026f0:	68da      	ldr	r2, [r3, #12]
 80026f2:	687b      	ldr	r3, [r7, #4]
 80026f4:	681b      	ldr	r3, [r3, #0]
 80026f6:	430a      	orrs	r2, r1
 80026f8:	609a      	str	r2, [r3, #8]
  /* Enable external trigger if trigger selection is different of software  */
  /* start.                                                                 */
  /* Note: This configuration keeps the hardware feature of parameter       */
  /*       ExternalTrigConvEdge "trigger edge none" equivalent to           */
  /*       software start.                                                  */
  if (hadc->Init.ExternalTrigConv != ADC_SOFTWARE_START)
 80026fa:	687b      	ldr	r3, [r7, #4]
 80026fc:	6a9b      	ldr	r3, [r3, #40]	; 0x28
 80026fe:	4a58      	ldr	r2, [pc, #352]	; (8002860 <ADC_Init+0x1f4>)
 8002700:	4293      	cmp	r3, r2
 8002702:	d022      	beq.n	800274a <ADC_Init+0xde>
  {
    /* Select external trigger to start conversion */
    hadc->Instance->CR2 &= ~(ADC_CR2_EXTSEL);
 8002704:	687b      	ldr	r3, [r7, #4]
 8002706:	681b      	ldr	r3, [r3, #0]
 8002708:	689a      	ldr	r2, [r3, #8]
 800270a:	687b      	ldr	r3, [r7, #4]
 800270c:	681b      	ldr	r3, [r3, #0]
 800270e:	f022 6270 	bic.w	r2, r2, #251658240	; 0xf000000
 8002712:	609a      	str	r2, [r3, #8]
    hadc->Instance->CR2 |= hadc->Init.ExternalTrigConv;
 8002714:	687b      	ldr	r3, [r7, #4]
 8002716:	681b      	ldr	r3, [r3, #0]
 8002718:	6899      	ldr	r1, [r3, #8]
 800271a:	687b      	ldr	r3, [r7, #4]
 800271c:	6a9a      	ldr	r2, [r3, #40]	; 0x28
 800271e:	687b      	ldr	r3, [r7, #4]
 8002720:	681b      	ldr	r3, [r3, #0]
 8002722:	430a      	orrs	r2, r1
 8002724:	609a      	str	r2, [r3, #8]

    /* Select external trigger polarity */
    hadc->Instance->CR2 &= ~(ADC_CR2_EXTEN);
 8002726:	687b      	ldr	r3, [r7, #4]
 8002728:	681b      	ldr	r3, [r3, #0]
 800272a:	689a      	ldr	r2, [r3, #8]
 800272c:	687b      	ldr	r3, [r7, #4]
 800272e:	681b      	ldr	r3, [r3, #0]
 8002730:	f022 5240 	bic.w	r2, r2, #805306368	; 0x30000000
 8002734:	609a      	str	r2, [r3, #8]
    hadc->Instance->CR2 |= hadc->Init.ExternalTrigConvEdge;
 8002736:	687b      	ldr	r3, [r7, #4]
 8002738:	681b      	ldr	r3, [r3, #0]
 800273a:	6899      	ldr	r1, [r3, #8]
 800273c:	687b      	ldr	r3, [r7, #4]
 800273e:	6ada      	ldr	r2, [r3, #44]	; 0x2c
 8002740:	687b      	ldr	r3, [r7, #4]
 8002742:	681b      	ldr	r3, [r3, #0]
 8002744:	430a      	orrs	r2, r1
 8002746:	609a      	str	r2, [r3, #8]
 8002748:	e00f      	b.n	800276a <ADC_Init+0xfe>
  }
  else
  {
    /* Reset the external trigger */
    hadc->Instance->CR2 &= ~(ADC_CR2_EXTSEL);
 800274a:	687b      	ldr	r3, [r7, #4]
 800274c:	681b      	ldr	r3, [r3, #0]
 800274e:	689a      	ldr	r2, [r3, #8]
 8002750:	687b      	ldr	r3, [r7, #4]
 8002752:	681b      	ldr	r3, [r3, #0]
 8002754:	f022 6270 	bic.w	r2, r2, #251658240	; 0xf000000
 8002758:	609a      	str	r2, [r3, #8]
    hadc->Instance->CR2 &= ~(ADC_CR2_EXTEN);
 800275a:	687b      	ldr	r3, [r7, #4]
 800275c:	681b      	ldr	r3, [r3, #0]
 800275e:	689a      	ldr	r2, [r3, #8]
 8002760:	687b      	ldr	r3, [r7, #4]
 8002762:	681b      	ldr	r3, [r3, #0]
 8002764:	f022 5240 	bic.w	r2, r2, #805306368	; 0x30000000
 8002768:	609a      	str	r2, [r3, #8]
  }

  /* Enable or disable ADC continuous conversion mode */
  hadc->Instance->CR2 &= ~(ADC_CR2_CONT);
 800276a:	687b      	ldr	r3, [r7, #4]
 800276c:	681b      	ldr	r3, [r3, #0]
 800276e:	689a      	ldr	r2, [r3, #8]
 8002770:	687b      	ldr	r3, [r7, #4]
 8002772:	681b      	ldr	r3, [r3, #0]
 8002774:	f022 0202 	bic.w	r2, r2, #2
 8002778:	609a      	str	r2, [r3, #8]
  hadc->Instance->CR2 |= ADC_CR2_CONTINUOUS((uint32_t)hadc->Init.ContinuousConvMode);
 800277a:	687b      	ldr	r3, [r7, #4]
 800277c:	681b      	ldr	r3, [r3, #0]
 800277e:	6899      	ldr	r1, [r3, #8]
 8002780:	687b      	ldr	r3, [r7, #4]
 8002782:	7e1b      	ldrb	r3, [r3, #24]
 8002784:	005a      	lsls	r2, r3, #1
 8002786:	687b      	ldr	r3, [r7, #4]
 8002788:	681b      	ldr	r3, [r3, #0]
 800278a:	430a      	orrs	r2, r1
 800278c:	609a      	str	r2, [r3, #8]

  if (hadc->Init.DiscontinuousConvMode != DISABLE)
 800278e:	687b      	ldr	r3, [r7, #4]
 8002790:	f893 3020 	ldrb.w	r3, [r3, #32]
 8002794:	2b00      	cmp	r3, #0
 8002796:	d01b      	beq.n	80027d0 <ADC_Init+0x164>
  {
    assert_param(IS_ADC_REGULAR_DISC_NUMBER(hadc->Init.NbrOfDiscConversion));

    /* Enable the selected ADC regular discontinuous mode */
    hadc->Instance->CR1 |= (uint32_t)ADC_CR1_DISCEN;
 8002798:	687b      	ldr	r3, [r7, #4]
 800279a:	681b      	ldr	r3, [r3, #0]
 800279c:	685a      	ldr	r2, [r3, #4]
 800279e:	687b      	ldr	r3, [r7, #4]
 80027a0:	681b      	ldr	r3, [r3, #0]
 80027a2:	f442 6200 	orr.w	r2, r2, #2048	; 0x800
 80027a6:	605a      	str	r2, [r3, #4]

    /* Set the number of channels to be converted in discontinuous mode */
    hadc->Instance->CR1 &= ~(ADC_CR1_DISCNUM);
 80027a8:	687b      	ldr	r3, [r7, #4]
 80027aa:	681b      	ldr	r3, [r3, #0]
 80027ac:	685a      	ldr	r2, [r3, #4]
 80027ae:	687b      	ldr	r3, [r7, #4]
 80027b0:	681b      	ldr	r3, [r3, #0]
 80027b2:	f422 4260 	bic.w	r2, r2, #57344	; 0xe000
 80027b6:	605a      	str	r2, [r3, #4]
    hadc->Instance->CR1 |=  ADC_CR1_DISCONTINUOUS(hadc->Init.NbrOfDiscConversion);
 80027b8:	687b      	ldr	r3, [r7, #4]
 80027ba:	681b      	ldr	r3, [r3, #0]
 80027bc:	6859      	ldr	r1, [r3, #4]
 80027be:	687b      	ldr	r3, [r7, #4]
 80027c0:	6a5b      	ldr	r3, [r3, #36]	; 0x24
 80027c2:	3b01      	subs	r3, #1
 80027c4:	035a      	lsls	r2, r3, #13
 80027c6:	687b      	ldr	r3, [r7, #4]
 80027c8:	681b      	ldr	r3, [r3, #0]
 80027ca:	430a      	orrs	r2, r1
 80027cc:	605a      	str	r2, [r3, #4]
 80027ce:	e007      	b.n	80027e0 <ADC_Init+0x174>
  }
  else
  {
    /* Disable the selected ADC regular discontinuous mode */
    hadc->Instance->CR1 &= ~(ADC_CR1_DISCEN);
 80027d0:	687b      	ldr	r3, [r7, #4]
 80027d2:	681b      	ldr	r3, [r3, #0]
 80027d4:	685a      	ldr	r2, [r3, #4]
 80027d6:	687b      	ldr	r3, [r7, #4]
 80027d8:	681b      	ldr	r3, [r3, #0]
 80027da:	f422 6200 	bic.w	r2, r2, #2048	; 0x800
 80027de:	605a      	str	r2, [r3, #4]
  }

  /* Set ADC number of conversion */
  hadc->Instance->SQR1 &= ~(ADC_SQR1_L);
 80027e0:	687b      	ldr	r3, [r7, #4]
 80027e2:	681b      	ldr	r3, [r3, #0]
 80027e4:	6ada      	ldr	r2, [r3, #44]	; 0x2c
 80027e6:	687b      	ldr	r3, [r7, #4]
 80027e8:	681b      	ldr	r3, [r3, #0]
 80027ea:	f422 0270 	bic.w	r2, r2, #15728640	; 0xf00000
 80027ee:	62da      	str	r2, [r3, #44]	; 0x2c
  hadc->Instance->SQR1 |=  ADC_SQR1(hadc->Init.NbrOfConversion);
 80027f0:	687b      	ldr	r3, [r7, #4]
 80027f2:	681b      	ldr	r3, [r3, #0]
 80027f4:	6ad9      	ldr	r1, [r3, #44]	; 0x2c
 80027f6:	687b      	ldr	r3, [r7, #4]
 80027f8:	69db      	ldr	r3, [r3, #28]
 80027fa:	3b01      	subs	r3, #1
 80027fc:	051a      	lsls	r2, r3, #20
 80027fe:	687b      	ldr	r3, [r7, #4]
 8002800:	681b      	ldr	r3, [r3, #0]
 8002802:	430a      	orrs	r2, r1
 8002804:	62da      	str	r2, [r3, #44]	; 0x2c

  /* Enable or disable ADC DMA continuous request */
  hadc->Instance->CR2 &= ~(ADC_CR2_DDS);
 8002806:	687b      	ldr	r3, [r7, #4]
 8002808:	681b      	ldr	r3, [r3, #0]
 800280a:	689a      	ldr	r2, [r3, #8]
 800280c:	687b      	ldr	r3, [r7, #4]
 800280e:	681b      	ldr	r3, [r3, #0]
 8002810:	f422 7200 	bic.w	r2, r2, #512	; 0x200
 8002814:	609a      	str	r2, [r3, #8]
  hadc->Instance->CR2 |= ADC_CR2_DMAContReq((uint32_t)hadc->Init.DMAContinuousRequests);
 8002816:	687b      	ldr	r3, [r7, #4]
 8002818:	681b      	ldr	r3, [r3, #0]
 800281a:	6899      	ldr	r1, [r3, #8]
 800281c:	687b      	ldr	r3, [r7, #4]
 800281e:	f893 3030 	ldrb.w	r3, [r3, #48]	; 0x30
 8002822:	025a      	lsls	r2, r3, #9
 8002824:	687b      	ldr	r3, [r7, #4]
 8002826:	681b      	ldr	r3, [r3, #0]
 8002828:	430a      	orrs	r2, r1
 800282a:	609a      	str	r2, [r3, #8]

  /* Enable or disable ADC end of conversion selection */
  hadc->Instance->CR2 &= ~(ADC_CR2_EOCS);
 800282c:	687b      	ldr	r3, [r7, #4]
 800282e:	681b      	ldr	r3, [r3, #0]
 8002830:	689a      	ldr	r2, [r3, #8]
 8002832:	687b      	ldr	r3, [r7, #4]
 8002834:	681b      	ldr	r3, [r3, #0]
 8002836:	f422 6280 	bic.w	r2, r2, #1024	; 0x400
 800283a:	609a      	str	r2, [r3, #8]
  hadc->Instance->CR2 |= ADC_CR2_EOCSelection(hadc->Init.EOCSelection);
 800283c:	687b      	ldr	r3, [r7, #4]
 800283e:	681b      	ldr	r3, [r3, #0]
 8002840:	6899      	ldr	r1, [r3, #8]
 8002842:	687b      	ldr	r3, [r7, #4]
 8002844:	695b      	ldr	r3, [r3, #20]
 8002846:	029a      	lsls	r2, r3, #10
 8002848:	687b      	ldr	r3, [r7, #4]
 800284a:	681b      	ldr	r3, [r3, #0]
 800284c:	430a      	orrs	r2, r1
 800284e:	609a      	str	r2, [r3, #8]
}
 8002850:	bf00      	nop
 8002852:	3714      	adds	r7, #20
 8002854:	46bd      	mov	sp, r7
 8002856:	f85d 7b04 	ldr.w	r7, [sp], #4
 800285a:	4770      	bx	lr
 800285c:	40012300 	.word	0x40012300
 8002860:	0f000001 	.word	0x0f000001

08002864 <HAL_ADCEx_InjectedConvCpltCallback>:
  * @param  hadc pointer to a ADC_HandleTypeDef structure that contains
  *         the configuration information for the specified ADC.
  * @retval None
  */
__weak void HAL_ADCEx_InjectedConvCpltCallback(ADC_HandleTypeDef *hadc)
{
 8002864:	b480      	push	{r7}
 8002866:	b083      	sub	sp, #12
 8002868:	af00      	add	r7, sp, #0
 800286a:	6078      	str	r0, [r7, #4]
  /* Prevent unused argument(s) compilation warning */
  UNUSED(hadc);
  /* NOTE : This function Should not be modified, when the callback is needed,
            the HAL_ADC_InjectedConvCpltCallback could be implemented in the user file
   */
}
 800286c:	bf00      	nop
 800286e:	370c      	adds	r7, #12
 8002870:	46bd      	mov	sp, r7
 8002872:	f85d 7b04 	ldr.w	r7, [sp], #4
 8002876:	4770      	bx	lr

08002878 <__NVIC_SetPriorityGrouping>:
           In case of a conflict between priority grouping and available
           priority bits (__NVIC_PRIO_BITS), the smallest possible priority group is set.
  \param [in]      PriorityGroup  Priority grouping field.
 */
__STATIC_INLINE void __NVIC_SetPriorityGrouping(uint32_t PriorityGroup)
{
 8002878:	b480      	push	{r7}
 800287a:	b085      	sub	sp, #20
 800287c:	af00      	add	r7, sp, #0
 800287e:	6078      	str	r0, [r7, #4]
  uint32_t reg_value;
  uint32_t PriorityGroupTmp = (PriorityGroup & (uint32_t)0x07UL);             /* only values 0..7 are used          */
 8002880:	687b      	ldr	r3, [r7, #4]
 8002882:	f003 0307 	and.w	r3, r3, #7
 8002886:	60fb      	str	r3, [r7, #12]

  reg_value  =  SCB->AIRCR;                                                   /* read old register configuration    */
 8002888:	4b0c      	ldr	r3, [pc, #48]	; (80028bc <__NVIC_SetPriorityGrouping+0x44>)
 800288a:	68db      	ldr	r3, [r3, #12]
 800288c:	60bb      	str	r3, [r7, #8]
  reg_value &= ~((uint32_t)(SCB_AIRCR_VECTKEY_Msk | SCB_AIRCR_PRIGROUP_Msk)); /* clear bits to change               */
 800288e:	68ba      	ldr	r2, [r7, #8]
 8002890:	f64f 03ff 	movw	r3, #63743	; 0xf8ff
 8002894:	4013      	ands	r3, r2
 8002896:	60bb      	str	r3, [r7, #8]
  reg_value  =  (reg_value                                   |
                ((uint32_t)0x5FAUL << SCB_AIRCR_VECTKEY_Pos) |
                (PriorityGroupTmp << SCB_AIRCR_PRIGROUP_Pos)  );              /* Insert write key and priority group */
 8002898:	68fb      	ldr	r3, [r7, #12]
 800289a:	021a      	lsls	r2, r3, #8
                ((uint32_t)0x5FAUL << SCB_AIRCR_VECTKEY_Pos) |
 800289c:	68bb      	ldr	r3, [r7, #8]
 800289e:	4313      	orrs	r3, r2
  reg_value  =  (reg_value                                   |
 80028a0:	f043 63bf 	orr.w	r3, r3, #100139008	; 0x5f80000
 80028a4:	f443 3300 	orr.w	r3, r3, #131072	; 0x20000
 80028a8:	60bb      	str	r3, [r7, #8]
  SCB->AIRCR =  reg_value;
 80028aa:	4a04      	ldr	r2, [pc, #16]	; (80028bc <__NVIC_SetPriorityGrouping+0x44>)
 80028ac:	68bb      	ldr	r3, [r7, #8]
 80028ae:	60d3      	str	r3, [r2, #12]
}
 80028b0:	bf00      	nop
 80028b2:	3714      	adds	r7, #20
 80028b4:	46bd      	mov	sp, r7
 80028b6:	f85d 7b04 	ldr.w	r7, [sp], #4
 80028ba:	4770      	bx	lr
 80028bc:	e000ed00 	.word	0xe000ed00

080028c0 <__NVIC_GetPriorityGrouping>:
  \brief   Get Priority Grouping
  \details Reads the priority grouping field from the NVIC Interrupt Controller.
  \return                Priority grouping field (SCB->AIRCR [10:8] PRIGROUP field).
 */
__STATIC_INLINE uint32_t __NVIC_GetPriorityGrouping(void)
{
 80028c0:	b480      	push	{r7}
 80028c2:	af00      	add	r7, sp, #0
  return ((uint32_t)((SCB->AIRCR & SCB_AIRCR_PRIGROUP_Msk) >> SCB_AIRCR_PRIGROUP_Pos));
 80028c4:	4b04      	ldr	r3, [pc, #16]	; (80028d8 <__NVIC_GetPriorityGrouping+0x18>)
 80028c6:	68db      	ldr	r3, [r3, #12]
 80028c8:	0a1b      	lsrs	r3, r3, #8
 80028ca:	f003 0307 	and.w	r3, r3, #7
}
 80028ce:	4618      	mov	r0, r3
 80028d0:	46bd      	mov	sp, r7
 80028d2:	f85d 7b04 	ldr.w	r7, [sp], #4
 80028d6:	4770      	bx	lr
 80028d8:	e000ed00 	.word	0xe000ed00

080028dc <__NVIC_EnableIRQ>:
  \details Enables a device specific interrupt in the NVIC interrupt controller.
  \param [in]      IRQn  Device specific interrupt number.
  \note    IRQn must not be negative.
 */
__STATIC_INLINE void __NVIC_EnableIRQ(IRQn_Type IRQn)
{
 80028dc:	b480      	push	{r7}
 80028de:	b083      	sub	sp, #12
 80028e0:	af00      	add	r7, sp, #0
 80028e2:	4603      	mov	r3, r0
 80028e4:	71fb      	strb	r3, [r7, #7]
  if ((int32_t)(IRQn) >= 0)
 80028e6:	f997 3007 	ldrsb.w	r3, [r7, #7]
 80028ea:	2b00      	cmp	r3, #0
 80028ec:	db0b      	blt.n	8002906 <__NVIC_EnableIRQ+0x2a>
  {
    __COMPILER_BARRIER();
    NVIC->ISER[(((uint32_t)IRQn) >> 5UL)] = (uint32_t)(1UL << (((uint32_t)IRQn) & 0x1FUL));
 80028ee:	79fb      	ldrb	r3, [r7, #7]
 80028f0:	f003 021f 	and.w	r2, r3, #31
 80028f4:	4907      	ldr	r1, [pc, #28]	; (8002914 <__NVIC_EnableIRQ+0x38>)
 80028f6:	f997 3007 	ldrsb.w	r3, [r7, #7]
 80028fa:	095b      	lsrs	r3, r3, #5
 80028fc:	2001      	movs	r0, #1
 80028fe:	fa00 f202 	lsl.w	r2, r0, r2
 8002902:	f841 2023 	str.w	r2, [r1, r3, lsl #2]
    __COMPILER_BARRIER();
  }
}
 8002906:	bf00      	nop
 8002908:	370c      	adds	r7, #12
 800290a:	46bd      	mov	sp, r7
 800290c:	f85d 7b04 	ldr.w	r7, [sp], #4
 8002910:	4770      	bx	lr
 8002912:	bf00      	nop
 8002914:	e000e100 	.word	0xe000e100

08002918 <__NVIC_SetPriority>:
  \param [in]      IRQn  Interrupt number.
  \param [in]  priority  Priority to set.
  \note    The priority cannot be set for every processor exception.
 */
__STATIC_INLINE void __NVIC_SetPriority(IRQn_Type IRQn, uint32_t priority)
{
 8002918:	b480      	push	{r7}
 800291a:	b083      	sub	sp, #12
 800291c:	af00      	add	r7, sp, #0
 800291e:	4603      	mov	r3, r0
 8002920:	6039      	str	r1, [r7, #0]
 8002922:	71fb      	strb	r3, [r7, #7]
  if ((int32_t)(IRQn) >= 0)
 8002924:	f997 3007 	ldrsb.w	r3, [r7, #7]
 8002928:	2b00      	cmp	r3, #0
 800292a:	db0a      	blt.n	8002942 <__NVIC_SetPriority+0x2a>
  {
    NVIC->IP[((uint32_t)IRQn)]               = (uint8_t)((priority << (8U - __NVIC_PRIO_BITS)) & (uint32_t)0xFFUL);
 800292c:	683b      	ldr	r3, [r7, #0]
 800292e:	b2da      	uxtb	r2, r3
 8002930:	490c      	ldr	r1, [pc, #48]	; (8002964 <__NVIC_SetPriority+0x4c>)
 8002932:	f997 3007 	ldrsb.w	r3, [r7, #7]
 8002936:	0112      	lsls	r2, r2, #4
 8002938:	b2d2      	uxtb	r2, r2
 800293a:	440b      	add	r3, r1
 800293c:	f883 2300 	strb.w	r2, [r3, #768]	; 0x300
  }
  else
  {
    SCB->SHP[(((uint32_t)IRQn) & 0xFUL)-4UL] = (uint8_t)((priority << (8U - __NVIC_PRIO_BITS)) & (uint32_t)0xFFUL);
  }
}
 8002940:	e00a      	b.n	8002958 <__NVIC_SetPriority+0x40>
    SCB->SHP[(((uint32_t)IRQn) & 0xFUL)-4UL] = (uint8_t)((priority << (8U - __NVIC_PRIO_BITS)) & (uint32_t)0xFFUL);
 8002942:	683b      	ldr	r3, [r7, #0]
 8002944:	b2da      	uxtb	r2, r3
 8002946:	4908      	ldr	r1, [pc, #32]	; (8002968 <__NVIC_SetPriority+0x50>)
 8002948:	79fb      	ldrb	r3, [r7, #7]
 800294a:	f003 030f 	and.w	r3, r3, #15
 800294e:	3b04      	subs	r3, #4
 8002950:	0112      	lsls	r2, r2, #4
 8002952:	b2d2      	uxtb	r2, r2
 8002954:	440b      	add	r3, r1
 8002956:	761a      	strb	r2, [r3, #24]
}
 8002958:	bf00      	nop
 800295a:	370c      	adds	r7, #12
 800295c:	46bd      	mov	sp, r7
 800295e:	f85d 7b04 	ldr.w	r7, [sp], #4
 8002962:	4770      	bx	lr
 8002964:	e000e100 	.word	0xe000e100
 8002968:	e000ed00 	.word	0xe000ed00

0800296c <NVIC_EncodePriority>:
  \param [in]   PreemptPriority  Preemptive priority value (starting from 0).
  \param [in]       SubPriority  Subpriority value (starting from 0).
  \return                        Encoded priority. Value can be used in the function \ref NVIC_SetPriority().
 */
__STATIC_INLINE uint32_t NVIC_EncodePriority (uint32_t PriorityGroup, uint32_t PreemptPriority, uint32_t SubPriority)
{
 800296c:	b480      	push	{r7}
 800296e:	b089      	sub	sp, #36	; 0x24
 8002970:	af00      	add	r7, sp, #0
 8002972:	60f8      	str	r0, [r7, #12]
 8002974:	60b9      	str	r1, [r7, #8]
 8002976:	607a      	str	r2, [r7, #4]
  uint32_t PriorityGroupTmp = (PriorityGroup & (uint32_t)0x07UL);   /* only values 0..7 are used          */
 8002978:	68fb      	ldr	r3, [r7, #12]
 800297a:	f003 0307 	and.w	r3, r3, #7
 800297e:	61fb      	str	r3, [r7, #28]
  uint32_t PreemptPriorityBits;
  uint32_t SubPriorityBits;

  PreemptPriorityBits = ((7UL - PriorityGroupTmp) > (uint32_t)(__NVIC_PRIO_BITS)) ? (uint32_t)(__NVIC_PRIO_BITS) : (uint32_t)(7UL - PriorityGroupTmp);
 8002980:	69fb      	ldr	r3, [r7, #28]
 8002982:	f1c3 0307 	rsb	r3, r3, #7
 8002986:	2b04      	cmp	r3, #4
 8002988:	bf28      	it	cs
 800298a:	2304      	movcs	r3, #4
 800298c:	61bb      	str	r3, [r7, #24]
  SubPriorityBits     = ((PriorityGroupTmp + (uint32_t)(__NVIC_PRIO_BITS)) < (uint32_t)7UL) ? (uint32_t)0UL : (uint32_t)((PriorityGroupTmp - 7UL) + (uint32_t)(__NVIC_PRIO_BITS));
 800298e:	69fb      	ldr	r3, [r7, #28]
 8002990:	3304      	adds	r3, #4
 8002992:	2b06      	cmp	r3, #6
 8002994:	d902      	bls.n	800299c <NVIC_EncodePriority+0x30>
 8002996:	69fb      	ldr	r3, [r7, #28]
 8002998:	3b03      	subs	r3, #3
 800299a:	e000      	b.n	800299e <NVIC_EncodePriority+0x32>
 800299c:	2300      	movs	r3, #0
 800299e:	617b      	str	r3, [r7, #20]

  return (
           ((PreemptPriority & (uint32_t)((1UL << (PreemptPriorityBits)) - 1UL)) << SubPriorityBits) |
 80029a0:	f04f 32ff 	mov.w	r2, #4294967295
 80029a4:	69bb      	ldr	r3, [r7, #24]
 80029a6:	fa02 f303 	lsl.w	r3, r2, r3
 80029aa:	43da      	mvns	r2, r3
 80029ac:	68bb      	ldr	r3, [r7, #8]
 80029ae:	401a      	ands	r2, r3
 80029b0:	697b      	ldr	r3, [r7, #20]
 80029b2:	409a      	lsls	r2, r3
           ((SubPriority     & (uint32_t)((1UL << (SubPriorityBits    )) - 1UL)))
 80029b4:	f04f 31ff 	mov.w	r1, #4294967295
 80029b8:	697b      	ldr	r3, [r7, #20]
 80029ba:	fa01 f303 	lsl.w	r3, r1, r3
 80029be:	43d9      	mvns	r1, r3
 80029c0:	687b      	ldr	r3, [r7, #4]
 80029c2:	400b      	ands	r3, r1
           ((PreemptPriority & (uint32_t)((1UL << (PreemptPriorityBits)) - 1UL)) << SubPriorityBits) |
 80029c4:	4313      	orrs	r3, r2
         );
}
 80029c6:	4618      	mov	r0, r3
 80029c8:	3724      	adds	r7, #36	; 0x24
 80029ca:	46bd      	mov	sp, r7
 80029cc:	f85d 7b04 	ldr.w	r7, [sp], #4
 80029d0:	4770      	bx	lr
	...

080029d4 <SysTick_Config>:
  \note    When the variable <b>__Vendor_SysTickConfig</b> is set to 1, then the
           function <b>SysTick_Config</b> is not included. In this case, the file <b><i>device</i>.h</b>
           must contain a vendor-specific implementation of this function.
 */
__STATIC_INLINE uint32_t SysTick_Config(uint32_t ticks)
{
 80029d4:	b580      	push	{r7, lr}
 80029d6:	b082      	sub	sp, #8
 80029d8:	af00      	add	r7, sp, #0
 80029da:	6078      	str	r0, [r7, #4]
  if ((ticks - 1UL) > SysTick_LOAD_RELOAD_Msk)
 80029dc:	687b      	ldr	r3, [r7, #4]
 80029de:	3b01      	subs	r3, #1
 80029e0:	f1b3 7f80 	cmp.w	r3, #16777216	; 0x1000000
 80029e4:	d301      	bcc.n	80029ea <SysTick_Config+0x16>
  {
    return (1UL);                                                   /* Reload value impossible */
 80029e6:	2301      	movs	r3, #1
 80029e8:	e00f      	b.n	8002a0a <SysTick_Config+0x36>
  }

  SysTick->LOAD  = (uint32_t)(ticks - 1UL);                         /* set reload register */
 80029ea:	4a0a      	ldr	r2, [pc, #40]	; (8002a14 <SysTick_Config+0x40>)
 80029ec:	687b      	ldr	r3, [r7, #4]
 80029ee:	3b01      	subs	r3, #1
 80029f0:	6053      	str	r3, [r2, #4]
  NVIC_SetPriority (SysTick_IRQn, (1UL << __NVIC_PRIO_BITS) - 1UL); /* set Priority for Systick Interrupt */
 80029f2:	210f      	movs	r1, #15
 80029f4:	f04f 30ff 	mov.w	r0, #4294967295
 80029f8:	f7ff ff8e 	bl	8002918 <__NVIC_SetPriority>
  SysTick->VAL   = 0UL;                                             /* Load the SysTick Counter Value */
 80029fc:	4b05      	ldr	r3, [pc, #20]	; (8002a14 <SysTick_Config+0x40>)
 80029fe:	2200      	movs	r2, #0
 8002a00:	609a      	str	r2, [r3, #8]
  SysTick->CTRL  = SysTick_CTRL_CLKSOURCE_Msk |
 8002a02:	4b04      	ldr	r3, [pc, #16]	; (8002a14 <SysTick_Config+0x40>)
 8002a04:	2207      	movs	r2, #7
 8002a06:	601a      	str	r2, [r3, #0]
                   SysTick_CTRL_TICKINT_Msk   |
                   SysTick_CTRL_ENABLE_Msk;                         /* Enable SysTick IRQ and SysTick Timer */
  return (0UL);                                                     /* Function successful */
 8002a08:	2300      	movs	r3, #0
}
 8002a0a:	4618      	mov	r0, r3
 8002a0c:	3708      	adds	r7, #8
 8002a0e:	46bd      	mov	sp, r7
 8002a10:	bd80      	pop	{r7, pc}
 8002a12:	bf00      	nop
 8002a14:	e000e010 	.word	0xe000e010

08002a18 <HAL_NVIC_SetPriorityGrouping>:
  * @note   When the NVIC_PriorityGroup_0 is selected, IRQ preemption is no more possible. 
  *         The pending IRQ priority will be managed only by the subpriority. 
  * @retval None
  */
void HAL_NVIC_SetPriorityGrouping(uint32_t PriorityGroup)
{
 8002a18:	b580      	push	{r7, lr}
 8002a1a:	b082      	sub	sp, #8
 8002a1c:	af00      	add	r7, sp, #0
 8002a1e:	6078      	str	r0, [r7, #4]
  /* Check the parameters */
  assert_param(IS_NVIC_PRIORITY_GROUP(PriorityGroup));
  
  /* Set the PRIGROUP[10:8] bits according to the PriorityGroup parameter value */
  NVIC_SetPriorityGrouping(PriorityGroup);
 8002a20:	6878      	ldr	r0, [r7, #4]
 8002a22:	f7ff ff29 	bl	8002878 <__NVIC_SetPriorityGrouping>
}
 8002a26:	bf00      	nop
 8002a28:	3708      	adds	r7, #8
 8002a2a:	46bd      	mov	sp, r7
 8002a2c:	bd80      	pop	{r7, pc}

08002a2e <HAL_NVIC_SetPriority>:
  *         This parameter can be a value between 0 and 15
  *         A lower priority value indicates a higher priority.          
  * @retval None
  */
void HAL_NVIC_SetPriority(IRQn_Type IRQn, uint32_t PreemptPriority, uint32_t SubPriority)
{ 
 8002a2e:	b580      	push	{r7, lr}
 8002a30:	b086      	sub	sp, #24
 8002a32:	af00      	add	r7, sp, #0
 8002a34:	4603      	mov	r3, r0
 8002a36:	60b9      	str	r1, [r7, #8]
 8002a38:	607a      	str	r2, [r7, #4]
 8002a3a:	73fb      	strb	r3, [r7, #15]
  uint32_t prioritygroup = 0x00U;
 8002a3c:	2300      	movs	r3, #0
 8002a3e:	617b      	str	r3, [r7, #20]
  
  /* Check the parameters */
  assert_param(IS_NVIC_SUB_PRIORITY(SubPriority));
  assert_param(IS_NVIC_PREEMPTION_PRIORITY(PreemptPriority));
  
  prioritygroup = NVIC_GetPriorityGrouping();
 8002a40:	f7ff ff3e 	bl	80028c0 <__NVIC_GetPriorityGrouping>
 8002a44:	6178      	str	r0, [r7, #20]
  
  NVIC_SetPriority(IRQn, NVIC_EncodePriority(prioritygroup, PreemptPriority, SubPriority));
 8002a46:	687a      	ldr	r2, [r7, #4]
 8002a48:	68b9      	ldr	r1, [r7, #8]
 8002a4a:	6978      	ldr	r0, [r7, #20]
 8002a4c:	f7ff ff8e 	bl	800296c <NVIC_EncodePriority>
 8002a50:	4602      	mov	r2, r0
 8002a52:	f997 300f 	ldrsb.w	r3, [r7, #15]
 8002a56:	4611      	mov	r1, r2
 8002a58:	4618      	mov	r0, r3
 8002a5a:	f7ff ff5d 	bl	8002918 <__NVIC_SetPriority>
}
 8002a5e:	bf00      	nop
 8002a60:	3718      	adds	r7, #24
 8002a62:	46bd      	mov	sp, r7
 8002a64:	bd80      	pop	{r7, pc}

08002a66 <HAL_NVIC_EnableIRQ>:
  *         This parameter can be an enumerator of IRQn_Type enumeration
  *         (For the complete STM32 Devices IRQ Channels list, please refer to the appropriate CMSIS device file (stm32f4xxxx.h))
  * @retval None
  */
void HAL_NVIC_EnableIRQ(IRQn_Type IRQn)
{
 8002a66:	b580      	push	{r7, lr}
 8002a68:	b082      	sub	sp, #8
 8002a6a:	af00      	add	r7, sp, #0
 8002a6c:	4603      	mov	r3, r0
 8002a6e:	71fb      	strb	r3, [r7, #7]
  /* Check the parameters */
  assert_param(IS_NVIC_DEVICE_IRQ(IRQn));
  
  /* Enable interrupt */
  NVIC_EnableIRQ(IRQn);
 8002a70:	f997 3007 	ldrsb.w	r3, [r7, #7]
 8002a74:	4618      	mov	r0, r3
 8002a76:	f7ff ff31 	bl	80028dc <__NVIC_EnableIRQ>
}
 8002a7a:	bf00      	nop
 8002a7c:	3708      	adds	r7, #8
 8002a7e:	46bd      	mov	sp, r7
 8002a80:	bd80      	pop	{r7, pc}

08002a82 <HAL_SYSTICK_Config>:
  * @param  TicksNumb Specifies the ticks Number of ticks between two interrupts.
  * @retval status:  - 0  Function succeeded.
  *                  - 1  Function failed.
  */
uint32_t HAL_SYSTICK_Config(uint32_t TicksNumb)
{
 8002a82:	b580      	push	{r7, lr}
 8002a84:	b082      	sub	sp, #8
 8002a86:	af00      	add	r7, sp, #0
 8002a88:	6078      	str	r0, [r7, #4]
   return SysTick_Config(TicksNumb);
 8002a8a:	6878      	ldr	r0, [r7, #4]
 8002a8c:	f7ff ffa2 	bl	80029d4 <SysTick_Config>
 8002a90:	4603      	mov	r3, r0
}
 8002a92:	4618      	mov	r0, r3
 8002a94:	3708      	adds	r7, #8
 8002a96:	46bd      	mov	sp, r7
 8002a98:	bd80      	pop	{r7, pc}
	...

08002a9c <HAL_GPIO_Init>:
  * @param  GPIO_Init pointer to a GPIO_InitTypeDef structure that contains
  *         the configuration information for the specified GPIO peripheral.
  * @retval None
  */
void HAL_GPIO_Init(GPIO_TypeDef  *GPIOx, GPIO_InitTypeDef *GPIO_Init)
{
 8002a9c:	b480      	push	{r7}
 8002a9e:	b089      	sub	sp, #36	; 0x24
 8002aa0:	af00      	add	r7, sp, #0
 8002aa2:	6078      	str	r0, [r7, #4]
 8002aa4:	6039      	str	r1, [r7, #0]
  uint32_t position;
  uint32_t ioposition = 0x00U;
 8002aa6:	2300      	movs	r3, #0
 8002aa8:	617b      	str	r3, [r7, #20]
  uint32_t iocurrent = 0x00U;
 8002aaa:	2300      	movs	r3, #0
 8002aac:	613b      	str	r3, [r7, #16]
  uint32_t temp = 0x00U;
 8002aae:	2300      	movs	r3, #0
 8002ab0:	61bb      	str	r3, [r7, #24]
  assert_param(IS_GPIO_ALL_INSTANCE(GPIOx));
  assert_param(IS_GPIO_PIN(GPIO_Init->Pin));
  assert_param(IS_GPIO_MODE(GPIO_Init->Mode));

  /* Configure the port pins */
  for(position = 0U; position < GPIO_NUMBER; position++)
 8002ab2:	2300      	movs	r3, #0
 8002ab4:	61fb      	str	r3, [r7, #28]
 8002ab6:	e16b      	b.n	8002d90 <HAL_GPIO_Init+0x2f4>
  {
    /* Get the IO position */
    ioposition = 0x01U << position;
 8002ab8:	2201      	movs	r2, #1
 8002aba:	69fb      	ldr	r3, [r7, #28]
 8002abc:	fa02 f303 	lsl.w	r3, r2, r3
 8002ac0:	617b      	str	r3, [r7, #20]
    /* Get the current IO position */
    iocurrent = (uint32_t)(GPIO_Init->Pin) & ioposition;
 8002ac2:	683b      	ldr	r3, [r7, #0]
 8002ac4:	681b      	ldr	r3, [r3, #0]
 8002ac6:	697a      	ldr	r2, [r7, #20]
 8002ac8:	4013      	ands	r3, r2
 8002aca:	613b      	str	r3, [r7, #16]

    if(iocurrent == ioposition)
 8002acc:	693a      	ldr	r2, [r7, #16]
 8002ace:	697b      	ldr	r3, [r7, #20]
 8002ad0:	429a      	cmp	r2, r3
 8002ad2:	f040 815a 	bne.w	8002d8a <HAL_GPIO_Init+0x2ee>
    {
      /*--------------------- GPIO Mode Configuration ------------------------*/
      /* In case of Output or Alternate function mode selection */
      if(((GPIO_Init->Mode & GPIO_MODE) == MODE_OUTPUT) || \
 8002ad6:	683b      	ldr	r3, [r7, #0]
 8002ad8:	685b      	ldr	r3, [r3, #4]
 8002ada:	f003 0303 	and.w	r3, r3, #3
 8002ade:	2b01      	cmp	r3, #1
 8002ae0:	d005      	beq.n	8002aee <HAL_GPIO_Init+0x52>
          (GPIO_Init->Mode & GPIO_MODE) == MODE_AF)
 8002ae2:	683b      	ldr	r3, [r7, #0]
 8002ae4:	685b      	ldr	r3, [r3, #4]
 8002ae6:	f003 0303 	and.w	r3, r3, #3
      if(((GPIO_Init->Mode & GPIO_MODE) == MODE_OUTPUT) || \
 8002aea:	2b02      	cmp	r3, #2
 8002aec:	d130      	bne.n	8002b50 <HAL_GPIO_Init+0xb4>
      {
        /* Check the Speed parameter */
        assert_param(IS_GPIO_SPEED(GPIO_Init->Speed));
        /* Configure the IO Speed */
        temp = GPIOx->OSPEEDR; 
 8002aee:	687b      	ldr	r3, [r7, #4]
 8002af0:	689b      	ldr	r3, [r3, #8]
 8002af2:	61bb      	str	r3, [r7, #24]
        temp &= ~(GPIO_OSPEEDER_OSPEEDR0 << (position * 2U));
 8002af4:	69fb      	ldr	r3, [r7, #28]
 8002af6:	005b      	lsls	r3, r3, #1
 8002af8:	2203      	movs	r2, #3
 8002afa:	fa02 f303 	lsl.w	r3, r2, r3
 8002afe:	43db      	mvns	r3, r3
 8002b00:	69ba      	ldr	r2, [r7, #24]
 8002b02:	4013      	ands	r3, r2
 8002b04:	61bb      	str	r3, [r7, #24]
        temp |= (GPIO_Init->Speed << (position * 2U));
 8002b06:	683b      	ldr	r3, [r7, #0]
 8002b08:	68da      	ldr	r2, [r3, #12]
 8002b0a:	69fb      	ldr	r3, [r7, #28]
 8002b0c:	005b      	lsls	r3, r3, #1
 8002b0e:	fa02 f303 	lsl.w	r3, r2, r3
 8002b12:	69ba      	ldr	r2, [r7, #24]
 8002b14:	4313      	orrs	r3, r2
 8002b16:	61bb      	str	r3, [r7, #24]
        GPIOx->OSPEEDR = temp;
 8002b18:	687b      	ldr	r3, [r7, #4]
 8002b1a:	69ba      	ldr	r2, [r7, #24]
 8002b1c:	609a      	str	r2, [r3, #8]

        /* Configure the IO Output Type */
        temp = GPIOx->OTYPER;
 8002b1e:	687b      	ldr	r3, [r7, #4]
 8002b20:	685b      	ldr	r3, [r3, #4]
 8002b22:	61bb      	str	r3, [r7, #24]
        temp &= ~(GPIO_OTYPER_OT_0 << position) ;
 8002b24:	2201      	movs	r2, #1
 8002b26:	69fb      	ldr	r3, [r7, #28]
 8002b28:	fa02 f303 	lsl.w	r3, r2, r3
 8002b2c:	43db      	mvns	r3, r3
 8002b2e:	69ba      	ldr	r2, [r7, #24]
 8002b30:	4013      	ands	r3, r2
 8002b32:	61bb      	str	r3, [r7, #24]
        temp |= (((GPIO_Init->Mode & OUTPUT_TYPE) >> OUTPUT_TYPE_Pos) << position);
 8002b34:	683b      	ldr	r3, [r7, #0]
 8002b36:	685b      	ldr	r3, [r3, #4]
 8002b38:	091b      	lsrs	r3, r3, #4
 8002b3a:	f003 0201 	and.w	r2, r3, #1
 8002b3e:	69fb      	ldr	r3, [r7, #28]
 8002b40:	fa02 f303 	lsl.w	r3, r2, r3
 8002b44:	69ba      	ldr	r2, [r7, #24]
 8002b46:	4313      	orrs	r3, r2
 8002b48:	61bb      	str	r3, [r7, #24]
        GPIOx->OTYPER = temp;
 8002b4a:	687b      	ldr	r3, [r7, #4]
 8002b4c:	69ba      	ldr	r2, [r7, #24]
 8002b4e:	605a      	str	r2, [r3, #4]
       }

      if((GPIO_Init->Mode & GPIO_MODE) != MODE_ANALOG)
 8002b50:	683b      	ldr	r3, [r7, #0]
 8002b52:	685b      	ldr	r3, [r3, #4]
 8002b54:	f003 0303 	and.w	r3, r3, #3
 8002b58:	2b03      	cmp	r3, #3
 8002b5a:	d017      	beq.n	8002b8c <HAL_GPIO_Init+0xf0>
      {
        /* Check the parameters */
        assert_param(IS_GPIO_PULL(GPIO_Init->Pull));
        
        /* Activate the Pull-up or Pull down resistor for the current IO */
        temp = GPIOx->PUPDR;
 8002b5c:	687b      	ldr	r3, [r7, #4]
 8002b5e:	68db      	ldr	r3, [r3, #12]
 8002b60:	61bb      	str	r3, [r7, #24]
        temp &= ~(GPIO_PUPDR_PUPDR0 << (position * 2U));
 8002b62:	69fb      	ldr	r3, [r7, #28]
 8002b64:	005b      	lsls	r3, r3, #1
 8002b66:	2203      	movs	r2, #3
 8002b68:	fa02 f303 	lsl.w	r3, r2, r3
 8002b6c:	43db      	mvns	r3, r3
 8002b6e:	69ba      	ldr	r2, [r7, #24]
 8002b70:	4013      	ands	r3, r2
 8002b72:	61bb      	str	r3, [r7, #24]
        temp |= ((GPIO_Init->Pull) << (position * 2U));
 8002b74:	683b      	ldr	r3, [r7, #0]
 8002b76:	689a      	ldr	r2, [r3, #8]
 8002b78:	69fb      	ldr	r3, [r7, #28]
 8002b7a:	005b      	lsls	r3, r3, #1
 8002b7c:	fa02 f303 	lsl.w	r3, r2, r3
 8002b80:	69ba      	ldr	r2, [r7, #24]
 8002b82:	4313      	orrs	r3, r2
 8002b84:	61bb      	str	r3, [r7, #24]
        GPIOx->PUPDR = temp;
 8002b86:	687b      	ldr	r3, [r7, #4]
 8002b88:	69ba      	ldr	r2, [r7, #24]
 8002b8a:	60da      	str	r2, [r3, #12]
      }

      /* In case of Alternate function mode selection */
      if((GPIO_Init->Mode & GPIO_MODE) == MODE_AF)
 8002b8c:	683b      	ldr	r3, [r7, #0]
 8002b8e:	685b      	ldr	r3, [r3, #4]
 8002b90:	f003 0303 	and.w	r3, r3, #3
 8002b94:	2b02      	cmp	r3, #2
 8002b96:	d123      	bne.n	8002be0 <HAL_GPIO_Init+0x144>
      {
        /* Check the Alternate function parameter */
        assert_param(IS_GPIO_AF(GPIO_Init->Alternate));
        /* Configure Alternate function mapped with the current IO */
        temp = GPIOx->AFR[position >> 3U];
 8002b98:	69fb      	ldr	r3, [r7, #28]
 8002b9a:	08da      	lsrs	r2, r3, #3
 8002b9c:	687b      	ldr	r3, [r7, #4]
 8002b9e:	3208      	adds	r2, #8
 8002ba0:	f853 3022 	ldr.w	r3, [r3, r2, lsl #2]
 8002ba4:	61bb      	str	r3, [r7, #24]
        temp &= ~(0xFU << ((uint32_t)(position & 0x07U) * 4U)) ;
 8002ba6:	69fb      	ldr	r3, [r7, #28]
 8002ba8:	f003 0307 	and.w	r3, r3, #7
 8002bac:	009b      	lsls	r3, r3, #2
 8002bae:	220f      	movs	r2, #15
 8002bb0:	fa02 f303 	lsl.w	r3, r2, r3
 8002bb4:	43db      	mvns	r3, r3
 8002bb6:	69ba      	ldr	r2, [r7, #24]
 8002bb8:	4013      	ands	r3, r2
 8002bba:	61bb      	str	r3, [r7, #24]
        temp |= ((uint32_t)(GPIO_Init->Alternate) << (((uint32_t)position & 0x07U) * 4U));
 8002bbc:	683b      	ldr	r3, [r7, #0]
 8002bbe:	691a      	ldr	r2, [r3, #16]
 8002bc0:	69fb      	ldr	r3, [r7, #28]
 8002bc2:	f003 0307 	and.w	r3, r3, #7
 8002bc6:	009b      	lsls	r3, r3, #2
 8002bc8:	fa02 f303 	lsl.w	r3, r2, r3
 8002bcc:	69ba      	ldr	r2, [r7, #24]
 8002bce:	4313      	orrs	r3, r2
 8002bd0:	61bb      	str	r3, [r7, #24]
        GPIOx->AFR[position >> 3U] = temp;
 8002bd2:	69fb      	ldr	r3, [r7, #28]
 8002bd4:	08da      	lsrs	r2, r3, #3
 8002bd6:	687b      	ldr	r3, [r7, #4]
 8002bd8:	3208      	adds	r2, #8
 8002bda:	69b9      	ldr	r1, [r7, #24]
 8002bdc:	f843 1022 	str.w	r1, [r3, r2, lsl #2]
      }

      /* Configure IO Direction mode (Input, Output, Alternate or Analog) */
      temp = GPIOx->MODER;
 8002be0:	687b      	ldr	r3, [r7, #4]
 8002be2:	681b      	ldr	r3, [r3, #0]
 8002be4:	61bb      	str	r3, [r7, #24]
      temp &= ~(GPIO_MODER_MODER0 << (position * 2U));
 8002be6:	69fb      	ldr	r3, [r7, #28]
 8002be8:	005b      	lsls	r3, r3, #1
 8002bea:	2203      	movs	r2, #3
 8002bec:	fa02 f303 	lsl.w	r3, r2, r3
 8002bf0:	43db      	mvns	r3, r3
 8002bf2:	69ba      	ldr	r2, [r7, #24]
 8002bf4:	4013      	ands	r3, r2
 8002bf6:	61bb      	str	r3, [r7, #24]
      temp |= ((GPIO_Init->Mode & GPIO_MODE) << (position * 2U));
 8002bf8:	683b      	ldr	r3, [r7, #0]
 8002bfa:	685b      	ldr	r3, [r3, #4]
 8002bfc:	f003 0203 	and.w	r2, r3, #3
 8002c00:	69fb      	ldr	r3, [r7, #28]
 8002c02:	005b      	lsls	r3, r3, #1
 8002c04:	fa02 f303 	lsl.w	r3, r2, r3
 8002c08:	69ba      	ldr	r2, [r7, #24]
 8002c0a:	4313      	orrs	r3, r2
 8002c0c:	61bb      	str	r3, [r7, #24]
      GPIOx->MODER = temp;
 8002c0e:	687b      	ldr	r3, [r7, #4]
 8002c10:	69ba      	ldr	r2, [r7, #24]
 8002c12:	601a      	str	r2, [r3, #0]

      /*--------------------- EXTI Mode Configuration ------------------------*/
      /* Configure the External Interrupt or event for the current IO */
      if((GPIO_Init->Mode & EXTI_MODE) != 0x00U)
 8002c14:	683b      	ldr	r3, [r7, #0]
 8002c16:	685b      	ldr	r3, [r3, #4]
 8002c18:	f403 3340 	and.w	r3, r3, #196608	; 0x30000
 8002c1c:	2b00      	cmp	r3, #0
 8002c1e:	f000 80b4 	beq.w	8002d8a <HAL_GPIO_Init+0x2ee>
      {
        /* Enable SYSCFG Clock */
        __HAL_RCC_SYSCFG_CLK_ENABLE();
 8002c22:	2300      	movs	r3, #0
 8002c24:	60fb      	str	r3, [r7, #12]
 8002c26:	4b60      	ldr	r3, [pc, #384]	; (8002da8 <HAL_GPIO_Init+0x30c>)
 8002c28:	6c5b      	ldr	r3, [r3, #68]	; 0x44
 8002c2a:	4a5f      	ldr	r2, [pc, #380]	; (8002da8 <HAL_GPIO_Init+0x30c>)
 8002c2c:	f443 4380 	orr.w	r3, r3, #16384	; 0x4000
 8002c30:	6453      	str	r3, [r2, #68]	; 0x44
 8002c32:	4b5d      	ldr	r3, [pc, #372]	; (8002da8 <HAL_GPIO_Init+0x30c>)
 8002c34:	6c5b      	ldr	r3, [r3, #68]	; 0x44
 8002c36:	f403 4380 	and.w	r3, r3, #16384	; 0x4000
 8002c3a:	60fb      	str	r3, [r7, #12]
 8002c3c:	68fb      	ldr	r3, [r7, #12]

        temp = SYSCFG->EXTICR[position >> 2U];
 8002c3e:	4a5b      	ldr	r2, [pc, #364]	; (8002dac <HAL_GPIO_Init+0x310>)
 8002c40:	69fb      	ldr	r3, [r7, #28]
 8002c42:	089b      	lsrs	r3, r3, #2
 8002c44:	3302      	adds	r3, #2
 8002c46:	f852 3023 	ldr.w	r3, [r2, r3, lsl #2]
 8002c4a:	61bb      	str	r3, [r7, #24]
        temp &= ~(0x0FU << (4U * (position & 0x03U)));
 8002c4c:	69fb      	ldr	r3, [r7, #28]
 8002c4e:	f003 0303 	and.w	r3, r3, #3
 8002c52:	009b      	lsls	r3, r3, #2
 8002c54:	220f      	movs	r2, #15
 8002c56:	fa02 f303 	lsl.w	r3, r2, r3
 8002c5a:	43db      	mvns	r3, r3
 8002c5c:	69ba      	ldr	r2, [r7, #24]
 8002c5e:	4013      	ands	r3, r2
 8002c60:	61bb      	str	r3, [r7, #24]
        temp |= ((uint32_t)(GPIO_GET_INDEX(GPIOx)) << (4U * (position & 0x03U)));
 8002c62:	687b      	ldr	r3, [r7, #4]
 8002c64:	4a52      	ldr	r2, [pc, #328]	; (8002db0 <HAL_GPIO_Init+0x314>)
 8002c66:	4293      	cmp	r3, r2
 8002c68:	d02b      	beq.n	8002cc2 <HAL_GPIO_Init+0x226>
 8002c6a:	687b      	ldr	r3, [r7, #4]
 8002c6c:	4a51      	ldr	r2, [pc, #324]	; (8002db4 <HAL_GPIO_Init+0x318>)
 8002c6e:	4293      	cmp	r3, r2
 8002c70:	d025      	beq.n	8002cbe <HAL_GPIO_Init+0x222>
 8002c72:	687b      	ldr	r3, [r7, #4]
 8002c74:	4a50      	ldr	r2, [pc, #320]	; (8002db8 <HAL_GPIO_Init+0x31c>)
 8002c76:	4293      	cmp	r3, r2
 8002c78:	d01f      	beq.n	8002cba <HAL_GPIO_Init+0x21e>
 8002c7a:	687b      	ldr	r3, [r7, #4]
 8002c7c:	4a4f      	ldr	r2, [pc, #316]	; (8002dbc <HAL_GPIO_Init+0x320>)
 8002c7e:	4293      	cmp	r3, r2
 8002c80:	d019      	beq.n	8002cb6 <HAL_GPIO_Init+0x21a>
 8002c82:	687b      	ldr	r3, [r7, #4]
 8002c84:	4a4e      	ldr	r2, [pc, #312]	; (8002dc0 <HAL_GPIO_Init+0x324>)
 8002c86:	4293      	cmp	r3, r2
 8002c88:	d013      	beq.n	8002cb2 <HAL_GPIO_Init+0x216>
 8002c8a:	687b      	ldr	r3, [r7, #4]
 8002c8c:	4a4d      	ldr	r2, [pc, #308]	; (8002dc4 <HAL_GPIO_Init+0x328>)
 8002c8e:	4293      	cmp	r3, r2
 8002c90:	d00d      	beq.n	8002cae <HAL_GPIO_Init+0x212>
 8002c92:	687b      	ldr	r3, [r7, #4]
 8002c94:	4a4c      	ldr	r2, [pc, #304]	; (8002dc8 <HAL_GPIO_Init+0x32c>)
 8002c96:	4293      	cmp	r3, r2
 8002c98:	d007      	beq.n	8002caa <HAL_GPIO_Init+0x20e>
 8002c9a:	687b      	ldr	r3, [r7, #4]
 8002c9c:	4a4b      	ldr	r2, [pc, #300]	; (8002dcc <HAL_GPIO_Init+0x330>)
 8002c9e:	4293      	cmp	r3, r2
 8002ca0:	d101      	bne.n	8002ca6 <HAL_GPIO_Init+0x20a>
 8002ca2:	2307      	movs	r3, #7
 8002ca4:	e00e      	b.n	8002cc4 <HAL_GPIO_Init+0x228>
 8002ca6:	2308      	movs	r3, #8
 8002ca8:	e00c      	b.n	8002cc4 <HAL_GPIO_Init+0x228>
 8002caa:	2306      	movs	r3, #6
 8002cac:	e00a      	b.n	8002cc4 <HAL_GPIO_Init+0x228>
 8002cae:	2305      	movs	r3, #5
 8002cb0:	e008      	b.n	8002cc4 <HAL_GPIO_Init+0x228>
 8002cb2:	2304      	movs	r3, #4
 8002cb4:	e006      	b.n	8002cc4 <HAL_GPIO_Init+0x228>
 8002cb6:	2303      	movs	r3, #3
 8002cb8:	e004      	b.n	8002cc4 <HAL_GPIO_Init+0x228>
 8002cba:	2302      	movs	r3, #2
 8002cbc:	e002      	b.n	8002cc4 <HAL_GPIO_Init+0x228>
 8002cbe:	2301      	movs	r3, #1
 8002cc0:	e000      	b.n	8002cc4 <HAL_GPIO_Init+0x228>
 8002cc2:	2300      	movs	r3, #0
 8002cc4:	69fa      	ldr	r2, [r7, #28]
 8002cc6:	f002 0203 	and.w	r2, r2, #3
 8002cca:	0092      	lsls	r2, r2, #2
 8002ccc:	4093      	lsls	r3, r2
 8002cce:	69ba      	ldr	r2, [r7, #24]
 8002cd0:	4313      	orrs	r3, r2
 8002cd2:	61bb      	str	r3, [r7, #24]
        SYSCFG->EXTICR[position >> 2U] = temp;
 8002cd4:	4935      	ldr	r1, [pc, #212]	; (8002dac <HAL_GPIO_Init+0x310>)
 8002cd6:	69fb      	ldr	r3, [r7, #28]
 8002cd8:	089b      	lsrs	r3, r3, #2
 8002cda:	3302      	adds	r3, #2
 8002cdc:	69ba      	ldr	r2, [r7, #24]
 8002cde:	f841 2023 	str.w	r2, [r1, r3, lsl #2]

        /* Clear Rising Falling edge configuration */
        temp = EXTI->RTSR;
 8002ce2:	4b3b      	ldr	r3, [pc, #236]	; (8002dd0 <HAL_GPIO_Init+0x334>)
 8002ce4:	689b      	ldr	r3, [r3, #8]
 8002ce6:	61bb      	str	r3, [r7, #24]
        temp &= ~((uint32_t)iocurrent);
 8002ce8:	693b      	ldr	r3, [r7, #16]
 8002cea:	43db      	mvns	r3, r3
 8002cec:	69ba      	ldr	r2, [r7, #24]
 8002cee:	4013      	ands	r3, r2
 8002cf0:	61bb      	str	r3, [r7, #24]
        if((GPIO_Init->Mode & TRIGGER_RISING) != 0x00U)
 8002cf2:	683b      	ldr	r3, [r7, #0]
 8002cf4:	685b      	ldr	r3, [r3, #4]
 8002cf6:	f403 1380 	and.w	r3, r3, #1048576	; 0x100000
 8002cfa:	2b00      	cmp	r3, #0
 8002cfc:	d003      	beq.n	8002d06 <HAL_GPIO_Init+0x26a>
        {
          temp |= iocurrent;
 8002cfe:	69ba      	ldr	r2, [r7, #24]
 8002d00:	693b      	ldr	r3, [r7, #16]
 8002d02:	4313      	orrs	r3, r2
 8002d04:	61bb      	str	r3, [r7, #24]
        }
        EXTI->RTSR = temp;
 8002d06:	4a32      	ldr	r2, [pc, #200]	; (8002dd0 <HAL_GPIO_Init+0x334>)
 8002d08:	69bb      	ldr	r3, [r7, #24]
 8002d0a:	6093      	str	r3, [r2, #8]

        temp = EXTI->FTSR;
 8002d0c:	4b30      	ldr	r3, [pc, #192]	; (8002dd0 <HAL_GPIO_Init+0x334>)
 8002d0e:	68db      	ldr	r3, [r3, #12]
 8002d10:	61bb      	str	r3, [r7, #24]
        temp &= ~((uint32_t)iocurrent);
 8002d12:	693b      	ldr	r3, [r7, #16]
 8002d14:	43db      	mvns	r3, r3
 8002d16:	69ba      	ldr	r2, [r7, #24]
 8002d18:	4013      	ands	r3, r2
 8002d1a:	61bb      	str	r3, [r7, #24]
        if((GPIO_Init->Mode & TRIGGER_FALLING) != 0x00U)
 8002d1c:	683b      	ldr	r3, [r7, #0]
 8002d1e:	685b      	ldr	r3, [r3, #4]
 8002d20:	f403 1300 	and.w	r3, r3, #2097152	; 0x200000
 8002d24:	2b00      	cmp	r3, #0
 8002d26:	d003      	beq.n	8002d30 <HAL_GPIO_Init+0x294>
        {
          temp |= iocurrent;
 8002d28:	69ba      	ldr	r2, [r7, #24]
 8002d2a:	693b      	ldr	r3, [r7, #16]
 8002d2c:	4313      	orrs	r3, r2
 8002d2e:	61bb      	str	r3, [r7, #24]
        }
        EXTI->FTSR = temp;
 8002d30:	4a27      	ldr	r2, [pc, #156]	; (8002dd0 <HAL_GPIO_Init+0x334>)
 8002d32:	69bb      	ldr	r3, [r7, #24]
 8002d34:	60d3      	str	r3, [r2, #12]

        temp = EXTI->EMR;
 8002d36:	4b26      	ldr	r3, [pc, #152]	; (8002dd0 <HAL_GPIO_Init+0x334>)
 8002d38:	685b      	ldr	r3, [r3, #4]
 8002d3a:	61bb      	str	r3, [r7, #24]
        temp &= ~((uint32_t)iocurrent);
 8002d3c:	693b      	ldr	r3, [r7, #16]
 8002d3e:	43db      	mvns	r3, r3
 8002d40:	69ba      	ldr	r2, [r7, #24]
 8002d42:	4013      	ands	r3, r2
 8002d44:	61bb      	str	r3, [r7, #24]
        if((GPIO_Init->Mode & EXTI_EVT) != 0x00U)
 8002d46:	683b      	ldr	r3, [r7, #0]
 8002d48:	685b      	ldr	r3, [r3, #4]
 8002d4a:	f403 3300 	and.w	r3, r3, #131072	; 0x20000
 8002d4e:	2b00      	cmp	r3, #0
 8002d50:	d003      	beq.n	8002d5a <HAL_GPIO_Init+0x2be>
        {
          temp |= iocurrent;
 8002d52:	69ba      	ldr	r2, [r7, #24]
 8002d54:	693b      	ldr	r3, [r7, #16]
 8002d56:	4313      	orrs	r3, r2
 8002d58:	61bb      	str	r3, [r7, #24]
        }
        EXTI->EMR = temp;
 8002d5a:	4a1d      	ldr	r2, [pc, #116]	; (8002dd0 <HAL_GPIO_Init+0x334>)
 8002d5c:	69bb      	ldr	r3, [r7, #24]
 8002d5e:	6053      	str	r3, [r2, #4]

        /* Clear EXTI line configuration */
        temp = EXTI->IMR;
 8002d60:	4b1b      	ldr	r3, [pc, #108]	; (8002dd0 <HAL_GPIO_Init+0x334>)
 8002d62:	681b      	ldr	r3, [r3, #0]
 8002d64:	61bb      	str	r3, [r7, #24]
        temp &= ~((uint32_t)iocurrent);
 8002d66:	693b      	ldr	r3, [r7, #16]
 8002d68:	43db      	mvns	r3, r3
 8002d6a:	69ba      	ldr	r2, [r7, #24]
 8002d6c:	4013      	ands	r3, r2
 8002d6e:	61bb      	str	r3, [r7, #24]
        if((GPIO_Init->Mode & EXTI_IT) != 0x00U)
 8002d70:	683b      	ldr	r3, [r7, #0]
 8002d72:	685b      	ldr	r3, [r3, #4]
 8002d74:	f403 3380 	and.w	r3, r3, #65536	; 0x10000
 8002d78:	2b00      	cmp	r3, #0
 8002d7a:	d003      	beq.n	8002d84 <HAL_GPIO_Init+0x2e8>
        {
          temp |= iocurrent;
 8002d7c:	69ba      	ldr	r2, [r7, #24]
 8002d7e:	693b      	ldr	r3, [r7, #16]
 8002d80:	4313      	orrs	r3, r2
 8002d82:	61bb      	str	r3, [r7, #24]
        }
        EXTI->IMR = temp;
 8002d84:	4a12      	ldr	r2, [pc, #72]	; (8002dd0 <HAL_GPIO_Init+0x334>)
 8002d86:	69bb      	ldr	r3, [r7, #24]
 8002d88:	6013      	str	r3, [r2, #0]
  for(position = 0U; position < GPIO_NUMBER; position++)
 8002d8a:	69fb      	ldr	r3, [r7, #28]
 8002d8c:	3301      	adds	r3, #1
 8002d8e:	61fb      	str	r3, [r7, #28]
 8002d90:	69fb      	ldr	r3, [r7, #28]
 8002d92:	2b0f      	cmp	r3, #15
 8002d94:	f67f ae90 	bls.w	8002ab8 <HAL_GPIO_Init+0x1c>
      }
    }
  }
}
 8002d98:	bf00      	nop
 8002d9a:	bf00      	nop
 8002d9c:	3724      	adds	r7, #36	; 0x24
 8002d9e:	46bd      	mov	sp, r7
 8002da0:	f85d 7b04 	ldr.w	r7, [sp], #4
 8002da4:	4770      	bx	lr
 8002da6:	bf00      	nop
 8002da8:	40023800 	.word	0x40023800
 8002dac:	40013800 	.word	0x40013800
 8002db0:	40020000 	.word	0x40020000
 8002db4:	40020400 	.word	0x40020400
 8002db8:	40020800 	.word	0x40020800
 8002dbc:	40020c00 	.word	0x40020c00
 8002dc0:	40021000 	.word	0x40021000
 8002dc4:	40021400 	.word	0x40021400
 8002dc8:	40021800 	.word	0x40021800
 8002dcc:	40021c00 	.word	0x40021c00
 8002dd0:	40013c00 	.word	0x40013c00

08002dd4 <HAL_GPIO_WritePin>:
  *            @arg GPIO_PIN_RESET: to clear the port pin
  *            @arg GPIO_PIN_SET: to set the port pin
  * @retval None
  */
void HAL_GPIO_WritePin(GPIO_TypeDef* GPIOx, uint16_t GPIO_Pin, GPIO_PinState PinState)
{
 8002dd4:	b480      	push	{r7}
 8002dd6:	b083      	sub	sp, #12
 8002dd8:	af00      	add	r7, sp, #0
 8002dda:	6078      	str	r0, [r7, #4]
 8002ddc:	460b      	mov	r3, r1
 8002dde:	807b      	strh	r3, [r7, #2]
 8002de0:	4613      	mov	r3, r2
 8002de2:	707b      	strb	r3, [r7, #1]
  /* Check the parameters */
  assert_param(IS_GPIO_PIN(GPIO_Pin));
  assert_param(IS_GPIO_PIN_ACTION(PinState));

  if(PinState != GPIO_PIN_RESET)
 8002de4:	787b      	ldrb	r3, [r7, #1]
 8002de6:	2b00      	cmp	r3, #0
 8002de8:	d003      	beq.n	8002df2 <HAL_GPIO_WritePin+0x1e>
  {
    GPIOx->BSRR = GPIO_Pin;
 8002dea:	887a      	ldrh	r2, [r7, #2]
 8002dec:	687b      	ldr	r3, [r7, #4]
 8002dee:	619a      	str	r2, [r3, #24]
  }
  else
  {
    GPIOx->BSRR = (uint32_t)GPIO_Pin << 16U;
  }
}
 8002df0:	e003      	b.n	8002dfa <HAL_GPIO_WritePin+0x26>
    GPIOx->BSRR = (uint32_t)GPIO_Pin << 16U;
 8002df2:	887b      	ldrh	r3, [r7, #2]
 8002df4:	041a      	lsls	r2, r3, #16
 8002df6:	687b      	ldr	r3, [r7, #4]
 8002df8:	619a      	str	r2, [r3, #24]
}
 8002dfa:	bf00      	nop
 8002dfc:	370c      	adds	r7, #12
 8002dfe:	46bd      	mov	sp, r7
 8002e00:	f85d 7b04 	ldr.w	r7, [sp], #4
 8002e04:	4770      	bx	lr
	...

08002e08 <HAL_I2C_Init>:
  * @param  hi2c Pointer to a I2C_HandleTypeDef structure that contains
  *                the configuration information for the specified I2C.
  * @retval HAL status
  */
HAL_StatusTypeDef HAL_I2C_Init(I2C_HandleTypeDef *hi2c)
{
 8002e08:	b580      	push	{r7, lr}
 8002e0a:	b084      	sub	sp, #16
 8002e0c:	af00      	add	r7, sp, #0
 8002e0e:	6078      	str	r0, [r7, #4]
  uint32_t freqrange;
  uint32_t pclk1;

  /* Check the I2C handle allocation */
  if (hi2c == NULL)
 8002e10:	687b      	ldr	r3, [r7, #4]
 8002e12:	2b00      	cmp	r3, #0
 8002e14:	d101      	bne.n	8002e1a <HAL_I2C_Init+0x12>
  {
    return HAL_ERROR;
 8002e16:	2301      	movs	r3, #1
 8002e18:	e12b      	b.n	8003072 <HAL_I2C_Init+0x26a>
  assert_param(IS_I2C_DUAL_ADDRESS(hi2c->Init.DualAddressMode));
  assert_param(IS_I2C_OWN_ADDRESS2(hi2c->Init.OwnAddress2));
  assert_param(IS_I2C_GENERAL_CALL(hi2c->Init.GeneralCallMode));
  assert_param(IS_I2C_NO_STRETCH(hi2c->Init.NoStretchMode));

  if (hi2c->State == HAL_I2C_STATE_RESET)
 8002e1a:	687b      	ldr	r3, [r7, #4]
 8002e1c:	f893 303d 	ldrb.w	r3, [r3, #61]	; 0x3d
 8002e20:	b2db      	uxtb	r3, r3
 8002e22:	2b00      	cmp	r3, #0
 8002e24:	d106      	bne.n	8002e34 <HAL_I2C_Init+0x2c>
  {
    /* Allocate lock resource and initialize it */
    hi2c->Lock = HAL_UNLOCKED;
 8002e26:	687b      	ldr	r3, [r7, #4]
 8002e28:	2200      	movs	r2, #0
 8002e2a:	f883 203c 	strb.w	r2, [r3, #60]	; 0x3c

    /* Init the low level hardware : GPIO, CLOCK, NVIC */
    hi2c->MspInitCallback(hi2c);
#else
    /* Init the low level hardware : GPIO, CLOCK, NVIC */
    HAL_I2C_MspInit(hi2c);
 8002e2e:	6878      	ldr	r0, [r7, #4]
 8002e30:	f7fe feec 	bl	8001c0c <HAL_I2C_MspInit>
#endif /* USE_HAL_I2C_REGISTER_CALLBACKS */
  }

  hi2c->State = HAL_I2C_STATE_BUSY;
 8002e34:	687b      	ldr	r3, [r7, #4]
 8002e36:	2224      	movs	r2, #36	; 0x24
 8002e38:	f883 203d 	strb.w	r2, [r3, #61]	; 0x3d

  /* Disable the selected I2C peripheral */
  __HAL_I2C_DISABLE(hi2c);
 8002e3c:	687b      	ldr	r3, [r7, #4]
 8002e3e:	681b      	ldr	r3, [r3, #0]
 8002e40:	681a      	ldr	r2, [r3, #0]
 8002e42:	687b      	ldr	r3, [r7, #4]
 8002e44:	681b      	ldr	r3, [r3, #0]
 8002e46:	f022 0201 	bic.w	r2, r2, #1
 8002e4a:	601a      	str	r2, [r3, #0]

  /*Reset I2C*/
  hi2c->Instance->CR1 |= I2C_CR1_SWRST;
 8002e4c:	687b      	ldr	r3, [r7, #4]
 8002e4e:	681b      	ldr	r3, [r3, #0]
 8002e50:	681a      	ldr	r2, [r3, #0]
 8002e52:	687b      	ldr	r3, [r7, #4]
 8002e54:	681b      	ldr	r3, [r3, #0]
 8002e56:	f442 4200 	orr.w	r2, r2, #32768	; 0x8000
 8002e5a:	601a      	str	r2, [r3, #0]
  hi2c->Instance->CR1 &= ~I2C_CR1_SWRST;
 8002e5c:	687b      	ldr	r3, [r7, #4]
 8002e5e:	681b      	ldr	r3, [r3, #0]
 8002e60:	681a      	ldr	r2, [r3, #0]
 8002e62:	687b      	ldr	r3, [r7, #4]
 8002e64:	681b      	ldr	r3, [r3, #0]
 8002e66:	f422 4200 	bic.w	r2, r2, #32768	; 0x8000
 8002e6a:	601a      	str	r2, [r3, #0]

  /* Get PCLK1 frequency */
  pclk1 = HAL_RCC_GetPCLK1Freq();
 8002e6c:	f001 fbf6 	bl	800465c <HAL_RCC_GetPCLK1Freq>
 8002e70:	60f8      	str	r0, [r7, #12]

  /* Check the minimum allowed PCLK1 frequency */
  if (I2C_MIN_PCLK_FREQ(pclk1, hi2c->Init.ClockSpeed) == 1U)
 8002e72:	687b      	ldr	r3, [r7, #4]
 8002e74:	685b      	ldr	r3, [r3, #4]
 8002e76:	4a81      	ldr	r2, [pc, #516]	; (800307c <HAL_I2C_Init+0x274>)
 8002e78:	4293      	cmp	r3, r2
 8002e7a:	d807      	bhi.n	8002e8c <HAL_I2C_Init+0x84>
 8002e7c:	68fb      	ldr	r3, [r7, #12]
 8002e7e:	4a80      	ldr	r2, [pc, #512]	; (8003080 <HAL_I2C_Init+0x278>)
 8002e80:	4293      	cmp	r3, r2
 8002e82:	bf94      	ite	ls
 8002e84:	2301      	movls	r3, #1
 8002e86:	2300      	movhi	r3, #0
 8002e88:	b2db      	uxtb	r3, r3
 8002e8a:	e006      	b.n	8002e9a <HAL_I2C_Init+0x92>
 8002e8c:	68fb      	ldr	r3, [r7, #12]
 8002e8e:	4a7d      	ldr	r2, [pc, #500]	; (8003084 <HAL_I2C_Init+0x27c>)
 8002e90:	4293      	cmp	r3, r2
 8002e92:	bf94      	ite	ls
 8002e94:	2301      	movls	r3, #1
 8002e96:	2300      	movhi	r3, #0
 8002e98:	b2db      	uxtb	r3, r3
 8002e9a:	2b00      	cmp	r3, #0
 8002e9c:	d001      	beq.n	8002ea2 <HAL_I2C_Init+0x9a>
  {
    return HAL_ERROR;
 8002e9e:	2301      	movs	r3, #1
 8002ea0:	e0e7      	b.n	8003072 <HAL_I2C_Init+0x26a>
  }

  /* Calculate frequency range */
  freqrange = I2C_FREQRANGE(pclk1);
 8002ea2:	68fb      	ldr	r3, [r7, #12]
 8002ea4:	4a78      	ldr	r2, [pc, #480]	; (8003088 <HAL_I2C_Init+0x280>)
 8002ea6:	fba2 2303 	umull	r2, r3, r2, r3
 8002eaa:	0c9b      	lsrs	r3, r3, #18
 8002eac:	60bb      	str	r3, [r7, #8]

  /*---------------------------- I2Cx CR2 Configuration ----------------------*/
  /* Configure I2Cx: Frequency range */
  MODIFY_REG(hi2c->Instance->CR2, I2C_CR2_FREQ, freqrange);
 8002eae:	687b      	ldr	r3, [r7, #4]
 8002eb0:	681b      	ldr	r3, [r3, #0]
 8002eb2:	685b      	ldr	r3, [r3, #4]
 8002eb4:	f023 013f 	bic.w	r1, r3, #63	; 0x3f
 8002eb8:	687b      	ldr	r3, [r7, #4]
 8002eba:	681b      	ldr	r3, [r3, #0]
 8002ebc:	68ba      	ldr	r2, [r7, #8]
 8002ebe:	430a      	orrs	r2, r1
 8002ec0:	605a      	str	r2, [r3, #4]

  /*---------------------------- I2Cx TRISE Configuration --------------------*/
  /* Configure I2Cx: Rise Time */
  MODIFY_REG(hi2c->Instance->TRISE, I2C_TRISE_TRISE, I2C_RISE_TIME(freqrange, hi2c->Init.ClockSpeed));
 8002ec2:	687b      	ldr	r3, [r7, #4]
 8002ec4:	681b      	ldr	r3, [r3, #0]
 8002ec6:	6a1b      	ldr	r3, [r3, #32]
 8002ec8:	f023 013f 	bic.w	r1, r3, #63	; 0x3f
 8002ecc:	687b      	ldr	r3, [r7, #4]
 8002ece:	685b      	ldr	r3, [r3, #4]
 8002ed0:	4a6a      	ldr	r2, [pc, #424]	; (800307c <HAL_I2C_Init+0x274>)
 8002ed2:	4293      	cmp	r3, r2
 8002ed4:	d802      	bhi.n	8002edc <HAL_I2C_Init+0xd4>
 8002ed6:	68bb      	ldr	r3, [r7, #8]
 8002ed8:	3301      	adds	r3, #1
 8002eda:	e009      	b.n	8002ef0 <HAL_I2C_Init+0xe8>
 8002edc:	68bb      	ldr	r3, [r7, #8]
 8002ede:	f44f 7296 	mov.w	r2, #300	; 0x12c
 8002ee2:	fb02 f303 	mul.w	r3, r2, r3
 8002ee6:	4a69      	ldr	r2, [pc, #420]	; (800308c <HAL_I2C_Init+0x284>)
 8002ee8:	fba2 2303 	umull	r2, r3, r2, r3
 8002eec:	099b      	lsrs	r3, r3, #6
 8002eee:	3301      	adds	r3, #1
 8002ef0:	687a      	ldr	r2, [r7, #4]
 8002ef2:	6812      	ldr	r2, [r2, #0]
 8002ef4:	430b      	orrs	r3, r1
 8002ef6:	6213      	str	r3, [r2, #32]

  /*---------------------------- I2Cx CCR Configuration ----------------------*/
  /* Configure I2Cx: Speed */
  MODIFY_REG(hi2c->Instance->CCR, (I2C_CCR_FS | I2C_CCR_DUTY | I2C_CCR_CCR), I2C_SPEED(pclk1, hi2c->Init.ClockSpeed, hi2c->Init.DutyCycle));
 8002ef8:	687b      	ldr	r3, [r7, #4]
 8002efa:	681b      	ldr	r3, [r3, #0]
 8002efc:	69db      	ldr	r3, [r3, #28]
 8002efe:	f423 424f 	bic.w	r2, r3, #52992	; 0xcf00
 8002f02:	f022 02ff 	bic.w	r2, r2, #255	; 0xff
 8002f06:	687b      	ldr	r3, [r7, #4]
 8002f08:	685b      	ldr	r3, [r3, #4]
 8002f0a:	495c      	ldr	r1, [pc, #368]	; (800307c <HAL_I2C_Init+0x274>)
 8002f0c:	428b      	cmp	r3, r1
 8002f0e:	d819      	bhi.n	8002f44 <HAL_I2C_Init+0x13c>
 8002f10:	68fb      	ldr	r3, [r7, #12]
 8002f12:	1e59      	subs	r1, r3, #1
 8002f14:	687b      	ldr	r3, [r7, #4]
 8002f16:	685b      	ldr	r3, [r3, #4]
 8002f18:	005b      	lsls	r3, r3, #1
 8002f1a:	fbb1 f3f3 	udiv	r3, r1, r3
 8002f1e:	1c59      	adds	r1, r3, #1
 8002f20:	f640 73fc 	movw	r3, #4092	; 0xffc
 8002f24:	400b      	ands	r3, r1
 8002f26:	2b00      	cmp	r3, #0
 8002f28:	d00a      	beq.n	8002f40 <HAL_I2C_Init+0x138>
 8002f2a:	68fb      	ldr	r3, [r7, #12]
 8002f2c:	1e59      	subs	r1, r3, #1
 8002f2e:	687b      	ldr	r3, [r7, #4]
 8002f30:	685b      	ldr	r3, [r3, #4]
 8002f32:	005b      	lsls	r3, r3, #1
 8002f34:	fbb1 f3f3 	udiv	r3, r1, r3
 8002f38:	3301      	adds	r3, #1
 8002f3a:	f3c3 030b 	ubfx	r3, r3, #0, #12
 8002f3e:	e051      	b.n	8002fe4 <HAL_I2C_Init+0x1dc>
 8002f40:	2304      	movs	r3, #4
 8002f42:	e04f      	b.n	8002fe4 <HAL_I2C_Init+0x1dc>
 8002f44:	687b      	ldr	r3, [r7, #4]
 8002f46:	689b      	ldr	r3, [r3, #8]
 8002f48:	2b00      	cmp	r3, #0
 8002f4a:	d111      	bne.n	8002f70 <HAL_I2C_Init+0x168>
 8002f4c:	68fb      	ldr	r3, [r7, #12]
 8002f4e:	1e58      	subs	r0, r3, #1
 8002f50:	687b      	ldr	r3, [r7, #4]
 8002f52:	6859      	ldr	r1, [r3, #4]
 8002f54:	460b      	mov	r3, r1
 8002f56:	005b      	lsls	r3, r3, #1
 8002f58:	440b      	add	r3, r1
 8002f5a:	fbb0 f3f3 	udiv	r3, r0, r3
 8002f5e:	3301      	adds	r3, #1
 8002f60:	f3c3 030b 	ubfx	r3, r3, #0, #12
 8002f64:	2b00      	cmp	r3, #0
 8002f66:	bf0c      	ite	eq
 8002f68:	2301      	moveq	r3, #1
 8002f6a:	2300      	movne	r3, #0
 8002f6c:	b2db      	uxtb	r3, r3
 8002f6e:	e012      	b.n	8002f96 <HAL_I2C_Init+0x18e>
 8002f70:	68fb      	ldr	r3, [r7, #12]
 8002f72:	1e58      	subs	r0, r3, #1
 8002f74:	687b      	ldr	r3, [r7, #4]
 8002f76:	6859      	ldr	r1, [r3, #4]
 8002f78:	460b      	mov	r3, r1
 8002f7a:	009b      	lsls	r3, r3, #2
 8002f7c:	440b      	add	r3, r1
 8002f7e:	0099      	lsls	r1, r3, #2
 8002f80:	440b      	add	r3, r1
 8002f82:	fbb0 f3f3 	udiv	r3, r0, r3
 8002f86:	3301      	adds	r3, #1
 8002f88:	f3c3 030b 	ubfx	r3, r3, #0, #12
 8002f8c:	2b00      	cmp	r3, #0
 8002f8e:	bf0c      	ite	eq
 8002f90:	2301      	moveq	r3, #1
 8002f92:	2300      	movne	r3, #0
 8002f94:	b2db      	uxtb	r3, r3
 8002f96:	2b00      	cmp	r3, #0
 8002f98:	d001      	beq.n	8002f9e <HAL_I2C_Init+0x196>
 8002f9a:	2301      	movs	r3, #1
 8002f9c:	e022      	b.n	8002fe4 <HAL_I2C_Init+0x1dc>
 8002f9e:	687b      	ldr	r3, [r7, #4]
 8002fa0:	689b      	ldr	r3, [r3, #8]
 8002fa2:	2b00      	cmp	r3, #0
 8002fa4:	d10e      	bne.n	8002fc4 <HAL_I2C_Init+0x1bc>
 8002fa6:	68fb      	ldr	r3, [r7, #12]
 8002fa8:	1e58      	subs	r0, r3, #1
 8002faa:	687b      	ldr	r3, [r7, #4]
 8002fac:	6859      	ldr	r1, [r3, #4]
 8002fae:	460b      	mov	r3, r1
 8002fb0:	005b      	lsls	r3, r3, #1
 8002fb2:	440b      	add	r3, r1
 8002fb4:	fbb0 f3f3 	udiv	r3, r0, r3
 8002fb8:	3301      	adds	r3, #1
 8002fba:	f3c3 030b 	ubfx	r3, r3, #0, #12
 8002fbe:	f443 4300 	orr.w	r3, r3, #32768	; 0x8000
 8002fc2:	e00f      	b.n	8002fe4 <HAL_I2C_Init+0x1dc>
 8002fc4:	68fb      	ldr	r3, [r7, #12]
 8002fc6:	1e58      	subs	r0, r3, #1
 8002fc8:	687b      	ldr	r3, [r7, #4]
 8002fca:	6859      	ldr	r1, [r3, #4]
 8002fcc:	460b      	mov	r3, r1
 8002fce:	009b      	lsls	r3, r3, #2
 8002fd0:	440b      	add	r3, r1
 8002fd2:	0099      	lsls	r1, r3, #2
 8002fd4:	440b      	add	r3, r1
 8002fd6:	fbb0 f3f3 	udiv	r3, r0, r3
 8002fda:	3301      	adds	r3, #1
 8002fdc:	f3c3 030b 	ubfx	r3, r3, #0, #12
 8002fe0:	f443 4340 	orr.w	r3, r3, #49152	; 0xc000
 8002fe4:	6879      	ldr	r1, [r7, #4]
 8002fe6:	6809      	ldr	r1, [r1, #0]
 8002fe8:	4313      	orrs	r3, r2
 8002fea:	61cb      	str	r3, [r1, #28]

  /*---------------------------- I2Cx CR1 Configuration ----------------------*/
  /* Configure I2Cx: Generalcall and NoStretch mode */
  MODIFY_REG(hi2c->Instance->CR1, (I2C_CR1_ENGC | I2C_CR1_NOSTRETCH), (hi2c->Init.GeneralCallMode | hi2c->Init.NoStretchMode));
 8002fec:	687b      	ldr	r3, [r7, #4]
 8002fee:	681b      	ldr	r3, [r3, #0]
 8002ff0:	681b      	ldr	r3, [r3, #0]
 8002ff2:	f023 01c0 	bic.w	r1, r3, #192	; 0xc0
 8002ff6:	687b      	ldr	r3, [r7, #4]
 8002ff8:	69da      	ldr	r2, [r3, #28]
 8002ffa:	687b      	ldr	r3, [r7, #4]
 8002ffc:	6a1b      	ldr	r3, [r3, #32]
 8002ffe:	431a      	orrs	r2, r3
 8003000:	687b      	ldr	r3, [r7, #4]
 8003002:	681b      	ldr	r3, [r3, #0]
 8003004:	430a      	orrs	r2, r1
 8003006:	601a      	str	r2, [r3, #0]

  /*---------------------------- I2Cx OAR1 Configuration ---------------------*/
  /* Configure I2Cx: Own Address1 and addressing mode */
  MODIFY_REG(hi2c->Instance->OAR1, (I2C_OAR1_ADDMODE | I2C_OAR1_ADD8_9 | I2C_OAR1_ADD1_7 | I2C_OAR1_ADD0), (hi2c->Init.AddressingMode | hi2c->Init.OwnAddress1));
 8003008:	687b      	ldr	r3, [r7, #4]
 800300a:	681b      	ldr	r3, [r3, #0]
 800300c:	689b      	ldr	r3, [r3, #8]
 800300e:	f423 4303 	bic.w	r3, r3, #33536	; 0x8300
 8003012:	f023 03ff 	bic.w	r3, r3, #255	; 0xff
 8003016:	687a      	ldr	r2, [r7, #4]
 8003018:	6911      	ldr	r1, [r2, #16]
 800301a:	687a      	ldr	r2, [r7, #4]
 800301c:	68d2      	ldr	r2, [r2, #12]
 800301e:	4311      	orrs	r1, r2
 8003020:	687a      	ldr	r2, [r7, #4]
 8003022:	6812      	ldr	r2, [r2, #0]
 8003024:	430b      	orrs	r3, r1
 8003026:	6093      	str	r3, [r2, #8]

  /*---------------------------- I2Cx OAR2 Configuration ---------------------*/
  /* Configure I2Cx: Dual mode and Own Address2 */
  MODIFY_REG(hi2c->Instance->OAR2, (I2C_OAR2_ENDUAL | I2C_OAR2_ADD2), (hi2c->Init.DualAddressMode | hi2c->Init.OwnAddress2));
 8003028:	687b      	ldr	r3, [r7, #4]
 800302a:	681b      	ldr	r3, [r3, #0]
 800302c:	68db      	ldr	r3, [r3, #12]
 800302e:	f023 01ff 	bic.w	r1, r3, #255	; 0xff
 8003032:	687b      	ldr	r3, [r7, #4]
 8003034:	695a      	ldr	r2, [r3, #20]
 8003036:	687b      	ldr	r3, [r7, #4]
 8003038:	699b      	ldr	r3, [r3, #24]
 800303a:	431a      	orrs	r2, r3
 800303c:	687b      	ldr	r3, [r7, #4]
 800303e:	681b      	ldr	r3, [r3, #0]
 8003040:	430a      	orrs	r2, r1
 8003042:	60da      	str	r2, [r3, #12]

  /* Enable the selected I2C peripheral */
  __HAL_I2C_ENABLE(hi2c);
 8003044:	687b      	ldr	r3, [r7, #4]
 8003046:	681b      	ldr	r3, [r3, #0]
 8003048:	681a      	ldr	r2, [r3, #0]
 800304a:	687b      	ldr	r3, [r7, #4]
 800304c:	681b      	ldr	r3, [r3, #0]
 800304e:	f042 0201 	orr.w	r2, r2, #1
 8003052:	601a      	str	r2, [r3, #0]

  hi2c->ErrorCode = HAL_I2C_ERROR_NONE;
 8003054:	687b      	ldr	r3, [r7, #4]
 8003056:	2200      	movs	r2, #0
 8003058:	641a      	str	r2, [r3, #64]	; 0x40
  hi2c->State = HAL_I2C_STATE_READY;
 800305a:	687b      	ldr	r3, [r7, #4]
 800305c:	2220      	movs	r2, #32
 800305e:	f883 203d 	strb.w	r2, [r3, #61]	; 0x3d
  hi2c->PreviousState = I2C_STATE_NONE;
 8003062:	687b      	ldr	r3, [r7, #4]
 8003064:	2200      	movs	r2, #0
 8003066:	631a      	str	r2, [r3, #48]	; 0x30
  hi2c->Mode = HAL_I2C_MODE_NONE;
 8003068:	687b      	ldr	r3, [r7, #4]
 800306a:	2200      	movs	r2, #0
 800306c:	f883 203e 	strb.w	r2, [r3, #62]	; 0x3e

  return HAL_OK;
 8003070:	2300      	movs	r3, #0
}
 8003072:	4618      	mov	r0, r3
 8003074:	3710      	adds	r7, #16
 8003076:	46bd      	mov	sp, r7
 8003078:	bd80      	pop	{r7, pc}
 800307a:	bf00      	nop
 800307c:	000186a0 	.word	0x000186a0
 8003080:	001e847f 	.word	0x001e847f
 8003084:	003d08ff 	.word	0x003d08ff
 8003088:	431bde83 	.word	0x431bde83
 800308c:	10624dd3 	.word	0x10624dd3

08003090 <HAL_I2C_Master_Transmit>:
  * @param  Size Amount of data to be sent
  * @param  Timeout Timeout duration
  * @retval HAL status
  */
HAL_StatusTypeDef HAL_I2C_Master_Transmit(I2C_HandleTypeDef *hi2c, uint16_t DevAddress, uint8_t *pData, uint16_t Size, uint32_t Timeout)
{
 8003090:	b580      	push	{r7, lr}
 8003092:	b088      	sub	sp, #32
 8003094:	af02      	add	r7, sp, #8
 8003096:	60f8      	str	r0, [r7, #12]
 8003098:	607a      	str	r2, [r7, #4]
 800309a:	461a      	mov	r2, r3
 800309c:	460b      	mov	r3, r1
 800309e:	817b      	strh	r3, [r7, #10]
 80030a0:	4613      	mov	r3, r2
 80030a2:	813b      	strh	r3, [r7, #8]
  /* Init tickstart for timeout management*/
  uint32_t tickstart = HAL_GetTick();
 80030a4:	f7fe ff3c 	bl	8001f20 <HAL_GetTick>
 80030a8:	6178      	str	r0, [r7, #20]

  if (hi2c->State == HAL_I2C_STATE_READY)
 80030aa:	68fb      	ldr	r3, [r7, #12]
 80030ac:	f893 303d 	ldrb.w	r3, [r3, #61]	; 0x3d
 80030b0:	b2db      	uxtb	r3, r3
 80030b2:	2b20      	cmp	r3, #32
 80030b4:	f040 80e0 	bne.w	8003278 <HAL_I2C_Master_Transmit+0x1e8>
  {
    /* Wait until BUSY flag is reset */
    if (I2C_WaitOnFlagUntilTimeout(hi2c, I2C_FLAG_BUSY, SET, I2C_TIMEOUT_BUSY_FLAG, tickstart) != HAL_OK)
 80030b8:	697b      	ldr	r3, [r7, #20]
 80030ba:	9300      	str	r3, [sp, #0]
 80030bc:	2319      	movs	r3, #25
 80030be:	2201      	movs	r2, #1
 80030c0:	4970      	ldr	r1, [pc, #448]	; (8003284 <HAL_I2C_Master_Transmit+0x1f4>)
 80030c2:	68f8      	ldr	r0, [r7, #12]
 80030c4:	f000 fc64 	bl	8003990 <I2C_WaitOnFlagUntilTimeout>
 80030c8:	4603      	mov	r3, r0
 80030ca:	2b00      	cmp	r3, #0
 80030cc:	d001      	beq.n	80030d2 <HAL_I2C_Master_Transmit+0x42>
    {
      return HAL_BUSY;
 80030ce:	2302      	movs	r3, #2
 80030d0:	e0d3      	b.n	800327a <HAL_I2C_Master_Transmit+0x1ea>
    }

    /* Process Locked */
    __HAL_LOCK(hi2c);
 80030d2:	68fb      	ldr	r3, [r7, #12]
 80030d4:	f893 303c 	ldrb.w	r3, [r3, #60]	; 0x3c
 80030d8:	2b01      	cmp	r3, #1
 80030da:	d101      	bne.n	80030e0 <HAL_I2C_Master_Transmit+0x50>
 80030dc:	2302      	movs	r3, #2
 80030de:	e0cc      	b.n	800327a <HAL_I2C_Master_Transmit+0x1ea>
 80030e0:	68fb      	ldr	r3, [r7, #12]
 80030e2:	2201      	movs	r2, #1
 80030e4:	f883 203c 	strb.w	r2, [r3, #60]	; 0x3c

    /* Check if the I2C is already enabled */
    if ((hi2c->Instance->CR1 & I2C_CR1_PE) != I2C_CR1_PE)
 80030e8:	68fb      	ldr	r3, [r7, #12]
 80030ea:	681b      	ldr	r3, [r3, #0]
 80030ec:	681b      	ldr	r3, [r3, #0]
 80030ee:	f003 0301 	and.w	r3, r3, #1
 80030f2:	2b01      	cmp	r3, #1
 80030f4:	d007      	beq.n	8003106 <HAL_I2C_Master_Transmit+0x76>
    {
      /* Enable I2C peripheral */
      __HAL_I2C_ENABLE(hi2c);
 80030f6:	68fb      	ldr	r3, [r7, #12]
 80030f8:	681b      	ldr	r3, [r3, #0]
 80030fa:	681a      	ldr	r2, [r3, #0]
 80030fc:	68fb      	ldr	r3, [r7, #12]
 80030fe:	681b      	ldr	r3, [r3, #0]
 8003100:	f042 0201 	orr.w	r2, r2, #1
 8003104:	601a      	str	r2, [r3, #0]
    }

    /* Disable Pos */
    CLEAR_BIT(hi2c->Instance->CR1, I2C_CR1_POS);
 8003106:	68fb      	ldr	r3, [r7, #12]
 8003108:	681b      	ldr	r3, [r3, #0]
 800310a:	681a      	ldr	r2, [r3, #0]
 800310c:	68fb      	ldr	r3, [r7, #12]
 800310e:	681b      	ldr	r3, [r3, #0]
 8003110:	f422 6200 	bic.w	r2, r2, #2048	; 0x800
 8003114:	601a      	str	r2, [r3, #0]

    hi2c->State       = HAL_I2C_STATE_BUSY_TX;
 8003116:	68fb      	ldr	r3, [r7, #12]
 8003118:	2221      	movs	r2, #33	; 0x21
 800311a:	f883 203d 	strb.w	r2, [r3, #61]	; 0x3d
    hi2c->Mode        = HAL_I2C_MODE_MASTER;
 800311e:	68fb      	ldr	r3, [r7, #12]
 8003120:	2210      	movs	r2, #16
 8003122:	f883 203e 	strb.w	r2, [r3, #62]	; 0x3e
    hi2c->ErrorCode   = HAL_I2C_ERROR_NONE;
 8003126:	68fb      	ldr	r3, [r7, #12]
 8003128:	2200      	movs	r2, #0
 800312a:	641a      	str	r2, [r3, #64]	; 0x40

    /* Prepare transfer parameters */
    hi2c->pBuffPtr    = pData;
 800312c:	68fb      	ldr	r3, [r7, #12]
 800312e:	687a      	ldr	r2, [r7, #4]
 8003130:	625a      	str	r2, [r3, #36]	; 0x24
    hi2c->XferCount   = Size;
 8003132:	68fb      	ldr	r3, [r7, #12]
 8003134:	893a      	ldrh	r2, [r7, #8]
 8003136:	855a      	strh	r2, [r3, #42]	; 0x2a
    hi2c->XferSize    = hi2c->XferCount;
 8003138:	68fb      	ldr	r3, [r7, #12]
 800313a:	8d5b      	ldrh	r3, [r3, #42]	; 0x2a
 800313c:	b29a      	uxth	r2, r3
 800313e:	68fb      	ldr	r3, [r7, #12]
 8003140:	851a      	strh	r2, [r3, #40]	; 0x28
    hi2c->XferOptions = I2C_NO_OPTION_FRAME;
 8003142:	68fb      	ldr	r3, [r7, #12]
 8003144:	4a50      	ldr	r2, [pc, #320]	; (8003288 <HAL_I2C_Master_Transmit+0x1f8>)
 8003146:	62da      	str	r2, [r3, #44]	; 0x2c

    /* Send Slave Address */
    if (I2C_MasterRequestWrite(hi2c, DevAddress, Timeout, tickstart) != HAL_OK)
 8003148:	8979      	ldrh	r1, [r7, #10]
 800314a:	697b      	ldr	r3, [r7, #20]
 800314c:	6a3a      	ldr	r2, [r7, #32]
 800314e:	68f8      	ldr	r0, [r7, #12]
 8003150:	f000 face 	bl	80036f0 <I2C_MasterRequestWrite>
 8003154:	4603      	mov	r3, r0
 8003156:	2b00      	cmp	r3, #0
 8003158:	d001      	beq.n	800315e <HAL_I2C_Master_Transmit+0xce>
    {
      return HAL_ERROR;
 800315a:	2301      	movs	r3, #1
 800315c:	e08d      	b.n	800327a <HAL_I2C_Master_Transmit+0x1ea>
    }

    /* Clear ADDR flag */
    __HAL_I2C_CLEAR_ADDRFLAG(hi2c);
 800315e:	2300      	movs	r3, #0
 8003160:	613b      	str	r3, [r7, #16]
 8003162:	68fb      	ldr	r3, [r7, #12]
 8003164:	681b      	ldr	r3, [r3, #0]
 8003166:	695b      	ldr	r3, [r3, #20]
 8003168:	613b      	str	r3, [r7, #16]
 800316a:	68fb      	ldr	r3, [r7, #12]
 800316c:	681b      	ldr	r3, [r3, #0]
 800316e:	699b      	ldr	r3, [r3, #24]
 8003170:	613b      	str	r3, [r7, #16]
 8003172:	693b      	ldr	r3, [r7, #16]

    while (hi2c->XferSize > 0U)
 8003174:	e066      	b.n	8003244 <HAL_I2C_Master_Transmit+0x1b4>
    {
      /* Wait until TXE flag is set */
      if (I2C_WaitOnTXEFlagUntilTimeout(hi2c, Timeout, tickstart) != HAL_OK)
 8003176:	697a      	ldr	r2, [r7, #20]
 8003178:	6a39      	ldr	r1, [r7, #32]
 800317a:	68f8      	ldr	r0, [r7, #12]
 800317c:	f000 fd22 	bl	8003bc4 <I2C_WaitOnTXEFlagUntilTimeout>
 8003180:	4603      	mov	r3, r0
 8003182:	2b00      	cmp	r3, #0
 8003184:	d00d      	beq.n	80031a2 <HAL_I2C_Master_Transmit+0x112>
      {
        if (hi2c->ErrorCode == HAL_I2C_ERROR_AF)
 8003186:	68fb      	ldr	r3, [r7, #12]
 8003188:	6c1b      	ldr	r3, [r3, #64]	; 0x40
 800318a:	2b04      	cmp	r3, #4
 800318c:	d107      	bne.n	800319e <HAL_I2C_Master_Transmit+0x10e>
        {
          /* Generate Stop */
          SET_BIT(hi2c->Instance->CR1, I2C_CR1_STOP);
 800318e:	68fb      	ldr	r3, [r7, #12]
 8003190:	681b      	ldr	r3, [r3, #0]
 8003192:	681a      	ldr	r2, [r3, #0]
 8003194:	68fb      	ldr	r3, [r7, #12]
 8003196:	681b      	ldr	r3, [r3, #0]
 8003198:	f442 7200 	orr.w	r2, r2, #512	; 0x200
 800319c:	601a      	str	r2, [r3, #0]
        }
        return HAL_ERROR;
 800319e:	2301      	movs	r3, #1
 80031a0:	e06b      	b.n	800327a <HAL_I2C_Master_Transmit+0x1ea>
      }

      /* Write data to DR */
      hi2c->Instance->DR = *hi2c->pBuffPtr;
 80031a2:	68fb      	ldr	r3, [r7, #12]
 80031a4:	6a5b      	ldr	r3, [r3, #36]	; 0x24
 80031a6:	781a      	ldrb	r2, [r3, #0]
 80031a8:	68fb      	ldr	r3, [r7, #12]
 80031aa:	681b      	ldr	r3, [r3, #0]
 80031ac:	611a      	str	r2, [r3, #16]

      /* Increment Buffer pointer */
      hi2c->pBuffPtr++;
 80031ae:	68fb      	ldr	r3, [r7, #12]
 80031b0:	6a5b      	ldr	r3, [r3, #36]	; 0x24
 80031b2:	1c5a      	adds	r2, r3, #1
 80031b4:	68fb      	ldr	r3, [r7, #12]
 80031b6:	625a      	str	r2, [r3, #36]	; 0x24

      /* Update counter */
      hi2c->XferCount--;
 80031b8:	68fb      	ldr	r3, [r7, #12]
 80031ba:	8d5b      	ldrh	r3, [r3, #42]	; 0x2a
 80031bc:	b29b      	uxth	r3, r3
 80031be:	3b01      	subs	r3, #1
 80031c0:	b29a      	uxth	r2, r3
 80031c2:	68fb      	ldr	r3, [r7, #12]
 80031c4:	855a      	strh	r2, [r3, #42]	; 0x2a
      hi2c->XferSize--;
 80031c6:	68fb      	ldr	r3, [r7, #12]
 80031c8:	8d1b      	ldrh	r3, [r3, #40]	; 0x28
 80031ca:	3b01      	subs	r3, #1
 80031cc:	b29a      	uxth	r2, r3
 80031ce:	68fb      	ldr	r3, [r7, #12]
 80031d0:	851a      	strh	r2, [r3, #40]	; 0x28

      if ((__HAL_I2C_GET_FLAG(hi2c, I2C_FLAG_BTF) == SET) && (hi2c->XferSize != 0U))
 80031d2:	68fb      	ldr	r3, [r7, #12]
 80031d4:	681b      	ldr	r3, [r3, #0]
 80031d6:	695b      	ldr	r3, [r3, #20]
 80031d8:	f003 0304 	and.w	r3, r3, #4
 80031dc:	2b04      	cmp	r3, #4
 80031de:	d11b      	bne.n	8003218 <HAL_I2C_Master_Transmit+0x188>
 80031e0:	68fb      	ldr	r3, [r7, #12]
 80031e2:	8d1b      	ldrh	r3, [r3, #40]	; 0x28
 80031e4:	2b00      	cmp	r3, #0
 80031e6:	d017      	beq.n	8003218 <HAL_I2C_Master_Transmit+0x188>
      {
        /* Write data to DR */
        hi2c->Instance->DR = *hi2c->pBuffPtr;
 80031e8:	68fb      	ldr	r3, [r7, #12]
 80031ea:	6a5b      	ldr	r3, [r3, #36]	; 0x24
 80031ec:	781a      	ldrb	r2, [r3, #0]
 80031ee:	68fb      	ldr	r3, [r7, #12]
 80031f0:	681b      	ldr	r3, [r3, #0]
 80031f2:	611a      	str	r2, [r3, #16]

        /* Increment Buffer pointer */
        hi2c->pBuffPtr++;
 80031f4:	68fb      	ldr	r3, [r7, #12]
 80031f6:	6a5b      	ldr	r3, [r3, #36]	; 0x24
 80031f8:	1c5a      	adds	r2, r3, #1
 80031fa:	68fb      	ldr	r3, [r7, #12]
 80031fc:	625a      	str	r2, [r3, #36]	; 0x24

        /* Update counter */
        hi2c->XferCount--;
 80031fe:	68fb      	ldr	r3, [r7, #12]
 8003200:	8d5b      	ldrh	r3, [r3, #42]	; 0x2a
 8003202:	b29b      	uxth	r3, r3
 8003204:	3b01      	subs	r3, #1
 8003206:	b29a      	uxth	r2, r3
 8003208:	68fb      	ldr	r3, [r7, #12]
 800320a:	855a      	strh	r2, [r3, #42]	; 0x2a
        hi2c->XferSize--;
 800320c:	68fb      	ldr	r3, [r7, #12]
 800320e:	8d1b      	ldrh	r3, [r3, #40]	; 0x28
 8003210:	3b01      	subs	r3, #1
 8003212:	b29a      	uxth	r2, r3
 8003214:	68fb      	ldr	r3, [r7, #12]
 8003216:	851a      	strh	r2, [r3, #40]	; 0x28
      }

      /* Wait until BTF flag is set */
      if (I2C_WaitOnBTFFlagUntilTimeout(hi2c, Timeout, tickstart) != HAL_OK)
 8003218:	697a      	ldr	r2, [r7, #20]
 800321a:	6a39      	ldr	r1, [r7, #32]
 800321c:	68f8      	ldr	r0, [r7, #12]
 800321e:	f000 fd19 	bl	8003c54 <I2C_WaitOnBTFFlagUntilTimeout>
 8003222:	4603      	mov	r3, r0
 8003224:	2b00      	cmp	r3, #0
 8003226:	d00d      	beq.n	8003244 <HAL_I2C_Master_Transmit+0x1b4>
      {
        if (hi2c->ErrorCode == HAL_I2C_ERROR_AF)
 8003228:	68fb      	ldr	r3, [r7, #12]
 800322a:	6c1b      	ldr	r3, [r3, #64]	; 0x40
 800322c:	2b04      	cmp	r3, #4
 800322e:	d107      	bne.n	8003240 <HAL_I2C_Master_Transmit+0x1b0>
        {
          /* Generate Stop */
          SET_BIT(hi2c->Instance->CR1, I2C_CR1_STOP);
 8003230:	68fb      	ldr	r3, [r7, #12]
 8003232:	681b      	ldr	r3, [r3, #0]
 8003234:	681a      	ldr	r2, [r3, #0]
 8003236:	68fb      	ldr	r3, [r7, #12]
 8003238:	681b      	ldr	r3, [r3, #0]
 800323a:	f442 7200 	orr.w	r2, r2, #512	; 0x200
 800323e:	601a      	str	r2, [r3, #0]
        }
        return HAL_ERROR;
 8003240:	2301      	movs	r3, #1
 8003242:	e01a      	b.n	800327a <HAL_I2C_Master_Transmit+0x1ea>
    while (hi2c->XferSize > 0U)
 8003244:	68fb      	ldr	r3, [r7, #12]
 8003246:	8d1b      	ldrh	r3, [r3, #40]	; 0x28
 8003248:	2b00      	cmp	r3, #0
 800324a:	d194      	bne.n	8003176 <HAL_I2C_Master_Transmit+0xe6>
      }
    }

    /* Generate Stop */
    SET_BIT(hi2c->Instance->CR1, I2C_CR1_STOP);
 800324c:	68fb      	ldr	r3, [r7, #12]
 800324e:	681b      	ldr	r3, [r3, #0]
 8003250:	681a      	ldr	r2, [r3, #0]
 8003252:	68fb      	ldr	r3, [r7, #12]
 8003254:	681b      	ldr	r3, [r3, #0]
 8003256:	f442 7200 	orr.w	r2, r2, #512	; 0x200
 800325a:	601a      	str	r2, [r3, #0]

    hi2c->State = HAL_I2C_STATE_READY;
 800325c:	68fb      	ldr	r3, [r7, #12]
 800325e:	2220      	movs	r2, #32
 8003260:	f883 203d 	strb.w	r2, [r3, #61]	; 0x3d
    hi2c->Mode = HAL_I2C_MODE_NONE;
 8003264:	68fb      	ldr	r3, [r7, #12]
 8003266:	2200      	movs	r2, #0
 8003268:	f883 203e 	strb.w	r2, [r3, #62]	; 0x3e

    /* Process Unlocked */
    __HAL_UNLOCK(hi2c);
 800326c:	68fb      	ldr	r3, [r7, #12]
 800326e:	2200      	movs	r2, #0
 8003270:	f883 203c 	strb.w	r2, [r3, #60]	; 0x3c

    return HAL_OK;
 8003274:	2300      	movs	r3, #0
 8003276:	e000      	b.n	800327a <HAL_I2C_Master_Transmit+0x1ea>
  }
  else
  {
    return HAL_BUSY;
 8003278:	2302      	movs	r3, #2
  }
}
 800327a:	4618      	mov	r0, r3
 800327c:	3718      	adds	r7, #24
 800327e:	46bd      	mov	sp, r7
 8003280:	bd80      	pop	{r7, pc}
 8003282:	bf00      	nop
 8003284:	00100002 	.word	0x00100002
 8003288:	ffff0000 	.word	0xffff0000

0800328c <HAL_I2C_Master_Receive>:
  * @param  Size Amount of data to be sent
  * @param  Timeout Timeout duration
  * @retval HAL status
  */
HAL_StatusTypeDef HAL_I2C_Master_Receive(I2C_HandleTypeDef *hi2c, uint16_t DevAddress, uint8_t *pData, uint16_t Size, uint32_t Timeout)
{
 800328c:	b580      	push	{r7, lr}
 800328e:	b08c      	sub	sp, #48	; 0x30
 8003290:	af02      	add	r7, sp, #8
 8003292:	60f8      	str	r0, [r7, #12]
 8003294:	607a      	str	r2, [r7, #4]
 8003296:	461a      	mov	r2, r3
 8003298:	460b      	mov	r3, r1
 800329a:	817b      	strh	r3, [r7, #10]
 800329c:	4613      	mov	r3, r2
 800329e:	813b      	strh	r3, [r7, #8]
  /* Init tickstart for timeout management*/
  uint32_t tickstart = HAL_GetTick();
 80032a0:	f7fe fe3e 	bl	8001f20 <HAL_GetTick>
 80032a4:	6278      	str	r0, [r7, #36]	; 0x24

  if (hi2c->State == HAL_I2C_STATE_READY)
 80032a6:	68fb      	ldr	r3, [r7, #12]
 80032a8:	f893 303d 	ldrb.w	r3, [r3, #61]	; 0x3d
 80032ac:	b2db      	uxtb	r3, r3
 80032ae:	2b20      	cmp	r3, #32
 80032b0:	f040 8217 	bne.w	80036e2 <HAL_I2C_Master_Receive+0x456>
  {
    /* Wait until BUSY flag is reset */
    if (I2C_WaitOnFlagUntilTimeout(hi2c, I2C_FLAG_BUSY, SET, I2C_TIMEOUT_BUSY_FLAG, tickstart) != HAL_OK)
 80032b4:	6a7b      	ldr	r3, [r7, #36]	; 0x24
 80032b6:	9300      	str	r3, [sp, #0]
 80032b8:	2319      	movs	r3, #25
 80032ba:	2201      	movs	r2, #1
 80032bc:	497c      	ldr	r1, [pc, #496]	; (80034b0 <HAL_I2C_Master_Receive+0x224>)
 80032be:	68f8      	ldr	r0, [r7, #12]
 80032c0:	f000 fb66 	bl	8003990 <I2C_WaitOnFlagUntilTimeout>
 80032c4:	4603      	mov	r3, r0
 80032c6:	2b00      	cmp	r3, #0
 80032c8:	d001      	beq.n	80032ce <HAL_I2C_Master_Receive+0x42>
    {
      return HAL_BUSY;
 80032ca:	2302      	movs	r3, #2
 80032cc:	e20a      	b.n	80036e4 <HAL_I2C_Master_Receive+0x458>
    }

    /* Process Locked */
    __HAL_LOCK(hi2c);
 80032ce:	68fb      	ldr	r3, [r7, #12]
 80032d0:	f893 303c 	ldrb.w	r3, [r3, #60]	; 0x3c
 80032d4:	2b01      	cmp	r3, #1
 80032d6:	d101      	bne.n	80032dc <HAL_I2C_Master_Receive+0x50>
 80032d8:	2302      	movs	r3, #2
 80032da:	e203      	b.n	80036e4 <HAL_I2C_Master_Receive+0x458>
 80032dc:	68fb      	ldr	r3, [r7, #12]
 80032de:	2201      	movs	r2, #1
 80032e0:	f883 203c 	strb.w	r2, [r3, #60]	; 0x3c

    /* Check if the I2C is already enabled */
    if ((hi2c->Instance->CR1 & I2C_CR1_PE) != I2C_CR1_PE)
 80032e4:	68fb      	ldr	r3, [r7, #12]
 80032e6:	681b      	ldr	r3, [r3, #0]
 80032e8:	681b      	ldr	r3, [r3, #0]
 80032ea:	f003 0301 	and.w	r3, r3, #1
 80032ee:	2b01      	cmp	r3, #1
 80032f0:	d007      	beq.n	8003302 <HAL_I2C_Master_Receive+0x76>
    {
      /* Enable I2C peripheral */
      __HAL_I2C_ENABLE(hi2c);
 80032f2:	68fb      	ldr	r3, [r7, #12]
 80032f4:	681b      	ldr	r3, [r3, #0]
 80032f6:	681a      	ldr	r2, [r3, #0]
 80032f8:	68fb      	ldr	r3, [r7, #12]
 80032fa:	681b      	ldr	r3, [r3, #0]
 80032fc:	f042 0201 	orr.w	r2, r2, #1
 8003300:	601a      	str	r2, [r3, #0]
    }

    /* Disable Pos */
    CLEAR_BIT(hi2c->Instance->CR1, I2C_CR1_POS);
 8003302:	68fb      	ldr	r3, [r7, #12]
 8003304:	681b      	ldr	r3, [r3, #0]
 8003306:	681a      	ldr	r2, [r3, #0]
 8003308:	68fb      	ldr	r3, [r7, #12]
 800330a:	681b      	ldr	r3, [r3, #0]
 800330c:	f422 6200 	bic.w	r2, r2, #2048	; 0x800
 8003310:	601a      	str	r2, [r3, #0]

    hi2c->State       = HAL_I2C_STATE_BUSY_RX;
 8003312:	68fb      	ldr	r3, [r7, #12]
 8003314:	2222      	movs	r2, #34	; 0x22
 8003316:	f883 203d 	strb.w	r2, [r3, #61]	; 0x3d
    hi2c->Mode        = HAL_I2C_MODE_MASTER;
 800331a:	68fb      	ldr	r3, [r7, #12]
 800331c:	2210      	movs	r2, #16
 800331e:	f883 203e 	strb.w	r2, [r3, #62]	; 0x3e
    hi2c->ErrorCode   = HAL_I2C_ERROR_NONE;
 8003322:	68fb      	ldr	r3, [r7, #12]
 8003324:	2200      	movs	r2, #0
 8003326:	641a      	str	r2, [r3, #64]	; 0x40

    /* Prepare transfer parameters */
    hi2c->pBuffPtr    = pData;
 8003328:	68fb      	ldr	r3, [r7, #12]
 800332a:	687a      	ldr	r2, [r7, #4]
 800332c:	625a      	str	r2, [r3, #36]	; 0x24
    hi2c->XferCount   = Size;
 800332e:	68fb      	ldr	r3, [r7, #12]
 8003330:	893a      	ldrh	r2, [r7, #8]
 8003332:	855a      	strh	r2, [r3, #42]	; 0x2a
    hi2c->XferSize    = hi2c->XferCount;
 8003334:	68fb      	ldr	r3, [r7, #12]
 8003336:	8d5b      	ldrh	r3, [r3, #42]	; 0x2a
 8003338:	b29a      	uxth	r2, r3
 800333a:	68fb      	ldr	r3, [r7, #12]
 800333c:	851a      	strh	r2, [r3, #40]	; 0x28
    hi2c->XferOptions = I2C_NO_OPTION_FRAME;
 800333e:	68fb      	ldr	r3, [r7, #12]
 8003340:	4a5c      	ldr	r2, [pc, #368]	; (80034b4 <HAL_I2C_Master_Receive+0x228>)
 8003342:	62da      	str	r2, [r3, #44]	; 0x2c

    /* Send Slave Address */
    if (I2C_MasterRequestRead(hi2c, DevAddress, Timeout, tickstart) != HAL_OK)
 8003344:	8979      	ldrh	r1, [r7, #10]
 8003346:	6a7b      	ldr	r3, [r7, #36]	; 0x24
 8003348:	6b3a      	ldr	r2, [r7, #48]	; 0x30
 800334a:	68f8      	ldr	r0, [r7, #12]
 800334c:	f000 fa52 	bl	80037f4 <I2C_MasterRequestRead>
 8003350:	4603      	mov	r3, r0
 8003352:	2b00      	cmp	r3, #0
 8003354:	d001      	beq.n	800335a <HAL_I2C_Master_Receive+0xce>
    {
      return HAL_ERROR;
 8003356:	2301      	movs	r3, #1
 8003358:	e1c4      	b.n	80036e4 <HAL_I2C_Master_Receive+0x458>
    }

    if (hi2c->XferSize == 0U)
 800335a:	68fb      	ldr	r3, [r7, #12]
 800335c:	8d1b      	ldrh	r3, [r3, #40]	; 0x28
 800335e:	2b00      	cmp	r3, #0
 8003360:	d113      	bne.n	800338a <HAL_I2C_Master_Receive+0xfe>
    {
      /* Clear ADDR flag */
      __HAL_I2C_CLEAR_ADDRFLAG(hi2c);
 8003362:	2300      	movs	r3, #0
 8003364:	623b      	str	r3, [r7, #32]
 8003366:	68fb      	ldr	r3, [r7, #12]
 8003368:	681b      	ldr	r3, [r3, #0]
 800336a:	695b      	ldr	r3, [r3, #20]
 800336c:	623b      	str	r3, [r7, #32]
 800336e:	68fb      	ldr	r3, [r7, #12]
 8003370:	681b      	ldr	r3, [r3, #0]
 8003372:	699b      	ldr	r3, [r3, #24]
 8003374:	623b      	str	r3, [r7, #32]
 8003376:	6a3b      	ldr	r3, [r7, #32]

      /* Generate Stop */
      SET_BIT(hi2c->Instance->CR1, I2C_CR1_STOP);
 8003378:	68fb      	ldr	r3, [r7, #12]
 800337a:	681b      	ldr	r3, [r3, #0]
 800337c:	681a      	ldr	r2, [r3, #0]
 800337e:	68fb      	ldr	r3, [r7, #12]
 8003380:	681b      	ldr	r3, [r3, #0]
 8003382:	f442 7200 	orr.w	r2, r2, #512	; 0x200
 8003386:	601a      	str	r2, [r3, #0]
 8003388:	e198      	b.n	80036bc <HAL_I2C_Master_Receive+0x430>
    }
    else if (hi2c->XferSize == 1U)
 800338a:	68fb      	ldr	r3, [r7, #12]
 800338c:	8d1b      	ldrh	r3, [r3, #40]	; 0x28
 800338e:	2b01      	cmp	r3, #1
 8003390:	d11b      	bne.n	80033ca <HAL_I2C_Master_Receive+0x13e>
    {
      /* Disable Acknowledge */
      CLEAR_BIT(hi2c->Instance->CR1, I2C_CR1_ACK);
 8003392:	68fb      	ldr	r3, [r7, #12]
 8003394:	681b      	ldr	r3, [r3, #0]
 8003396:	681a      	ldr	r2, [r3, #0]
 8003398:	68fb      	ldr	r3, [r7, #12]
 800339a:	681b      	ldr	r3, [r3, #0]
 800339c:	f422 6280 	bic.w	r2, r2, #1024	; 0x400
 80033a0:	601a      	str	r2, [r3, #0]

      /* Clear ADDR flag */
      __HAL_I2C_CLEAR_ADDRFLAG(hi2c);
 80033a2:	2300      	movs	r3, #0
 80033a4:	61fb      	str	r3, [r7, #28]
 80033a6:	68fb      	ldr	r3, [r7, #12]
 80033a8:	681b      	ldr	r3, [r3, #0]
 80033aa:	695b      	ldr	r3, [r3, #20]
 80033ac:	61fb      	str	r3, [r7, #28]
 80033ae:	68fb      	ldr	r3, [r7, #12]
 80033b0:	681b      	ldr	r3, [r3, #0]
 80033b2:	699b      	ldr	r3, [r3, #24]
 80033b4:	61fb      	str	r3, [r7, #28]
 80033b6:	69fb      	ldr	r3, [r7, #28]

      /* Generate Stop */
      SET_BIT(hi2c->Instance->CR1, I2C_CR1_STOP);
 80033b8:	68fb      	ldr	r3, [r7, #12]
 80033ba:	681b      	ldr	r3, [r3, #0]
 80033bc:	681a      	ldr	r2, [r3, #0]
 80033be:	68fb      	ldr	r3, [r7, #12]
 80033c0:	681b      	ldr	r3, [r3, #0]
 80033c2:	f442 7200 	orr.w	r2, r2, #512	; 0x200
 80033c6:	601a      	str	r2, [r3, #0]
 80033c8:	e178      	b.n	80036bc <HAL_I2C_Master_Receive+0x430>
    }
    else if (hi2c->XferSize == 2U)
 80033ca:	68fb      	ldr	r3, [r7, #12]
 80033cc:	8d1b      	ldrh	r3, [r3, #40]	; 0x28
 80033ce:	2b02      	cmp	r3, #2
 80033d0:	d11b      	bne.n	800340a <HAL_I2C_Master_Receive+0x17e>
    {
      /* Disable Acknowledge */
      CLEAR_BIT(hi2c->Instance->CR1, I2C_CR1_ACK);
 80033d2:	68fb      	ldr	r3, [r7, #12]
 80033d4:	681b      	ldr	r3, [r3, #0]
 80033d6:	681a      	ldr	r2, [r3, #0]
 80033d8:	68fb      	ldr	r3, [r7, #12]
 80033da:	681b      	ldr	r3, [r3, #0]
 80033dc:	f422 6280 	bic.w	r2, r2, #1024	; 0x400
 80033e0:	601a      	str	r2, [r3, #0]

      /* Enable Pos */
      SET_BIT(hi2c->Instance->CR1, I2C_CR1_POS);
 80033e2:	68fb      	ldr	r3, [r7, #12]
 80033e4:	681b      	ldr	r3, [r3, #0]
 80033e6:	681a      	ldr	r2, [r3, #0]
 80033e8:	68fb      	ldr	r3, [r7, #12]
 80033ea:	681b      	ldr	r3, [r3, #0]
 80033ec:	f442 6200 	orr.w	r2, r2, #2048	; 0x800
 80033f0:	601a      	str	r2, [r3, #0]

      /* Clear ADDR flag */
      __HAL_I2C_CLEAR_ADDRFLAG(hi2c);
 80033f2:	2300      	movs	r3, #0
 80033f4:	61bb      	str	r3, [r7, #24]
 80033f6:	68fb      	ldr	r3, [r7, #12]
 80033f8:	681b      	ldr	r3, [r3, #0]
 80033fa:	695b      	ldr	r3, [r3, #20]
 80033fc:	61bb      	str	r3, [r7, #24]
 80033fe:	68fb      	ldr	r3, [r7, #12]
 8003400:	681b      	ldr	r3, [r3, #0]
 8003402:	699b      	ldr	r3, [r3, #24]
 8003404:	61bb      	str	r3, [r7, #24]
 8003406:	69bb      	ldr	r3, [r7, #24]
 8003408:	e158      	b.n	80036bc <HAL_I2C_Master_Receive+0x430>
    }
    else
    {
      /* Enable Acknowledge */
      SET_BIT(hi2c->Instance->CR1, I2C_CR1_ACK);
 800340a:	68fb      	ldr	r3, [r7, #12]
 800340c:	681b      	ldr	r3, [r3, #0]
 800340e:	681a      	ldr	r2, [r3, #0]
 8003410:	68fb      	ldr	r3, [r7, #12]
 8003412:	681b      	ldr	r3, [r3, #0]
 8003414:	f442 6280 	orr.w	r2, r2, #1024	; 0x400
 8003418:	601a      	str	r2, [r3, #0]

      /* Clear ADDR flag */
      __HAL_I2C_CLEAR_ADDRFLAG(hi2c);
 800341a:	2300      	movs	r3, #0
 800341c:	617b      	str	r3, [r7, #20]
 800341e:	68fb      	ldr	r3, [r7, #12]
 8003420:	681b      	ldr	r3, [r3, #0]
 8003422:	695b      	ldr	r3, [r3, #20]
 8003424:	617b      	str	r3, [r7, #20]
 8003426:	68fb      	ldr	r3, [r7, #12]
 8003428:	681b      	ldr	r3, [r3, #0]
 800342a:	699b      	ldr	r3, [r3, #24]
 800342c:	617b      	str	r3, [r7, #20]
 800342e:	697b      	ldr	r3, [r7, #20]
    }

    while (hi2c->XferSize > 0U)
 8003430:	e144      	b.n	80036bc <HAL_I2C_Master_Receive+0x430>
    {
      if (hi2c->XferSize <= 3U)
 8003432:	68fb      	ldr	r3, [r7, #12]
 8003434:	8d1b      	ldrh	r3, [r3, #40]	; 0x28
 8003436:	2b03      	cmp	r3, #3
 8003438:	f200 80f1 	bhi.w	800361e <HAL_I2C_Master_Receive+0x392>
      {
        /* One byte */
        if (hi2c->XferSize == 1U)
 800343c:	68fb      	ldr	r3, [r7, #12]
 800343e:	8d1b      	ldrh	r3, [r3, #40]	; 0x28
 8003440:	2b01      	cmp	r3, #1
 8003442:	d123      	bne.n	800348c <HAL_I2C_Master_Receive+0x200>
        {
          /* Wait until RXNE flag is set */
          if (I2C_WaitOnRXNEFlagUntilTimeout(hi2c, Timeout, tickstart) != HAL_OK)
 8003444:	6a7a      	ldr	r2, [r7, #36]	; 0x24
 8003446:	6b39      	ldr	r1, [r7, #48]	; 0x30
 8003448:	68f8      	ldr	r0, [r7, #12]
 800344a:	f000 fc4b 	bl	8003ce4 <I2C_WaitOnRXNEFlagUntilTimeout>
 800344e:	4603      	mov	r3, r0
 8003450:	2b00      	cmp	r3, #0
 8003452:	d001      	beq.n	8003458 <HAL_I2C_Master_Receive+0x1cc>
          {
            return HAL_ERROR;
 8003454:	2301      	movs	r3, #1
 8003456:	e145      	b.n	80036e4 <HAL_I2C_Master_Receive+0x458>
          }

          /* Read data from DR */
          *hi2c->pBuffPtr = (uint8_t)hi2c->Instance->DR;
 8003458:	68fb      	ldr	r3, [r7, #12]
 800345a:	681b      	ldr	r3, [r3, #0]
 800345c:	691a      	ldr	r2, [r3, #16]
 800345e:	68fb      	ldr	r3, [r7, #12]
 8003460:	6a5b      	ldr	r3, [r3, #36]	; 0x24
 8003462:	b2d2      	uxtb	r2, r2
 8003464:	701a      	strb	r2, [r3, #0]

          /* Increment Buffer pointer */
          hi2c->pBuffPtr++;
 8003466:	68fb      	ldr	r3, [r7, #12]
 8003468:	6a5b      	ldr	r3, [r3, #36]	; 0x24
 800346a:	1c5a      	adds	r2, r3, #1
 800346c:	68fb      	ldr	r3, [r7, #12]
 800346e:	625a      	str	r2, [r3, #36]	; 0x24

          /* Update counter */
          hi2c->XferSize--;
 8003470:	68fb      	ldr	r3, [r7, #12]
 8003472:	8d1b      	ldrh	r3, [r3, #40]	; 0x28
 8003474:	3b01      	subs	r3, #1
 8003476:	b29a      	uxth	r2, r3
 8003478:	68fb      	ldr	r3, [r7, #12]
 800347a:	851a      	strh	r2, [r3, #40]	; 0x28
          hi2c->XferCount--;
 800347c:	68fb      	ldr	r3, [r7, #12]
 800347e:	8d5b      	ldrh	r3, [r3, #42]	; 0x2a
 8003480:	b29b      	uxth	r3, r3
 8003482:	3b01      	subs	r3, #1
 8003484:	b29a      	uxth	r2, r3
 8003486:	68fb      	ldr	r3, [r7, #12]
 8003488:	855a      	strh	r2, [r3, #42]	; 0x2a
 800348a:	e117      	b.n	80036bc <HAL_I2C_Master_Receive+0x430>
        }
        /* Two bytes */
        else if (hi2c->XferSize == 2U)
 800348c:	68fb      	ldr	r3, [r7, #12]
 800348e:	8d1b      	ldrh	r3, [r3, #40]	; 0x28
 8003490:	2b02      	cmp	r3, #2
 8003492:	d14e      	bne.n	8003532 <HAL_I2C_Master_Receive+0x2a6>
        {
          /* Wait until BTF flag is set */
          if (I2C_WaitOnFlagUntilTimeout(hi2c, I2C_FLAG_BTF, RESET, Timeout, tickstart) != HAL_OK)
 8003494:	6a7b      	ldr	r3, [r7, #36]	; 0x24
 8003496:	9300      	str	r3, [sp, #0]
 8003498:	6b3b      	ldr	r3, [r7, #48]	; 0x30
 800349a:	2200      	movs	r2, #0
 800349c:	4906      	ldr	r1, [pc, #24]	; (80034b8 <HAL_I2C_Master_Receive+0x22c>)
 800349e:	68f8      	ldr	r0, [r7, #12]
 80034a0:	f000 fa76 	bl	8003990 <I2C_WaitOnFlagUntilTimeout>
 80034a4:	4603      	mov	r3, r0
 80034a6:	2b00      	cmp	r3, #0
 80034a8:	d008      	beq.n	80034bc <HAL_I2C_Master_Receive+0x230>
          {
            return HAL_ERROR;
 80034aa:	2301      	movs	r3, #1
 80034ac:	e11a      	b.n	80036e4 <HAL_I2C_Master_Receive+0x458>
 80034ae:	bf00      	nop
 80034b0:	00100002 	.word	0x00100002
 80034b4:	ffff0000 	.word	0xffff0000
 80034b8:	00010004 	.word	0x00010004
          }

          /* Generate Stop */
          SET_BIT(hi2c->Instance->CR1, I2C_CR1_STOP);
 80034bc:	68fb      	ldr	r3, [r7, #12]
 80034be:	681b      	ldr	r3, [r3, #0]
 80034c0:	681a      	ldr	r2, [r3, #0]
 80034c2:	68fb      	ldr	r3, [r7, #12]
 80034c4:	681b      	ldr	r3, [r3, #0]
 80034c6:	f442 7200 	orr.w	r2, r2, #512	; 0x200
 80034ca:	601a      	str	r2, [r3, #0]

          /* Read data from DR */
          *hi2c->pBuffPtr = (uint8_t)hi2c->Instance->DR;
 80034cc:	68fb      	ldr	r3, [r7, #12]
 80034ce:	681b      	ldr	r3, [r3, #0]
 80034d0:	691a      	ldr	r2, [r3, #16]
 80034d2:	68fb      	ldr	r3, [r7, #12]
 80034d4:	6a5b      	ldr	r3, [r3, #36]	; 0x24
 80034d6:	b2d2      	uxtb	r2, r2
 80034d8:	701a      	strb	r2, [r3, #0]

          /* Increment Buffer pointer */
          hi2c->pBuffPtr++;
 80034da:	68fb      	ldr	r3, [r7, #12]
 80034dc:	6a5b      	ldr	r3, [r3, #36]	; 0x24
 80034de:	1c5a      	adds	r2, r3, #1
 80034e0:	68fb      	ldr	r3, [r7, #12]
 80034e2:	625a      	str	r2, [r3, #36]	; 0x24

          /* Update counter */
          hi2c->XferSize--;
 80034e4:	68fb      	ldr	r3, [r7, #12]
 80034e6:	8d1b      	ldrh	r3, [r3, #40]	; 0x28
 80034e8:	3b01      	subs	r3, #1
 80034ea:	b29a      	uxth	r2, r3
 80034ec:	68fb      	ldr	r3, [r7, #12]
 80034ee:	851a      	strh	r2, [r3, #40]	; 0x28
          hi2c->XferCount--;
 80034f0:	68fb      	ldr	r3, [r7, #12]
 80034f2:	8d5b      	ldrh	r3, [r3, #42]	; 0x2a
 80034f4:	b29b      	uxth	r3, r3
 80034f6:	3b01      	subs	r3, #1
 80034f8:	b29a      	uxth	r2, r3
 80034fa:	68fb      	ldr	r3, [r7, #12]
 80034fc:	855a      	strh	r2, [r3, #42]	; 0x2a

          /* Read data from DR */
          *hi2c->pBuffPtr = (uint8_t)hi2c->Instance->DR;
 80034fe:	68fb      	ldr	r3, [r7, #12]
 8003500:	681b      	ldr	r3, [r3, #0]
 8003502:	691a      	ldr	r2, [r3, #16]
 8003504:	68fb      	ldr	r3, [r7, #12]
 8003506:	6a5b      	ldr	r3, [r3, #36]	; 0x24
 8003508:	b2d2      	uxtb	r2, r2
 800350a:	701a      	strb	r2, [r3, #0]

          /* Increment Buffer pointer */
          hi2c->pBuffPtr++;
 800350c:	68fb      	ldr	r3, [r7, #12]
 800350e:	6a5b      	ldr	r3, [r3, #36]	; 0x24
 8003510:	1c5a      	adds	r2, r3, #1
 8003512:	68fb      	ldr	r3, [r7, #12]
 8003514:	625a      	str	r2, [r3, #36]	; 0x24

          /* Update counter */
          hi2c->XferSize--;
 8003516:	68fb      	ldr	r3, [r7, #12]
 8003518:	8d1b      	ldrh	r3, [r3, #40]	; 0x28
 800351a:	3b01      	subs	r3, #1
 800351c:	b29a      	uxth	r2, r3
 800351e:	68fb      	ldr	r3, [r7, #12]
 8003520:	851a      	strh	r2, [r3, #40]	; 0x28
          hi2c->XferCount--;
 8003522:	68fb      	ldr	r3, [r7, #12]
 8003524:	8d5b      	ldrh	r3, [r3, #42]	; 0x2a
 8003526:	b29b      	uxth	r3, r3
 8003528:	3b01      	subs	r3, #1
 800352a:	b29a      	uxth	r2, r3
 800352c:	68fb      	ldr	r3, [r7, #12]
 800352e:	855a      	strh	r2, [r3, #42]	; 0x2a
 8003530:	e0c4      	b.n	80036bc <HAL_I2C_Master_Receive+0x430>
        }
        /* 3 Last bytes */
        else
        {
          /* Wait until BTF flag is set */
          if (I2C_WaitOnFlagUntilTimeout(hi2c, I2C_FLAG_BTF, RESET, Timeout, tickstart) != HAL_OK)
 8003532:	6a7b      	ldr	r3, [r7, #36]	; 0x24
 8003534:	9300      	str	r3, [sp, #0]
 8003536:	6b3b      	ldr	r3, [r7, #48]	; 0x30
 8003538:	2200      	movs	r2, #0
 800353a:	496c      	ldr	r1, [pc, #432]	; (80036ec <HAL_I2C_Master_Receive+0x460>)
 800353c:	68f8      	ldr	r0, [r7, #12]
 800353e:	f000 fa27 	bl	8003990 <I2C_WaitOnFlagUntilTimeout>
 8003542:	4603      	mov	r3, r0
 8003544:	2b00      	cmp	r3, #0
 8003546:	d001      	beq.n	800354c <HAL_I2C_Master_Receive+0x2c0>
          {
            return HAL_ERROR;
 8003548:	2301      	movs	r3, #1
 800354a:	e0cb      	b.n	80036e4 <HAL_I2C_Master_Receive+0x458>
          }

          /* Disable Acknowledge */
          CLEAR_BIT(hi2c->Instance->CR1, I2C_CR1_ACK);
 800354c:	68fb      	ldr	r3, [r7, #12]
 800354e:	681b      	ldr	r3, [r3, #0]
 8003550:	681a      	ldr	r2, [r3, #0]
 8003552:	68fb      	ldr	r3, [r7, #12]
 8003554:	681b      	ldr	r3, [r3, #0]
 8003556:	f422 6280 	bic.w	r2, r2, #1024	; 0x400
 800355a:	601a      	str	r2, [r3, #0]

          /* Read data from DR */
          *hi2c->pBuffPtr = (uint8_t)hi2c->Instance->DR;
 800355c:	68fb      	ldr	r3, [r7, #12]
 800355e:	681b      	ldr	r3, [r3, #0]
 8003560:	691a      	ldr	r2, [r3, #16]
 8003562:	68fb      	ldr	r3, [r7, #12]
 8003564:	6a5b      	ldr	r3, [r3, #36]	; 0x24
 8003566:	b2d2      	uxtb	r2, r2
 8003568:	701a      	strb	r2, [r3, #0]

          /* Increment Buffer pointer */
          hi2c->pBuffPtr++;
 800356a:	68fb      	ldr	r3, [r7, #12]
 800356c:	6a5b      	ldr	r3, [r3, #36]	; 0x24
 800356e:	1c5a      	adds	r2, r3, #1
 8003570:	68fb      	ldr	r3, [r7, #12]
 8003572:	625a      	str	r2, [r3, #36]	; 0x24

          /* Update counter */
          hi2c->XferSize--;
 8003574:	68fb      	ldr	r3, [r7, #12]
 8003576:	8d1b      	ldrh	r3, [r3, #40]	; 0x28
 8003578:	3b01      	subs	r3, #1
 800357a:	b29a      	uxth	r2, r3
 800357c:	68fb      	ldr	r3, [r7, #12]
 800357e:	851a      	strh	r2, [r3, #40]	; 0x28
          hi2c->XferCount--;
 8003580:	68fb      	ldr	r3, [r7, #12]
 8003582:	8d5b      	ldrh	r3, [r3, #42]	; 0x2a
 8003584:	b29b      	uxth	r3, r3
 8003586:	3b01      	subs	r3, #1
 8003588:	b29a      	uxth	r2, r3
 800358a:	68fb      	ldr	r3, [r7, #12]
 800358c:	855a      	strh	r2, [r3, #42]	; 0x2a

          /* Wait until BTF flag is set */
          if (I2C_WaitOnFlagUntilTimeout(hi2c, I2C_FLAG_BTF, RESET, Timeout, tickstart) != HAL_OK)
 800358e:	6a7b      	ldr	r3, [r7, #36]	; 0x24
 8003590:	9300      	str	r3, [sp, #0]
 8003592:	6b3b      	ldr	r3, [r7, #48]	; 0x30
 8003594:	2200      	movs	r2, #0
 8003596:	4955      	ldr	r1, [pc, #340]	; (80036ec <HAL_I2C_Master_Receive+0x460>)
 8003598:	68f8      	ldr	r0, [r7, #12]
 800359a:	f000 f9f9 	bl	8003990 <I2C_WaitOnFlagUntilTimeout>
 800359e:	4603      	mov	r3, r0
 80035a0:	2b00      	cmp	r3, #0
 80035a2:	d001      	beq.n	80035a8 <HAL_I2C_Master_Receive+0x31c>
          {
            return HAL_ERROR;
 80035a4:	2301      	movs	r3, #1
 80035a6:	e09d      	b.n	80036e4 <HAL_I2C_Master_Receive+0x458>
          }

          /* Generate Stop */
          SET_BIT(hi2c->Instance->CR1, I2C_CR1_STOP);
 80035a8:	68fb      	ldr	r3, [r7, #12]
 80035aa:	681b      	ldr	r3, [r3, #0]
 80035ac:	681a      	ldr	r2, [r3, #0]
 80035ae:	68fb      	ldr	r3, [r7, #12]
 80035b0:	681b      	ldr	r3, [r3, #0]
 80035b2:	f442 7200 	orr.w	r2, r2, #512	; 0x200
 80035b6:	601a      	str	r2, [r3, #0]

          /* Read data from DR */
          *hi2c->pBuffPtr = (uint8_t)hi2c->Instance->DR;
 80035b8:	68fb      	ldr	r3, [r7, #12]
 80035ba:	681b      	ldr	r3, [r3, #0]
 80035bc:	691a      	ldr	r2, [r3, #16]
 80035be:	68fb      	ldr	r3, [r7, #12]
 80035c0:	6a5b      	ldr	r3, [r3, #36]	; 0x24
 80035c2:	b2d2      	uxtb	r2, r2
 80035c4:	701a      	strb	r2, [r3, #0]

          /* Increment Buffer pointer */
          hi2c->pBuffPtr++;
 80035c6:	68fb      	ldr	r3, [r7, #12]
 80035c8:	6a5b      	ldr	r3, [r3, #36]	; 0x24
 80035ca:	1c5a      	adds	r2, r3, #1
 80035cc:	68fb      	ldr	r3, [r7, #12]
 80035ce:	625a      	str	r2, [r3, #36]	; 0x24

          /* Update counter */
          hi2c->XferSize--;
 80035d0:	68fb      	ldr	r3, [r7, #12]
 80035d2:	8d1b      	ldrh	r3, [r3, #40]	; 0x28
 80035d4:	3b01      	subs	r3, #1
 80035d6:	b29a      	uxth	r2, r3
 80035d8:	68fb      	ldr	r3, [r7, #12]
 80035da:	851a      	strh	r2, [r3, #40]	; 0x28
          hi2c->XferCount--;
 80035dc:	68fb      	ldr	r3, [r7, #12]
 80035de:	8d5b      	ldrh	r3, [r3, #42]	; 0x2a
 80035e0:	b29b      	uxth	r3, r3
 80035e2:	3b01      	subs	r3, #1
 80035e4:	b29a      	uxth	r2, r3
 80035e6:	68fb      	ldr	r3, [r7, #12]
 80035e8:	855a      	strh	r2, [r3, #42]	; 0x2a

          /* Read data from DR */
          *hi2c->pBuffPtr = (uint8_t)hi2c->Instance->DR;
 80035ea:	68fb      	ldr	r3, [r7, #12]
 80035ec:	681b      	ldr	r3, [r3, #0]
 80035ee:	691a      	ldr	r2, [r3, #16]
 80035f0:	68fb      	ldr	r3, [r7, #12]
 80035f2:	6a5b      	ldr	r3, [r3, #36]	; 0x24
 80035f4:	b2d2      	uxtb	r2, r2
 80035f6:	701a      	strb	r2, [r3, #0]

          /* Increment Buffer pointer */
          hi2c->pBuffPtr++;
 80035f8:	68fb      	ldr	r3, [r7, #12]
 80035fa:	6a5b      	ldr	r3, [r3, #36]	; 0x24
 80035fc:	1c5a      	adds	r2, r3, #1
 80035fe:	68fb      	ldr	r3, [r7, #12]
 8003600:	625a      	str	r2, [r3, #36]	; 0x24

          /* Update counter */
          hi2c->XferSize--;
 8003602:	68fb      	ldr	r3, [r7, #12]
 8003604:	8d1b      	ldrh	r3, [r3, #40]	; 0x28
 8003606:	3b01      	subs	r3, #1
 8003608:	b29a      	uxth	r2, r3
 800360a:	68fb      	ldr	r3, [r7, #12]
 800360c:	851a      	strh	r2, [r3, #40]	; 0x28
          hi2c->XferCount--;
 800360e:	68fb      	ldr	r3, [r7, #12]
 8003610:	8d5b      	ldrh	r3, [r3, #42]	; 0x2a
 8003612:	b29b      	uxth	r3, r3
 8003614:	3b01      	subs	r3, #1
 8003616:	b29a      	uxth	r2, r3
 8003618:	68fb      	ldr	r3, [r7, #12]
 800361a:	855a      	strh	r2, [r3, #42]	; 0x2a
 800361c:	e04e      	b.n	80036bc <HAL_I2C_Master_Receive+0x430>
        }
      }
      else
      {
        /* Wait until RXNE flag is set */
        if (I2C_WaitOnRXNEFlagUntilTimeout(hi2c, Timeout, tickstart) != HAL_OK)
 800361e:	6a7a      	ldr	r2, [r7, #36]	; 0x24
 8003620:	6b39      	ldr	r1, [r7, #48]	; 0x30
 8003622:	68f8      	ldr	r0, [r7, #12]
 8003624:	f000 fb5e 	bl	8003ce4 <I2C_WaitOnRXNEFlagUntilTimeout>
 8003628:	4603      	mov	r3, r0
 800362a:	2b00      	cmp	r3, #0
 800362c:	d001      	beq.n	8003632 <HAL_I2C_Master_Receive+0x3a6>
        {
          return HAL_ERROR;
 800362e:	2301      	movs	r3, #1
 8003630:	e058      	b.n	80036e4 <HAL_I2C_Master_Receive+0x458>
        }

        /* Read data from DR */
        *hi2c->pBuffPtr = (uint8_t)hi2c->Instance->DR;
 8003632:	68fb      	ldr	r3, [r7, #12]
 8003634:	681b      	ldr	r3, [r3, #0]
 8003636:	691a      	ldr	r2, [r3, #16]
 8003638:	68fb      	ldr	r3, [r7, #12]
 800363a:	6a5b      	ldr	r3, [r3, #36]	; 0x24
 800363c:	b2d2      	uxtb	r2, r2
 800363e:	701a      	strb	r2, [r3, #0]

        /* Increment Buffer pointer */
        hi2c->pBuffPtr++;
 8003640:	68fb      	ldr	r3, [r7, #12]
 8003642:	6a5b      	ldr	r3, [r3, #36]	; 0x24
 8003644:	1c5a      	adds	r2, r3, #1
 8003646:	68fb      	ldr	r3, [r7, #12]
 8003648:	625a      	str	r2, [r3, #36]	; 0x24

        /* Update counter */
        hi2c->XferSize--;
 800364a:	68fb      	ldr	r3, [r7, #12]
 800364c:	8d1b      	ldrh	r3, [r3, #40]	; 0x28
 800364e:	3b01      	subs	r3, #1
 8003650:	b29a      	uxth	r2, r3
 8003652:	68fb      	ldr	r3, [r7, #12]
 8003654:	851a      	strh	r2, [r3, #40]	; 0x28
        hi2c->XferCount--;
 8003656:	68fb      	ldr	r3, [r7, #12]
 8003658:	8d5b      	ldrh	r3, [r3, #42]	; 0x2a
 800365a:	b29b      	uxth	r3, r3
 800365c:	3b01      	subs	r3, #1
 800365e:	b29a      	uxth	r2, r3
 8003660:	68fb      	ldr	r3, [r7, #12]
 8003662:	855a      	strh	r2, [r3, #42]	; 0x2a

        if (__HAL_I2C_GET_FLAG(hi2c, I2C_FLAG_BTF) == SET)
 8003664:	68fb      	ldr	r3, [r7, #12]
 8003666:	681b      	ldr	r3, [r3, #0]
 8003668:	695b      	ldr	r3, [r3, #20]
 800366a:	f003 0304 	and.w	r3, r3, #4
 800366e:	2b04      	cmp	r3, #4
 8003670:	d124      	bne.n	80036bc <HAL_I2C_Master_Receive+0x430>
        {

          if (hi2c->XferSize == 3U)
 8003672:	68fb      	ldr	r3, [r7, #12]
 8003674:	8d1b      	ldrh	r3, [r3, #40]	; 0x28
 8003676:	2b03      	cmp	r3, #3
 8003678:	d107      	bne.n	800368a <HAL_I2C_Master_Receive+0x3fe>
          {
            /* Disable Acknowledge */
            CLEAR_BIT(hi2c->Instance->CR1, I2C_CR1_ACK);
 800367a:	68fb      	ldr	r3, [r7, #12]
 800367c:	681b      	ldr	r3, [r3, #0]
 800367e:	681a      	ldr	r2, [r3, #0]
 8003680:	68fb      	ldr	r3, [r7, #12]
 8003682:	681b      	ldr	r3, [r3, #0]
 8003684:	f422 6280 	bic.w	r2, r2, #1024	; 0x400
 8003688:	601a      	str	r2, [r3, #0]
          }

          /* Read data from DR */
          *hi2c->pBuffPtr = (uint8_t)hi2c->Instance->DR;
 800368a:	68fb      	ldr	r3, [r7, #12]
 800368c:	681b      	ldr	r3, [r3, #0]
 800368e:	691a      	ldr	r2, [r3, #16]
 8003690:	68fb      	ldr	r3, [r7, #12]
 8003692:	6a5b      	ldr	r3, [r3, #36]	; 0x24
 8003694:	b2d2      	uxtb	r2, r2
 8003696:	701a      	strb	r2, [r3, #0]

          /* Increment Buffer pointer */
          hi2c->pBuffPtr++;
 8003698:	68fb      	ldr	r3, [r7, #12]
 800369a:	6a5b      	ldr	r3, [r3, #36]	; 0x24
 800369c:	1c5a      	adds	r2, r3, #1
 800369e:	68fb      	ldr	r3, [r7, #12]
 80036a0:	625a      	str	r2, [r3, #36]	; 0x24

          /* Update counter */
          hi2c->XferSize--;
 80036a2:	68fb      	ldr	r3, [r7, #12]
 80036a4:	8d1b      	ldrh	r3, [r3, #40]	; 0x28
 80036a6:	3b01      	subs	r3, #1
 80036a8:	b29a      	uxth	r2, r3
 80036aa:	68fb      	ldr	r3, [r7, #12]
 80036ac:	851a      	strh	r2, [r3, #40]	; 0x28
          hi2c->XferCount--;
 80036ae:	68fb      	ldr	r3, [r7, #12]
 80036b0:	8d5b      	ldrh	r3, [r3, #42]	; 0x2a
 80036b2:	b29b      	uxth	r3, r3
 80036b4:	3b01      	subs	r3, #1
 80036b6:	b29a      	uxth	r2, r3
 80036b8:	68fb      	ldr	r3, [r7, #12]
 80036ba:	855a      	strh	r2, [r3, #42]	; 0x2a
    while (hi2c->XferSize > 0U)
 80036bc:	68fb      	ldr	r3, [r7, #12]
 80036be:	8d1b      	ldrh	r3, [r3, #40]	; 0x28
 80036c0:	2b00      	cmp	r3, #0
 80036c2:	f47f aeb6 	bne.w	8003432 <HAL_I2C_Master_Receive+0x1a6>
        }
      }
    }

    hi2c->State = HAL_I2C_STATE_READY;
 80036c6:	68fb      	ldr	r3, [r7, #12]
 80036c8:	2220      	movs	r2, #32
 80036ca:	f883 203d 	strb.w	r2, [r3, #61]	; 0x3d
    hi2c->Mode = HAL_I2C_MODE_NONE;
 80036ce:	68fb      	ldr	r3, [r7, #12]
 80036d0:	2200      	movs	r2, #0
 80036d2:	f883 203e 	strb.w	r2, [r3, #62]	; 0x3e

    /* Process Unlocked */
    __HAL_UNLOCK(hi2c);
 80036d6:	68fb      	ldr	r3, [r7, #12]
 80036d8:	2200      	movs	r2, #0
 80036da:	f883 203c 	strb.w	r2, [r3, #60]	; 0x3c

    return HAL_OK;
 80036de:	2300      	movs	r3, #0
 80036e0:	e000      	b.n	80036e4 <HAL_I2C_Master_Receive+0x458>
  }
  else
  {
    return HAL_BUSY;
 80036e2:	2302      	movs	r3, #2
  }
}
 80036e4:	4618      	mov	r0, r3
 80036e6:	3728      	adds	r7, #40	; 0x28
 80036e8:	46bd      	mov	sp, r7
 80036ea:	bd80      	pop	{r7, pc}
 80036ec:	00010004 	.word	0x00010004

080036f0 <I2C_MasterRequestWrite>:
  * @param  Timeout Timeout duration
  * @param  Tickstart Tick start value
  * @retval HAL status
  */
static HAL_StatusTypeDef I2C_MasterRequestWrite(I2C_HandleTypeDef *hi2c, uint16_t DevAddress, uint32_t Timeout, uint32_t Tickstart)
{
 80036f0:	b580      	push	{r7, lr}
 80036f2:	b088      	sub	sp, #32
 80036f4:	af02      	add	r7, sp, #8
 80036f6:	60f8      	str	r0, [r7, #12]
 80036f8:	607a      	str	r2, [r7, #4]
 80036fa:	603b      	str	r3, [r7, #0]
 80036fc:	460b      	mov	r3, r1
 80036fe:	817b      	strh	r3, [r7, #10]
  /* Declaration of temporary variable to prevent undefined behavior of volatile usage */
  uint32_t CurrentXferOptions = hi2c->XferOptions;
 8003700:	68fb      	ldr	r3, [r7, #12]
 8003702:	6adb      	ldr	r3, [r3, #44]	; 0x2c
 8003704:	617b      	str	r3, [r7, #20]

  /* Generate Start condition if first transfer */
  if ((CurrentXferOptions == I2C_FIRST_AND_LAST_FRAME) || (CurrentXferOptions == I2C_FIRST_FRAME) || (CurrentXferOptions == I2C_NO_OPTION_FRAME))
 8003706:	697b      	ldr	r3, [r7, #20]
 8003708:	2b08      	cmp	r3, #8
 800370a:	d006      	beq.n	800371a <I2C_MasterRequestWrite+0x2a>
 800370c:	697b      	ldr	r3, [r7, #20]
 800370e:	2b01      	cmp	r3, #1
 8003710:	d003      	beq.n	800371a <I2C_MasterRequestWrite+0x2a>
 8003712:	697b      	ldr	r3, [r7, #20]
 8003714:	f513 3f80 	cmn.w	r3, #65536	; 0x10000
 8003718:	d108      	bne.n	800372c <I2C_MasterRequestWrite+0x3c>
  {
    /* Generate Start */
    SET_BIT(hi2c->Instance->CR1, I2C_CR1_START);
 800371a:	68fb      	ldr	r3, [r7, #12]
 800371c:	681b      	ldr	r3, [r3, #0]
 800371e:	681a      	ldr	r2, [r3, #0]
 8003720:	68fb      	ldr	r3, [r7, #12]
 8003722:	681b      	ldr	r3, [r3, #0]
 8003724:	f442 7280 	orr.w	r2, r2, #256	; 0x100
 8003728:	601a      	str	r2, [r3, #0]
 800372a:	e00b      	b.n	8003744 <I2C_MasterRequestWrite+0x54>
  }
  else if (hi2c->PreviousState == I2C_STATE_MASTER_BUSY_RX)
 800372c:	68fb      	ldr	r3, [r7, #12]
 800372e:	6b1b      	ldr	r3, [r3, #48]	; 0x30
 8003730:	2b12      	cmp	r3, #18
 8003732:	d107      	bne.n	8003744 <I2C_MasterRequestWrite+0x54>
  {
    /* Generate ReStart */
    SET_BIT(hi2c->Instance->CR1, I2C_CR1_START);
 8003734:	68fb      	ldr	r3, [r7, #12]
 8003736:	681b      	ldr	r3, [r3, #0]
 8003738:	681a      	ldr	r2, [r3, #0]
 800373a:	68fb      	ldr	r3, [r7, #12]
 800373c:	681b      	ldr	r3, [r3, #0]
 800373e:	f442 7280 	orr.w	r2, r2, #256	; 0x100
 8003742:	601a      	str	r2, [r3, #0]
  {
    /* Do nothing */
  }

  /* Wait until SB flag is set */
  if (I2C_WaitOnFlagUntilTimeout(hi2c, I2C_FLAG_SB, RESET, Timeout, Tickstart) != HAL_OK)
 8003744:	683b      	ldr	r3, [r7, #0]
 8003746:	9300      	str	r3, [sp, #0]
 8003748:	687b      	ldr	r3, [r7, #4]
 800374a:	2200      	movs	r2, #0
 800374c:	f04f 1101 	mov.w	r1, #65537	; 0x10001
 8003750:	68f8      	ldr	r0, [r7, #12]
 8003752:	f000 f91d 	bl	8003990 <I2C_WaitOnFlagUntilTimeout>
 8003756:	4603      	mov	r3, r0
 8003758:	2b00      	cmp	r3, #0
 800375a:	d00d      	beq.n	8003778 <I2C_MasterRequestWrite+0x88>
  {
    if (READ_BIT(hi2c->Instance->CR1, I2C_CR1_START) == I2C_CR1_START)
 800375c:	68fb      	ldr	r3, [r7, #12]
 800375e:	681b      	ldr	r3, [r3, #0]
 8003760:	681b      	ldr	r3, [r3, #0]
 8003762:	f403 7380 	and.w	r3, r3, #256	; 0x100
 8003766:	f5b3 7f80 	cmp.w	r3, #256	; 0x100
 800376a:	d103      	bne.n	8003774 <I2C_MasterRequestWrite+0x84>
    {
      hi2c->ErrorCode = HAL_I2C_WRONG_START;
 800376c:	68fb      	ldr	r3, [r7, #12]
 800376e:	f44f 7200 	mov.w	r2, #512	; 0x200
 8003772:	641a      	str	r2, [r3, #64]	; 0x40
    }
    return HAL_TIMEOUT;
 8003774:	2303      	movs	r3, #3
 8003776:	e035      	b.n	80037e4 <I2C_MasterRequestWrite+0xf4>
  }

  if (hi2c->Init.AddressingMode == I2C_ADDRESSINGMODE_7BIT)
 8003778:	68fb      	ldr	r3, [r7, #12]
 800377a:	691b      	ldr	r3, [r3, #16]
 800377c:	f5b3 4f80 	cmp.w	r3, #16384	; 0x4000
 8003780:	d108      	bne.n	8003794 <I2C_MasterRequestWrite+0xa4>
  {
    /* Send slave address */
    hi2c->Instance->DR = I2C_7BIT_ADD_WRITE(DevAddress);
 8003782:	897b      	ldrh	r3, [r7, #10]
 8003784:	b2db      	uxtb	r3, r3
 8003786:	461a      	mov	r2, r3
 8003788:	68fb      	ldr	r3, [r7, #12]
 800378a:	681b      	ldr	r3, [r3, #0]
 800378c:	f002 02fe 	and.w	r2, r2, #254	; 0xfe
 8003790:	611a      	str	r2, [r3, #16]
 8003792:	e01b      	b.n	80037cc <I2C_MasterRequestWrite+0xdc>
  }
  else
  {
    /* Send header of slave address */
    hi2c->Instance->DR = I2C_10BIT_HEADER_WRITE(DevAddress);
 8003794:	897b      	ldrh	r3, [r7, #10]
 8003796:	11db      	asrs	r3, r3, #7
 8003798:	b2db      	uxtb	r3, r3
 800379a:	f003 0306 	and.w	r3, r3, #6
 800379e:	b2db      	uxtb	r3, r3
 80037a0:	f063 030f 	orn	r3, r3, #15
 80037a4:	b2da      	uxtb	r2, r3
 80037a6:	68fb      	ldr	r3, [r7, #12]
 80037a8:	681b      	ldr	r3, [r3, #0]
 80037aa:	611a      	str	r2, [r3, #16]

    /* Wait until ADD10 flag is set */
    if (I2C_WaitOnMasterAddressFlagUntilTimeout(hi2c, I2C_FLAG_ADD10, Timeout, Tickstart) != HAL_OK)
 80037ac:	683b      	ldr	r3, [r7, #0]
 80037ae:	687a      	ldr	r2, [r7, #4]
 80037b0:	490e      	ldr	r1, [pc, #56]	; (80037ec <I2C_MasterRequestWrite+0xfc>)
 80037b2:	68f8      	ldr	r0, [r7, #12]
 80037b4:	f000 f966 	bl	8003a84 <I2C_WaitOnMasterAddressFlagUntilTimeout>
 80037b8:	4603      	mov	r3, r0
 80037ba:	2b00      	cmp	r3, #0
 80037bc:	d001      	beq.n	80037c2 <I2C_MasterRequestWrite+0xd2>
    {
      return HAL_ERROR;
 80037be:	2301      	movs	r3, #1
 80037c0:	e010      	b.n	80037e4 <I2C_MasterRequestWrite+0xf4>
    }

    /* Send slave address */
    hi2c->Instance->DR = I2C_10BIT_ADDRESS(DevAddress);
 80037c2:	897b      	ldrh	r3, [r7, #10]
 80037c4:	b2da      	uxtb	r2, r3
 80037c6:	68fb      	ldr	r3, [r7, #12]
 80037c8:	681b      	ldr	r3, [r3, #0]
 80037ca:	611a      	str	r2, [r3, #16]
  }

  /* Wait until ADDR flag is set */
  if (I2C_WaitOnMasterAddressFlagUntilTimeout(hi2c, I2C_FLAG_ADDR, Timeout, Tickstart) != HAL_OK)
 80037cc:	683b      	ldr	r3, [r7, #0]
 80037ce:	687a      	ldr	r2, [r7, #4]
 80037d0:	4907      	ldr	r1, [pc, #28]	; (80037f0 <I2C_MasterRequestWrite+0x100>)
 80037d2:	68f8      	ldr	r0, [r7, #12]
 80037d4:	f000 f956 	bl	8003a84 <I2C_WaitOnMasterAddressFlagUntilTimeout>
 80037d8:	4603      	mov	r3, r0
 80037da:	2b00      	cmp	r3, #0
 80037dc:	d001      	beq.n	80037e2 <I2C_MasterRequestWrite+0xf2>
  {
    return HAL_ERROR;
 80037de:	2301      	movs	r3, #1
 80037e0:	e000      	b.n	80037e4 <I2C_MasterRequestWrite+0xf4>
  }

  return HAL_OK;
 80037e2:	2300      	movs	r3, #0
}
 80037e4:	4618      	mov	r0, r3
 80037e6:	3718      	adds	r7, #24
 80037e8:	46bd      	mov	sp, r7
 80037ea:	bd80      	pop	{r7, pc}
 80037ec:	00010008 	.word	0x00010008
 80037f0:	00010002 	.word	0x00010002

080037f4 <I2C_MasterRequestRead>:
  * @param  Timeout Timeout duration
  * @param  Tickstart Tick start value
  * @retval HAL status
  */
static HAL_StatusTypeDef I2C_MasterRequestRead(I2C_HandleTypeDef *hi2c, uint16_t DevAddress, uint32_t Timeout, uint32_t Tickstart)
{
 80037f4:	b580      	push	{r7, lr}
 80037f6:	b088      	sub	sp, #32
 80037f8:	af02      	add	r7, sp, #8
 80037fa:	60f8      	str	r0, [r7, #12]
 80037fc:	607a      	str	r2, [r7, #4]
 80037fe:	603b      	str	r3, [r7, #0]
 8003800:	460b      	mov	r3, r1
 8003802:	817b      	strh	r3, [r7, #10]
  /* Declaration of temporary variable to prevent undefined behavior of volatile usage */
  uint32_t CurrentXferOptions = hi2c->XferOptions;
 8003804:	68fb      	ldr	r3, [r7, #12]
 8003806:	6adb      	ldr	r3, [r3, #44]	; 0x2c
 8003808:	617b      	str	r3, [r7, #20]

  /* Enable Acknowledge */
  SET_BIT(hi2c->Instance->CR1, I2C_CR1_ACK);
 800380a:	68fb      	ldr	r3, [r7, #12]
 800380c:	681b      	ldr	r3, [r3, #0]
 800380e:	681a      	ldr	r2, [r3, #0]
 8003810:	68fb      	ldr	r3, [r7, #12]
 8003812:	681b      	ldr	r3, [r3, #0]
 8003814:	f442 6280 	orr.w	r2, r2, #1024	; 0x400
 8003818:	601a      	str	r2, [r3, #0]

  /* Generate Start condition if first transfer */
  if ((CurrentXferOptions == I2C_FIRST_AND_LAST_FRAME) || (CurrentXferOptions == I2C_FIRST_FRAME)  || (CurrentXferOptions == I2C_NO_OPTION_FRAME))
 800381a:	697b      	ldr	r3, [r7, #20]
 800381c:	2b08      	cmp	r3, #8
 800381e:	d006      	beq.n	800382e <I2C_MasterRequestRead+0x3a>
 8003820:	697b      	ldr	r3, [r7, #20]
 8003822:	2b01      	cmp	r3, #1
 8003824:	d003      	beq.n	800382e <I2C_MasterRequestRead+0x3a>
 8003826:	697b      	ldr	r3, [r7, #20]
 8003828:	f513 3f80 	cmn.w	r3, #65536	; 0x10000
 800382c:	d108      	bne.n	8003840 <I2C_MasterRequestRead+0x4c>
  {
    /* Generate Start */
    SET_BIT(hi2c->Instance->CR1, I2C_CR1_START);
 800382e:	68fb      	ldr	r3, [r7, #12]
 8003830:	681b      	ldr	r3, [r3, #0]
 8003832:	681a      	ldr	r2, [r3, #0]
 8003834:	68fb      	ldr	r3, [r7, #12]
 8003836:	681b      	ldr	r3, [r3, #0]
 8003838:	f442 7280 	orr.w	r2, r2, #256	; 0x100
 800383c:	601a      	str	r2, [r3, #0]
 800383e:	e00b      	b.n	8003858 <I2C_MasterRequestRead+0x64>
  }
  else if (hi2c->PreviousState == I2C_STATE_MASTER_BUSY_TX)
 8003840:	68fb      	ldr	r3, [r7, #12]
 8003842:	6b1b      	ldr	r3, [r3, #48]	; 0x30
 8003844:	2b11      	cmp	r3, #17
 8003846:	d107      	bne.n	8003858 <I2C_MasterRequestRead+0x64>
  {
    /* Generate ReStart */
    SET_BIT(hi2c->Instance->CR1, I2C_CR1_START);
 8003848:	68fb      	ldr	r3, [r7, #12]
 800384a:	681b      	ldr	r3, [r3, #0]
 800384c:	681a      	ldr	r2, [r3, #0]
 800384e:	68fb      	ldr	r3, [r7, #12]
 8003850:	681b      	ldr	r3, [r3, #0]
 8003852:	f442 7280 	orr.w	r2, r2, #256	; 0x100
 8003856:	601a      	str	r2, [r3, #0]
  {
    /* Do nothing */
  }

  /* Wait until SB flag is set */
  if (I2C_WaitOnFlagUntilTimeout(hi2c, I2C_FLAG_SB, RESET, Timeout, Tickstart) != HAL_OK)
 8003858:	683b      	ldr	r3, [r7, #0]
 800385a:	9300      	str	r3, [sp, #0]
 800385c:	687b      	ldr	r3, [r7, #4]
 800385e:	2200      	movs	r2, #0
 8003860:	f04f 1101 	mov.w	r1, #65537	; 0x10001
 8003864:	68f8      	ldr	r0, [r7, #12]
 8003866:	f000 f893 	bl	8003990 <I2C_WaitOnFlagUntilTimeout>
 800386a:	4603      	mov	r3, r0
 800386c:	2b00      	cmp	r3, #0
 800386e:	d00d      	beq.n	800388c <I2C_MasterRequestRead+0x98>
  {
    if (READ_BIT(hi2c->Instance->CR1, I2C_CR1_START) == I2C_CR1_START)
 8003870:	68fb      	ldr	r3, [r7, #12]
 8003872:	681b      	ldr	r3, [r3, #0]
 8003874:	681b      	ldr	r3, [r3, #0]
 8003876:	f403 7380 	and.w	r3, r3, #256	; 0x100
 800387a:	f5b3 7f80 	cmp.w	r3, #256	; 0x100
 800387e:	d103      	bne.n	8003888 <I2C_MasterRequestRead+0x94>
    {
      hi2c->ErrorCode = HAL_I2C_WRONG_START;
 8003880:	68fb      	ldr	r3, [r7, #12]
 8003882:	f44f 7200 	mov.w	r2, #512	; 0x200
 8003886:	641a      	str	r2, [r3, #64]	; 0x40
    }
    return HAL_TIMEOUT;
 8003888:	2303      	movs	r3, #3
 800388a:	e079      	b.n	8003980 <I2C_MasterRequestRead+0x18c>
  }

  if (hi2c->Init.AddressingMode == I2C_ADDRESSINGMODE_7BIT)
 800388c:	68fb      	ldr	r3, [r7, #12]
 800388e:	691b      	ldr	r3, [r3, #16]
 8003890:	f5b3 4f80 	cmp.w	r3, #16384	; 0x4000
 8003894:	d108      	bne.n	80038a8 <I2C_MasterRequestRead+0xb4>
  {
    /* Send slave address */
    hi2c->Instance->DR = I2C_7BIT_ADD_READ(DevAddress);
 8003896:	897b      	ldrh	r3, [r7, #10]
 8003898:	b2db      	uxtb	r3, r3
 800389a:	f043 0301 	orr.w	r3, r3, #1
 800389e:	b2da      	uxtb	r2, r3
 80038a0:	68fb      	ldr	r3, [r7, #12]
 80038a2:	681b      	ldr	r3, [r3, #0]
 80038a4:	611a      	str	r2, [r3, #16]
 80038a6:	e05f      	b.n	8003968 <I2C_MasterRequestRead+0x174>
  }
  else
  {
    /* Send header of slave address */
    hi2c->Instance->DR = I2C_10BIT_HEADER_WRITE(DevAddress);
 80038a8:	897b      	ldrh	r3, [r7, #10]
 80038aa:	11db      	asrs	r3, r3, #7
 80038ac:	b2db      	uxtb	r3, r3
 80038ae:	f003 0306 	and.w	r3, r3, #6
 80038b2:	b2db      	uxtb	r3, r3
 80038b4:	f063 030f 	orn	r3, r3, #15
 80038b8:	b2da      	uxtb	r2, r3
 80038ba:	68fb      	ldr	r3, [r7, #12]
 80038bc:	681b      	ldr	r3, [r3, #0]
 80038be:	611a      	str	r2, [r3, #16]

    /* Wait until ADD10 flag is set */
    if (I2C_WaitOnMasterAddressFlagUntilTimeout(hi2c, I2C_FLAG_ADD10, Timeout, Tickstart) != HAL_OK)
 80038c0:	683b      	ldr	r3, [r7, #0]
 80038c2:	687a      	ldr	r2, [r7, #4]
 80038c4:	4930      	ldr	r1, [pc, #192]	; (8003988 <I2C_MasterRequestRead+0x194>)
 80038c6:	68f8      	ldr	r0, [r7, #12]
 80038c8:	f000 f8dc 	bl	8003a84 <I2C_WaitOnMasterAddressFlagUntilTimeout>
 80038cc:	4603      	mov	r3, r0
 80038ce:	2b00      	cmp	r3, #0
 80038d0:	d001      	beq.n	80038d6 <I2C_MasterRequestRead+0xe2>
    {
      return HAL_ERROR;
 80038d2:	2301      	movs	r3, #1
 80038d4:	e054      	b.n	8003980 <I2C_MasterRequestRead+0x18c>
    }

    /* Send slave address */
    hi2c->Instance->DR = I2C_10BIT_ADDRESS(DevAddress);
 80038d6:	897b      	ldrh	r3, [r7, #10]
 80038d8:	b2da      	uxtb	r2, r3
 80038da:	68fb      	ldr	r3, [r7, #12]
 80038dc:	681b      	ldr	r3, [r3, #0]
 80038de:	611a      	str	r2, [r3, #16]

    /* Wait until ADDR flag is set */
    if (I2C_WaitOnMasterAddressFlagUntilTimeout(hi2c, I2C_FLAG_ADDR, Timeout, Tickstart) != HAL_OK)
 80038e0:	683b      	ldr	r3, [r7, #0]
 80038e2:	687a      	ldr	r2, [r7, #4]
 80038e4:	4929      	ldr	r1, [pc, #164]	; (800398c <I2C_MasterRequestRead+0x198>)
 80038e6:	68f8      	ldr	r0, [r7, #12]
 80038e8:	f000 f8cc 	bl	8003a84 <I2C_WaitOnMasterAddressFlagUntilTimeout>
 80038ec:	4603      	mov	r3, r0
 80038ee:	2b00      	cmp	r3, #0
 80038f0:	d001      	beq.n	80038f6 <I2C_MasterRequestRead+0x102>
    {
      return HAL_ERROR;
 80038f2:	2301      	movs	r3, #1
 80038f4:	e044      	b.n	8003980 <I2C_MasterRequestRead+0x18c>
    }

    /* Clear ADDR flag */
    __HAL_I2C_CLEAR_ADDRFLAG(hi2c);
 80038f6:	2300      	movs	r3, #0
 80038f8:	613b      	str	r3, [r7, #16]
 80038fa:	68fb      	ldr	r3, [r7, #12]
 80038fc:	681b      	ldr	r3, [r3, #0]
 80038fe:	695b      	ldr	r3, [r3, #20]
 8003900:	613b      	str	r3, [r7, #16]
 8003902:	68fb      	ldr	r3, [r7, #12]
 8003904:	681b      	ldr	r3, [r3, #0]
 8003906:	699b      	ldr	r3, [r3, #24]
 8003908:	613b      	str	r3, [r7, #16]
 800390a:	693b      	ldr	r3, [r7, #16]

    /* Generate Restart */
    SET_BIT(hi2c->Instance->CR1, I2C_CR1_START);
 800390c:	68fb      	ldr	r3, [r7, #12]
 800390e:	681b      	ldr	r3, [r3, #0]
 8003910:	681a      	ldr	r2, [r3, #0]
 8003912:	68fb      	ldr	r3, [r7, #12]
 8003914:	681b      	ldr	r3, [r3, #0]
 8003916:	f442 7280 	orr.w	r2, r2, #256	; 0x100
 800391a:	601a      	str	r2, [r3, #0]

    /* Wait until SB flag is set */
    if (I2C_WaitOnFlagUntilTimeout(hi2c, I2C_FLAG_SB, RESET, Timeout, Tickstart) != HAL_OK)
 800391c:	683b      	ldr	r3, [r7, #0]
 800391e:	9300      	str	r3, [sp, #0]
 8003920:	687b      	ldr	r3, [r7, #4]
 8003922:	2200      	movs	r2, #0
 8003924:	f04f 1101 	mov.w	r1, #65537	; 0x10001
 8003928:	68f8      	ldr	r0, [r7, #12]
 800392a:	f000 f831 	bl	8003990 <I2C_WaitOnFlagUntilTimeout>
 800392e:	4603      	mov	r3, r0
 8003930:	2b00      	cmp	r3, #0
 8003932:	d00d      	beq.n	8003950 <I2C_MasterRequestRead+0x15c>
    {
      if (READ_BIT(hi2c->Instance->CR1, I2C_CR1_START) == I2C_CR1_START)
 8003934:	68fb      	ldr	r3, [r7, #12]
 8003936:	681b      	ldr	r3, [r3, #0]
 8003938:	681b      	ldr	r3, [r3, #0]
 800393a:	f403 7380 	and.w	r3, r3, #256	; 0x100
 800393e:	f5b3 7f80 	cmp.w	r3, #256	; 0x100
 8003942:	d103      	bne.n	800394c <I2C_MasterRequestRead+0x158>
      {
        hi2c->ErrorCode = HAL_I2C_WRONG_START;
 8003944:	68fb      	ldr	r3, [r7, #12]
 8003946:	f44f 7200 	mov.w	r2, #512	; 0x200
 800394a:	641a      	str	r2, [r3, #64]	; 0x40
      }
      return HAL_TIMEOUT;
 800394c:	2303      	movs	r3, #3
 800394e:	e017      	b.n	8003980 <I2C_MasterRequestRead+0x18c>
    }

    /* Send header of slave address */
    hi2c->Instance->DR = I2C_10BIT_HEADER_READ(DevAddress);
 8003950:	897b      	ldrh	r3, [r7, #10]
 8003952:	11db      	asrs	r3, r3, #7
 8003954:	b2db      	uxtb	r3, r3
 8003956:	f003 0306 	and.w	r3, r3, #6
 800395a:	b2db      	uxtb	r3, r3
 800395c:	f063 030e 	orn	r3, r3, #14
 8003960:	b2da      	uxtb	r2, r3
 8003962:	68fb      	ldr	r3, [r7, #12]
 8003964:	681b      	ldr	r3, [r3, #0]
 8003966:	611a      	str	r2, [r3, #16]
  }

  /* Wait until ADDR flag is set */
  if (I2C_WaitOnMasterAddressFlagUntilTimeout(hi2c, I2C_FLAG_ADDR, Timeout, Tickstart) != HAL_OK)
 8003968:	683b      	ldr	r3, [r7, #0]
 800396a:	687a      	ldr	r2, [r7, #4]
 800396c:	4907      	ldr	r1, [pc, #28]	; (800398c <I2C_MasterRequestRead+0x198>)
 800396e:	68f8      	ldr	r0, [r7, #12]
 8003970:	f000 f888 	bl	8003a84 <I2C_WaitOnMasterAddressFlagUntilTimeout>
 8003974:	4603      	mov	r3, r0
 8003976:	2b00      	cmp	r3, #0
 8003978:	d001      	beq.n	800397e <I2C_MasterRequestRead+0x18a>
  {
    return HAL_ERROR;
 800397a:	2301      	movs	r3, #1
 800397c:	e000      	b.n	8003980 <I2C_MasterRequestRead+0x18c>
  }

  return HAL_OK;
 800397e:	2300      	movs	r3, #0
}
 8003980:	4618      	mov	r0, r3
 8003982:	3718      	adds	r7, #24
 8003984:	46bd      	mov	sp, r7
 8003986:	bd80      	pop	{r7, pc}
 8003988:	00010008 	.word	0x00010008
 800398c:	00010002 	.word	0x00010002

08003990 <I2C_WaitOnFlagUntilTimeout>:
  * @param  Timeout Timeout duration
  * @param  Tickstart Tick start value
  * @retval HAL status
  */
static HAL_StatusTypeDef I2C_WaitOnFlagUntilTimeout(I2C_HandleTypeDef *hi2c, uint32_t Flag, FlagStatus Status, uint32_t Timeout, uint32_t Tickstart)
{
 8003990:	b580      	push	{r7, lr}
 8003992:	b084      	sub	sp, #16
 8003994:	af00      	add	r7, sp, #0
 8003996:	60f8      	str	r0, [r7, #12]
 8003998:	60b9      	str	r1, [r7, #8]
 800399a:	603b      	str	r3, [r7, #0]
 800399c:	4613      	mov	r3, r2
 800399e:	71fb      	strb	r3, [r7, #7]
  /* Wait until flag is set */
  while (__HAL_I2C_GET_FLAG(hi2c, Flag) == Status)
 80039a0:	e048      	b.n	8003a34 <I2C_WaitOnFlagUntilTimeout+0xa4>
  {
    /* Check for the Timeout */
    if (Timeout != HAL_MAX_DELAY)
 80039a2:	683b      	ldr	r3, [r7, #0]
 80039a4:	f1b3 3fff 	cmp.w	r3, #4294967295
 80039a8:	d044      	beq.n	8003a34 <I2C_WaitOnFlagUntilTimeout+0xa4>
    {
      if (((HAL_GetTick() - Tickstart) > Timeout) || (Timeout == 0U))
 80039aa:	f7fe fab9 	bl	8001f20 <HAL_GetTick>
 80039ae:	4602      	mov	r2, r0
 80039b0:	69bb      	ldr	r3, [r7, #24]
 80039b2:	1ad3      	subs	r3, r2, r3
 80039b4:	683a      	ldr	r2, [r7, #0]
 80039b6:	429a      	cmp	r2, r3
 80039b8:	d302      	bcc.n	80039c0 <I2C_WaitOnFlagUntilTimeout+0x30>
 80039ba:	683b      	ldr	r3, [r7, #0]
 80039bc:	2b00      	cmp	r3, #0
 80039be:	d139      	bne.n	8003a34 <I2C_WaitOnFlagUntilTimeout+0xa4>
      {
        if ((__HAL_I2C_GET_FLAG(hi2c, Flag) == Status))
 80039c0:	68bb      	ldr	r3, [r7, #8]
 80039c2:	0c1b      	lsrs	r3, r3, #16
 80039c4:	b2db      	uxtb	r3, r3
 80039c6:	2b01      	cmp	r3, #1
 80039c8:	d10d      	bne.n	80039e6 <I2C_WaitOnFlagUntilTimeout+0x56>
 80039ca:	68fb      	ldr	r3, [r7, #12]
 80039cc:	681b      	ldr	r3, [r3, #0]
 80039ce:	695b      	ldr	r3, [r3, #20]
 80039d0:	43da      	mvns	r2, r3
 80039d2:	68bb      	ldr	r3, [r7, #8]
 80039d4:	4013      	ands	r3, r2
 80039d6:	b29b      	uxth	r3, r3
 80039d8:	2b00      	cmp	r3, #0
 80039da:	bf0c      	ite	eq
 80039dc:	2301      	moveq	r3, #1
 80039de:	2300      	movne	r3, #0
 80039e0:	b2db      	uxtb	r3, r3
 80039e2:	461a      	mov	r2, r3
 80039e4:	e00c      	b.n	8003a00 <I2C_WaitOnFlagUntilTimeout+0x70>
 80039e6:	68fb      	ldr	r3, [r7, #12]
 80039e8:	681b      	ldr	r3, [r3, #0]
 80039ea:	699b      	ldr	r3, [r3, #24]
 80039ec:	43da      	mvns	r2, r3
 80039ee:	68bb      	ldr	r3, [r7, #8]
 80039f0:	4013      	ands	r3, r2
 80039f2:	b29b      	uxth	r3, r3
 80039f4:	2b00      	cmp	r3, #0
 80039f6:	bf0c      	ite	eq
 80039f8:	2301      	moveq	r3, #1
 80039fa:	2300      	movne	r3, #0
 80039fc:	b2db      	uxtb	r3, r3
 80039fe:	461a      	mov	r2, r3
 8003a00:	79fb      	ldrb	r3, [r7, #7]
 8003a02:	429a      	cmp	r2, r3
 8003a04:	d116      	bne.n	8003a34 <I2C_WaitOnFlagUntilTimeout+0xa4>
        {
          hi2c->PreviousState     = I2C_STATE_NONE;
 8003a06:	68fb      	ldr	r3, [r7, #12]
 8003a08:	2200      	movs	r2, #0
 8003a0a:	631a      	str	r2, [r3, #48]	; 0x30
          hi2c->State             = HAL_I2C_STATE_READY;
 8003a0c:	68fb      	ldr	r3, [r7, #12]
 8003a0e:	2220      	movs	r2, #32
 8003a10:	f883 203d 	strb.w	r2, [r3, #61]	; 0x3d
          hi2c->Mode              = HAL_I2C_MODE_NONE;
 8003a14:	68fb      	ldr	r3, [r7, #12]
 8003a16:	2200      	movs	r2, #0
 8003a18:	f883 203e 	strb.w	r2, [r3, #62]	; 0x3e
          hi2c->ErrorCode         |= HAL_I2C_ERROR_TIMEOUT;
 8003a1c:	68fb      	ldr	r3, [r7, #12]
 8003a1e:	6c1b      	ldr	r3, [r3, #64]	; 0x40
 8003a20:	f043 0220 	orr.w	r2, r3, #32
 8003a24:	68fb      	ldr	r3, [r7, #12]
 8003a26:	641a      	str	r2, [r3, #64]	; 0x40

          /* Process Unlocked */
          __HAL_UNLOCK(hi2c);
 8003a28:	68fb      	ldr	r3, [r7, #12]
 8003a2a:	2200      	movs	r2, #0
 8003a2c:	f883 203c 	strb.w	r2, [r3, #60]	; 0x3c

          return HAL_ERROR;
 8003a30:	2301      	movs	r3, #1
 8003a32:	e023      	b.n	8003a7c <I2C_WaitOnFlagUntilTimeout+0xec>
  while (__HAL_I2C_GET_FLAG(hi2c, Flag) == Status)
 8003a34:	68bb      	ldr	r3, [r7, #8]
 8003a36:	0c1b      	lsrs	r3, r3, #16
 8003a38:	b2db      	uxtb	r3, r3
 8003a3a:	2b01      	cmp	r3, #1
 8003a3c:	d10d      	bne.n	8003a5a <I2C_WaitOnFlagUntilTimeout+0xca>
 8003a3e:	68fb      	ldr	r3, [r7, #12]
 8003a40:	681b      	ldr	r3, [r3, #0]
 8003a42:	695b      	ldr	r3, [r3, #20]
 8003a44:	43da      	mvns	r2, r3
 8003a46:	68bb      	ldr	r3, [r7, #8]
 8003a48:	4013      	ands	r3, r2
 8003a4a:	b29b      	uxth	r3, r3
 8003a4c:	2b00      	cmp	r3, #0
 8003a4e:	bf0c      	ite	eq
 8003a50:	2301      	moveq	r3, #1
 8003a52:	2300      	movne	r3, #0
 8003a54:	b2db      	uxtb	r3, r3
 8003a56:	461a      	mov	r2, r3
 8003a58:	e00c      	b.n	8003a74 <I2C_WaitOnFlagUntilTimeout+0xe4>
 8003a5a:	68fb      	ldr	r3, [r7, #12]
 8003a5c:	681b      	ldr	r3, [r3, #0]
 8003a5e:	699b      	ldr	r3, [r3, #24]
 8003a60:	43da      	mvns	r2, r3
 8003a62:	68bb      	ldr	r3, [r7, #8]
 8003a64:	4013      	ands	r3, r2
 8003a66:	b29b      	uxth	r3, r3
 8003a68:	2b00      	cmp	r3, #0
 8003a6a:	bf0c      	ite	eq
 8003a6c:	2301      	moveq	r3, #1
 8003a6e:	2300      	movne	r3, #0
 8003a70:	b2db      	uxtb	r3, r3
 8003a72:	461a      	mov	r2, r3
 8003a74:	79fb      	ldrb	r3, [r7, #7]
 8003a76:	429a      	cmp	r2, r3
 8003a78:	d093      	beq.n	80039a2 <I2C_WaitOnFlagUntilTimeout+0x12>
        }
      }
    }
  }
  return HAL_OK;
 8003a7a:	2300      	movs	r3, #0
}
 8003a7c:	4618      	mov	r0, r3
 8003a7e:	3710      	adds	r7, #16
 8003a80:	46bd      	mov	sp, r7
 8003a82:	bd80      	pop	{r7, pc}

08003a84 <I2C_WaitOnMasterAddressFlagUntilTimeout>:
  * @param  Timeout Timeout duration
  * @param  Tickstart Tick start value
  * @retval HAL status
  */
static HAL_StatusTypeDef I2C_WaitOnMasterAddressFlagUntilTimeout(I2C_HandleTypeDef *hi2c, uint32_t Flag, uint32_t Timeout, uint32_t Tickstart)
{
 8003a84:	b580      	push	{r7, lr}
 8003a86:	b084      	sub	sp, #16
 8003a88:	af00      	add	r7, sp, #0
 8003a8a:	60f8      	str	r0, [r7, #12]
 8003a8c:	60b9      	str	r1, [r7, #8]
 8003a8e:	607a      	str	r2, [r7, #4]
 8003a90:	603b      	str	r3, [r7, #0]
  while (__HAL_I2C_GET_FLAG(hi2c, Flag) == RESET)
 8003a92:	e071      	b.n	8003b78 <I2C_WaitOnMasterAddressFlagUntilTimeout+0xf4>
  {
    if (__HAL_I2C_GET_FLAG(hi2c, I2C_FLAG_AF) == SET)
 8003a94:	68fb      	ldr	r3, [r7, #12]
 8003a96:	681b      	ldr	r3, [r3, #0]
 8003a98:	695b      	ldr	r3, [r3, #20]
 8003a9a:	f403 6380 	and.w	r3, r3, #1024	; 0x400
 8003a9e:	f5b3 6f80 	cmp.w	r3, #1024	; 0x400
 8003aa2:	d123      	bne.n	8003aec <I2C_WaitOnMasterAddressFlagUntilTimeout+0x68>
    {
      /* Generate Stop */
      SET_BIT(hi2c->Instance->CR1, I2C_CR1_STOP);
 8003aa4:	68fb      	ldr	r3, [r7, #12]
 8003aa6:	681b      	ldr	r3, [r3, #0]
 8003aa8:	681a      	ldr	r2, [r3, #0]
 8003aaa:	68fb      	ldr	r3, [r7, #12]
 8003aac:	681b      	ldr	r3, [r3, #0]
 8003aae:	f442 7200 	orr.w	r2, r2, #512	; 0x200
 8003ab2:	601a      	str	r2, [r3, #0]

      /* Clear AF Flag */
      __HAL_I2C_CLEAR_FLAG(hi2c, I2C_FLAG_AF);
 8003ab4:	68fb      	ldr	r3, [r7, #12]
 8003ab6:	681b      	ldr	r3, [r3, #0]
 8003ab8:	f46f 6280 	mvn.w	r2, #1024	; 0x400
 8003abc:	615a      	str	r2, [r3, #20]

      hi2c->PreviousState       = I2C_STATE_NONE;
 8003abe:	68fb      	ldr	r3, [r7, #12]
 8003ac0:	2200      	movs	r2, #0
 8003ac2:	631a      	str	r2, [r3, #48]	; 0x30
      hi2c->State               = HAL_I2C_STATE_READY;
 8003ac4:	68fb      	ldr	r3, [r7, #12]
 8003ac6:	2220      	movs	r2, #32
 8003ac8:	f883 203d 	strb.w	r2, [r3, #61]	; 0x3d
      hi2c->Mode                = HAL_I2C_MODE_NONE;
 8003acc:	68fb      	ldr	r3, [r7, #12]
 8003ace:	2200      	movs	r2, #0
 8003ad0:	f883 203e 	strb.w	r2, [r3, #62]	; 0x3e
      hi2c->ErrorCode           |= HAL_I2C_ERROR_AF;
 8003ad4:	68fb      	ldr	r3, [r7, #12]
 8003ad6:	6c1b      	ldr	r3, [r3, #64]	; 0x40
 8003ad8:	f043 0204 	orr.w	r2, r3, #4
 8003adc:	68fb      	ldr	r3, [r7, #12]
 8003ade:	641a      	str	r2, [r3, #64]	; 0x40

      /* Process Unlocked */
      __HAL_UNLOCK(hi2c);
 8003ae0:	68fb      	ldr	r3, [r7, #12]
 8003ae2:	2200      	movs	r2, #0
 8003ae4:	f883 203c 	strb.w	r2, [r3, #60]	; 0x3c

      return HAL_ERROR;
 8003ae8:	2301      	movs	r3, #1
 8003aea:	e067      	b.n	8003bbc <I2C_WaitOnMasterAddressFlagUntilTimeout+0x138>
    }

    /* Check for the Timeout */
    if (Timeout != HAL_MAX_DELAY)
 8003aec:	687b      	ldr	r3, [r7, #4]
 8003aee:	f1b3 3fff 	cmp.w	r3, #4294967295
 8003af2:	d041      	beq.n	8003b78 <I2C_WaitOnMasterAddressFlagUntilTimeout+0xf4>
    {
      if (((HAL_GetTick() - Tickstart) > Timeout) || (Timeout == 0U))
 8003af4:	f7fe fa14 	bl	8001f20 <HAL_GetTick>
 8003af8:	4602      	mov	r2, r0
 8003afa:	683b      	ldr	r3, [r7, #0]
 8003afc:	1ad3      	subs	r3, r2, r3
 8003afe:	687a      	ldr	r2, [r7, #4]
 8003b00:	429a      	cmp	r2, r3
 8003b02:	d302      	bcc.n	8003b0a <I2C_WaitOnMasterAddressFlagUntilTimeout+0x86>
 8003b04:	687b      	ldr	r3, [r7, #4]
 8003b06:	2b00      	cmp	r3, #0
 8003b08:	d136      	bne.n	8003b78 <I2C_WaitOnMasterAddressFlagUntilTimeout+0xf4>
      {
        if ((__HAL_I2C_GET_FLAG(hi2c, Flag) == RESET))
 8003b0a:	68bb      	ldr	r3, [r7, #8]
 8003b0c:	0c1b      	lsrs	r3, r3, #16
 8003b0e:	b2db      	uxtb	r3, r3
 8003b10:	2b01      	cmp	r3, #1
 8003b12:	d10c      	bne.n	8003b2e <I2C_WaitOnMasterAddressFlagUntilTimeout+0xaa>
 8003b14:	68fb      	ldr	r3, [r7, #12]
 8003b16:	681b      	ldr	r3, [r3, #0]
 8003b18:	695b      	ldr	r3, [r3, #20]
 8003b1a:	43da      	mvns	r2, r3
 8003b1c:	68bb      	ldr	r3, [r7, #8]
 8003b1e:	4013      	ands	r3, r2
 8003b20:	b29b      	uxth	r3, r3
 8003b22:	2b00      	cmp	r3, #0
 8003b24:	bf14      	ite	ne
 8003b26:	2301      	movne	r3, #1
 8003b28:	2300      	moveq	r3, #0
 8003b2a:	b2db      	uxtb	r3, r3
 8003b2c:	e00b      	b.n	8003b46 <I2C_WaitOnMasterAddressFlagUntilTimeout+0xc2>
 8003b2e:	68fb      	ldr	r3, [r7, #12]
 8003b30:	681b      	ldr	r3, [r3, #0]
 8003b32:	699b      	ldr	r3, [r3, #24]
 8003b34:	43da      	mvns	r2, r3
 8003b36:	68bb      	ldr	r3, [r7, #8]
 8003b38:	4013      	ands	r3, r2
 8003b3a:	b29b      	uxth	r3, r3
 8003b3c:	2b00      	cmp	r3, #0
 8003b3e:	bf14      	ite	ne
 8003b40:	2301      	movne	r3, #1
 8003b42:	2300      	moveq	r3, #0
 8003b44:	b2db      	uxtb	r3, r3
 8003b46:	2b00      	cmp	r3, #0
 8003b48:	d016      	beq.n	8003b78 <I2C_WaitOnMasterAddressFlagUntilTimeout+0xf4>
        {
          hi2c->PreviousState       = I2C_STATE_NONE;
 8003b4a:	68fb      	ldr	r3, [r7, #12]
 8003b4c:	2200      	movs	r2, #0
 8003b4e:	631a      	str	r2, [r3, #48]	; 0x30
          hi2c->State               = HAL_I2C_STATE_READY;
 8003b50:	68fb      	ldr	r3, [r7, #12]
 8003b52:	2220      	movs	r2, #32
 8003b54:	f883 203d 	strb.w	r2, [r3, #61]	; 0x3d
          hi2c->Mode                = HAL_I2C_MODE_NONE;
 8003b58:	68fb      	ldr	r3, [r7, #12]
 8003b5a:	2200      	movs	r2, #0
 8003b5c:	f883 203e 	strb.w	r2, [r3, #62]	; 0x3e
          hi2c->ErrorCode           |= HAL_I2C_ERROR_TIMEOUT;
 8003b60:	68fb      	ldr	r3, [r7, #12]
 8003b62:	6c1b      	ldr	r3, [r3, #64]	; 0x40
 8003b64:	f043 0220 	orr.w	r2, r3, #32
 8003b68:	68fb      	ldr	r3, [r7, #12]
 8003b6a:	641a      	str	r2, [r3, #64]	; 0x40

          /* Process Unlocked */
          __HAL_UNLOCK(hi2c);
 8003b6c:	68fb      	ldr	r3, [r7, #12]
 8003b6e:	2200      	movs	r2, #0
 8003b70:	f883 203c 	strb.w	r2, [r3, #60]	; 0x3c

          return HAL_ERROR;
 8003b74:	2301      	movs	r3, #1
 8003b76:	e021      	b.n	8003bbc <I2C_WaitOnMasterAddressFlagUntilTimeout+0x138>
  while (__HAL_I2C_GET_FLAG(hi2c, Flag) == RESET)
 8003b78:	68bb      	ldr	r3, [r7, #8]
 8003b7a:	0c1b      	lsrs	r3, r3, #16
 8003b7c:	b2db      	uxtb	r3, r3
 8003b7e:	2b01      	cmp	r3, #1
 8003b80:	d10c      	bne.n	8003b9c <I2C_WaitOnMasterAddressFlagUntilTimeout+0x118>
 8003b82:	68fb      	ldr	r3, [r7, #12]
 8003b84:	681b      	ldr	r3, [r3, #0]
 8003b86:	695b      	ldr	r3, [r3, #20]
 8003b88:	43da      	mvns	r2, r3
 8003b8a:	68bb      	ldr	r3, [r7, #8]
 8003b8c:	4013      	ands	r3, r2
 8003b8e:	b29b      	uxth	r3, r3
 8003b90:	2b00      	cmp	r3, #0
 8003b92:	bf14      	ite	ne
 8003b94:	2301      	movne	r3, #1
 8003b96:	2300      	moveq	r3, #0
 8003b98:	b2db      	uxtb	r3, r3
 8003b9a:	e00b      	b.n	8003bb4 <I2C_WaitOnMasterAddressFlagUntilTimeout+0x130>
 8003b9c:	68fb      	ldr	r3, [r7, #12]
 8003b9e:	681b      	ldr	r3, [r3, #0]
 8003ba0:	699b      	ldr	r3, [r3, #24]
 8003ba2:	43da      	mvns	r2, r3
 8003ba4:	68bb      	ldr	r3, [r7, #8]
 8003ba6:	4013      	ands	r3, r2
 8003ba8:	b29b      	uxth	r3, r3
 8003baa:	2b00      	cmp	r3, #0
 8003bac:	bf14      	ite	ne
 8003bae:	2301      	movne	r3, #1
 8003bb0:	2300      	moveq	r3, #0
 8003bb2:	b2db      	uxtb	r3, r3
 8003bb4:	2b00      	cmp	r3, #0
 8003bb6:	f47f af6d 	bne.w	8003a94 <I2C_WaitOnMasterAddressFlagUntilTimeout+0x10>
        }
      }
    }
  }
  return HAL_OK;
 8003bba:	2300      	movs	r3, #0
}
 8003bbc:	4618      	mov	r0, r3
 8003bbe:	3710      	adds	r7, #16
 8003bc0:	46bd      	mov	sp, r7
 8003bc2:	bd80      	pop	{r7, pc}

08003bc4 <I2C_WaitOnTXEFlagUntilTimeout>:
  * @param  Timeout Timeout duration
  * @param  Tickstart Tick start value
  * @retval HAL status
  */
static HAL_StatusTypeDef I2C_WaitOnTXEFlagUntilTimeout(I2C_HandleTypeDef *hi2c, uint32_t Timeout, uint32_t Tickstart)
{
 8003bc4:	b580      	push	{r7, lr}
 8003bc6:	b084      	sub	sp, #16
 8003bc8:	af00      	add	r7, sp, #0
 8003bca:	60f8      	str	r0, [r7, #12]
 8003bcc:	60b9      	str	r1, [r7, #8]
 8003bce:	607a      	str	r2, [r7, #4]
  while (__HAL_I2C_GET_FLAG(hi2c, I2C_FLAG_TXE) == RESET)
 8003bd0:	e034      	b.n	8003c3c <I2C_WaitOnTXEFlagUntilTimeout+0x78>
  {
    /* Check if a NACK is detected */
    if (I2C_IsAcknowledgeFailed(hi2c) != HAL_OK)
 8003bd2:	68f8      	ldr	r0, [r7, #12]
 8003bd4:	f000 f8e3 	bl	8003d9e <I2C_IsAcknowledgeFailed>
 8003bd8:	4603      	mov	r3, r0
 8003bda:	2b00      	cmp	r3, #0
 8003bdc:	d001      	beq.n	8003be2 <I2C_WaitOnTXEFlagUntilTimeout+0x1e>
    {
      return HAL_ERROR;
 8003bde:	2301      	movs	r3, #1
 8003be0:	e034      	b.n	8003c4c <I2C_WaitOnTXEFlagUntilTimeout+0x88>
    }

    /* Check for the Timeout */
    if (Timeout != HAL_MAX_DELAY)
 8003be2:	68bb      	ldr	r3, [r7, #8]
 8003be4:	f1b3 3fff 	cmp.w	r3, #4294967295
 8003be8:	d028      	beq.n	8003c3c <I2C_WaitOnTXEFlagUntilTimeout+0x78>
    {
      if (((HAL_GetTick() - Tickstart) > Timeout) || (Timeout == 0U))
 8003bea:	f7fe f999 	bl	8001f20 <HAL_GetTick>
 8003bee:	4602      	mov	r2, r0
 8003bf0:	687b      	ldr	r3, [r7, #4]
 8003bf2:	1ad3      	subs	r3, r2, r3
 8003bf4:	68ba      	ldr	r2, [r7, #8]
 8003bf6:	429a      	cmp	r2, r3
 8003bf8:	d302      	bcc.n	8003c00 <I2C_WaitOnTXEFlagUntilTimeout+0x3c>
 8003bfa:	68bb      	ldr	r3, [r7, #8]
 8003bfc:	2b00      	cmp	r3, #0
 8003bfe:	d11d      	bne.n	8003c3c <I2C_WaitOnTXEFlagUntilTimeout+0x78>
      {
        if ((__HAL_I2C_GET_FLAG(hi2c, I2C_FLAG_TXE) == RESET))
 8003c00:	68fb      	ldr	r3, [r7, #12]
 8003c02:	681b      	ldr	r3, [r3, #0]
 8003c04:	695b      	ldr	r3, [r3, #20]
 8003c06:	f003 0380 	and.w	r3, r3, #128	; 0x80
 8003c0a:	2b80      	cmp	r3, #128	; 0x80
 8003c0c:	d016      	beq.n	8003c3c <I2C_WaitOnTXEFlagUntilTimeout+0x78>
        {
          hi2c->PreviousState       = I2C_STATE_NONE;
 8003c0e:	68fb      	ldr	r3, [r7, #12]
 8003c10:	2200      	movs	r2, #0
 8003c12:	631a      	str	r2, [r3, #48]	; 0x30
          hi2c->State               = HAL_I2C_STATE_READY;
 8003c14:	68fb      	ldr	r3, [r7, #12]
 8003c16:	2220      	movs	r2, #32
 8003c18:	f883 203d 	strb.w	r2, [r3, #61]	; 0x3d
          hi2c->Mode                = HAL_I2C_MODE_NONE;
 8003c1c:	68fb      	ldr	r3, [r7, #12]
 8003c1e:	2200      	movs	r2, #0
 8003c20:	f883 203e 	strb.w	r2, [r3, #62]	; 0x3e
          hi2c->ErrorCode           |= HAL_I2C_ERROR_TIMEOUT;
 8003c24:	68fb      	ldr	r3, [r7, #12]
 8003c26:	6c1b      	ldr	r3, [r3, #64]	; 0x40
 8003c28:	f043 0220 	orr.w	r2, r3, #32
 8003c2c:	68fb      	ldr	r3, [r7, #12]
 8003c2e:	641a      	str	r2, [r3, #64]	; 0x40

          /* Process Unlocked */
          __HAL_UNLOCK(hi2c);
 8003c30:	68fb      	ldr	r3, [r7, #12]
 8003c32:	2200      	movs	r2, #0
 8003c34:	f883 203c 	strb.w	r2, [r3, #60]	; 0x3c

          return HAL_ERROR;
 8003c38:	2301      	movs	r3, #1
 8003c3a:	e007      	b.n	8003c4c <I2C_WaitOnTXEFlagUntilTimeout+0x88>
  while (__HAL_I2C_GET_FLAG(hi2c, I2C_FLAG_TXE) == RESET)
 8003c3c:	68fb      	ldr	r3, [r7, #12]
 8003c3e:	681b      	ldr	r3, [r3, #0]
 8003c40:	695b      	ldr	r3, [r3, #20]
 8003c42:	f003 0380 	and.w	r3, r3, #128	; 0x80
 8003c46:	2b80      	cmp	r3, #128	; 0x80
 8003c48:	d1c3      	bne.n	8003bd2 <I2C_WaitOnTXEFlagUntilTimeout+0xe>
        }
      }
    }
  }
  return HAL_OK;
 8003c4a:	2300      	movs	r3, #0
}
 8003c4c:	4618      	mov	r0, r3
 8003c4e:	3710      	adds	r7, #16
 8003c50:	46bd      	mov	sp, r7
 8003c52:	bd80      	pop	{r7, pc}

08003c54 <I2C_WaitOnBTFFlagUntilTimeout>:
  * @param  Timeout Timeout duration
  * @param  Tickstart Tick start value
  * @retval HAL status
  */
static HAL_StatusTypeDef I2C_WaitOnBTFFlagUntilTimeout(I2C_HandleTypeDef *hi2c, uint32_t Timeout, uint32_t Tickstart)
{
 8003c54:	b580      	push	{r7, lr}
 8003c56:	b084      	sub	sp, #16
 8003c58:	af00      	add	r7, sp, #0
 8003c5a:	60f8      	str	r0, [r7, #12]
 8003c5c:	60b9      	str	r1, [r7, #8]
 8003c5e:	607a      	str	r2, [r7, #4]
  while (__HAL_I2C_GET_FLAG(hi2c, I2C_FLAG_BTF) == RESET)
 8003c60:	e034      	b.n	8003ccc <I2C_WaitOnBTFFlagUntilTimeout+0x78>
  {
    /* Check if a NACK is detected */
    if (I2C_IsAcknowledgeFailed(hi2c) != HAL_OK)
 8003c62:	68f8      	ldr	r0, [r7, #12]
 8003c64:	f000 f89b 	bl	8003d9e <I2C_IsAcknowledgeFailed>
 8003c68:	4603      	mov	r3, r0
 8003c6a:	2b00      	cmp	r3, #0
 8003c6c:	d001      	beq.n	8003c72 <I2C_WaitOnBTFFlagUntilTimeout+0x1e>
    {
      return HAL_ERROR;
 8003c6e:	2301      	movs	r3, #1
 8003c70:	e034      	b.n	8003cdc <I2C_WaitOnBTFFlagUntilTimeout+0x88>
    }

    /* Check for the Timeout */
    if (Timeout != HAL_MAX_DELAY)
 8003c72:	68bb      	ldr	r3, [r7, #8]
 8003c74:	f1b3 3fff 	cmp.w	r3, #4294967295
 8003c78:	d028      	beq.n	8003ccc <I2C_WaitOnBTFFlagUntilTimeout+0x78>
    {
      if (((HAL_GetTick() - Tickstart) > Timeout) || (Timeout == 0U))
 8003c7a:	f7fe f951 	bl	8001f20 <HAL_GetTick>
 8003c7e:	4602      	mov	r2, r0
 8003c80:	687b      	ldr	r3, [r7, #4]
 8003c82:	1ad3      	subs	r3, r2, r3
 8003c84:	68ba      	ldr	r2, [r7, #8]
 8003c86:	429a      	cmp	r2, r3
 8003c88:	d302      	bcc.n	8003c90 <I2C_WaitOnBTFFlagUntilTimeout+0x3c>
 8003c8a:	68bb      	ldr	r3, [r7, #8]
 8003c8c:	2b00      	cmp	r3, #0
 8003c8e:	d11d      	bne.n	8003ccc <I2C_WaitOnBTFFlagUntilTimeout+0x78>
      {
        if ((__HAL_I2C_GET_FLAG(hi2c, I2C_FLAG_BTF) == RESET))
 8003c90:	68fb      	ldr	r3, [r7, #12]
 8003c92:	681b      	ldr	r3, [r3, #0]
 8003c94:	695b      	ldr	r3, [r3, #20]
 8003c96:	f003 0304 	and.w	r3, r3, #4
 8003c9a:	2b04      	cmp	r3, #4
 8003c9c:	d016      	beq.n	8003ccc <I2C_WaitOnBTFFlagUntilTimeout+0x78>
        {
          hi2c->PreviousState       = I2C_STATE_NONE;
 8003c9e:	68fb      	ldr	r3, [r7, #12]
 8003ca0:	2200      	movs	r2, #0
 8003ca2:	631a      	str	r2, [r3, #48]	; 0x30
          hi2c->State               = HAL_I2C_STATE_READY;
 8003ca4:	68fb      	ldr	r3, [r7, #12]
 8003ca6:	2220      	movs	r2, #32
 8003ca8:	f883 203d 	strb.w	r2, [r3, #61]	; 0x3d
          hi2c->Mode                = HAL_I2C_MODE_NONE;
 8003cac:	68fb      	ldr	r3, [r7, #12]
 8003cae:	2200      	movs	r2, #0
 8003cb0:	f883 203e 	strb.w	r2, [r3, #62]	; 0x3e
          hi2c->ErrorCode           |= HAL_I2C_ERROR_TIMEOUT;
 8003cb4:	68fb      	ldr	r3, [r7, #12]
 8003cb6:	6c1b      	ldr	r3, [r3, #64]	; 0x40
 8003cb8:	f043 0220 	orr.w	r2, r3, #32
 8003cbc:	68fb      	ldr	r3, [r7, #12]
 8003cbe:	641a      	str	r2, [r3, #64]	; 0x40

          /* Process Unlocked */
          __HAL_UNLOCK(hi2c);
 8003cc0:	68fb      	ldr	r3, [r7, #12]
 8003cc2:	2200      	movs	r2, #0
 8003cc4:	f883 203c 	strb.w	r2, [r3, #60]	; 0x3c

          return HAL_ERROR;
 8003cc8:	2301      	movs	r3, #1
 8003cca:	e007      	b.n	8003cdc <I2C_WaitOnBTFFlagUntilTimeout+0x88>
  while (__HAL_I2C_GET_FLAG(hi2c, I2C_FLAG_BTF) == RESET)
 8003ccc:	68fb      	ldr	r3, [r7, #12]
 8003cce:	681b      	ldr	r3, [r3, #0]
 8003cd0:	695b      	ldr	r3, [r3, #20]
 8003cd2:	f003 0304 	and.w	r3, r3, #4
 8003cd6:	2b04      	cmp	r3, #4
 8003cd8:	d1c3      	bne.n	8003c62 <I2C_WaitOnBTFFlagUntilTimeout+0xe>
        }
      }
    }
  }
  return HAL_OK;
 8003cda:	2300      	movs	r3, #0
}
 8003cdc:	4618      	mov	r0, r3
 8003cde:	3710      	adds	r7, #16
 8003ce0:	46bd      	mov	sp, r7
 8003ce2:	bd80      	pop	{r7, pc}

08003ce4 <I2C_WaitOnRXNEFlagUntilTimeout>:
  * @param  Timeout Timeout duration
  * @param  Tickstart Tick start value
  * @retval HAL status
  */
static HAL_StatusTypeDef I2C_WaitOnRXNEFlagUntilTimeout(I2C_HandleTypeDef *hi2c, uint32_t Timeout, uint32_t Tickstart)
{
 8003ce4:	b580      	push	{r7, lr}
 8003ce6:	b084      	sub	sp, #16
 8003ce8:	af00      	add	r7, sp, #0
 8003cea:	60f8      	str	r0, [r7, #12]
 8003cec:	60b9      	str	r1, [r7, #8]
 8003cee:	607a      	str	r2, [r7, #4]

  while (__HAL_I2C_GET_FLAG(hi2c, I2C_FLAG_RXNE) == RESET)
 8003cf0:	e049      	b.n	8003d86 <I2C_WaitOnRXNEFlagUntilTimeout+0xa2>
  {
    /* Check if a STOPF is detected */
    if (__HAL_I2C_GET_FLAG(hi2c, I2C_FLAG_STOPF) == SET)
 8003cf2:	68fb      	ldr	r3, [r7, #12]
 8003cf4:	681b      	ldr	r3, [r3, #0]
 8003cf6:	695b      	ldr	r3, [r3, #20]
 8003cf8:	f003 0310 	and.w	r3, r3, #16
 8003cfc:	2b10      	cmp	r3, #16
 8003cfe:	d119      	bne.n	8003d34 <I2C_WaitOnRXNEFlagUntilTimeout+0x50>
    {
      /* Clear STOP Flag */
      __HAL_I2C_CLEAR_FLAG(hi2c, I2C_FLAG_STOPF);
 8003d00:	68fb      	ldr	r3, [r7, #12]
 8003d02:	681b      	ldr	r3, [r3, #0]
 8003d04:	f06f 0210 	mvn.w	r2, #16
 8003d08:	615a      	str	r2, [r3, #20]

      hi2c->PreviousState       = I2C_STATE_NONE;
 8003d0a:	68fb      	ldr	r3, [r7, #12]
 8003d0c:	2200      	movs	r2, #0
 8003d0e:	631a      	str	r2, [r3, #48]	; 0x30
      hi2c->State               = HAL_I2C_STATE_READY;
 8003d10:	68fb      	ldr	r3, [r7, #12]
 8003d12:	2220      	movs	r2, #32
 8003d14:	f883 203d 	strb.w	r2, [r3, #61]	; 0x3d
      hi2c->Mode                = HAL_I2C_MODE_NONE;
 8003d18:	68fb      	ldr	r3, [r7, #12]
 8003d1a:	2200      	movs	r2, #0
 8003d1c:	f883 203e 	strb.w	r2, [r3, #62]	; 0x3e
      hi2c->ErrorCode           |= HAL_I2C_ERROR_NONE;
 8003d20:	68fb      	ldr	r3, [r7, #12]
 8003d22:	6c1a      	ldr	r2, [r3, #64]	; 0x40
 8003d24:	68fb      	ldr	r3, [r7, #12]
 8003d26:	641a      	str	r2, [r3, #64]	; 0x40

      /* Process Unlocked */
      __HAL_UNLOCK(hi2c);
 8003d28:	68fb      	ldr	r3, [r7, #12]
 8003d2a:	2200      	movs	r2, #0
 8003d2c:	f883 203c 	strb.w	r2, [r3, #60]	; 0x3c

      return HAL_ERROR;
 8003d30:	2301      	movs	r3, #1
 8003d32:	e030      	b.n	8003d96 <I2C_WaitOnRXNEFlagUntilTimeout+0xb2>
    }

    /* Check for the Timeout */
    if (((HAL_GetTick() - Tickstart) > Timeout) || (Timeout == 0U))
 8003d34:	f7fe f8f4 	bl	8001f20 <HAL_GetTick>
 8003d38:	4602      	mov	r2, r0
 8003d3a:	687b      	ldr	r3, [r7, #4]
 8003d3c:	1ad3      	subs	r3, r2, r3
 8003d3e:	68ba      	ldr	r2, [r7, #8]
 8003d40:	429a      	cmp	r2, r3
 8003d42:	d302      	bcc.n	8003d4a <I2C_WaitOnRXNEFlagUntilTimeout+0x66>
 8003d44:	68bb      	ldr	r3, [r7, #8]
 8003d46:	2b00      	cmp	r3, #0
 8003d48:	d11d      	bne.n	8003d86 <I2C_WaitOnRXNEFlagUntilTimeout+0xa2>
    {
      if ((__HAL_I2C_GET_FLAG(hi2c, I2C_FLAG_RXNE) == RESET))
 8003d4a:	68fb      	ldr	r3, [r7, #12]
 8003d4c:	681b      	ldr	r3, [r3, #0]
 8003d4e:	695b      	ldr	r3, [r3, #20]
 8003d50:	f003 0340 	and.w	r3, r3, #64	; 0x40
 8003d54:	2b40      	cmp	r3, #64	; 0x40
 8003d56:	d016      	beq.n	8003d86 <I2C_WaitOnRXNEFlagUntilTimeout+0xa2>
      {
        hi2c->PreviousState       = I2C_STATE_NONE;
 8003d58:	68fb      	ldr	r3, [r7, #12]
 8003d5a:	2200      	movs	r2, #0
 8003d5c:	631a      	str	r2, [r3, #48]	; 0x30
        hi2c->State               = HAL_I2C_STATE_READY;
 8003d5e:	68fb      	ldr	r3, [r7, #12]
 8003d60:	2220      	movs	r2, #32
 8003d62:	f883 203d 	strb.w	r2, [r3, #61]	; 0x3d
        hi2c->Mode                = HAL_I2C_MODE_NONE;
 8003d66:	68fb      	ldr	r3, [r7, #12]
 8003d68:	2200      	movs	r2, #0
 8003d6a:	f883 203e 	strb.w	r2, [r3, #62]	; 0x3e
        hi2c->ErrorCode           |= HAL_I2C_ERROR_TIMEOUT;
 8003d6e:	68fb      	ldr	r3, [r7, #12]
 8003d70:	6c1b      	ldr	r3, [r3, #64]	; 0x40
 8003d72:	f043 0220 	orr.w	r2, r3, #32
 8003d76:	68fb      	ldr	r3, [r7, #12]
 8003d78:	641a      	str	r2, [r3, #64]	; 0x40

        /* Process Unlocked */
        __HAL_UNLOCK(hi2c);
 8003d7a:	68fb      	ldr	r3, [r7, #12]
 8003d7c:	2200      	movs	r2, #0
 8003d7e:	f883 203c 	strb.w	r2, [r3, #60]	; 0x3c

        return HAL_ERROR;
 8003d82:	2301      	movs	r3, #1
 8003d84:	e007      	b.n	8003d96 <I2C_WaitOnRXNEFlagUntilTimeout+0xb2>
  while (__HAL_I2C_GET_FLAG(hi2c, I2C_FLAG_RXNE) == RESET)
 8003d86:	68fb      	ldr	r3, [r7, #12]
 8003d88:	681b      	ldr	r3, [r3, #0]
 8003d8a:	695b      	ldr	r3, [r3, #20]
 8003d8c:	f003 0340 	and.w	r3, r3, #64	; 0x40
 8003d90:	2b40      	cmp	r3, #64	; 0x40
 8003d92:	d1ae      	bne.n	8003cf2 <I2C_WaitOnRXNEFlagUntilTimeout+0xe>
      }
    }
  }
  return HAL_OK;
 8003d94:	2300      	movs	r3, #0
}
 8003d96:	4618      	mov	r0, r3
 8003d98:	3710      	adds	r7, #16
 8003d9a:	46bd      	mov	sp, r7
 8003d9c:	bd80      	pop	{r7, pc}

08003d9e <I2C_IsAcknowledgeFailed>:
  * @param  hi2c Pointer to a I2C_HandleTypeDef structure that contains
  *                the configuration information for the specified I2C.
  * @retval HAL status
  */
static HAL_StatusTypeDef I2C_IsAcknowledgeFailed(I2C_HandleTypeDef *hi2c)
{
 8003d9e:	b480      	push	{r7}
 8003da0:	b083      	sub	sp, #12
 8003da2:	af00      	add	r7, sp, #0
 8003da4:	6078      	str	r0, [r7, #4]
  if (__HAL_I2C_GET_FLAG(hi2c, I2C_FLAG_AF) == SET)
 8003da6:	687b      	ldr	r3, [r7, #4]
 8003da8:	681b      	ldr	r3, [r3, #0]
 8003daa:	695b      	ldr	r3, [r3, #20]
 8003dac:	f403 6380 	and.w	r3, r3, #1024	; 0x400
 8003db0:	f5b3 6f80 	cmp.w	r3, #1024	; 0x400
 8003db4:	d11b      	bne.n	8003dee <I2C_IsAcknowledgeFailed+0x50>
  {
    /* Clear NACKF Flag */
    __HAL_I2C_CLEAR_FLAG(hi2c, I2C_FLAG_AF);
 8003db6:	687b      	ldr	r3, [r7, #4]
 8003db8:	681b      	ldr	r3, [r3, #0]
 8003dba:	f46f 6280 	mvn.w	r2, #1024	; 0x400
 8003dbe:	615a      	str	r2, [r3, #20]

    hi2c->PreviousState       = I2C_STATE_NONE;
 8003dc0:	687b      	ldr	r3, [r7, #4]
 8003dc2:	2200      	movs	r2, #0
 8003dc4:	631a      	str	r2, [r3, #48]	; 0x30
    hi2c->State               = HAL_I2C_STATE_READY;
 8003dc6:	687b      	ldr	r3, [r7, #4]
 8003dc8:	2220      	movs	r2, #32
 8003dca:	f883 203d 	strb.w	r2, [r3, #61]	; 0x3d
    hi2c->Mode                = HAL_I2C_MODE_NONE;
 8003dce:	687b      	ldr	r3, [r7, #4]
 8003dd0:	2200      	movs	r2, #0
 8003dd2:	f883 203e 	strb.w	r2, [r3, #62]	; 0x3e
    hi2c->ErrorCode           |= HAL_I2C_ERROR_AF;
 8003dd6:	687b      	ldr	r3, [r7, #4]
 8003dd8:	6c1b      	ldr	r3, [r3, #64]	; 0x40
 8003dda:	f043 0204 	orr.w	r2, r3, #4
 8003dde:	687b      	ldr	r3, [r7, #4]
 8003de0:	641a      	str	r2, [r3, #64]	; 0x40

    /* Process Unlocked */
    __HAL_UNLOCK(hi2c);
 8003de2:	687b      	ldr	r3, [r7, #4]
 8003de4:	2200      	movs	r2, #0
 8003de6:	f883 203c 	strb.w	r2, [r3, #60]	; 0x3c

    return HAL_ERROR;
 8003dea:	2301      	movs	r3, #1
 8003dec:	e000      	b.n	8003df0 <I2C_IsAcknowledgeFailed+0x52>
  }
  return HAL_OK;
 8003dee:	2300      	movs	r3, #0
}
 8003df0:	4618      	mov	r0, r3
 8003df2:	370c      	adds	r7, #12
 8003df4:	46bd      	mov	sp, r7
 8003df6:	f85d 7b04 	ldr.w	r7, [sp], #4
 8003dfa:	4770      	bx	lr

08003dfc <HAL_RCC_OscConfig>:
  *         supported by this API. User should request a transition to HSE Off
  *         first and then HSE On or HSE Bypass.
  * @retval HAL status
  */
__weak HAL_StatusTypeDef HAL_RCC_OscConfig(RCC_OscInitTypeDef  *RCC_OscInitStruct)
{
 8003dfc:	b580      	push	{r7, lr}
 8003dfe:	b086      	sub	sp, #24
 8003e00:	af00      	add	r7, sp, #0
 8003e02:	6078      	str	r0, [r7, #4]
  uint32_t tickstart;
  uint32_t pll_config;
  /* Check Null pointer */
  if (RCC_OscInitStruct == NULL)
 8003e04:	687b      	ldr	r3, [r7, #4]
 8003e06:	2b00      	cmp	r3, #0
 8003e08:	d101      	bne.n	8003e0e <HAL_RCC_OscConfig+0x12>
  {
    return HAL_ERROR;
 8003e0a:	2301      	movs	r3, #1
 8003e0c:	e267      	b.n	80042de <HAL_RCC_OscConfig+0x4e2>
  }

  /* Check the parameters */
  assert_param(IS_RCC_OSCILLATORTYPE(RCC_OscInitStruct->OscillatorType));
  /*------------------------------- HSE Configuration ------------------------*/
  if (((RCC_OscInitStruct->OscillatorType) & RCC_OSCILLATORTYPE_HSE) == RCC_OSCILLATORTYPE_HSE)
 8003e0e:	687b      	ldr	r3, [r7, #4]
 8003e10:	681b      	ldr	r3, [r3, #0]
 8003e12:	f003 0301 	and.w	r3, r3, #1
 8003e16:	2b00      	cmp	r3, #0
 8003e18:	d075      	beq.n	8003f06 <HAL_RCC_OscConfig+0x10a>
  {
    /* Check the parameters */
    assert_param(IS_RCC_HSE(RCC_OscInitStruct->HSEState));
    /* When the HSE is used as system clock or clock source for PLL in these cases HSE will not disabled */
    if ((__HAL_RCC_GET_SYSCLK_SOURCE() == RCC_CFGR_SWS_HSE) || \
 8003e1a:	4b88      	ldr	r3, [pc, #544]	; (800403c <HAL_RCC_OscConfig+0x240>)
 8003e1c:	689b      	ldr	r3, [r3, #8]
 8003e1e:	f003 030c 	and.w	r3, r3, #12
 8003e22:	2b04      	cmp	r3, #4
 8003e24:	d00c      	beq.n	8003e40 <HAL_RCC_OscConfig+0x44>
        ((__HAL_RCC_GET_SYSCLK_SOURCE() == RCC_CFGR_SWS_PLL) && ((RCC->PLLCFGR & RCC_PLLCFGR_PLLSRC) == RCC_PLLCFGR_PLLSRC_HSE)))
 8003e26:	4b85      	ldr	r3, [pc, #532]	; (800403c <HAL_RCC_OscConfig+0x240>)
 8003e28:	689b      	ldr	r3, [r3, #8]
 8003e2a:	f003 030c 	and.w	r3, r3, #12
    if ((__HAL_RCC_GET_SYSCLK_SOURCE() == RCC_CFGR_SWS_HSE) || \
 8003e2e:	2b08      	cmp	r3, #8
 8003e30:	d112      	bne.n	8003e58 <HAL_RCC_OscConfig+0x5c>
        ((__HAL_RCC_GET_SYSCLK_SOURCE() == RCC_CFGR_SWS_PLL) && ((RCC->PLLCFGR & RCC_PLLCFGR_PLLSRC) == RCC_PLLCFGR_PLLSRC_HSE)))
 8003e32:	4b82      	ldr	r3, [pc, #520]	; (800403c <HAL_RCC_OscConfig+0x240>)
 8003e34:	685b      	ldr	r3, [r3, #4]
 8003e36:	f403 0380 	and.w	r3, r3, #4194304	; 0x400000
 8003e3a:	f5b3 0f80 	cmp.w	r3, #4194304	; 0x400000
 8003e3e:	d10b      	bne.n	8003e58 <HAL_RCC_OscConfig+0x5c>
    {
      if ((__HAL_RCC_GET_FLAG(RCC_FLAG_HSERDY) != RESET) && (RCC_OscInitStruct->HSEState == RCC_HSE_OFF))
 8003e40:	4b7e      	ldr	r3, [pc, #504]	; (800403c <HAL_RCC_OscConfig+0x240>)
 8003e42:	681b      	ldr	r3, [r3, #0]
 8003e44:	f403 3300 	and.w	r3, r3, #131072	; 0x20000
 8003e48:	2b00      	cmp	r3, #0
 8003e4a:	d05b      	beq.n	8003f04 <HAL_RCC_OscConfig+0x108>
 8003e4c:	687b      	ldr	r3, [r7, #4]
 8003e4e:	685b      	ldr	r3, [r3, #4]
 8003e50:	2b00      	cmp	r3, #0
 8003e52:	d157      	bne.n	8003f04 <HAL_RCC_OscConfig+0x108>
      {
        return HAL_ERROR;
 8003e54:	2301      	movs	r3, #1
 8003e56:	e242      	b.n	80042de <HAL_RCC_OscConfig+0x4e2>
      }
    }
    else
    {
      /* Set the new HSE configuration ---------------------------------------*/
      __HAL_RCC_HSE_CONFIG(RCC_OscInitStruct->HSEState);
 8003e58:	687b      	ldr	r3, [r7, #4]
 8003e5a:	685b      	ldr	r3, [r3, #4]
 8003e5c:	f5b3 3f80 	cmp.w	r3, #65536	; 0x10000
 8003e60:	d106      	bne.n	8003e70 <HAL_RCC_OscConfig+0x74>
 8003e62:	4b76      	ldr	r3, [pc, #472]	; (800403c <HAL_RCC_OscConfig+0x240>)
 8003e64:	681b      	ldr	r3, [r3, #0]
 8003e66:	4a75      	ldr	r2, [pc, #468]	; (800403c <HAL_RCC_OscConfig+0x240>)
 8003e68:	f443 3380 	orr.w	r3, r3, #65536	; 0x10000
 8003e6c:	6013      	str	r3, [r2, #0]
 8003e6e:	e01d      	b.n	8003eac <HAL_RCC_OscConfig+0xb0>
 8003e70:	687b      	ldr	r3, [r7, #4]
 8003e72:	685b      	ldr	r3, [r3, #4]
 8003e74:	f5b3 2fa0 	cmp.w	r3, #327680	; 0x50000
 8003e78:	d10c      	bne.n	8003e94 <HAL_RCC_OscConfig+0x98>
 8003e7a:	4b70      	ldr	r3, [pc, #448]	; (800403c <HAL_RCC_OscConfig+0x240>)
 8003e7c:	681b      	ldr	r3, [r3, #0]
 8003e7e:	4a6f      	ldr	r2, [pc, #444]	; (800403c <HAL_RCC_OscConfig+0x240>)
 8003e80:	f443 2380 	orr.w	r3, r3, #262144	; 0x40000
 8003e84:	6013      	str	r3, [r2, #0]
 8003e86:	4b6d      	ldr	r3, [pc, #436]	; (800403c <HAL_RCC_OscConfig+0x240>)
 8003e88:	681b      	ldr	r3, [r3, #0]
 8003e8a:	4a6c      	ldr	r2, [pc, #432]	; (800403c <HAL_RCC_OscConfig+0x240>)
 8003e8c:	f443 3380 	orr.w	r3, r3, #65536	; 0x10000
 8003e90:	6013      	str	r3, [r2, #0]
 8003e92:	e00b      	b.n	8003eac <HAL_RCC_OscConfig+0xb0>
 8003e94:	4b69      	ldr	r3, [pc, #420]	; (800403c <HAL_RCC_OscConfig+0x240>)
 8003e96:	681b      	ldr	r3, [r3, #0]
 8003e98:	4a68      	ldr	r2, [pc, #416]	; (800403c <HAL_RCC_OscConfig+0x240>)
 8003e9a:	f423 3380 	bic.w	r3, r3, #65536	; 0x10000
 8003e9e:	6013      	str	r3, [r2, #0]
 8003ea0:	4b66      	ldr	r3, [pc, #408]	; (800403c <HAL_RCC_OscConfig+0x240>)
 8003ea2:	681b      	ldr	r3, [r3, #0]
 8003ea4:	4a65      	ldr	r2, [pc, #404]	; (800403c <HAL_RCC_OscConfig+0x240>)
 8003ea6:	f423 2380 	bic.w	r3, r3, #262144	; 0x40000
 8003eaa:	6013      	str	r3, [r2, #0]

      /* Check the HSE State */
      if ((RCC_OscInitStruct->HSEState) != RCC_HSE_OFF)
 8003eac:	687b      	ldr	r3, [r7, #4]
 8003eae:	685b      	ldr	r3, [r3, #4]
 8003eb0:	2b00      	cmp	r3, #0
 8003eb2:	d013      	beq.n	8003edc <HAL_RCC_OscConfig+0xe0>
      {
        /* Get Start Tick */
        tickstart = HAL_GetTick();
 8003eb4:	f7fe f834 	bl	8001f20 <HAL_GetTick>
 8003eb8:	6138      	str	r0, [r7, #16]

        /* Wait till HSE is ready */
        while (__HAL_RCC_GET_FLAG(RCC_FLAG_HSERDY) == RESET)
 8003eba:	e008      	b.n	8003ece <HAL_RCC_OscConfig+0xd2>
        {
          if ((HAL_GetTick() - tickstart) > HSE_TIMEOUT_VALUE)
 8003ebc:	f7fe f830 	bl	8001f20 <HAL_GetTick>
 8003ec0:	4602      	mov	r2, r0
 8003ec2:	693b      	ldr	r3, [r7, #16]
 8003ec4:	1ad3      	subs	r3, r2, r3
 8003ec6:	2b64      	cmp	r3, #100	; 0x64
 8003ec8:	d901      	bls.n	8003ece <HAL_RCC_OscConfig+0xd2>
          {
            return HAL_TIMEOUT;
 8003eca:	2303      	movs	r3, #3
 8003ecc:	e207      	b.n	80042de <HAL_RCC_OscConfig+0x4e2>
        while (__HAL_RCC_GET_FLAG(RCC_FLAG_HSERDY) == RESET)
 8003ece:	4b5b      	ldr	r3, [pc, #364]	; (800403c <HAL_RCC_OscConfig+0x240>)
 8003ed0:	681b      	ldr	r3, [r3, #0]
 8003ed2:	f403 3300 	and.w	r3, r3, #131072	; 0x20000
 8003ed6:	2b00      	cmp	r3, #0
 8003ed8:	d0f0      	beq.n	8003ebc <HAL_RCC_OscConfig+0xc0>
 8003eda:	e014      	b.n	8003f06 <HAL_RCC_OscConfig+0x10a>
        }
      }
      else
      {
        /* Get Start Tick */
        tickstart = HAL_GetTick();
 8003edc:	f7fe f820 	bl	8001f20 <HAL_GetTick>
 8003ee0:	6138      	str	r0, [r7, #16]

        /* Wait till HSE is bypassed or disabled */
        while (__HAL_RCC_GET_FLAG(RCC_FLAG_HSERDY) != RESET)
 8003ee2:	e008      	b.n	8003ef6 <HAL_RCC_OscConfig+0xfa>
        {
          if ((HAL_GetTick() - tickstart) > HSE_TIMEOUT_VALUE)
 8003ee4:	f7fe f81c 	bl	8001f20 <HAL_GetTick>
 8003ee8:	4602      	mov	r2, r0
 8003eea:	693b      	ldr	r3, [r7, #16]
 8003eec:	1ad3      	subs	r3, r2, r3
 8003eee:	2b64      	cmp	r3, #100	; 0x64
 8003ef0:	d901      	bls.n	8003ef6 <HAL_RCC_OscConfig+0xfa>
          {
            return HAL_TIMEOUT;
 8003ef2:	2303      	movs	r3, #3
 8003ef4:	e1f3      	b.n	80042de <HAL_RCC_OscConfig+0x4e2>
        while (__HAL_RCC_GET_FLAG(RCC_FLAG_HSERDY) != RESET)
 8003ef6:	4b51      	ldr	r3, [pc, #324]	; (800403c <HAL_RCC_OscConfig+0x240>)
 8003ef8:	681b      	ldr	r3, [r3, #0]
 8003efa:	f403 3300 	and.w	r3, r3, #131072	; 0x20000
 8003efe:	2b00      	cmp	r3, #0
 8003f00:	d1f0      	bne.n	8003ee4 <HAL_RCC_OscConfig+0xe8>
 8003f02:	e000      	b.n	8003f06 <HAL_RCC_OscConfig+0x10a>
      if ((__HAL_RCC_GET_FLAG(RCC_FLAG_HSERDY) != RESET) && (RCC_OscInitStruct->HSEState == RCC_HSE_OFF))
 8003f04:	bf00      	nop
        }
      }
    }
  }
  /*----------------------------- HSI Configuration --------------------------*/
  if (((RCC_OscInitStruct->OscillatorType) & RCC_OSCILLATORTYPE_HSI) == RCC_OSCILLATORTYPE_HSI)
 8003f06:	687b      	ldr	r3, [r7, #4]
 8003f08:	681b      	ldr	r3, [r3, #0]
 8003f0a:	f003 0302 	and.w	r3, r3, #2
 8003f0e:	2b00      	cmp	r3, #0
 8003f10:	d063      	beq.n	8003fda <HAL_RCC_OscConfig+0x1de>
    /* Check the parameters */
    assert_param(IS_RCC_HSI(RCC_OscInitStruct->HSIState));
    assert_param(IS_RCC_CALIBRATION_VALUE(RCC_OscInitStruct->HSICalibrationValue));

    /* Check if HSI is used as system clock or as PLL source when PLL is selected as system clock */
    if ((__HAL_RCC_GET_SYSCLK_SOURCE() == RCC_CFGR_SWS_HSI) || \
 8003f12:	4b4a      	ldr	r3, [pc, #296]	; (800403c <HAL_RCC_OscConfig+0x240>)
 8003f14:	689b      	ldr	r3, [r3, #8]
 8003f16:	f003 030c 	and.w	r3, r3, #12
 8003f1a:	2b00      	cmp	r3, #0
 8003f1c:	d00b      	beq.n	8003f36 <HAL_RCC_OscConfig+0x13a>
        ((__HAL_RCC_GET_SYSCLK_SOURCE() == RCC_CFGR_SWS_PLL) && ((RCC->PLLCFGR & RCC_PLLCFGR_PLLSRC) == RCC_PLLCFGR_PLLSRC_HSI)))
 8003f1e:	4b47      	ldr	r3, [pc, #284]	; (800403c <HAL_RCC_OscConfig+0x240>)
 8003f20:	689b      	ldr	r3, [r3, #8]
 8003f22:	f003 030c 	and.w	r3, r3, #12
    if ((__HAL_RCC_GET_SYSCLK_SOURCE() == RCC_CFGR_SWS_HSI) || \
 8003f26:	2b08      	cmp	r3, #8
 8003f28:	d11c      	bne.n	8003f64 <HAL_RCC_OscConfig+0x168>
        ((__HAL_RCC_GET_SYSCLK_SOURCE() == RCC_CFGR_SWS_PLL) && ((RCC->PLLCFGR & RCC_PLLCFGR_PLLSRC) == RCC_PLLCFGR_PLLSRC_HSI)))
 8003f2a:	4b44      	ldr	r3, [pc, #272]	; (800403c <HAL_RCC_OscConfig+0x240>)
 8003f2c:	685b      	ldr	r3, [r3, #4]
 8003f2e:	f403 0380 	and.w	r3, r3, #4194304	; 0x400000
 8003f32:	2b00      	cmp	r3, #0
 8003f34:	d116      	bne.n	8003f64 <HAL_RCC_OscConfig+0x168>
    {
      /* When HSI is used as system clock it will not disabled */
      if ((__HAL_RCC_GET_FLAG(RCC_FLAG_HSIRDY) != RESET) && (RCC_OscInitStruct->HSIState != RCC_HSI_ON))
 8003f36:	4b41      	ldr	r3, [pc, #260]	; (800403c <HAL_RCC_OscConfig+0x240>)
 8003f38:	681b      	ldr	r3, [r3, #0]
 8003f3a:	f003 0302 	and.w	r3, r3, #2
 8003f3e:	2b00      	cmp	r3, #0
 8003f40:	d005      	beq.n	8003f4e <HAL_RCC_OscConfig+0x152>
 8003f42:	687b      	ldr	r3, [r7, #4]
 8003f44:	68db      	ldr	r3, [r3, #12]
 8003f46:	2b01      	cmp	r3, #1
 8003f48:	d001      	beq.n	8003f4e <HAL_RCC_OscConfig+0x152>
      {
        return HAL_ERROR;
 8003f4a:	2301      	movs	r3, #1
 8003f4c:	e1c7      	b.n	80042de <HAL_RCC_OscConfig+0x4e2>
      }
      /* Otherwise, just the calibration is allowed */
      else
      {
        /* Adjusts the Internal High Speed oscillator (HSI) calibration value.*/
        __HAL_RCC_HSI_CALIBRATIONVALUE_ADJUST(RCC_OscInitStruct->HSICalibrationValue);
 8003f4e:	4b3b      	ldr	r3, [pc, #236]	; (800403c <HAL_RCC_OscConfig+0x240>)
 8003f50:	681b      	ldr	r3, [r3, #0]
 8003f52:	f023 02f8 	bic.w	r2, r3, #248	; 0xf8
 8003f56:	687b      	ldr	r3, [r7, #4]
 8003f58:	691b      	ldr	r3, [r3, #16]
 8003f5a:	00db      	lsls	r3, r3, #3
 8003f5c:	4937      	ldr	r1, [pc, #220]	; (800403c <HAL_RCC_OscConfig+0x240>)
 8003f5e:	4313      	orrs	r3, r2
 8003f60:	600b      	str	r3, [r1, #0]
      if ((__HAL_RCC_GET_FLAG(RCC_FLAG_HSIRDY) != RESET) && (RCC_OscInitStruct->HSIState != RCC_HSI_ON))
 8003f62:	e03a      	b.n	8003fda <HAL_RCC_OscConfig+0x1de>
      }
    }
    else
    {
      /* Check the HSI State */
      if ((RCC_OscInitStruct->HSIState) != RCC_HSI_OFF)
 8003f64:	687b      	ldr	r3, [r7, #4]
 8003f66:	68db      	ldr	r3, [r3, #12]
 8003f68:	2b00      	cmp	r3, #0
 8003f6a:	d020      	beq.n	8003fae <HAL_RCC_OscConfig+0x1b2>
      {
        /* Enable the Internal High Speed oscillator (HSI). */
        __HAL_RCC_HSI_ENABLE();
 8003f6c:	4b34      	ldr	r3, [pc, #208]	; (8004040 <HAL_RCC_OscConfig+0x244>)
 8003f6e:	2201      	movs	r2, #1
 8003f70:	601a      	str	r2, [r3, #0]

        /* Get Start Tick*/
        tickstart = HAL_GetTick();
 8003f72:	f7fd ffd5 	bl	8001f20 <HAL_GetTick>
 8003f76:	6138      	str	r0, [r7, #16]

        /* Wait till HSI is ready */
        while (__HAL_RCC_GET_FLAG(RCC_FLAG_HSIRDY) == RESET)
 8003f78:	e008      	b.n	8003f8c <HAL_RCC_OscConfig+0x190>
        {
          if ((HAL_GetTick() - tickstart) > HSI_TIMEOUT_VALUE)
 8003f7a:	f7fd ffd1 	bl	8001f20 <HAL_GetTick>
 8003f7e:	4602      	mov	r2, r0
 8003f80:	693b      	ldr	r3, [r7, #16]
 8003f82:	1ad3      	subs	r3, r2, r3
 8003f84:	2b02      	cmp	r3, #2
 8003f86:	d901      	bls.n	8003f8c <HAL_RCC_OscConfig+0x190>
          {
            return HAL_TIMEOUT;
 8003f88:	2303      	movs	r3, #3
 8003f8a:	e1a8      	b.n	80042de <HAL_RCC_OscConfig+0x4e2>
        while (__HAL_RCC_GET_FLAG(RCC_FLAG_HSIRDY) == RESET)
 8003f8c:	4b2b      	ldr	r3, [pc, #172]	; (800403c <HAL_RCC_OscConfig+0x240>)
 8003f8e:	681b      	ldr	r3, [r3, #0]
 8003f90:	f003 0302 	and.w	r3, r3, #2
 8003f94:	2b00      	cmp	r3, #0
 8003f96:	d0f0      	beq.n	8003f7a <HAL_RCC_OscConfig+0x17e>
          }
        }

        /* Adjusts the Internal High Speed oscillator (HSI) calibration value. */
        __HAL_RCC_HSI_CALIBRATIONVALUE_ADJUST(RCC_OscInitStruct->HSICalibrationValue);
 8003f98:	4b28      	ldr	r3, [pc, #160]	; (800403c <HAL_RCC_OscConfig+0x240>)
 8003f9a:	681b      	ldr	r3, [r3, #0]
 8003f9c:	f023 02f8 	bic.w	r2, r3, #248	; 0xf8
 8003fa0:	687b      	ldr	r3, [r7, #4]
 8003fa2:	691b      	ldr	r3, [r3, #16]
 8003fa4:	00db      	lsls	r3, r3, #3
 8003fa6:	4925      	ldr	r1, [pc, #148]	; (800403c <HAL_RCC_OscConfig+0x240>)
 8003fa8:	4313      	orrs	r3, r2
 8003faa:	600b      	str	r3, [r1, #0]
 8003fac:	e015      	b.n	8003fda <HAL_RCC_OscConfig+0x1de>
      }
      else
      {
        /* Disable the Internal High Speed oscillator (HSI). */
        __HAL_RCC_HSI_DISABLE();
 8003fae:	4b24      	ldr	r3, [pc, #144]	; (8004040 <HAL_RCC_OscConfig+0x244>)
 8003fb0:	2200      	movs	r2, #0
 8003fb2:	601a      	str	r2, [r3, #0]

        /* Get Start Tick*/
        tickstart = HAL_GetTick();
 8003fb4:	f7fd ffb4 	bl	8001f20 <HAL_GetTick>
 8003fb8:	6138      	str	r0, [r7, #16]

        /* Wait till HSI is ready */
        while (__HAL_RCC_GET_FLAG(RCC_FLAG_HSIRDY) != RESET)
 8003fba:	e008      	b.n	8003fce <HAL_RCC_OscConfig+0x1d2>
        {
          if ((HAL_GetTick() - tickstart) > HSI_TIMEOUT_VALUE)
 8003fbc:	f7fd ffb0 	bl	8001f20 <HAL_GetTick>
 8003fc0:	4602      	mov	r2, r0
 8003fc2:	693b      	ldr	r3, [r7, #16]
 8003fc4:	1ad3      	subs	r3, r2, r3
 8003fc6:	2b02      	cmp	r3, #2
 8003fc8:	d901      	bls.n	8003fce <HAL_RCC_OscConfig+0x1d2>
          {
            return HAL_TIMEOUT;
 8003fca:	2303      	movs	r3, #3
 8003fcc:	e187      	b.n	80042de <HAL_RCC_OscConfig+0x4e2>
        while (__HAL_RCC_GET_FLAG(RCC_FLAG_HSIRDY) != RESET)
 8003fce:	4b1b      	ldr	r3, [pc, #108]	; (800403c <HAL_RCC_OscConfig+0x240>)
 8003fd0:	681b      	ldr	r3, [r3, #0]
 8003fd2:	f003 0302 	and.w	r3, r3, #2
 8003fd6:	2b00      	cmp	r3, #0
 8003fd8:	d1f0      	bne.n	8003fbc <HAL_RCC_OscConfig+0x1c0>
        }
      }
    }
  }
  /*------------------------------ LSI Configuration -------------------------*/
  if (((RCC_OscInitStruct->OscillatorType) & RCC_OSCILLATORTYPE_LSI) == RCC_OSCILLATORTYPE_LSI)
 8003fda:	687b      	ldr	r3, [r7, #4]
 8003fdc:	681b      	ldr	r3, [r3, #0]
 8003fde:	f003 0308 	and.w	r3, r3, #8
 8003fe2:	2b00      	cmp	r3, #0
 8003fe4:	d036      	beq.n	8004054 <HAL_RCC_OscConfig+0x258>
  {
    /* Check the parameters */
    assert_param(IS_RCC_LSI(RCC_OscInitStruct->LSIState));

    /* Check the LSI State */
    if ((RCC_OscInitStruct->LSIState) != RCC_LSI_OFF)
 8003fe6:	687b      	ldr	r3, [r7, #4]
 8003fe8:	695b      	ldr	r3, [r3, #20]
 8003fea:	2b00      	cmp	r3, #0
 8003fec:	d016      	beq.n	800401c <HAL_RCC_OscConfig+0x220>
    {
      /* Enable the Internal Low Speed oscillator (LSI). */
      __HAL_RCC_LSI_ENABLE();
 8003fee:	4b15      	ldr	r3, [pc, #84]	; (8004044 <HAL_RCC_OscConfig+0x248>)
 8003ff0:	2201      	movs	r2, #1
 8003ff2:	601a      	str	r2, [r3, #0]

      /* Get Start Tick*/
      tickstart = HAL_GetTick();
 8003ff4:	f7fd ff94 	bl	8001f20 <HAL_GetTick>
 8003ff8:	6138      	str	r0, [r7, #16]

      /* Wait till LSI is ready */
      while (__HAL_RCC_GET_FLAG(RCC_FLAG_LSIRDY) == RESET)
 8003ffa:	e008      	b.n	800400e <HAL_RCC_OscConfig+0x212>
      {
        if ((HAL_GetTick() - tickstart) > LSI_TIMEOUT_VALUE)
 8003ffc:	f7fd ff90 	bl	8001f20 <HAL_GetTick>
 8004000:	4602      	mov	r2, r0
 8004002:	693b      	ldr	r3, [r7, #16]
 8004004:	1ad3      	subs	r3, r2, r3
 8004006:	2b02      	cmp	r3, #2
 8004008:	d901      	bls.n	800400e <HAL_RCC_OscConfig+0x212>
        {
          return HAL_TIMEOUT;
 800400a:	2303      	movs	r3, #3
 800400c:	e167      	b.n	80042de <HAL_RCC_OscConfig+0x4e2>
      while (__HAL_RCC_GET_FLAG(RCC_FLAG_LSIRDY) == RESET)
 800400e:	4b0b      	ldr	r3, [pc, #44]	; (800403c <HAL_RCC_OscConfig+0x240>)
 8004010:	6f5b      	ldr	r3, [r3, #116]	; 0x74
 8004012:	f003 0302 	and.w	r3, r3, #2
 8004016:	2b00      	cmp	r3, #0
 8004018:	d0f0      	beq.n	8003ffc <HAL_RCC_OscConfig+0x200>
 800401a:	e01b      	b.n	8004054 <HAL_RCC_OscConfig+0x258>
      }
    }
    else
    {
      /* Disable the Internal Low Speed oscillator (LSI). */
      __HAL_RCC_LSI_DISABLE();
 800401c:	4b09      	ldr	r3, [pc, #36]	; (8004044 <HAL_RCC_OscConfig+0x248>)
 800401e:	2200      	movs	r2, #0
 8004020:	601a      	str	r2, [r3, #0]

      /* Get Start Tick */
      tickstart = HAL_GetTick();
 8004022:	f7fd ff7d 	bl	8001f20 <HAL_GetTick>
 8004026:	6138      	str	r0, [r7, #16]

      /* Wait till LSI is ready */
      while (__HAL_RCC_GET_FLAG(RCC_FLAG_LSIRDY) != RESET)
 8004028:	e00e      	b.n	8004048 <HAL_RCC_OscConfig+0x24c>
      {
        if ((HAL_GetTick() - tickstart) > LSI_TIMEOUT_VALUE)
 800402a:	f7fd ff79 	bl	8001f20 <HAL_GetTick>
 800402e:	4602      	mov	r2, r0
 8004030:	693b      	ldr	r3, [r7, #16]
 8004032:	1ad3      	subs	r3, r2, r3
 8004034:	2b02      	cmp	r3, #2
 8004036:	d907      	bls.n	8004048 <HAL_RCC_OscConfig+0x24c>
        {
          return HAL_TIMEOUT;
 8004038:	2303      	movs	r3, #3
 800403a:	e150      	b.n	80042de <HAL_RCC_OscConfig+0x4e2>
 800403c:	40023800 	.word	0x40023800
 8004040:	42470000 	.word	0x42470000
 8004044:	42470e80 	.word	0x42470e80
      while (__HAL_RCC_GET_FLAG(RCC_FLAG_LSIRDY) != RESET)
 8004048:	4b88      	ldr	r3, [pc, #544]	; (800426c <HAL_RCC_OscConfig+0x470>)
 800404a:	6f5b      	ldr	r3, [r3, #116]	; 0x74
 800404c:	f003 0302 	and.w	r3, r3, #2
 8004050:	2b00      	cmp	r3, #0
 8004052:	d1ea      	bne.n	800402a <HAL_RCC_OscConfig+0x22e>
        }
      }
    }
  }
  /*------------------------------ LSE Configuration -------------------------*/
  if (((RCC_OscInitStruct->OscillatorType) & RCC_OSCILLATORTYPE_LSE) == RCC_OSCILLATORTYPE_LSE)
 8004054:	687b      	ldr	r3, [r7, #4]
 8004056:	681b      	ldr	r3, [r3, #0]
 8004058:	f003 0304 	and.w	r3, r3, #4
 800405c:	2b00      	cmp	r3, #0
 800405e:	f000 8097 	beq.w	8004190 <HAL_RCC_OscConfig+0x394>
  {
    FlagStatus       pwrclkchanged = RESET;
 8004062:	2300      	movs	r3, #0
 8004064:	75fb      	strb	r3, [r7, #23]
    /* Check the parameters */
    assert_param(IS_RCC_LSE(RCC_OscInitStruct->LSEState));

    /* Update LSE configuration in Backup Domain control register    */
    /* Requires to enable write access to Backup Domain of necessary */
    if (__HAL_RCC_PWR_IS_CLK_DISABLED())
 8004066:	4b81      	ldr	r3, [pc, #516]	; (800426c <HAL_RCC_OscConfig+0x470>)
 8004068:	6c1b      	ldr	r3, [r3, #64]	; 0x40
 800406a:	f003 5380 	and.w	r3, r3, #268435456	; 0x10000000
 800406e:	2b00      	cmp	r3, #0
 8004070:	d10f      	bne.n	8004092 <HAL_RCC_OscConfig+0x296>
    {
      __HAL_RCC_PWR_CLK_ENABLE();
 8004072:	2300      	movs	r3, #0
 8004074:	60bb      	str	r3, [r7, #8]
 8004076:	4b7d      	ldr	r3, [pc, #500]	; (800426c <HAL_RCC_OscConfig+0x470>)
 8004078:	6c1b      	ldr	r3, [r3, #64]	; 0x40
 800407a:	4a7c      	ldr	r2, [pc, #496]	; (800426c <HAL_RCC_OscConfig+0x470>)
 800407c:	f043 5380 	orr.w	r3, r3, #268435456	; 0x10000000
 8004080:	6413      	str	r3, [r2, #64]	; 0x40
 8004082:	4b7a      	ldr	r3, [pc, #488]	; (800426c <HAL_RCC_OscConfig+0x470>)
 8004084:	6c1b      	ldr	r3, [r3, #64]	; 0x40
 8004086:	f003 5380 	and.w	r3, r3, #268435456	; 0x10000000
 800408a:	60bb      	str	r3, [r7, #8]
 800408c:	68bb      	ldr	r3, [r7, #8]
      pwrclkchanged = SET;
 800408e:	2301      	movs	r3, #1
 8004090:	75fb      	strb	r3, [r7, #23]
    }

    if (HAL_IS_BIT_CLR(PWR->CR, PWR_CR_DBP))
 8004092:	4b77      	ldr	r3, [pc, #476]	; (8004270 <HAL_RCC_OscConfig+0x474>)
 8004094:	681b      	ldr	r3, [r3, #0]
 8004096:	f403 7380 	and.w	r3, r3, #256	; 0x100
 800409a:	2b00      	cmp	r3, #0
 800409c:	d118      	bne.n	80040d0 <HAL_RCC_OscConfig+0x2d4>
    {
      /* Enable write access to Backup domain */
      SET_BIT(PWR->CR, PWR_CR_DBP);
 800409e:	4b74      	ldr	r3, [pc, #464]	; (8004270 <HAL_RCC_OscConfig+0x474>)
 80040a0:	681b      	ldr	r3, [r3, #0]
 80040a2:	4a73      	ldr	r2, [pc, #460]	; (8004270 <HAL_RCC_OscConfig+0x474>)
 80040a4:	f443 7380 	orr.w	r3, r3, #256	; 0x100
 80040a8:	6013      	str	r3, [r2, #0]

      /* Wait for Backup domain Write protection disable */
      tickstart = HAL_GetTick();
 80040aa:	f7fd ff39 	bl	8001f20 <HAL_GetTick>
 80040ae:	6138      	str	r0, [r7, #16]

      while (HAL_IS_BIT_CLR(PWR->CR, PWR_CR_DBP))
 80040b0:	e008      	b.n	80040c4 <HAL_RCC_OscConfig+0x2c8>
      {
        if ((HAL_GetTick() - tickstart) > RCC_DBP_TIMEOUT_VALUE)
 80040b2:	f7fd ff35 	bl	8001f20 <HAL_GetTick>
 80040b6:	4602      	mov	r2, r0
 80040b8:	693b      	ldr	r3, [r7, #16]
 80040ba:	1ad3      	subs	r3, r2, r3
 80040bc:	2b02      	cmp	r3, #2
 80040be:	d901      	bls.n	80040c4 <HAL_RCC_OscConfig+0x2c8>
        {
          return HAL_TIMEOUT;
 80040c0:	2303      	movs	r3, #3
 80040c2:	e10c      	b.n	80042de <HAL_RCC_OscConfig+0x4e2>
      while (HAL_IS_BIT_CLR(PWR->CR, PWR_CR_DBP))
 80040c4:	4b6a      	ldr	r3, [pc, #424]	; (8004270 <HAL_RCC_OscConfig+0x474>)
 80040c6:	681b      	ldr	r3, [r3, #0]
 80040c8:	f403 7380 	and.w	r3, r3, #256	; 0x100
 80040cc:	2b00      	cmp	r3, #0
 80040ce:	d0f0      	beq.n	80040b2 <HAL_RCC_OscConfig+0x2b6>
        }
      }
    }

    /* Set the new LSE configuration -----------------------------------------*/
    __HAL_RCC_LSE_CONFIG(RCC_OscInitStruct->LSEState);
 80040d0:	687b      	ldr	r3, [r7, #4]
 80040d2:	689b      	ldr	r3, [r3, #8]
 80040d4:	2b01      	cmp	r3, #1
 80040d6:	d106      	bne.n	80040e6 <HAL_RCC_OscConfig+0x2ea>
 80040d8:	4b64      	ldr	r3, [pc, #400]	; (800426c <HAL_RCC_OscConfig+0x470>)
 80040da:	6f1b      	ldr	r3, [r3, #112]	; 0x70
 80040dc:	4a63      	ldr	r2, [pc, #396]	; (800426c <HAL_RCC_OscConfig+0x470>)
 80040de:	f043 0301 	orr.w	r3, r3, #1
 80040e2:	6713      	str	r3, [r2, #112]	; 0x70
 80040e4:	e01c      	b.n	8004120 <HAL_RCC_OscConfig+0x324>
 80040e6:	687b      	ldr	r3, [r7, #4]
 80040e8:	689b      	ldr	r3, [r3, #8]
 80040ea:	2b05      	cmp	r3, #5
 80040ec:	d10c      	bne.n	8004108 <HAL_RCC_OscConfig+0x30c>
 80040ee:	4b5f      	ldr	r3, [pc, #380]	; (800426c <HAL_RCC_OscConfig+0x470>)
 80040f0:	6f1b      	ldr	r3, [r3, #112]	; 0x70
 80040f2:	4a5e      	ldr	r2, [pc, #376]	; (800426c <HAL_RCC_OscConfig+0x470>)
 80040f4:	f043 0304 	orr.w	r3, r3, #4
 80040f8:	6713      	str	r3, [r2, #112]	; 0x70
 80040fa:	4b5c      	ldr	r3, [pc, #368]	; (800426c <HAL_RCC_OscConfig+0x470>)
 80040fc:	6f1b      	ldr	r3, [r3, #112]	; 0x70
 80040fe:	4a5b      	ldr	r2, [pc, #364]	; (800426c <HAL_RCC_OscConfig+0x470>)
 8004100:	f043 0301 	orr.w	r3, r3, #1
 8004104:	6713      	str	r3, [r2, #112]	; 0x70
 8004106:	e00b      	b.n	8004120 <HAL_RCC_OscConfig+0x324>
 8004108:	4b58      	ldr	r3, [pc, #352]	; (800426c <HAL_RCC_OscConfig+0x470>)
 800410a:	6f1b      	ldr	r3, [r3, #112]	; 0x70
 800410c:	4a57      	ldr	r2, [pc, #348]	; (800426c <HAL_RCC_OscConfig+0x470>)
 800410e:	f023 0301 	bic.w	r3, r3, #1
 8004112:	6713      	str	r3, [r2, #112]	; 0x70
 8004114:	4b55      	ldr	r3, [pc, #340]	; (800426c <HAL_RCC_OscConfig+0x470>)
 8004116:	6f1b      	ldr	r3, [r3, #112]	; 0x70
 8004118:	4a54      	ldr	r2, [pc, #336]	; (800426c <HAL_RCC_OscConfig+0x470>)
 800411a:	f023 0304 	bic.w	r3, r3, #4
 800411e:	6713      	str	r3, [r2, #112]	; 0x70
    /* Check the LSE State */
    if ((RCC_OscInitStruct->LSEState) != RCC_LSE_OFF)
 8004120:	687b      	ldr	r3, [r7, #4]
 8004122:	689b      	ldr	r3, [r3, #8]
 8004124:	2b00      	cmp	r3, #0
 8004126:	d015      	beq.n	8004154 <HAL_RCC_OscConfig+0x358>
    {
      /* Get Start Tick*/
      tickstart = HAL_GetTick();
 8004128:	f7fd fefa 	bl	8001f20 <HAL_GetTick>
 800412c:	6138      	str	r0, [r7, #16]

      /* Wait till LSE is ready */
      while (__HAL_RCC_GET_FLAG(RCC_FLAG_LSERDY) == RESET)
 800412e:	e00a      	b.n	8004146 <HAL_RCC_OscConfig+0x34a>
      {
        if ((HAL_GetTick() - tickstart) > RCC_LSE_TIMEOUT_VALUE)
 8004130:	f7fd fef6 	bl	8001f20 <HAL_GetTick>
 8004134:	4602      	mov	r2, r0
 8004136:	693b      	ldr	r3, [r7, #16]
 8004138:	1ad3      	subs	r3, r2, r3
 800413a:	f241 3288 	movw	r2, #5000	; 0x1388
 800413e:	4293      	cmp	r3, r2
 8004140:	d901      	bls.n	8004146 <HAL_RCC_OscConfig+0x34a>
        {
          return HAL_TIMEOUT;
 8004142:	2303      	movs	r3, #3
 8004144:	e0cb      	b.n	80042de <HAL_RCC_OscConfig+0x4e2>
      while (__HAL_RCC_GET_FLAG(RCC_FLAG_LSERDY) == RESET)
 8004146:	4b49      	ldr	r3, [pc, #292]	; (800426c <HAL_RCC_OscConfig+0x470>)
 8004148:	6f1b      	ldr	r3, [r3, #112]	; 0x70
 800414a:	f003 0302 	and.w	r3, r3, #2
 800414e:	2b00      	cmp	r3, #0
 8004150:	d0ee      	beq.n	8004130 <HAL_RCC_OscConfig+0x334>
 8004152:	e014      	b.n	800417e <HAL_RCC_OscConfig+0x382>
      }
    }
    else
    {
      /* Get Start Tick */
      tickstart = HAL_GetTick();
 8004154:	f7fd fee4 	bl	8001f20 <HAL_GetTick>
 8004158:	6138      	str	r0, [r7, #16]

      /* Wait till LSE is ready */
      while (__HAL_RCC_GET_FLAG(RCC_FLAG_LSERDY) != RESET)
 800415a:	e00a      	b.n	8004172 <HAL_RCC_OscConfig+0x376>
      {
        if ((HAL_GetTick() - tickstart) > RCC_LSE_TIMEOUT_VALUE)
 800415c:	f7fd fee0 	bl	8001f20 <HAL_GetTick>
 8004160:	4602      	mov	r2, r0
 8004162:	693b      	ldr	r3, [r7, #16]
 8004164:	1ad3      	subs	r3, r2, r3
 8004166:	f241 3288 	movw	r2, #5000	; 0x1388
 800416a:	4293      	cmp	r3, r2
 800416c:	d901      	bls.n	8004172 <HAL_RCC_OscConfig+0x376>
        {
          return HAL_TIMEOUT;
 800416e:	2303      	movs	r3, #3
 8004170:	e0b5      	b.n	80042de <HAL_RCC_OscConfig+0x4e2>
      while (__HAL_RCC_GET_FLAG(RCC_FLAG_LSERDY) != RESET)
 8004172:	4b3e      	ldr	r3, [pc, #248]	; (800426c <HAL_RCC_OscConfig+0x470>)
 8004174:	6f1b      	ldr	r3, [r3, #112]	; 0x70
 8004176:	f003 0302 	and.w	r3, r3, #2
 800417a:	2b00      	cmp	r3, #0
 800417c:	d1ee      	bne.n	800415c <HAL_RCC_OscConfig+0x360>
        }
      }
    }

    /* Restore clock configuration if changed */
    if (pwrclkchanged == SET)
 800417e:	7dfb      	ldrb	r3, [r7, #23]
 8004180:	2b01      	cmp	r3, #1
 8004182:	d105      	bne.n	8004190 <HAL_RCC_OscConfig+0x394>
    {
      __HAL_RCC_PWR_CLK_DISABLE();
 8004184:	4b39      	ldr	r3, [pc, #228]	; (800426c <HAL_RCC_OscConfig+0x470>)
 8004186:	6c1b      	ldr	r3, [r3, #64]	; 0x40
 8004188:	4a38      	ldr	r2, [pc, #224]	; (800426c <HAL_RCC_OscConfig+0x470>)
 800418a:	f023 5380 	bic.w	r3, r3, #268435456	; 0x10000000
 800418e:	6413      	str	r3, [r2, #64]	; 0x40
    }
  }
  /*-------------------------------- PLL Configuration -----------------------*/
  /* Check the parameters */
  assert_param(IS_RCC_PLL(RCC_OscInitStruct->PLL.PLLState));
  if ((RCC_OscInitStruct->PLL.PLLState) != RCC_PLL_NONE)
 8004190:	687b      	ldr	r3, [r7, #4]
 8004192:	699b      	ldr	r3, [r3, #24]
 8004194:	2b00      	cmp	r3, #0
 8004196:	f000 80a1 	beq.w	80042dc <HAL_RCC_OscConfig+0x4e0>
  {
    /* Check if the PLL is used as system clock or not */
    if (__HAL_RCC_GET_SYSCLK_SOURCE() != RCC_CFGR_SWS_PLL)
 800419a:	4b34      	ldr	r3, [pc, #208]	; (800426c <HAL_RCC_OscConfig+0x470>)
 800419c:	689b      	ldr	r3, [r3, #8]
 800419e:	f003 030c 	and.w	r3, r3, #12
 80041a2:	2b08      	cmp	r3, #8
 80041a4:	d05c      	beq.n	8004260 <HAL_RCC_OscConfig+0x464>
    {
      if ((RCC_OscInitStruct->PLL.PLLState) == RCC_PLL_ON)
 80041a6:	687b      	ldr	r3, [r7, #4]
 80041a8:	699b      	ldr	r3, [r3, #24]
 80041aa:	2b02      	cmp	r3, #2
 80041ac:	d141      	bne.n	8004232 <HAL_RCC_OscConfig+0x436>
        assert_param(IS_RCC_PLLN_VALUE(RCC_OscInitStruct->PLL.PLLN));
        assert_param(IS_RCC_PLLP_VALUE(RCC_OscInitStruct->PLL.PLLP));
        assert_param(IS_RCC_PLLQ_VALUE(RCC_OscInitStruct->PLL.PLLQ));

        /* Disable the main PLL. */
        __HAL_RCC_PLL_DISABLE();
 80041ae:	4b31      	ldr	r3, [pc, #196]	; (8004274 <HAL_RCC_OscConfig+0x478>)
 80041b0:	2200      	movs	r2, #0
 80041b2:	601a      	str	r2, [r3, #0]

        /* Get Start Tick */
        tickstart = HAL_GetTick();
 80041b4:	f7fd feb4 	bl	8001f20 <HAL_GetTick>
 80041b8:	6138      	str	r0, [r7, #16]

        /* Wait till PLL is disabled */
        while (__HAL_RCC_GET_FLAG(RCC_FLAG_PLLRDY) != RESET)
 80041ba:	e008      	b.n	80041ce <HAL_RCC_OscConfig+0x3d2>
        {
          if ((HAL_GetTick() - tickstart) > PLL_TIMEOUT_VALUE)
 80041bc:	f7fd feb0 	bl	8001f20 <HAL_GetTick>
 80041c0:	4602      	mov	r2, r0
 80041c2:	693b      	ldr	r3, [r7, #16]
 80041c4:	1ad3      	subs	r3, r2, r3
 80041c6:	2b02      	cmp	r3, #2
 80041c8:	d901      	bls.n	80041ce <HAL_RCC_OscConfig+0x3d2>
          {
            return HAL_TIMEOUT;
 80041ca:	2303      	movs	r3, #3
 80041cc:	e087      	b.n	80042de <HAL_RCC_OscConfig+0x4e2>
        while (__HAL_RCC_GET_FLAG(RCC_FLAG_PLLRDY) != RESET)
 80041ce:	4b27      	ldr	r3, [pc, #156]	; (800426c <HAL_RCC_OscConfig+0x470>)
 80041d0:	681b      	ldr	r3, [r3, #0]
 80041d2:	f003 7300 	and.w	r3, r3, #33554432	; 0x2000000
 80041d6:	2b00      	cmp	r3, #0
 80041d8:	d1f0      	bne.n	80041bc <HAL_RCC_OscConfig+0x3c0>
          }
        }

        /* Configure the main PLL clock source, multiplication and division factors. */
        WRITE_REG(RCC->PLLCFGR, (RCC_OscInitStruct->PLL.PLLSource                                            | \
 80041da:	687b      	ldr	r3, [r7, #4]
 80041dc:	69da      	ldr	r2, [r3, #28]
 80041de:	687b      	ldr	r3, [r7, #4]
 80041e0:	6a1b      	ldr	r3, [r3, #32]
 80041e2:	431a      	orrs	r2, r3
 80041e4:	687b      	ldr	r3, [r7, #4]
 80041e6:	6a5b      	ldr	r3, [r3, #36]	; 0x24
 80041e8:	019b      	lsls	r3, r3, #6
 80041ea:	431a      	orrs	r2, r3
 80041ec:	687b      	ldr	r3, [r7, #4]
 80041ee:	6a9b      	ldr	r3, [r3, #40]	; 0x28
 80041f0:	085b      	lsrs	r3, r3, #1
 80041f2:	3b01      	subs	r3, #1
 80041f4:	041b      	lsls	r3, r3, #16
 80041f6:	431a      	orrs	r2, r3
 80041f8:	687b      	ldr	r3, [r7, #4]
 80041fa:	6adb      	ldr	r3, [r3, #44]	; 0x2c
 80041fc:	061b      	lsls	r3, r3, #24
 80041fe:	491b      	ldr	r1, [pc, #108]	; (800426c <HAL_RCC_OscConfig+0x470>)
 8004200:	4313      	orrs	r3, r2
 8004202:	604b      	str	r3, [r1, #4]
                                 RCC_OscInitStruct->PLL.PLLM                                                 | \
                                 (RCC_OscInitStruct->PLL.PLLN << RCC_PLLCFGR_PLLN_Pos)             | \
                                 (((RCC_OscInitStruct->PLL.PLLP >> 1U) - 1U) << RCC_PLLCFGR_PLLP_Pos) | \
                                 (RCC_OscInitStruct->PLL.PLLQ << RCC_PLLCFGR_PLLQ_Pos)));
        /* Enable the main PLL. */
        __HAL_RCC_PLL_ENABLE();
 8004204:	4b1b      	ldr	r3, [pc, #108]	; (8004274 <HAL_RCC_OscConfig+0x478>)
 8004206:	2201      	movs	r2, #1
 8004208:	601a      	str	r2, [r3, #0]

        /* Get Start Tick */
        tickstart = HAL_GetTick();
 800420a:	f7fd fe89 	bl	8001f20 <HAL_GetTick>
 800420e:	6138      	str	r0, [r7, #16]

        /* Wait till PLL is ready */
        while (__HAL_RCC_GET_FLAG(RCC_FLAG_PLLRDY) == RESET)
 8004210:	e008      	b.n	8004224 <HAL_RCC_OscConfig+0x428>
        {
          if ((HAL_GetTick() - tickstart) > PLL_TIMEOUT_VALUE)
 8004212:	f7fd fe85 	bl	8001f20 <HAL_GetTick>
 8004216:	4602      	mov	r2, r0
 8004218:	693b      	ldr	r3, [r7, #16]
 800421a:	1ad3      	subs	r3, r2, r3
 800421c:	2b02      	cmp	r3, #2
 800421e:	d901      	bls.n	8004224 <HAL_RCC_OscConfig+0x428>
          {
            return HAL_TIMEOUT;
 8004220:	2303      	movs	r3, #3
 8004222:	e05c      	b.n	80042de <HAL_RCC_OscConfig+0x4e2>
        while (__HAL_RCC_GET_FLAG(RCC_FLAG_PLLRDY) == RESET)
 8004224:	4b11      	ldr	r3, [pc, #68]	; (800426c <HAL_RCC_OscConfig+0x470>)
 8004226:	681b      	ldr	r3, [r3, #0]
 8004228:	f003 7300 	and.w	r3, r3, #33554432	; 0x2000000
 800422c:	2b00      	cmp	r3, #0
 800422e:	d0f0      	beq.n	8004212 <HAL_RCC_OscConfig+0x416>
 8004230:	e054      	b.n	80042dc <HAL_RCC_OscConfig+0x4e0>
        }
      }
      else
      {
        /* Disable the main PLL. */
        __HAL_RCC_PLL_DISABLE();
 8004232:	4b10      	ldr	r3, [pc, #64]	; (8004274 <HAL_RCC_OscConfig+0x478>)
 8004234:	2200      	movs	r2, #0
 8004236:	601a      	str	r2, [r3, #0]

        /* Get Start Tick */
        tickstart = HAL_GetTick();
 8004238:	f7fd fe72 	bl	8001f20 <HAL_GetTick>
 800423c:	6138      	str	r0, [r7, #16]

        /* Wait till PLL is disabled */
        while (__HAL_RCC_GET_FLAG(RCC_FLAG_PLLRDY) != RESET)
 800423e:	e008      	b.n	8004252 <HAL_RCC_OscConfig+0x456>
        {
          if ((HAL_GetTick() - tickstart) > PLL_TIMEOUT_VALUE)
 8004240:	f7fd fe6e 	bl	8001f20 <HAL_GetTick>
 8004244:	4602      	mov	r2, r0
 8004246:	693b      	ldr	r3, [r7, #16]
 8004248:	1ad3      	subs	r3, r2, r3
 800424a:	2b02      	cmp	r3, #2
 800424c:	d901      	bls.n	8004252 <HAL_RCC_OscConfig+0x456>
          {
            return HAL_TIMEOUT;
 800424e:	2303      	movs	r3, #3
 8004250:	e045      	b.n	80042de <HAL_RCC_OscConfig+0x4e2>
        while (__HAL_RCC_GET_FLAG(RCC_FLAG_PLLRDY) != RESET)
 8004252:	4b06      	ldr	r3, [pc, #24]	; (800426c <HAL_RCC_OscConfig+0x470>)
 8004254:	681b      	ldr	r3, [r3, #0]
 8004256:	f003 7300 	and.w	r3, r3, #33554432	; 0x2000000
 800425a:	2b00      	cmp	r3, #0
 800425c:	d1f0      	bne.n	8004240 <HAL_RCC_OscConfig+0x444>
 800425e:	e03d      	b.n	80042dc <HAL_RCC_OscConfig+0x4e0>
      }
    }
    else
    {
      /* Check if there is a request to disable the PLL used as System clock source */
      if ((RCC_OscInitStruct->PLL.PLLState) == RCC_PLL_OFF)
 8004260:	687b      	ldr	r3, [r7, #4]
 8004262:	699b      	ldr	r3, [r3, #24]
 8004264:	2b01      	cmp	r3, #1
 8004266:	d107      	bne.n	8004278 <HAL_RCC_OscConfig+0x47c>
      {
        return HAL_ERROR;
 8004268:	2301      	movs	r3, #1
 800426a:	e038      	b.n	80042de <HAL_RCC_OscConfig+0x4e2>
 800426c:	40023800 	.word	0x40023800
 8004270:	40007000 	.word	0x40007000
 8004274:	42470060 	.word	0x42470060
      }
      else
      {
        /* Do not return HAL_ERROR if request repeats the current configuration */
        pll_config = RCC->PLLCFGR;
 8004278:	4b1b      	ldr	r3, [pc, #108]	; (80042e8 <HAL_RCC_OscConfig+0x4ec>)
 800427a:	685b      	ldr	r3, [r3, #4]
 800427c:	60fb      	str	r3, [r7, #12]
            (READ_BIT(pll_config, RCC_PLLCFGR_PLLN) != (RCC_OscInitStruct->PLL.PLLN) << RCC_PLLCFGR_PLLN_Pos) ||
            (READ_BIT(pll_config, RCC_PLLCFGR_PLLP) != (((RCC_OscInitStruct->PLL.PLLP >> 1U) - 1U)) << RCC_PLLCFGR_PLLP_Pos) ||
            (READ_BIT(pll_config, RCC_PLLCFGR_PLLQ) != (RCC_OscInitStruct->PLL.PLLQ << RCC_PLLCFGR_PLLQ_Pos)) ||
            (READ_BIT(pll_config, RCC_PLLCFGR_PLLR) != (RCC_OscInitStruct->PLL.PLLR << RCC_PLLCFGR_PLLR_Pos)))
#else
        if (((RCC_OscInitStruct->PLL.PLLState) == RCC_PLL_OFF) ||
 800427e:	687b      	ldr	r3, [r7, #4]
 8004280:	699b      	ldr	r3, [r3, #24]
 8004282:	2b01      	cmp	r3, #1
 8004284:	d028      	beq.n	80042d8 <HAL_RCC_OscConfig+0x4dc>
            (READ_BIT(pll_config, RCC_PLLCFGR_PLLSRC) != RCC_OscInitStruct->PLL.PLLSource) ||
 8004286:	68fb      	ldr	r3, [r7, #12]
 8004288:	f403 0280 	and.w	r2, r3, #4194304	; 0x400000
 800428c:	687b      	ldr	r3, [r7, #4]
 800428e:	69db      	ldr	r3, [r3, #28]
        if (((RCC_OscInitStruct->PLL.PLLState) == RCC_PLL_OFF) ||
 8004290:	429a      	cmp	r2, r3
 8004292:	d121      	bne.n	80042d8 <HAL_RCC_OscConfig+0x4dc>
            (READ_BIT(pll_config, RCC_PLLCFGR_PLLM) != (RCC_OscInitStruct->PLL.PLLM) << RCC_PLLCFGR_PLLM_Pos) ||
 8004294:	68fb      	ldr	r3, [r7, #12]
 8004296:	f003 023f 	and.w	r2, r3, #63	; 0x3f
 800429a:	687b      	ldr	r3, [r7, #4]
 800429c:	6a1b      	ldr	r3, [r3, #32]
            (READ_BIT(pll_config, RCC_PLLCFGR_PLLSRC) != RCC_OscInitStruct->PLL.PLLSource) ||
 800429e:	429a      	cmp	r2, r3
 80042a0:	d11a      	bne.n	80042d8 <HAL_RCC_OscConfig+0x4dc>
            (READ_BIT(pll_config, RCC_PLLCFGR_PLLN) != (RCC_OscInitStruct->PLL.PLLN) << RCC_PLLCFGR_PLLN_Pos) ||
 80042a2:	68fa      	ldr	r2, [r7, #12]
 80042a4:	f647 73c0 	movw	r3, #32704	; 0x7fc0
 80042a8:	4013      	ands	r3, r2
 80042aa:	687a      	ldr	r2, [r7, #4]
 80042ac:	6a52      	ldr	r2, [r2, #36]	; 0x24
 80042ae:	0192      	lsls	r2, r2, #6
            (READ_BIT(pll_config, RCC_PLLCFGR_PLLM) != (RCC_OscInitStruct->PLL.PLLM) << RCC_PLLCFGR_PLLM_Pos) ||
 80042b0:	4293      	cmp	r3, r2
 80042b2:	d111      	bne.n	80042d8 <HAL_RCC_OscConfig+0x4dc>
            (READ_BIT(pll_config, RCC_PLLCFGR_PLLP) != (((RCC_OscInitStruct->PLL.PLLP >> 1U) - 1U)) << RCC_PLLCFGR_PLLP_Pos) ||
 80042b4:	68fb      	ldr	r3, [r7, #12]
 80042b6:	f403 3240 	and.w	r2, r3, #196608	; 0x30000
 80042ba:	687b      	ldr	r3, [r7, #4]
 80042bc:	6a9b      	ldr	r3, [r3, #40]	; 0x28
 80042be:	085b      	lsrs	r3, r3, #1
 80042c0:	3b01      	subs	r3, #1
 80042c2:	041b      	lsls	r3, r3, #16
            (READ_BIT(pll_config, RCC_PLLCFGR_PLLN) != (RCC_OscInitStruct->PLL.PLLN) << RCC_PLLCFGR_PLLN_Pos) ||
 80042c4:	429a      	cmp	r2, r3
 80042c6:	d107      	bne.n	80042d8 <HAL_RCC_OscConfig+0x4dc>
            (READ_BIT(pll_config, RCC_PLLCFGR_PLLQ) != (RCC_OscInitStruct->PLL.PLLQ << RCC_PLLCFGR_PLLQ_Pos)))
 80042c8:	68fb      	ldr	r3, [r7, #12]
 80042ca:	f003 6270 	and.w	r2, r3, #251658240	; 0xf000000
 80042ce:	687b      	ldr	r3, [r7, #4]
 80042d0:	6adb      	ldr	r3, [r3, #44]	; 0x2c
 80042d2:	061b      	lsls	r3, r3, #24
            (READ_BIT(pll_config, RCC_PLLCFGR_PLLP) != (((RCC_OscInitStruct->PLL.PLLP >> 1U) - 1U)) << RCC_PLLCFGR_PLLP_Pos) ||
 80042d4:	429a      	cmp	r2, r3
 80042d6:	d001      	beq.n	80042dc <HAL_RCC_OscConfig+0x4e0>
#endif /* RCC_PLLCFGR_PLLR */
        {
          return HAL_ERROR;
 80042d8:	2301      	movs	r3, #1
 80042da:	e000      	b.n	80042de <HAL_RCC_OscConfig+0x4e2>
        }
      }
    }
  }
  return HAL_OK;
 80042dc:	2300      	movs	r3, #0
}
 80042de:	4618      	mov	r0, r3
 80042e0:	3718      	adds	r7, #24
 80042e2:	46bd      	mov	sp, r7
 80042e4:	bd80      	pop	{r7, pc}
 80042e6:	bf00      	nop
 80042e8:	40023800 	.word	0x40023800

080042ec <HAL_RCC_ClockConfig>:
  *         HPRE[3:0] bits to ensure that HCLK not exceed the maximum allowed frequency
  *         (for more details refer to section above "Initialization/de-initialization functions")
  * @retval None
  */
HAL_StatusTypeDef HAL_RCC_ClockConfig(RCC_ClkInitTypeDef  *RCC_ClkInitStruct, uint32_t FLatency)
{
 80042ec:	b580      	push	{r7, lr}
 80042ee:	b084      	sub	sp, #16
 80042f0:	af00      	add	r7, sp, #0
 80042f2:	6078      	str	r0, [r7, #4]
 80042f4:	6039      	str	r1, [r7, #0]
  uint32_t tickstart;

  /* Check Null pointer */
  if (RCC_ClkInitStruct == NULL)
 80042f6:	687b      	ldr	r3, [r7, #4]
 80042f8:	2b00      	cmp	r3, #0
 80042fa:	d101      	bne.n	8004300 <HAL_RCC_ClockConfig+0x14>
  {
    return HAL_ERROR;
 80042fc:	2301      	movs	r3, #1
 80042fe:	e0cc      	b.n	800449a <HAL_RCC_ClockConfig+0x1ae>
  /* To correctly read data from FLASH memory, the number of wait states (LATENCY)
    must be correctly programmed according to the frequency of the CPU clock
    (HCLK) and the supply voltage of the device. */

  /* Increasing the number of wait states because of higher CPU frequency */
  if (FLatency > __HAL_FLASH_GET_LATENCY())
 8004300:	4b68      	ldr	r3, [pc, #416]	; (80044a4 <HAL_RCC_ClockConfig+0x1b8>)
 8004302:	681b      	ldr	r3, [r3, #0]
 8004304:	f003 0307 	and.w	r3, r3, #7
 8004308:	683a      	ldr	r2, [r7, #0]
 800430a:	429a      	cmp	r2, r3
 800430c:	d90c      	bls.n	8004328 <HAL_RCC_ClockConfig+0x3c>
  {
    /* Program the new number of wait states to the LATENCY bits in the FLASH_ACR register */
    __HAL_FLASH_SET_LATENCY(FLatency);
 800430e:	4b65      	ldr	r3, [pc, #404]	; (80044a4 <HAL_RCC_ClockConfig+0x1b8>)
 8004310:	683a      	ldr	r2, [r7, #0]
 8004312:	b2d2      	uxtb	r2, r2
 8004314:	701a      	strb	r2, [r3, #0]

    /* Check that the new number of wait states is taken into account to access the Flash
    memory by reading the FLASH_ACR register */
    if (__HAL_FLASH_GET_LATENCY() != FLatency)
 8004316:	4b63      	ldr	r3, [pc, #396]	; (80044a4 <HAL_RCC_ClockConfig+0x1b8>)
 8004318:	681b      	ldr	r3, [r3, #0]
 800431a:	f003 0307 	and.w	r3, r3, #7
 800431e:	683a      	ldr	r2, [r7, #0]
 8004320:	429a      	cmp	r2, r3
 8004322:	d001      	beq.n	8004328 <HAL_RCC_ClockConfig+0x3c>
    {
      return HAL_ERROR;
 8004324:	2301      	movs	r3, #1
 8004326:	e0b8      	b.n	800449a <HAL_RCC_ClockConfig+0x1ae>
    }
  }

  /*-------------------------- HCLK Configuration --------------------------*/
  if (((RCC_ClkInitStruct->ClockType) & RCC_CLOCKTYPE_HCLK) == RCC_CLOCKTYPE_HCLK)
 8004328:	687b      	ldr	r3, [r7, #4]
 800432a:	681b      	ldr	r3, [r3, #0]
 800432c:	f003 0302 	and.w	r3, r3, #2
 8004330:	2b00      	cmp	r3, #0
 8004332:	d020      	beq.n	8004376 <HAL_RCC_ClockConfig+0x8a>
  {
    /* Set the highest APBx dividers in order to ensure that we do not go through
       a non-spec phase whatever we decrease or increase HCLK. */
    if (((RCC_ClkInitStruct->ClockType) & RCC_CLOCKTYPE_PCLK1) == RCC_CLOCKTYPE_PCLK1)
 8004334:	687b      	ldr	r3, [r7, #4]
 8004336:	681b      	ldr	r3, [r3, #0]
 8004338:	f003 0304 	and.w	r3, r3, #4
 800433c:	2b00      	cmp	r3, #0
 800433e:	d005      	beq.n	800434c <HAL_RCC_ClockConfig+0x60>
    {
      MODIFY_REG(RCC->CFGR, RCC_CFGR_PPRE1, RCC_HCLK_DIV16);
 8004340:	4b59      	ldr	r3, [pc, #356]	; (80044a8 <HAL_RCC_ClockConfig+0x1bc>)
 8004342:	689b      	ldr	r3, [r3, #8]
 8004344:	4a58      	ldr	r2, [pc, #352]	; (80044a8 <HAL_RCC_ClockConfig+0x1bc>)
 8004346:	f443 53e0 	orr.w	r3, r3, #7168	; 0x1c00
 800434a:	6093      	str	r3, [r2, #8]
    }

    if (((RCC_ClkInitStruct->ClockType) & RCC_CLOCKTYPE_PCLK2) == RCC_CLOCKTYPE_PCLK2)
 800434c:	687b      	ldr	r3, [r7, #4]
 800434e:	681b      	ldr	r3, [r3, #0]
 8004350:	f003 0308 	and.w	r3, r3, #8
 8004354:	2b00      	cmp	r3, #0
 8004356:	d005      	beq.n	8004364 <HAL_RCC_ClockConfig+0x78>
    {
      MODIFY_REG(RCC->CFGR, RCC_CFGR_PPRE2, (RCC_HCLK_DIV16 << 3));
 8004358:	4b53      	ldr	r3, [pc, #332]	; (80044a8 <HAL_RCC_ClockConfig+0x1bc>)
 800435a:	689b      	ldr	r3, [r3, #8]
 800435c:	4a52      	ldr	r2, [pc, #328]	; (80044a8 <HAL_RCC_ClockConfig+0x1bc>)
 800435e:	f443 4360 	orr.w	r3, r3, #57344	; 0xe000
 8004362:	6093      	str	r3, [r2, #8]
    }

    assert_param(IS_RCC_HCLK(RCC_ClkInitStruct->AHBCLKDivider));
    MODIFY_REG(RCC->CFGR, RCC_CFGR_HPRE, RCC_ClkInitStruct->AHBCLKDivider);
 8004364:	4b50      	ldr	r3, [pc, #320]	; (80044a8 <HAL_RCC_ClockConfig+0x1bc>)
 8004366:	689b      	ldr	r3, [r3, #8]
 8004368:	f023 02f0 	bic.w	r2, r3, #240	; 0xf0
 800436c:	687b      	ldr	r3, [r7, #4]
 800436e:	689b      	ldr	r3, [r3, #8]
 8004370:	494d      	ldr	r1, [pc, #308]	; (80044a8 <HAL_RCC_ClockConfig+0x1bc>)
 8004372:	4313      	orrs	r3, r2
 8004374:	608b      	str	r3, [r1, #8]
  }

  /*------------------------- SYSCLK Configuration ---------------------------*/
  if (((RCC_ClkInitStruct->ClockType) & RCC_CLOCKTYPE_SYSCLK) == RCC_CLOCKTYPE_SYSCLK)
 8004376:	687b      	ldr	r3, [r7, #4]
 8004378:	681b      	ldr	r3, [r3, #0]
 800437a:	f003 0301 	and.w	r3, r3, #1
 800437e:	2b00      	cmp	r3, #0
 8004380:	d044      	beq.n	800440c <HAL_RCC_ClockConfig+0x120>
  {
    assert_param(IS_RCC_SYSCLKSOURCE(RCC_ClkInitStruct->SYSCLKSource));

    /* HSE is selected as System Clock Source */
    if (RCC_ClkInitStruct->SYSCLKSource == RCC_SYSCLKSOURCE_HSE)
 8004382:	687b      	ldr	r3, [r7, #4]
 8004384:	685b      	ldr	r3, [r3, #4]
 8004386:	2b01      	cmp	r3, #1
 8004388:	d107      	bne.n	800439a <HAL_RCC_ClockConfig+0xae>
    {
      /* Check the HSE ready flag */
      if (__HAL_RCC_GET_FLAG(RCC_FLAG_HSERDY) == RESET)
 800438a:	4b47      	ldr	r3, [pc, #284]	; (80044a8 <HAL_RCC_ClockConfig+0x1bc>)
 800438c:	681b      	ldr	r3, [r3, #0]
 800438e:	f403 3300 	and.w	r3, r3, #131072	; 0x20000
 8004392:	2b00      	cmp	r3, #0
 8004394:	d119      	bne.n	80043ca <HAL_RCC_ClockConfig+0xde>
      {
        return HAL_ERROR;
 8004396:	2301      	movs	r3, #1
 8004398:	e07f      	b.n	800449a <HAL_RCC_ClockConfig+0x1ae>
      }
    }
    /* PLL is selected as System Clock Source */
    else if ((RCC_ClkInitStruct->SYSCLKSource == RCC_SYSCLKSOURCE_PLLCLK)   ||
 800439a:	687b      	ldr	r3, [r7, #4]
 800439c:	685b      	ldr	r3, [r3, #4]
 800439e:	2b02      	cmp	r3, #2
 80043a0:	d003      	beq.n	80043aa <HAL_RCC_ClockConfig+0xbe>
             (RCC_ClkInitStruct->SYSCLKSource == RCC_SYSCLKSOURCE_PLLRCLK))
 80043a2:	687b      	ldr	r3, [r7, #4]
 80043a4:	685b      	ldr	r3, [r3, #4]
    else if ((RCC_ClkInitStruct->SYSCLKSource == RCC_SYSCLKSOURCE_PLLCLK)   ||
 80043a6:	2b03      	cmp	r3, #3
 80043a8:	d107      	bne.n	80043ba <HAL_RCC_ClockConfig+0xce>
    {
      /* Check the PLL ready flag */
      if (__HAL_RCC_GET_FLAG(RCC_FLAG_PLLRDY) == RESET)
 80043aa:	4b3f      	ldr	r3, [pc, #252]	; (80044a8 <HAL_RCC_ClockConfig+0x1bc>)
 80043ac:	681b      	ldr	r3, [r3, #0]
 80043ae:	f003 7300 	and.w	r3, r3, #33554432	; 0x2000000
 80043b2:	2b00      	cmp	r3, #0
 80043b4:	d109      	bne.n	80043ca <HAL_RCC_ClockConfig+0xde>
      {
        return HAL_ERROR;
 80043b6:	2301      	movs	r3, #1
 80043b8:	e06f      	b.n	800449a <HAL_RCC_ClockConfig+0x1ae>
    }
    /* HSI is selected as System Clock Source */
    else
    {
      /* Check the HSI ready flag */
      if (__HAL_RCC_GET_FLAG(RCC_FLAG_HSIRDY) == RESET)
 80043ba:	4b3b      	ldr	r3, [pc, #236]	; (80044a8 <HAL_RCC_ClockConfig+0x1bc>)
 80043bc:	681b      	ldr	r3, [r3, #0]
 80043be:	f003 0302 	and.w	r3, r3, #2
 80043c2:	2b00      	cmp	r3, #0
 80043c4:	d101      	bne.n	80043ca <HAL_RCC_ClockConfig+0xde>
      {
        return HAL_ERROR;
 80043c6:	2301      	movs	r3, #1
 80043c8:	e067      	b.n	800449a <HAL_RCC_ClockConfig+0x1ae>
      }
    }

    __HAL_RCC_SYSCLK_CONFIG(RCC_ClkInitStruct->SYSCLKSource);
 80043ca:	4b37      	ldr	r3, [pc, #220]	; (80044a8 <HAL_RCC_ClockConfig+0x1bc>)
 80043cc:	689b      	ldr	r3, [r3, #8]
 80043ce:	f023 0203 	bic.w	r2, r3, #3
 80043d2:	687b      	ldr	r3, [r7, #4]
 80043d4:	685b      	ldr	r3, [r3, #4]
 80043d6:	4934      	ldr	r1, [pc, #208]	; (80044a8 <HAL_RCC_ClockConfig+0x1bc>)
 80043d8:	4313      	orrs	r3, r2
 80043da:	608b      	str	r3, [r1, #8]

    /* Get Start Tick */
    tickstart = HAL_GetTick();
 80043dc:	f7fd fda0 	bl	8001f20 <HAL_GetTick>
 80043e0:	60f8      	str	r0, [r7, #12]

    while (__HAL_RCC_GET_SYSCLK_SOURCE() != (RCC_ClkInitStruct->SYSCLKSource << RCC_CFGR_SWS_Pos))
 80043e2:	e00a      	b.n	80043fa <HAL_RCC_ClockConfig+0x10e>
    {
      if ((HAL_GetTick() - tickstart) > CLOCKSWITCH_TIMEOUT_VALUE)
 80043e4:	f7fd fd9c 	bl	8001f20 <HAL_GetTick>
 80043e8:	4602      	mov	r2, r0
 80043ea:	68fb      	ldr	r3, [r7, #12]
 80043ec:	1ad3      	subs	r3, r2, r3
 80043ee:	f241 3288 	movw	r2, #5000	; 0x1388
 80043f2:	4293      	cmp	r3, r2
 80043f4:	d901      	bls.n	80043fa <HAL_RCC_ClockConfig+0x10e>
      {
        return HAL_TIMEOUT;
 80043f6:	2303      	movs	r3, #3
 80043f8:	e04f      	b.n	800449a <HAL_RCC_ClockConfig+0x1ae>
    while (__HAL_RCC_GET_SYSCLK_SOURCE() != (RCC_ClkInitStruct->SYSCLKSource << RCC_CFGR_SWS_Pos))
 80043fa:	4b2b      	ldr	r3, [pc, #172]	; (80044a8 <HAL_RCC_ClockConfig+0x1bc>)
 80043fc:	689b      	ldr	r3, [r3, #8]
 80043fe:	f003 020c 	and.w	r2, r3, #12
 8004402:	687b      	ldr	r3, [r7, #4]
 8004404:	685b      	ldr	r3, [r3, #4]
 8004406:	009b      	lsls	r3, r3, #2
 8004408:	429a      	cmp	r2, r3
 800440a:	d1eb      	bne.n	80043e4 <HAL_RCC_ClockConfig+0xf8>
      }
    }
  }

  /* Decreasing the number of wait states because of lower CPU frequency */
  if (FLatency < __HAL_FLASH_GET_LATENCY())
 800440c:	4b25      	ldr	r3, [pc, #148]	; (80044a4 <HAL_RCC_ClockConfig+0x1b8>)
 800440e:	681b      	ldr	r3, [r3, #0]
 8004410:	f003 0307 	and.w	r3, r3, #7
 8004414:	683a      	ldr	r2, [r7, #0]
 8004416:	429a      	cmp	r2, r3
 8004418:	d20c      	bcs.n	8004434 <HAL_RCC_ClockConfig+0x148>
  {
    /* Program the new number of wait states to the LATENCY bits in the FLASH_ACR register */
    __HAL_FLASH_SET_LATENCY(FLatency);
 800441a:	4b22      	ldr	r3, [pc, #136]	; (80044a4 <HAL_RCC_ClockConfig+0x1b8>)
 800441c:	683a      	ldr	r2, [r7, #0]
 800441e:	b2d2      	uxtb	r2, r2
 8004420:	701a      	strb	r2, [r3, #0]

    /* Check that the new number of wait states is taken into account to access the Flash
    memory by reading the FLASH_ACR register */
    if (__HAL_FLASH_GET_LATENCY() != FLatency)
 8004422:	4b20      	ldr	r3, [pc, #128]	; (80044a4 <HAL_RCC_ClockConfig+0x1b8>)
 8004424:	681b      	ldr	r3, [r3, #0]
 8004426:	f003 0307 	and.w	r3, r3, #7
 800442a:	683a      	ldr	r2, [r7, #0]
 800442c:	429a      	cmp	r2, r3
 800442e:	d001      	beq.n	8004434 <HAL_RCC_ClockConfig+0x148>
    {
      return HAL_ERROR;
 8004430:	2301      	movs	r3, #1
 8004432:	e032      	b.n	800449a <HAL_RCC_ClockConfig+0x1ae>
    }
  }

  /*-------------------------- PCLK1 Configuration ---------------------------*/
  if (((RCC_ClkInitStruct->ClockType) & RCC_CLOCKTYPE_PCLK1) == RCC_CLOCKTYPE_PCLK1)
 8004434:	687b      	ldr	r3, [r7, #4]
 8004436:	681b      	ldr	r3, [r3, #0]
 8004438:	f003 0304 	and.w	r3, r3, #4
 800443c:	2b00      	cmp	r3, #0
 800443e:	d008      	beq.n	8004452 <HAL_RCC_ClockConfig+0x166>
  {
    assert_param(IS_RCC_PCLK(RCC_ClkInitStruct->APB1CLKDivider));
    MODIFY_REG(RCC->CFGR, RCC_CFGR_PPRE1, RCC_ClkInitStruct->APB1CLKDivider);
 8004440:	4b19      	ldr	r3, [pc, #100]	; (80044a8 <HAL_RCC_ClockConfig+0x1bc>)
 8004442:	689b      	ldr	r3, [r3, #8]
 8004444:	f423 52e0 	bic.w	r2, r3, #7168	; 0x1c00
 8004448:	687b      	ldr	r3, [r7, #4]
 800444a:	68db      	ldr	r3, [r3, #12]
 800444c:	4916      	ldr	r1, [pc, #88]	; (80044a8 <HAL_RCC_ClockConfig+0x1bc>)
 800444e:	4313      	orrs	r3, r2
 8004450:	608b      	str	r3, [r1, #8]
  }

  /*-------------------------- PCLK2 Configuration ---------------------------*/
  if (((RCC_ClkInitStruct->ClockType) & RCC_CLOCKTYPE_PCLK2) == RCC_CLOCKTYPE_PCLK2)
 8004452:	687b      	ldr	r3, [r7, #4]
 8004454:	681b      	ldr	r3, [r3, #0]
 8004456:	f003 0308 	and.w	r3, r3, #8
 800445a:	2b00      	cmp	r3, #0
 800445c:	d009      	beq.n	8004472 <HAL_RCC_ClockConfig+0x186>
  {
    assert_param(IS_RCC_PCLK(RCC_ClkInitStruct->APB2CLKDivider));
    MODIFY_REG(RCC->CFGR, RCC_CFGR_PPRE2, ((RCC_ClkInitStruct->APB2CLKDivider) << 3U));
 800445e:	4b12      	ldr	r3, [pc, #72]	; (80044a8 <HAL_RCC_ClockConfig+0x1bc>)
 8004460:	689b      	ldr	r3, [r3, #8]
 8004462:	f423 4260 	bic.w	r2, r3, #57344	; 0xe000
 8004466:	687b      	ldr	r3, [r7, #4]
 8004468:	691b      	ldr	r3, [r3, #16]
 800446a:	00db      	lsls	r3, r3, #3
 800446c:	490e      	ldr	r1, [pc, #56]	; (80044a8 <HAL_RCC_ClockConfig+0x1bc>)
 800446e:	4313      	orrs	r3, r2
 8004470:	608b      	str	r3, [r1, #8]
  }

  /* Update the SystemCoreClock global variable */
  SystemCoreClock = HAL_RCC_GetSysClockFreq() >> AHBPrescTable[(RCC->CFGR & RCC_CFGR_HPRE) >> RCC_CFGR_HPRE_Pos];
 8004472:	f000 f821 	bl	80044b8 <HAL_RCC_GetSysClockFreq>
 8004476:	4602      	mov	r2, r0
 8004478:	4b0b      	ldr	r3, [pc, #44]	; (80044a8 <HAL_RCC_ClockConfig+0x1bc>)
 800447a:	689b      	ldr	r3, [r3, #8]
 800447c:	091b      	lsrs	r3, r3, #4
 800447e:	f003 030f 	and.w	r3, r3, #15
 8004482:	490a      	ldr	r1, [pc, #40]	; (80044ac <HAL_RCC_ClockConfig+0x1c0>)
 8004484:	5ccb      	ldrb	r3, [r1, r3]
 8004486:	fa22 f303 	lsr.w	r3, r2, r3
 800448a:	4a09      	ldr	r2, [pc, #36]	; (80044b0 <HAL_RCC_ClockConfig+0x1c4>)
 800448c:	6013      	str	r3, [r2, #0]

  /* Configure the source of time base considering new system clocks settings */
  HAL_InitTick(uwTickPrio);
 800448e:	4b09      	ldr	r3, [pc, #36]	; (80044b4 <HAL_RCC_ClockConfig+0x1c8>)
 8004490:	681b      	ldr	r3, [r3, #0]
 8004492:	4618      	mov	r0, r3
 8004494:	f7fd fd00 	bl	8001e98 <HAL_InitTick>

  return HAL_OK;
 8004498:	2300      	movs	r3, #0
}
 800449a:	4618      	mov	r0, r3
 800449c:	3710      	adds	r7, #16
 800449e:	46bd      	mov	sp, r7
 80044a0:	bd80      	pop	{r7, pc}
 80044a2:	bf00      	nop
 80044a4:	40023c00 	.word	0x40023c00
 80044a8:	40023800 	.word	0x40023800
 80044ac:	080056a0 	.word	0x080056a0
 80044b0:	20000008 	.word	0x20000008
 80044b4:	2000000c 	.word	0x2000000c

080044b8 <HAL_RCC_GetSysClockFreq>:
  *
  *
  * @retval SYSCLK frequency
  */
__weak uint32_t HAL_RCC_GetSysClockFreq(void)
{
 80044b8:	e92d 4fb0 	stmdb	sp!, {r4, r5, r7, r8, r9, sl, fp, lr}
 80044bc:	b090      	sub	sp, #64	; 0x40
 80044be:	af00      	add	r7, sp, #0
  uint32_t pllm = 0U;
 80044c0:	2300      	movs	r3, #0
 80044c2:	637b      	str	r3, [r7, #52]	; 0x34
  uint32_t pllvco = 0U;
 80044c4:	2300      	movs	r3, #0
 80044c6:	63fb      	str	r3, [r7, #60]	; 0x3c
  uint32_t pllp = 0U;
 80044c8:	2300      	movs	r3, #0
 80044ca:	633b      	str	r3, [r7, #48]	; 0x30
  uint32_t sysclockfreq = 0U;
 80044cc:	2300      	movs	r3, #0
 80044ce:	63bb      	str	r3, [r7, #56]	; 0x38

  /* Get SYSCLK source -------------------------------------------------------*/
  switch (RCC->CFGR & RCC_CFGR_SWS)
 80044d0:	4b59      	ldr	r3, [pc, #356]	; (8004638 <HAL_RCC_GetSysClockFreq+0x180>)
 80044d2:	689b      	ldr	r3, [r3, #8]
 80044d4:	f003 030c 	and.w	r3, r3, #12
 80044d8:	2b08      	cmp	r3, #8
 80044da:	d00d      	beq.n	80044f8 <HAL_RCC_GetSysClockFreq+0x40>
 80044dc:	2b08      	cmp	r3, #8
 80044de:	f200 80a1 	bhi.w	8004624 <HAL_RCC_GetSysClockFreq+0x16c>
 80044e2:	2b00      	cmp	r3, #0
 80044e4:	d002      	beq.n	80044ec <HAL_RCC_GetSysClockFreq+0x34>
 80044e6:	2b04      	cmp	r3, #4
 80044e8:	d003      	beq.n	80044f2 <HAL_RCC_GetSysClockFreq+0x3a>
 80044ea:	e09b      	b.n	8004624 <HAL_RCC_GetSysClockFreq+0x16c>
  {
    case RCC_CFGR_SWS_HSI:  /* HSI used as system clock source */
    {
      sysclockfreq = HSI_VALUE;
 80044ec:	4b53      	ldr	r3, [pc, #332]	; (800463c <HAL_RCC_GetSysClockFreq+0x184>)
 80044ee:	63bb      	str	r3, [r7, #56]	; 0x38
      break;
 80044f0:	e09b      	b.n	800462a <HAL_RCC_GetSysClockFreq+0x172>
    }
    case RCC_CFGR_SWS_HSE:  /* HSE used as system clock  source */
    {
      sysclockfreq = HSE_VALUE;
 80044f2:	4b53      	ldr	r3, [pc, #332]	; (8004640 <HAL_RCC_GetSysClockFreq+0x188>)
 80044f4:	63bb      	str	r3, [r7, #56]	; 0x38
      break;
 80044f6:	e098      	b.n	800462a <HAL_RCC_GetSysClockFreq+0x172>
    }
    case RCC_CFGR_SWS_PLL:  /* PLL used as system clock  source */
    {
      /* PLL_VCO = (HSE_VALUE or HSI_VALUE / PLLM) * PLLN
      SYSCLK = PLL_VCO / PLLP */
      pllm = RCC->PLLCFGR & RCC_PLLCFGR_PLLM;
 80044f8:	4b4f      	ldr	r3, [pc, #316]	; (8004638 <HAL_RCC_GetSysClockFreq+0x180>)
 80044fa:	685b      	ldr	r3, [r3, #4]
 80044fc:	f003 033f 	and.w	r3, r3, #63	; 0x3f
 8004500:	637b      	str	r3, [r7, #52]	; 0x34
      if (__HAL_RCC_GET_PLL_OSCSOURCE() != RCC_PLLSOURCE_HSI)
 8004502:	4b4d      	ldr	r3, [pc, #308]	; (8004638 <HAL_RCC_GetSysClockFreq+0x180>)
 8004504:	685b      	ldr	r3, [r3, #4]
 8004506:	f403 0380 	and.w	r3, r3, #4194304	; 0x400000
 800450a:	2b00      	cmp	r3, #0
 800450c:	d028      	beq.n	8004560 <HAL_RCC_GetSysClockFreq+0xa8>
      {
        /* HSE used as PLL clock source */
        pllvco = (uint32_t)((((uint64_t) HSE_VALUE * ((uint64_t)((RCC->PLLCFGR & RCC_PLLCFGR_PLLN) >> RCC_PLLCFGR_PLLN_Pos)))) / (uint64_t)pllm);
 800450e:	4b4a      	ldr	r3, [pc, #296]	; (8004638 <HAL_RCC_GetSysClockFreq+0x180>)
 8004510:	685b      	ldr	r3, [r3, #4]
 8004512:	099b      	lsrs	r3, r3, #6
 8004514:	2200      	movs	r2, #0
 8004516:	623b      	str	r3, [r7, #32]
 8004518:	627a      	str	r2, [r7, #36]	; 0x24
 800451a:	6a3b      	ldr	r3, [r7, #32]
 800451c:	f3c3 0008 	ubfx	r0, r3, #0, #9
 8004520:	2100      	movs	r1, #0
 8004522:	4b47      	ldr	r3, [pc, #284]	; (8004640 <HAL_RCC_GetSysClockFreq+0x188>)
 8004524:	fb03 f201 	mul.w	r2, r3, r1
 8004528:	2300      	movs	r3, #0
 800452a:	fb00 f303 	mul.w	r3, r0, r3
 800452e:	4413      	add	r3, r2
 8004530:	4a43      	ldr	r2, [pc, #268]	; (8004640 <HAL_RCC_GetSysClockFreq+0x188>)
 8004532:	fba0 1202 	umull	r1, r2, r0, r2
 8004536:	62fa      	str	r2, [r7, #44]	; 0x2c
 8004538:	460a      	mov	r2, r1
 800453a:	62ba      	str	r2, [r7, #40]	; 0x28
 800453c:	6afa      	ldr	r2, [r7, #44]	; 0x2c
 800453e:	4413      	add	r3, r2
 8004540:	62fb      	str	r3, [r7, #44]	; 0x2c
 8004542:	6b7b      	ldr	r3, [r7, #52]	; 0x34
 8004544:	2200      	movs	r2, #0
 8004546:	61bb      	str	r3, [r7, #24]
 8004548:	61fa      	str	r2, [r7, #28]
 800454a:	e9d7 2306 	ldrd	r2, r3, [r7, #24]
 800454e:	e9d7 010a 	ldrd	r0, r1, [r7, #40]	; 0x28
 8004552:	f7fc fa57 	bl	8000a04 <__aeabi_uldivmod>
 8004556:	4602      	mov	r2, r0
 8004558:	460b      	mov	r3, r1
 800455a:	4613      	mov	r3, r2
 800455c:	63fb      	str	r3, [r7, #60]	; 0x3c
 800455e:	e053      	b.n	8004608 <HAL_RCC_GetSysClockFreq+0x150>
      }
      else
      {
        /* HSI used as PLL clock source */
        pllvco = (uint32_t)((((uint64_t) HSI_VALUE * ((uint64_t)((RCC->PLLCFGR & RCC_PLLCFGR_PLLN) >> RCC_PLLCFGR_PLLN_Pos)))) / (uint64_t)pllm);
 8004560:	4b35      	ldr	r3, [pc, #212]	; (8004638 <HAL_RCC_GetSysClockFreq+0x180>)
 8004562:	685b      	ldr	r3, [r3, #4]
 8004564:	099b      	lsrs	r3, r3, #6
 8004566:	2200      	movs	r2, #0
 8004568:	613b      	str	r3, [r7, #16]
 800456a:	617a      	str	r2, [r7, #20]
 800456c:	693b      	ldr	r3, [r7, #16]
 800456e:	f3c3 0a08 	ubfx	sl, r3, #0, #9
 8004572:	f04f 0b00 	mov.w	fp, #0
 8004576:	4652      	mov	r2, sl
 8004578:	465b      	mov	r3, fp
 800457a:	f04f 0000 	mov.w	r0, #0
 800457e:	f04f 0100 	mov.w	r1, #0
 8004582:	0159      	lsls	r1, r3, #5
 8004584:	ea41 61d2 	orr.w	r1, r1, r2, lsr #27
 8004588:	0150      	lsls	r0, r2, #5
 800458a:	4602      	mov	r2, r0
 800458c:	460b      	mov	r3, r1
 800458e:	ebb2 080a 	subs.w	r8, r2, sl
 8004592:	eb63 090b 	sbc.w	r9, r3, fp
 8004596:	f04f 0200 	mov.w	r2, #0
 800459a:	f04f 0300 	mov.w	r3, #0
 800459e:	ea4f 1389 	mov.w	r3, r9, lsl #6
 80045a2:	ea43 6398 	orr.w	r3, r3, r8, lsr #26
 80045a6:	ea4f 1288 	mov.w	r2, r8, lsl #6
 80045aa:	ebb2 0408 	subs.w	r4, r2, r8
 80045ae:	eb63 0509 	sbc.w	r5, r3, r9
 80045b2:	f04f 0200 	mov.w	r2, #0
 80045b6:	f04f 0300 	mov.w	r3, #0
 80045ba:	00eb      	lsls	r3, r5, #3
 80045bc:	ea43 7354 	orr.w	r3, r3, r4, lsr #29
 80045c0:	00e2      	lsls	r2, r4, #3
 80045c2:	4614      	mov	r4, r2
 80045c4:	461d      	mov	r5, r3
 80045c6:	eb14 030a 	adds.w	r3, r4, sl
 80045ca:	603b      	str	r3, [r7, #0]
 80045cc:	eb45 030b 	adc.w	r3, r5, fp
 80045d0:	607b      	str	r3, [r7, #4]
 80045d2:	f04f 0200 	mov.w	r2, #0
 80045d6:	f04f 0300 	mov.w	r3, #0
 80045da:	e9d7 4500 	ldrd	r4, r5, [r7]
 80045de:	4629      	mov	r1, r5
 80045e0:	028b      	lsls	r3, r1, #10
 80045e2:	4621      	mov	r1, r4
 80045e4:	ea43 5391 	orr.w	r3, r3, r1, lsr #22
 80045e8:	4621      	mov	r1, r4
 80045ea:	028a      	lsls	r2, r1, #10
 80045ec:	4610      	mov	r0, r2
 80045ee:	4619      	mov	r1, r3
 80045f0:	6b7b      	ldr	r3, [r7, #52]	; 0x34
 80045f2:	2200      	movs	r2, #0
 80045f4:	60bb      	str	r3, [r7, #8]
 80045f6:	60fa      	str	r2, [r7, #12]
 80045f8:	e9d7 2302 	ldrd	r2, r3, [r7, #8]
 80045fc:	f7fc fa02 	bl	8000a04 <__aeabi_uldivmod>
 8004600:	4602      	mov	r2, r0
 8004602:	460b      	mov	r3, r1
 8004604:	4613      	mov	r3, r2
 8004606:	63fb      	str	r3, [r7, #60]	; 0x3c
      }
      pllp = ((((RCC->PLLCFGR & RCC_PLLCFGR_PLLP) >> RCC_PLLCFGR_PLLP_Pos) + 1U) * 2U);
 8004608:	4b0b      	ldr	r3, [pc, #44]	; (8004638 <HAL_RCC_GetSysClockFreq+0x180>)
 800460a:	685b      	ldr	r3, [r3, #4]
 800460c:	0c1b      	lsrs	r3, r3, #16
 800460e:	f003 0303 	and.w	r3, r3, #3
 8004612:	3301      	adds	r3, #1
 8004614:	005b      	lsls	r3, r3, #1
 8004616:	633b      	str	r3, [r7, #48]	; 0x30

      sysclockfreq = pllvco / pllp;
 8004618:	6bfa      	ldr	r2, [r7, #60]	; 0x3c
 800461a:	6b3b      	ldr	r3, [r7, #48]	; 0x30
 800461c:	fbb2 f3f3 	udiv	r3, r2, r3
 8004620:	63bb      	str	r3, [r7, #56]	; 0x38
      break;
 8004622:	e002      	b.n	800462a <HAL_RCC_GetSysClockFreq+0x172>
    }
    default:
    {
      sysclockfreq = HSI_VALUE;
 8004624:	4b05      	ldr	r3, [pc, #20]	; (800463c <HAL_RCC_GetSysClockFreq+0x184>)
 8004626:	63bb      	str	r3, [r7, #56]	; 0x38
      break;
 8004628:	bf00      	nop
    }
  }
  return sysclockfreq;
 800462a:	6bbb      	ldr	r3, [r7, #56]	; 0x38
}
 800462c:	4618      	mov	r0, r3
 800462e:	3740      	adds	r7, #64	; 0x40
 8004630:	46bd      	mov	sp, r7
 8004632:	e8bd 8fb0 	ldmia.w	sp!, {r4, r5, r7, r8, r9, sl, fp, pc}
 8004636:	bf00      	nop
 8004638:	40023800 	.word	0x40023800
 800463c:	00f42400 	.word	0x00f42400
 8004640:	017d7840 	.word	0x017d7840

08004644 <HAL_RCC_GetHCLKFreq>:
  * @note   The SystemCoreClock CMSIS variable is used to store System Clock Frequency
  *         and updated within this function
  * @retval HCLK frequency
  */
uint32_t HAL_RCC_GetHCLKFreq(void)
{
 8004644:	b480      	push	{r7}
 8004646:	af00      	add	r7, sp, #0
  return SystemCoreClock;
 8004648:	4b03      	ldr	r3, [pc, #12]	; (8004658 <HAL_RCC_GetHCLKFreq+0x14>)
 800464a:	681b      	ldr	r3, [r3, #0]
}
 800464c:	4618      	mov	r0, r3
 800464e:	46bd      	mov	sp, r7
 8004650:	f85d 7b04 	ldr.w	r7, [sp], #4
 8004654:	4770      	bx	lr
 8004656:	bf00      	nop
 8004658:	20000008 	.word	0x20000008

0800465c <HAL_RCC_GetPCLK1Freq>:
  * @note   Each time PCLK1 changes, this function must be called to update the
  *         right PCLK1 value. Otherwise, any configuration based on this function will be incorrect.
  * @retval PCLK1 frequency
  */
uint32_t HAL_RCC_GetPCLK1Freq(void)
{
 800465c:	b580      	push	{r7, lr}
 800465e:	af00      	add	r7, sp, #0
  /* Get HCLK source and Compute PCLK1 frequency ---------------------------*/
  return (HAL_RCC_GetHCLKFreq() >> APBPrescTable[(RCC->CFGR & RCC_CFGR_PPRE1) >> RCC_CFGR_PPRE1_Pos]);
 8004660:	f7ff fff0 	bl	8004644 <HAL_RCC_GetHCLKFreq>
 8004664:	4602      	mov	r2, r0
 8004666:	4b05      	ldr	r3, [pc, #20]	; (800467c <HAL_RCC_GetPCLK1Freq+0x20>)
 8004668:	689b      	ldr	r3, [r3, #8]
 800466a:	0a9b      	lsrs	r3, r3, #10
 800466c:	f003 0307 	and.w	r3, r3, #7
 8004670:	4903      	ldr	r1, [pc, #12]	; (8004680 <HAL_RCC_GetPCLK1Freq+0x24>)
 8004672:	5ccb      	ldrb	r3, [r1, r3]
 8004674:	fa22 f303 	lsr.w	r3, r2, r3
}
 8004678:	4618      	mov	r0, r3
 800467a:	bd80      	pop	{r7, pc}
 800467c:	40023800 	.word	0x40023800
 8004680:	080056b0 	.word	0x080056b0

08004684 <HAL_TIM_Base_Init>:
  *         Ex: call @ref HAL_TIM_Base_DeInit() before HAL_TIM_Base_Init()
  * @param  htim TIM Base handle
  * @retval HAL status
  */
HAL_StatusTypeDef HAL_TIM_Base_Init(TIM_HandleTypeDef *htim)
{
 8004684:	b580      	push	{r7, lr}
 8004686:	b082      	sub	sp, #8
 8004688:	af00      	add	r7, sp, #0
 800468a:	6078      	str	r0, [r7, #4]
  /* Check the TIM handle allocation */
  if (htim == NULL)
 800468c:	687b      	ldr	r3, [r7, #4]
 800468e:	2b00      	cmp	r3, #0
 8004690:	d101      	bne.n	8004696 <HAL_TIM_Base_Init+0x12>
  {
    return HAL_ERROR;
 8004692:	2301      	movs	r3, #1
 8004694:	e041      	b.n	800471a <HAL_TIM_Base_Init+0x96>
  assert_param(IS_TIM_COUNTER_MODE(htim->Init.CounterMode));
  assert_param(IS_TIM_CLOCKDIVISION_DIV(htim->Init.ClockDivision));
  assert_param(IS_TIM_PERIOD(htim, htim->Init.Period));
  assert_param(IS_TIM_AUTORELOAD_PRELOAD(htim->Init.AutoReloadPreload));

  if (htim->State == HAL_TIM_STATE_RESET)
 8004696:	687b      	ldr	r3, [r7, #4]
 8004698:	f893 303d 	ldrb.w	r3, [r3, #61]	; 0x3d
 800469c:	b2db      	uxtb	r3, r3
 800469e:	2b00      	cmp	r3, #0
 80046a0:	d106      	bne.n	80046b0 <HAL_TIM_Base_Init+0x2c>
  {
    /* Allocate lock resource and initialize it */
    htim->Lock = HAL_UNLOCKED;
 80046a2:	687b      	ldr	r3, [r7, #4]
 80046a4:	2200      	movs	r2, #0
 80046a6:	f883 203c 	strb.w	r2, [r3, #60]	; 0x3c
    }
    /* Init the low level hardware : GPIO, CLOCK, NVIC */
    htim->Base_MspInitCallback(htim);
#else
    /* Init the low level hardware : GPIO, CLOCK, NVIC */
    HAL_TIM_Base_MspInit(htim);
 80046aa:	6878      	ldr	r0, [r7, #4]
 80046ac:	f7fd faf6 	bl	8001c9c <HAL_TIM_Base_MspInit>
#endif /* USE_HAL_TIM_REGISTER_CALLBACKS */
  }

  /* Set the TIM state */
  htim->State = HAL_TIM_STATE_BUSY;
 80046b0:	687b      	ldr	r3, [r7, #4]
 80046b2:	2202      	movs	r2, #2
 80046b4:	f883 203d 	strb.w	r2, [r3, #61]	; 0x3d

  /* Set the Time Base configuration */
  TIM_Base_SetConfig(htim->Instance, &htim->Init);
 80046b8:	687b      	ldr	r3, [r7, #4]
 80046ba:	681a      	ldr	r2, [r3, #0]
 80046bc:	687b      	ldr	r3, [r7, #4]
 80046be:	3304      	adds	r3, #4
 80046c0:	4619      	mov	r1, r3
 80046c2:	4610      	mov	r0, r2
 80046c4:	f000 fbfa 	bl	8004ebc <TIM_Base_SetConfig>

  /* Initialize the DMA burst operation state */
  htim->DMABurstState = HAL_DMA_BURST_STATE_READY;
 80046c8:	687b      	ldr	r3, [r7, #4]
 80046ca:	2201      	movs	r2, #1
 80046cc:	f883 2046 	strb.w	r2, [r3, #70]	; 0x46

  /* Initialize the TIM channels state */
  TIM_CHANNEL_STATE_SET_ALL(htim, HAL_TIM_CHANNEL_STATE_READY);
 80046d0:	687b      	ldr	r3, [r7, #4]
 80046d2:	2201      	movs	r2, #1
 80046d4:	f883 203e 	strb.w	r2, [r3, #62]	; 0x3e
 80046d8:	687b      	ldr	r3, [r7, #4]
 80046da:	2201      	movs	r2, #1
 80046dc:	f883 203f 	strb.w	r2, [r3, #63]	; 0x3f
 80046e0:	687b      	ldr	r3, [r7, #4]
 80046e2:	2201      	movs	r2, #1
 80046e4:	f883 2040 	strb.w	r2, [r3, #64]	; 0x40
 80046e8:	687b      	ldr	r3, [r7, #4]
 80046ea:	2201      	movs	r2, #1
 80046ec:	f883 2041 	strb.w	r2, [r3, #65]	; 0x41
  TIM_CHANNEL_N_STATE_SET_ALL(htim, HAL_TIM_CHANNEL_STATE_READY);
 80046f0:	687b      	ldr	r3, [r7, #4]
 80046f2:	2201      	movs	r2, #1
 80046f4:	f883 2042 	strb.w	r2, [r3, #66]	; 0x42
 80046f8:	687b      	ldr	r3, [r7, #4]
 80046fa:	2201      	movs	r2, #1
 80046fc:	f883 2043 	strb.w	r2, [r3, #67]	; 0x43
 8004700:	687b      	ldr	r3, [r7, #4]
 8004702:	2201      	movs	r2, #1
 8004704:	f883 2044 	strb.w	r2, [r3, #68]	; 0x44
 8004708:	687b      	ldr	r3, [r7, #4]
 800470a:	2201      	movs	r2, #1
 800470c:	f883 2045 	strb.w	r2, [r3, #69]	; 0x45

  /* Initialize the TIM state*/
  htim->State = HAL_TIM_STATE_READY;
 8004710:	687b      	ldr	r3, [r7, #4]
 8004712:	2201      	movs	r2, #1
 8004714:	f883 203d 	strb.w	r2, [r3, #61]	; 0x3d

  return HAL_OK;
 8004718:	2300      	movs	r3, #0
}
 800471a:	4618      	mov	r0, r3
 800471c:	3708      	adds	r7, #8
 800471e:	46bd      	mov	sp, r7
 8004720:	bd80      	pop	{r7, pc}

08004722 <HAL_TIM_PWM_Init>:
  *         Ex: call @ref HAL_TIM_PWM_DeInit() before HAL_TIM_PWM_Init()
  * @param  htim TIM PWM handle
  * @retval HAL status
  */
HAL_StatusTypeDef HAL_TIM_PWM_Init(TIM_HandleTypeDef *htim)
{
 8004722:	b580      	push	{r7, lr}
 8004724:	b082      	sub	sp, #8
 8004726:	af00      	add	r7, sp, #0
 8004728:	6078      	str	r0, [r7, #4]
  /* Check the TIM handle allocation */
  if (htim == NULL)
 800472a:	687b      	ldr	r3, [r7, #4]
 800472c:	2b00      	cmp	r3, #0
 800472e:	d101      	bne.n	8004734 <HAL_TIM_PWM_Init+0x12>
  {
    return HAL_ERROR;
 8004730:	2301      	movs	r3, #1
 8004732:	e041      	b.n	80047b8 <HAL_TIM_PWM_Init+0x96>
  assert_param(IS_TIM_COUNTER_MODE(htim->Init.CounterMode));
  assert_param(IS_TIM_CLOCKDIVISION_DIV(htim->Init.ClockDivision));
  assert_param(IS_TIM_PERIOD(htim, htim->Init.Period));
  assert_param(IS_TIM_AUTORELOAD_PRELOAD(htim->Init.AutoReloadPreload));

  if (htim->State == HAL_TIM_STATE_RESET)
 8004734:	687b      	ldr	r3, [r7, #4]
 8004736:	f893 303d 	ldrb.w	r3, [r3, #61]	; 0x3d
 800473a:	b2db      	uxtb	r3, r3
 800473c:	2b00      	cmp	r3, #0
 800473e:	d106      	bne.n	800474e <HAL_TIM_PWM_Init+0x2c>
  {
    /* Allocate lock resource and initialize it */
    htim->Lock = HAL_UNLOCKED;
 8004740:	687b      	ldr	r3, [r7, #4]
 8004742:	2200      	movs	r2, #0
 8004744:	f883 203c 	strb.w	r2, [r3, #60]	; 0x3c
    }
    /* Init the low level hardware : GPIO, CLOCK, NVIC */
    htim->PWM_MspInitCallback(htim);
#else
    /* Init the low level hardware : GPIO, CLOCK, NVIC and DMA */
    HAL_TIM_PWM_MspInit(htim);
 8004748:	6878      	ldr	r0, [r7, #4]
 800474a:	f000 f839 	bl	80047c0 <HAL_TIM_PWM_MspInit>
#endif /* USE_HAL_TIM_REGISTER_CALLBACKS */
  }

  /* Set the TIM state */
  htim->State = HAL_TIM_STATE_BUSY;
 800474e:	687b      	ldr	r3, [r7, #4]
 8004750:	2202      	movs	r2, #2
 8004752:	f883 203d 	strb.w	r2, [r3, #61]	; 0x3d

  /* Init the base time for the PWM */
  TIM_Base_SetConfig(htim->Instance, &htim->Init);
 8004756:	687b      	ldr	r3, [r7, #4]
 8004758:	681a      	ldr	r2, [r3, #0]
 800475a:	687b      	ldr	r3, [r7, #4]
 800475c:	3304      	adds	r3, #4
 800475e:	4619      	mov	r1, r3
 8004760:	4610      	mov	r0, r2
 8004762:	f000 fbab 	bl	8004ebc <TIM_Base_SetConfig>

  /* Initialize the DMA burst operation state */
  htim->DMABurstState = HAL_DMA_BURST_STATE_READY;
 8004766:	687b      	ldr	r3, [r7, #4]
 8004768:	2201      	movs	r2, #1
 800476a:	f883 2046 	strb.w	r2, [r3, #70]	; 0x46

  /* Initialize the TIM channels state */
  TIM_CHANNEL_STATE_SET_ALL(htim, HAL_TIM_CHANNEL_STATE_READY);
 800476e:	687b      	ldr	r3, [r7, #4]
 8004770:	2201      	movs	r2, #1
 8004772:	f883 203e 	strb.w	r2, [r3, #62]	; 0x3e
 8004776:	687b      	ldr	r3, [r7, #4]
 8004778:	2201      	movs	r2, #1
 800477a:	f883 203f 	strb.w	r2, [r3, #63]	; 0x3f
 800477e:	687b      	ldr	r3, [r7, #4]
 8004780:	2201      	movs	r2, #1
 8004782:	f883 2040 	strb.w	r2, [r3, #64]	; 0x40
 8004786:	687b      	ldr	r3, [r7, #4]
 8004788:	2201      	movs	r2, #1
 800478a:	f883 2041 	strb.w	r2, [r3, #65]	; 0x41
  TIM_CHANNEL_N_STATE_SET_ALL(htim, HAL_TIM_CHANNEL_STATE_READY);
 800478e:	687b      	ldr	r3, [r7, #4]
 8004790:	2201      	movs	r2, #1
 8004792:	f883 2042 	strb.w	r2, [r3, #66]	; 0x42
 8004796:	687b      	ldr	r3, [r7, #4]
 8004798:	2201      	movs	r2, #1
 800479a:	f883 2043 	strb.w	r2, [r3, #67]	; 0x43
 800479e:	687b      	ldr	r3, [r7, #4]
 80047a0:	2201      	movs	r2, #1
 80047a2:	f883 2044 	strb.w	r2, [r3, #68]	; 0x44
 80047a6:	687b      	ldr	r3, [r7, #4]
 80047a8:	2201      	movs	r2, #1
 80047aa:	f883 2045 	strb.w	r2, [r3, #69]	; 0x45

  /* Initialize the TIM state*/
  htim->State = HAL_TIM_STATE_READY;
 80047ae:	687b      	ldr	r3, [r7, #4]
 80047b0:	2201      	movs	r2, #1
 80047b2:	f883 203d 	strb.w	r2, [r3, #61]	; 0x3d

  return HAL_OK;
 80047b6:	2300      	movs	r3, #0
}
 80047b8:	4618      	mov	r0, r3
 80047ba:	3708      	adds	r7, #8
 80047bc:	46bd      	mov	sp, r7
 80047be:	bd80      	pop	{r7, pc}

080047c0 <HAL_TIM_PWM_MspInit>:
  * @brief  Initializes the TIM PWM MSP.
  * @param  htim TIM PWM handle
  * @retval None
  */
__weak void HAL_TIM_PWM_MspInit(TIM_HandleTypeDef *htim)
{
 80047c0:	b480      	push	{r7}
 80047c2:	b083      	sub	sp, #12
 80047c4:	af00      	add	r7, sp, #0
 80047c6:	6078      	str	r0, [r7, #4]
  UNUSED(htim);

  /* NOTE : This function should not be modified, when the callback is needed,
            the HAL_TIM_PWM_MspInit could be implemented in the user file
   */
}
 80047c8:	bf00      	nop
 80047ca:	370c      	adds	r7, #12
 80047cc:	46bd      	mov	sp, r7
 80047ce:	f85d 7b04 	ldr.w	r7, [sp], #4
 80047d2:	4770      	bx	lr

080047d4 <HAL_TIM_PWM_Start>:
  *            @arg TIM_CHANNEL_3: TIM Channel 3 selected
  *            @arg TIM_CHANNEL_4: TIM Channel 4 selected
  * @retval HAL status
  */
HAL_StatusTypeDef HAL_TIM_PWM_Start(TIM_HandleTypeDef *htim, uint32_t Channel)
{
 80047d4:	b580      	push	{r7, lr}
 80047d6:	b084      	sub	sp, #16
 80047d8:	af00      	add	r7, sp, #0
 80047da:	6078      	str	r0, [r7, #4]
 80047dc:	6039      	str	r1, [r7, #0]

  /* Check the parameters */
  assert_param(IS_TIM_CCX_INSTANCE(htim->Instance, Channel));

  /* Check the TIM channel state */
  if (TIM_CHANNEL_STATE_GET(htim, Channel) != HAL_TIM_CHANNEL_STATE_READY)
 80047de:	683b      	ldr	r3, [r7, #0]
 80047e0:	2b00      	cmp	r3, #0
 80047e2:	d109      	bne.n	80047f8 <HAL_TIM_PWM_Start+0x24>
 80047e4:	687b      	ldr	r3, [r7, #4]
 80047e6:	f893 303e 	ldrb.w	r3, [r3, #62]	; 0x3e
 80047ea:	b2db      	uxtb	r3, r3
 80047ec:	2b01      	cmp	r3, #1
 80047ee:	bf14      	ite	ne
 80047f0:	2301      	movne	r3, #1
 80047f2:	2300      	moveq	r3, #0
 80047f4:	b2db      	uxtb	r3, r3
 80047f6:	e022      	b.n	800483e <HAL_TIM_PWM_Start+0x6a>
 80047f8:	683b      	ldr	r3, [r7, #0]
 80047fa:	2b04      	cmp	r3, #4
 80047fc:	d109      	bne.n	8004812 <HAL_TIM_PWM_Start+0x3e>
 80047fe:	687b      	ldr	r3, [r7, #4]
 8004800:	f893 303f 	ldrb.w	r3, [r3, #63]	; 0x3f
 8004804:	b2db      	uxtb	r3, r3
 8004806:	2b01      	cmp	r3, #1
 8004808:	bf14      	ite	ne
 800480a:	2301      	movne	r3, #1
 800480c:	2300      	moveq	r3, #0
 800480e:	b2db      	uxtb	r3, r3
 8004810:	e015      	b.n	800483e <HAL_TIM_PWM_Start+0x6a>
 8004812:	683b      	ldr	r3, [r7, #0]
 8004814:	2b08      	cmp	r3, #8
 8004816:	d109      	bne.n	800482c <HAL_TIM_PWM_Start+0x58>
 8004818:	687b      	ldr	r3, [r7, #4]
 800481a:	f893 3040 	ldrb.w	r3, [r3, #64]	; 0x40
 800481e:	b2db      	uxtb	r3, r3
 8004820:	2b01      	cmp	r3, #1
 8004822:	bf14      	ite	ne
 8004824:	2301      	movne	r3, #1
 8004826:	2300      	moveq	r3, #0
 8004828:	b2db      	uxtb	r3, r3
 800482a:	e008      	b.n	800483e <HAL_TIM_PWM_Start+0x6a>
 800482c:	687b      	ldr	r3, [r7, #4]
 800482e:	f893 3041 	ldrb.w	r3, [r3, #65]	; 0x41
 8004832:	b2db      	uxtb	r3, r3
 8004834:	2b01      	cmp	r3, #1
 8004836:	bf14      	ite	ne
 8004838:	2301      	movne	r3, #1
 800483a:	2300      	moveq	r3, #0
 800483c:	b2db      	uxtb	r3, r3
 800483e:	2b00      	cmp	r3, #0
 8004840:	d001      	beq.n	8004846 <HAL_TIM_PWM_Start+0x72>
  {
    return HAL_ERROR;
 8004842:	2301      	movs	r3, #1
 8004844:	e07c      	b.n	8004940 <HAL_TIM_PWM_Start+0x16c>
  }

  /* Set the TIM channel state */
  TIM_CHANNEL_STATE_SET(htim, Channel, HAL_TIM_CHANNEL_STATE_BUSY);
 8004846:	683b      	ldr	r3, [r7, #0]
 8004848:	2b00      	cmp	r3, #0
 800484a:	d104      	bne.n	8004856 <HAL_TIM_PWM_Start+0x82>
 800484c:	687b      	ldr	r3, [r7, #4]
 800484e:	2202      	movs	r2, #2
 8004850:	f883 203e 	strb.w	r2, [r3, #62]	; 0x3e
 8004854:	e013      	b.n	800487e <HAL_TIM_PWM_Start+0xaa>
 8004856:	683b      	ldr	r3, [r7, #0]
 8004858:	2b04      	cmp	r3, #4
 800485a:	d104      	bne.n	8004866 <HAL_TIM_PWM_Start+0x92>
 800485c:	687b      	ldr	r3, [r7, #4]
 800485e:	2202      	movs	r2, #2
 8004860:	f883 203f 	strb.w	r2, [r3, #63]	; 0x3f
 8004864:	e00b      	b.n	800487e <HAL_TIM_PWM_Start+0xaa>
 8004866:	683b      	ldr	r3, [r7, #0]
 8004868:	2b08      	cmp	r3, #8
 800486a:	d104      	bne.n	8004876 <HAL_TIM_PWM_Start+0xa2>
 800486c:	687b      	ldr	r3, [r7, #4]
 800486e:	2202      	movs	r2, #2
 8004870:	f883 2040 	strb.w	r2, [r3, #64]	; 0x40
 8004874:	e003      	b.n	800487e <HAL_TIM_PWM_Start+0xaa>
 8004876:	687b      	ldr	r3, [r7, #4]
 8004878:	2202      	movs	r2, #2
 800487a:	f883 2041 	strb.w	r2, [r3, #65]	; 0x41

  /* Enable the Capture compare channel */
  TIM_CCxChannelCmd(htim->Instance, Channel, TIM_CCx_ENABLE);
 800487e:	687b      	ldr	r3, [r7, #4]
 8004880:	681b      	ldr	r3, [r3, #0]
 8004882:	2201      	movs	r2, #1
 8004884:	6839      	ldr	r1, [r7, #0]
 8004886:	4618      	mov	r0, r3
 8004888:	f000 fe0e 	bl	80054a8 <TIM_CCxChannelCmd>

  if (IS_TIM_BREAK_INSTANCE(htim->Instance) != RESET)
 800488c:	687b      	ldr	r3, [r7, #4]
 800488e:	681b      	ldr	r3, [r3, #0]
 8004890:	4a2d      	ldr	r2, [pc, #180]	; (8004948 <HAL_TIM_PWM_Start+0x174>)
 8004892:	4293      	cmp	r3, r2
 8004894:	d004      	beq.n	80048a0 <HAL_TIM_PWM_Start+0xcc>
 8004896:	687b      	ldr	r3, [r7, #4]
 8004898:	681b      	ldr	r3, [r3, #0]
 800489a:	4a2c      	ldr	r2, [pc, #176]	; (800494c <HAL_TIM_PWM_Start+0x178>)
 800489c:	4293      	cmp	r3, r2
 800489e:	d101      	bne.n	80048a4 <HAL_TIM_PWM_Start+0xd0>
 80048a0:	2301      	movs	r3, #1
 80048a2:	e000      	b.n	80048a6 <HAL_TIM_PWM_Start+0xd2>
 80048a4:	2300      	movs	r3, #0
 80048a6:	2b00      	cmp	r3, #0
 80048a8:	d007      	beq.n	80048ba <HAL_TIM_PWM_Start+0xe6>
  {
    /* Enable the main output */
    __HAL_TIM_MOE_ENABLE(htim);
 80048aa:	687b      	ldr	r3, [r7, #4]
 80048ac:	681b      	ldr	r3, [r3, #0]
 80048ae:	6c5a      	ldr	r2, [r3, #68]	; 0x44
 80048b0:	687b      	ldr	r3, [r7, #4]
 80048b2:	681b      	ldr	r3, [r3, #0]
 80048b4:	f442 4200 	orr.w	r2, r2, #32768	; 0x8000
 80048b8:	645a      	str	r2, [r3, #68]	; 0x44
  }

  /* Enable the Peripheral, except in trigger mode where enable is automatically done with trigger */
  if (IS_TIM_SLAVE_INSTANCE(htim->Instance))
 80048ba:	687b      	ldr	r3, [r7, #4]
 80048bc:	681b      	ldr	r3, [r3, #0]
 80048be:	4a22      	ldr	r2, [pc, #136]	; (8004948 <HAL_TIM_PWM_Start+0x174>)
 80048c0:	4293      	cmp	r3, r2
 80048c2:	d022      	beq.n	800490a <HAL_TIM_PWM_Start+0x136>
 80048c4:	687b      	ldr	r3, [r7, #4]
 80048c6:	681b      	ldr	r3, [r3, #0]
 80048c8:	f1b3 4f80 	cmp.w	r3, #1073741824	; 0x40000000
 80048cc:	d01d      	beq.n	800490a <HAL_TIM_PWM_Start+0x136>
 80048ce:	687b      	ldr	r3, [r7, #4]
 80048d0:	681b      	ldr	r3, [r3, #0]
 80048d2:	4a1f      	ldr	r2, [pc, #124]	; (8004950 <HAL_TIM_PWM_Start+0x17c>)
 80048d4:	4293      	cmp	r3, r2
 80048d6:	d018      	beq.n	800490a <HAL_TIM_PWM_Start+0x136>
 80048d8:	687b      	ldr	r3, [r7, #4]
 80048da:	681b      	ldr	r3, [r3, #0]
 80048dc:	4a1d      	ldr	r2, [pc, #116]	; (8004954 <HAL_TIM_PWM_Start+0x180>)
 80048de:	4293      	cmp	r3, r2
 80048e0:	d013      	beq.n	800490a <HAL_TIM_PWM_Start+0x136>
 80048e2:	687b      	ldr	r3, [r7, #4]
 80048e4:	681b      	ldr	r3, [r3, #0]
 80048e6:	4a1c      	ldr	r2, [pc, #112]	; (8004958 <HAL_TIM_PWM_Start+0x184>)
 80048e8:	4293      	cmp	r3, r2
 80048ea:	d00e      	beq.n	800490a <HAL_TIM_PWM_Start+0x136>
 80048ec:	687b      	ldr	r3, [r7, #4]
 80048ee:	681b      	ldr	r3, [r3, #0]
 80048f0:	4a16      	ldr	r2, [pc, #88]	; (800494c <HAL_TIM_PWM_Start+0x178>)
 80048f2:	4293      	cmp	r3, r2
 80048f4:	d009      	beq.n	800490a <HAL_TIM_PWM_Start+0x136>
 80048f6:	687b      	ldr	r3, [r7, #4]
 80048f8:	681b      	ldr	r3, [r3, #0]
 80048fa:	4a18      	ldr	r2, [pc, #96]	; (800495c <HAL_TIM_PWM_Start+0x188>)
 80048fc:	4293      	cmp	r3, r2
 80048fe:	d004      	beq.n	800490a <HAL_TIM_PWM_Start+0x136>
 8004900:	687b      	ldr	r3, [r7, #4]
 8004902:	681b      	ldr	r3, [r3, #0]
 8004904:	4a16      	ldr	r2, [pc, #88]	; (8004960 <HAL_TIM_PWM_Start+0x18c>)
 8004906:	4293      	cmp	r3, r2
 8004908:	d111      	bne.n	800492e <HAL_TIM_PWM_Start+0x15a>
  {
    tmpsmcr = htim->Instance->SMCR & TIM_SMCR_SMS;
 800490a:	687b      	ldr	r3, [r7, #4]
 800490c:	681b      	ldr	r3, [r3, #0]
 800490e:	689b      	ldr	r3, [r3, #8]
 8004910:	f003 0307 	and.w	r3, r3, #7
 8004914:	60fb      	str	r3, [r7, #12]
    if (!IS_TIM_SLAVEMODE_TRIGGER_ENABLED(tmpsmcr))
 8004916:	68fb      	ldr	r3, [r7, #12]
 8004918:	2b06      	cmp	r3, #6
 800491a:	d010      	beq.n	800493e <HAL_TIM_PWM_Start+0x16a>
    {
      __HAL_TIM_ENABLE(htim);
 800491c:	687b      	ldr	r3, [r7, #4]
 800491e:	681b      	ldr	r3, [r3, #0]
 8004920:	681a      	ldr	r2, [r3, #0]
 8004922:	687b      	ldr	r3, [r7, #4]
 8004924:	681b      	ldr	r3, [r3, #0]
 8004926:	f042 0201 	orr.w	r2, r2, #1
 800492a:	601a      	str	r2, [r3, #0]
    if (!IS_TIM_SLAVEMODE_TRIGGER_ENABLED(tmpsmcr))
 800492c:	e007      	b.n	800493e <HAL_TIM_PWM_Start+0x16a>
    }
  }
  else
  {
    __HAL_TIM_ENABLE(htim);
 800492e:	687b      	ldr	r3, [r7, #4]
 8004930:	681b      	ldr	r3, [r3, #0]
 8004932:	681a      	ldr	r2, [r3, #0]
 8004934:	687b      	ldr	r3, [r7, #4]
 8004936:	681b      	ldr	r3, [r3, #0]
 8004938:	f042 0201 	orr.w	r2, r2, #1
 800493c:	601a      	str	r2, [r3, #0]
  }

  /* Return function status */
  return HAL_OK;
 800493e:	2300      	movs	r3, #0
}
 8004940:	4618      	mov	r0, r3
 8004942:	3710      	adds	r7, #16
 8004944:	46bd      	mov	sp, r7
 8004946:	bd80      	pop	{r7, pc}
 8004948:	40010000 	.word	0x40010000
 800494c:	40010400 	.word	0x40010400
 8004950:	40000400 	.word	0x40000400
 8004954:	40000800 	.word	0x40000800
 8004958:	40000c00 	.word	0x40000c00
 800495c:	40014000 	.word	0x40014000
 8004960:	40001800 	.word	0x40001800

08004964 <HAL_TIM_IRQHandler>:
  * @brief  This function handles TIM interrupts requests.
  * @param  htim TIM  handle
  * @retval None
  */
void HAL_TIM_IRQHandler(TIM_HandleTypeDef *htim)
{
 8004964:	b580      	push	{r7, lr}
 8004966:	b084      	sub	sp, #16
 8004968:	af00      	add	r7, sp, #0
 800496a:	6078      	str	r0, [r7, #4]
  uint32_t itsource = htim->Instance->DIER;
 800496c:	687b      	ldr	r3, [r7, #4]
 800496e:	681b      	ldr	r3, [r3, #0]
 8004970:	68db      	ldr	r3, [r3, #12]
 8004972:	60fb      	str	r3, [r7, #12]
  uint32_t itflag   = htim->Instance->SR;
 8004974:	687b      	ldr	r3, [r7, #4]
 8004976:	681b      	ldr	r3, [r3, #0]
 8004978:	691b      	ldr	r3, [r3, #16]
 800497a:	60bb      	str	r3, [r7, #8]

  /* Capture compare 1 event */
  if ((itflag & (TIM_FLAG_CC1)) == (TIM_FLAG_CC1))
 800497c:	68bb      	ldr	r3, [r7, #8]
 800497e:	f003 0302 	and.w	r3, r3, #2
 8004982:	2b00      	cmp	r3, #0
 8004984:	d020      	beq.n	80049c8 <HAL_TIM_IRQHandler+0x64>
  {
    if ((itsource & (TIM_IT_CC1)) == (TIM_IT_CC1))
 8004986:	68fb      	ldr	r3, [r7, #12]
 8004988:	f003 0302 	and.w	r3, r3, #2
 800498c:	2b00      	cmp	r3, #0
 800498e:	d01b      	beq.n	80049c8 <HAL_TIM_IRQHandler+0x64>
    {
      {
        __HAL_TIM_CLEAR_FLAG(htim, TIM_FLAG_CC1);
 8004990:	687b      	ldr	r3, [r7, #4]
 8004992:	681b      	ldr	r3, [r3, #0]
 8004994:	f06f 0202 	mvn.w	r2, #2
 8004998:	611a      	str	r2, [r3, #16]
        htim->Channel = HAL_TIM_ACTIVE_CHANNEL_1;
 800499a:	687b      	ldr	r3, [r7, #4]
 800499c:	2201      	movs	r2, #1
 800499e:	771a      	strb	r2, [r3, #28]

        /* Input capture event */
        if ((htim->Instance->CCMR1 & TIM_CCMR1_CC1S) != 0x00U)
 80049a0:	687b      	ldr	r3, [r7, #4]
 80049a2:	681b      	ldr	r3, [r3, #0]
 80049a4:	699b      	ldr	r3, [r3, #24]
 80049a6:	f003 0303 	and.w	r3, r3, #3
 80049aa:	2b00      	cmp	r3, #0
 80049ac:	d003      	beq.n	80049b6 <HAL_TIM_IRQHandler+0x52>
        {
#if (USE_HAL_TIM_REGISTER_CALLBACKS == 1)
          htim->IC_CaptureCallback(htim);
#else
          HAL_TIM_IC_CaptureCallback(htim);
 80049ae:	6878      	ldr	r0, [r7, #4]
 80049b0:	f000 fa65 	bl	8004e7e <HAL_TIM_IC_CaptureCallback>
 80049b4:	e005      	b.n	80049c2 <HAL_TIM_IRQHandler+0x5e>
        {
#if (USE_HAL_TIM_REGISTER_CALLBACKS == 1)
          htim->OC_DelayElapsedCallback(htim);
          htim->PWM_PulseFinishedCallback(htim);
#else
          HAL_TIM_OC_DelayElapsedCallback(htim);
 80049b6:	6878      	ldr	r0, [r7, #4]
 80049b8:	f000 fa57 	bl	8004e6a <HAL_TIM_OC_DelayElapsedCallback>
          HAL_TIM_PWM_PulseFinishedCallback(htim);
 80049bc:	6878      	ldr	r0, [r7, #4]
 80049be:	f000 fa68 	bl	8004e92 <HAL_TIM_PWM_PulseFinishedCallback>
#endif /* USE_HAL_TIM_REGISTER_CALLBACKS */
        }
        htim->Channel = HAL_TIM_ACTIVE_CHANNEL_CLEARED;
 80049c2:	687b      	ldr	r3, [r7, #4]
 80049c4:	2200      	movs	r2, #0
 80049c6:	771a      	strb	r2, [r3, #28]
      }
    }
  }
  /* Capture compare 2 event */
  if ((itflag & (TIM_FLAG_CC2)) == (TIM_FLAG_CC2))
 80049c8:	68bb      	ldr	r3, [r7, #8]
 80049ca:	f003 0304 	and.w	r3, r3, #4
 80049ce:	2b00      	cmp	r3, #0
 80049d0:	d020      	beq.n	8004a14 <HAL_TIM_IRQHandler+0xb0>
  {
    if ((itsource & (TIM_IT_CC2)) == (TIM_IT_CC2))
 80049d2:	68fb      	ldr	r3, [r7, #12]
 80049d4:	f003 0304 	and.w	r3, r3, #4
 80049d8:	2b00      	cmp	r3, #0
 80049da:	d01b      	beq.n	8004a14 <HAL_TIM_IRQHandler+0xb0>
    {
      __HAL_TIM_CLEAR_FLAG(htim, TIM_FLAG_CC2);
 80049dc:	687b      	ldr	r3, [r7, #4]
 80049de:	681b      	ldr	r3, [r3, #0]
 80049e0:	f06f 0204 	mvn.w	r2, #4
 80049e4:	611a      	str	r2, [r3, #16]
      htim->Channel = HAL_TIM_ACTIVE_CHANNEL_2;
 80049e6:	687b      	ldr	r3, [r7, #4]
 80049e8:	2202      	movs	r2, #2
 80049ea:	771a      	strb	r2, [r3, #28]
      /* Input capture event */
      if ((htim->Instance->CCMR1 & TIM_CCMR1_CC2S) != 0x00U)
 80049ec:	687b      	ldr	r3, [r7, #4]
 80049ee:	681b      	ldr	r3, [r3, #0]
 80049f0:	699b      	ldr	r3, [r3, #24]
 80049f2:	f403 7340 	and.w	r3, r3, #768	; 0x300
 80049f6:	2b00      	cmp	r3, #0
 80049f8:	d003      	beq.n	8004a02 <HAL_TIM_IRQHandler+0x9e>
      {
#if (USE_HAL_TIM_REGISTER_CALLBACKS == 1)
        htim->IC_CaptureCallback(htim);
#else
        HAL_TIM_IC_CaptureCallback(htim);
 80049fa:	6878      	ldr	r0, [r7, #4]
 80049fc:	f000 fa3f 	bl	8004e7e <HAL_TIM_IC_CaptureCallback>
 8004a00:	e005      	b.n	8004a0e <HAL_TIM_IRQHandler+0xaa>
      {
#if (USE_HAL_TIM_REGISTER_CALLBACKS == 1)
        htim->OC_DelayElapsedCallback(htim);
        htim->PWM_PulseFinishedCallback(htim);
#else
        HAL_TIM_OC_DelayElapsedCallback(htim);
 8004a02:	6878      	ldr	r0, [r7, #4]
 8004a04:	f000 fa31 	bl	8004e6a <HAL_TIM_OC_DelayElapsedCallback>
        HAL_TIM_PWM_PulseFinishedCallback(htim);
 8004a08:	6878      	ldr	r0, [r7, #4]
 8004a0a:	f000 fa42 	bl	8004e92 <HAL_TIM_PWM_PulseFinishedCallback>
#endif /* USE_HAL_TIM_REGISTER_CALLBACKS */
      }
      htim->Channel = HAL_TIM_ACTIVE_CHANNEL_CLEARED;
 8004a0e:	687b      	ldr	r3, [r7, #4]
 8004a10:	2200      	movs	r2, #0
 8004a12:	771a      	strb	r2, [r3, #28]
    }
  }
  /* Capture compare 3 event */
  if ((itflag & (TIM_FLAG_CC3)) == (TIM_FLAG_CC3))
 8004a14:	68bb      	ldr	r3, [r7, #8]
 8004a16:	f003 0308 	and.w	r3, r3, #8
 8004a1a:	2b00      	cmp	r3, #0
 8004a1c:	d020      	beq.n	8004a60 <HAL_TIM_IRQHandler+0xfc>
  {
    if ((itsource & (TIM_IT_CC3)) == (TIM_IT_CC3))
 8004a1e:	68fb      	ldr	r3, [r7, #12]
 8004a20:	f003 0308 	and.w	r3, r3, #8
 8004a24:	2b00      	cmp	r3, #0
 8004a26:	d01b      	beq.n	8004a60 <HAL_TIM_IRQHandler+0xfc>
    {
      __HAL_TIM_CLEAR_FLAG(htim, TIM_FLAG_CC3);
 8004a28:	687b      	ldr	r3, [r7, #4]
 8004a2a:	681b      	ldr	r3, [r3, #0]
 8004a2c:	f06f 0208 	mvn.w	r2, #8
 8004a30:	611a      	str	r2, [r3, #16]
      htim->Channel = HAL_TIM_ACTIVE_CHANNEL_3;
 8004a32:	687b      	ldr	r3, [r7, #4]
 8004a34:	2204      	movs	r2, #4
 8004a36:	771a      	strb	r2, [r3, #28]
      /* Input capture event */
      if ((htim->Instance->CCMR2 & TIM_CCMR2_CC3S) != 0x00U)
 8004a38:	687b      	ldr	r3, [r7, #4]
 8004a3a:	681b      	ldr	r3, [r3, #0]
 8004a3c:	69db      	ldr	r3, [r3, #28]
 8004a3e:	f003 0303 	and.w	r3, r3, #3
 8004a42:	2b00      	cmp	r3, #0
 8004a44:	d003      	beq.n	8004a4e <HAL_TIM_IRQHandler+0xea>
      {
#if (USE_HAL_TIM_REGISTER_CALLBACKS == 1)
        htim->IC_CaptureCallback(htim);
#else
        HAL_TIM_IC_CaptureCallback(htim);
 8004a46:	6878      	ldr	r0, [r7, #4]
 8004a48:	f000 fa19 	bl	8004e7e <HAL_TIM_IC_CaptureCallback>
 8004a4c:	e005      	b.n	8004a5a <HAL_TIM_IRQHandler+0xf6>
      {
#if (USE_HAL_TIM_REGISTER_CALLBACKS == 1)
        htim->OC_DelayElapsedCallback(htim);
        htim->PWM_PulseFinishedCallback(htim);
#else
        HAL_TIM_OC_DelayElapsedCallback(htim);
 8004a4e:	6878      	ldr	r0, [r7, #4]
 8004a50:	f000 fa0b 	bl	8004e6a <HAL_TIM_OC_DelayElapsedCallback>
        HAL_TIM_PWM_PulseFinishedCallback(htim);
 8004a54:	6878      	ldr	r0, [r7, #4]
 8004a56:	f000 fa1c 	bl	8004e92 <HAL_TIM_PWM_PulseFinishedCallback>
#endif /* USE_HAL_TIM_REGISTER_CALLBACKS */
      }
      htim->Channel = HAL_TIM_ACTIVE_CHANNEL_CLEARED;
 8004a5a:	687b      	ldr	r3, [r7, #4]
 8004a5c:	2200      	movs	r2, #0
 8004a5e:	771a      	strb	r2, [r3, #28]
    }
  }
  /* Capture compare 4 event */
  if ((itflag & (TIM_FLAG_CC4)) == (TIM_FLAG_CC4))
 8004a60:	68bb      	ldr	r3, [r7, #8]
 8004a62:	f003 0310 	and.w	r3, r3, #16
 8004a66:	2b00      	cmp	r3, #0
 8004a68:	d020      	beq.n	8004aac <HAL_TIM_IRQHandler+0x148>
  {
    if ((itsource & (TIM_IT_CC4)) == (TIM_IT_CC4))
 8004a6a:	68fb      	ldr	r3, [r7, #12]
 8004a6c:	f003 0310 	and.w	r3, r3, #16
 8004a70:	2b00      	cmp	r3, #0
 8004a72:	d01b      	beq.n	8004aac <HAL_TIM_IRQHandler+0x148>
    {
      __HAL_TIM_CLEAR_FLAG(htim, TIM_FLAG_CC4);
 8004a74:	687b      	ldr	r3, [r7, #4]
 8004a76:	681b      	ldr	r3, [r3, #0]
 8004a78:	f06f 0210 	mvn.w	r2, #16
 8004a7c:	611a      	str	r2, [r3, #16]
      htim->Channel = HAL_TIM_ACTIVE_CHANNEL_4;
 8004a7e:	687b      	ldr	r3, [r7, #4]
 8004a80:	2208      	movs	r2, #8
 8004a82:	771a      	strb	r2, [r3, #28]
      /* Input capture event */
      if ((htim->Instance->CCMR2 & TIM_CCMR2_CC4S) != 0x00U)
 8004a84:	687b      	ldr	r3, [r7, #4]
 8004a86:	681b      	ldr	r3, [r3, #0]
 8004a88:	69db      	ldr	r3, [r3, #28]
 8004a8a:	f403 7340 	and.w	r3, r3, #768	; 0x300
 8004a8e:	2b00      	cmp	r3, #0
 8004a90:	d003      	beq.n	8004a9a <HAL_TIM_IRQHandler+0x136>
      {
#if (USE_HAL_TIM_REGISTER_CALLBACKS == 1)
        htim->IC_CaptureCallback(htim);
#else
        HAL_TIM_IC_CaptureCallback(htim);
 8004a92:	6878      	ldr	r0, [r7, #4]
 8004a94:	f000 f9f3 	bl	8004e7e <HAL_TIM_IC_CaptureCallback>
 8004a98:	e005      	b.n	8004aa6 <HAL_TIM_IRQHandler+0x142>
      {
#if (USE_HAL_TIM_REGISTER_CALLBACKS == 1)
        htim->OC_DelayElapsedCallback(htim);
        htim->PWM_PulseFinishedCallback(htim);
#else
        HAL_TIM_OC_DelayElapsedCallback(htim);
 8004a9a:	6878      	ldr	r0, [r7, #4]
 8004a9c:	f000 f9e5 	bl	8004e6a <HAL_TIM_OC_DelayElapsedCallback>
        HAL_TIM_PWM_PulseFinishedCallback(htim);
 8004aa0:	6878      	ldr	r0, [r7, #4]
 8004aa2:	f000 f9f6 	bl	8004e92 <HAL_TIM_PWM_PulseFinishedCallback>
#endif /* USE_HAL_TIM_REGISTER_CALLBACKS */
      }
      htim->Channel = HAL_TIM_ACTIVE_CHANNEL_CLEARED;
 8004aa6:	687b      	ldr	r3, [r7, #4]
 8004aa8:	2200      	movs	r2, #0
 8004aaa:	771a      	strb	r2, [r3, #28]
    }
  }
  /* TIM Update event */
  if ((itflag & (TIM_FLAG_UPDATE)) == (TIM_FLAG_UPDATE))
 8004aac:	68bb      	ldr	r3, [r7, #8]
 8004aae:	f003 0301 	and.w	r3, r3, #1
 8004ab2:	2b00      	cmp	r3, #0
 8004ab4:	d00c      	beq.n	8004ad0 <HAL_TIM_IRQHandler+0x16c>
  {
    if ((itsource & (TIM_IT_UPDATE)) == (TIM_IT_UPDATE))
 8004ab6:	68fb      	ldr	r3, [r7, #12]
 8004ab8:	f003 0301 	and.w	r3, r3, #1
 8004abc:	2b00      	cmp	r3, #0
 8004abe:	d007      	beq.n	8004ad0 <HAL_TIM_IRQHandler+0x16c>
    {
      __HAL_TIM_CLEAR_FLAG(htim, TIM_FLAG_UPDATE);
 8004ac0:	687b      	ldr	r3, [r7, #4]
 8004ac2:	681b      	ldr	r3, [r3, #0]
 8004ac4:	f06f 0201 	mvn.w	r2, #1
 8004ac8:	611a      	str	r2, [r3, #16]
#if (USE_HAL_TIM_REGISTER_CALLBACKS == 1)
      htim->PeriodElapsedCallback(htim);
#else
      HAL_TIM_PeriodElapsedCallback(htim);
 8004aca:	6878      	ldr	r0, [r7, #4]
 8004acc:	f000 f9c3 	bl	8004e56 <HAL_TIM_PeriodElapsedCallback>
#endif /* USE_HAL_TIM_REGISTER_CALLBACKS */
    }
  }
  /* TIM Break input event */
  if ((itflag & (TIM_FLAG_BREAK)) == (TIM_FLAG_BREAK))
 8004ad0:	68bb      	ldr	r3, [r7, #8]
 8004ad2:	f003 0380 	and.w	r3, r3, #128	; 0x80
 8004ad6:	2b00      	cmp	r3, #0
 8004ad8:	d00c      	beq.n	8004af4 <HAL_TIM_IRQHandler+0x190>
  {
    if ((itsource & (TIM_IT_BREAK)) == (TIM_IT_BREAK))
 8004ada:	68fb      	ldr	r3, [r7, #12]
 8004adc:	f003 0380 	and.w	r3, r3, #128	; 0x80
 8004ae0:	2b00      	cmp	r3, #0
 8004ae2:	d007      	beq.n	8004af4 <HAL_TIM_IRQHandler+0x190>
    {
      __HAL_TIM_CLEAR_FLAG(htim, TIM_FLAG_BREAK);
 8004ae4:	687b      	ldr	r3, [r7, #4]
 8004ae6:	681b      	ldr	r3, [r3, #0]
 8004ae8:	f06f 0280 	mvn.w	r2, #128	; 0x80
 8004aec:	611a      	str	r2, [r3, #16]
#if (USE_HAL_TIM_REGISTER_CALLBACKS == 1)
      htim->BreakCallback(htim);
#else
      HAL_TIMEx_BreakCallback(htim);
 8004aee:	6878      	ldr	r0, [r7, #4]
 8004af0:	f000 fd86 	bl	8005600 <HAL_TIMEx_BreakCallback>
#endif /* USE_HAL_TIM_REGISTER_CALLBACKS */
    }
  }
  /* TIM Trigger detection event */
  if ((itflag & (TIM_FLAG_TRIGGER)) == (TIM_FLAG_TRIGGER))
 8004af4:	68bb      	ldr	r3, [r7, #8]
 8004af6:	f003 0340 	and.w	r3, r3, #64	; 0x40
 8004afa:	2b00      	cmp	r3, #0
 8004afc:	d00c      	beq.n	8004b18 <HAL_TIM_IRQHandler+0x1b4>
  {
    if ((itsource & (TIM_IT_TRIGGER)) == (TIM_IT_TRIGGER))
 8004afe:	68fb      	ldr	r3, [r7, #12]
 8004b00:	f003 0340 	and.w	r3, r3, #64	; 0x40
 8004b04:	2b00      	cmp	r3, #0
 8004b06:	d007      	beq.n	8004b18 <HAL_TIM_IRQHandler+0x1b4>
    {
      __HAL_TIM_CLEAR_FLAG(htim, TIM_FLAG_TRIGGER);
 8004b08:	687b      	ldr	r3, [r7, #4]
 8004b0a:	681b      	ldr	r3, [r3, #0]
 8004b0c:	f06f 0240 	mvn.w	r2, #64	; 0x40
 8004b10:	611a      	str	r2, [r3, #16]
#if (USE_HAL_TIM_REGISTER_CALLBACKS == 1)
      htim->TriggerCallback(htim);
#else
      HAL_TIM_TriggerCallback(htim);
 8004b12:	6878      	ldr	r0, [r7, #4]
 8004b14:	f000 f9c7 	bl	8004ea6 <HAL_TIM_TriggerCallback>
#endif /* USE_HAL_TIM_REGISTER_CALLBACKS */
    }
  }
  /* TIM commutation event */
  if ((itflag & (TIM_FLAG_COM)) == (TIM_FLAG_COM))
 8004b18:	68bb      	ldr	r3, [r7, #8]
 8004b1a:	f003 0320 	and.w	r3, r3, #32
 8004b1e:	2b00      	cmp	r3, #0
 8004b20:	d00c      	beq.n	8004b3c <HAL_TIM_IRQHandler+0x1d8>
  {
    if ((itsource & (TIM_IT_COM)) == (TIM_IT_COM))
 8004b22:	68fb      	ldr	r3, [r7, #12]
 8004b24:	f003 0320 	and.w	r3, r3, #32
 8004b28:	2b00      	cmp	r3, #0
 8004b2a:	d007      	beq.n	8004b3c <HAL_TIM_IRQHandler+0x1d8>
    {
      __HAL_TIM_CLEAR_FLAG(htim, TIM_FLAG_COM);
 8004b2c:	687b      	ldr	r3, [r7, #4]
 8004b2e:	681b      	ldr	r3, [r3, #0]
 8004b30:	f06f 0220 	mvn.w	r2, #32
 8004b34:	611a      	str	r2, [r3, #16]
#if (USE_HAL_TIM_REGISTER_CALLBACKS == 1)
      htim->CommutationCallback(htim);
#else
      HAL_TIMEx_CommutCallback(htim);
 8004b36:	6878      	ldr	r0, [r7, #4]
 8004b38:	f000 fd58 	bl	80055ec <HAL_TIMEx_CommutCallback>
#endif /* USE_HAL_TIM_REGISTER_CALLBACKS */
    }
  }
}
 8004b3c:	bf00      	nop
 8004b3e:	3710      	adds	r7, #16
 8004b40:	46bd      	mov	sp, r7
 8004b42:	bd80      	pop	{r7, pc}

08004b44 <HAL_TIM_PWM_ConfigChannel>:
  * @retval HAL status
  */
HAL_StatusTypeDef HAL_TIM_PWM_ConfigChannel(TIM_HandleTypeDef *htim,
                                            const TIM_OC_InitTypeDef *sConfig,
                                            uint32_t Channel)
{
 8004b44:	b580      	push	{r7, lr}
 8004b46:	b086      	sub	sp, #24
 8004b48:	af00      	add	r7, sp, #0
 8004b4a:	60f8      	str	r0, [r7, #12]
 8004b4c:	60b9      	str	r1, [r7, #8]
 8004b4e:	607a      	str	r2, [r7, #4]
  HAL_StatusTypeDef status = HAL_OK;
 8004b50:	2300      	movs	r3, #0
 8004b52:	75fb      	strb	r3, [r7, #23]
  assert_param(IS_TIM_PWM_MODE(sConfig->OCMode));
  assert_param(IS_TIM_OC_POLARITY(sConfig->OCPolarity));
  assert_param(IS_TIM_FAST_STATE(sConfig->OCFastMode));

  /* Process Locked */
  __HAL_LOCK(htim);
 8004b54:	68fb      	ldr	r3, [r7, #12]
 8004b56:	f893 303c 	ldrb.w	r3, [r3, #60]	; 0x3c
 8004b5a:	2b01      	cmp	r3, #1
 8004b5c:	d101      	bne.n	8004b62 <HAL_TIM_PWM_ConfigChannel+0x1e>
 8004b5e:	2302      	movs	r3, #2
 8004b60:	e0ae      	b.n	8004cc0 <HAL_TIM_PWM_ConfigChannel+0x17c>
 8004b62:	68fb      	ldr	r3, [r7, #12]
 8004b64:	2201      	movs	r2, #1
 8004b66:	f883 203c 	strb.w	r2, [r3, #60]	; 0x3c

  switch (Channel)
 8004b6a:	687b      	ldr	r3, [r7, #4]
 8004b6c:	2b0c      	cmp	r3, #12
 8004b6e:	f200 809f 	bhi.w	8004cb0 <HAL_TIM_PWM_ConfigChannel+0x16c>
 8004b72:	a201      	add	r2, pc, #4	; (adr r2, 8004b78 <HAL_TIM_PWM_ConfigChannel+0x34>)
 8004b74:	f852 f023 	ldr.w	pc, [r2, r3, lsl #2]
 8004b78:	08004bad 	.word	0x08004bad
 8004b7c:	08004cb1 	.word	0x08004cb1
 8004b80:	08004cb1 	.word	0x08004cb1
 8004b84:	08004cb1 	.word	0x08004cb1
 8004b88:	08004bed 	.word	0x08004bed
 8004b8c:	08004cb1 	.word	0x08004cb1
 8004b90:	08004cb1 	.word	0x08004cb1
 8004b94:	08004cb1 	.word	0x08004cb1
 8004b98:	08004c2f 	.word	0x08004c2f
 8004b9c:	08004cb1 	.word	0x08004cb1
 8004ba0:	08004cb1 	.word	0x08004cb1
 8004ba4:	08004cb1 	.word	0x08004cb1
 8004ba8:	08004c6f 	.word	0x08004c6f
    {
      /* Check the parameters */
      assert_param(IS_TIM_CC1_INSTANCE(htim->Instance));

      /* Configure the Channel 1 in PWM mode */
      TIM_OC1_SetConfig(htim->Instance, sConfig);
 8004bac:	68fb      	ldr	r3, [r7, #12]
 8004bae:	681b      	ldr	r3, [r3, #0]
 8004bb0:	68b9      	ldr	r1, [r7, #8]
 8004bb2:	4618      	mov	r0, r3
 8004bb4:	f000 fa2e 	bl	8005014 <TIM_OC1_SetConfig>

      /* Set the Preload enable bit for channel1 */
      htim->Instance->CCMR1 |= TIM_CCMR1_OC1PE;
 8004bb8:	68fb      	ldr	r3, [r7, #12]
 8004bba:	681b      	ldr	r3, [r3, #0]
 8004bbc:	699a      	ldr	r2, [r3, #24]
 8004bbe:	68fb      	ldr	r3, [r7, #12]
 8004bc0:	681b      	ldr	r3, [r3, #0]
 8004bc2:	f042 0208 	orr.w	r2, r2, #8
 8004bc6:	619a      	str	r2, [r3, #24]

      /* Configure the Output Fast mode */
      htim->Instance->CCMR1 &= ~TIM_CCMR1_OC1FE;
 8004bc8:	68fb      	ldr	r3, [r7, #12]
 8004bca:	681b      	ldr	r3, [r3, #0]
 8004bcc:	699a      	ldr	r2, [r3, #24]
 8004bce:	68fb      	ldr	r3, [r7, #12]
 8004bd0:	681b      	ldr	r3, [r3, #0]
 8004bd2:	f022 0204 	bic.w	r2, r2, #4
 8004bd6:	619a      	str	r2, [r3, #24]
      htim->Instance->CCMR1 |= sConfig->OCFastMode;
 8004bd8:	68fb      	ldr	r3, [r7, #12]
 8004bda:	681b      	ldr	r3, [r3, #0]
 8004bdc:	6999      	ldr	r1, [r3, #24]
 8004bde:	68bb      	ldr	r3, [r7, #8]
 8004be0:	691a      	ldr	r2, [r3, #16]
 8004be2:	68fb      	ldr	r3, [r7, #12]
 8004be4:	681b      	ldr	r3, [r3, #0]
 8004be6:	430a      	orrs	r2, r1
 8004be8:	619a      	str	r2, [r3, #24]
      break;
 8004bea:	e064      	b.n	8004cb6 <HAL_TIM_PWM_ConfigChannel+0x172>
    {
      /* Check the parameters */
      assert_param(IS_TIM_CC2_INSTANCE(htim->Instance));

      /* Configure the Channel 2 in PWM mode */
      TIM_OC2_SetConfig(htim->Instance, sConfig);
 8004bec:	68fb      	ldr	r3, [r7, #12]
 8004bee:	681b      	ldr	r3, [r3, #0]
 8004bf0:	68b9      	ldr	r1, [r7, #8]
 8004bf2:	4618      	mov	r0, r3
 8004bf4:	f000 fa7e 	bl	80050f4 <TIM_OC2_SetConfig>

      /* Set the Preload enable bit for channel2 */
      htim->Instance->CCMR1 |= TIM_CCMR1_OC2PE;
 8004bf8:	68fb      	ldr	r3, [r7, #12]
 8004bfa:	681b      	ldr	r3, [r3, #0]
 8004bfc:	699a      	ldr	r2, [r3, #24]
 8004bfe:	68fb      	ldr	r3, [r7, #12]
 8004c00:	681b      	ldr	r3, [r3, #0]
 8004c02:	f442 6200 	orr.w	r2, r2, #2048	; 0x800
 8004c06:	619a      	str	r2, [r3, #24]

      /* Configure the Output Fast mode */
      htim->Instance->CCMR1 &= ~TIM_CCMR1_OC2FE;
 8004c08:	68fb      	ldr	r3, [r7, #12]
 8004c0a:	681b      	ldr	r3, [r3, #0]
 8004c0c:	699a      	ldr	r2, [r3, #24]
 8004c0e:	68fb      	ldr	r3, [r7, #12]
 8004c10:	681b      	ldr	r3, [r3, #0]
 8004c12:	f422 6280 	bic.w	r2, r2, #1024	; 0x400
 8004c16:	619a      	str	r2, [r3, #24]
      htim->Instance->CCMR1 |= sConfig->OCFastMode << 8U;
 8004c18:	68fb      	ldr	r3, [r7, #12]
 8004c1a:	681b      	ldr	r3, [r3, #0]
 8004c1c:	6999      	ldr	r1, [r3, #24]
 8004c1e:	68bb      	ldr	r3, [r7, #8]
 8004c20:	691b      	ldr	r3, [r3, #16]
 8004c22:	021a      	lsls	r2, r3, #8
 8004c24:	68fb      	ldr	r3, [r7, #12]
 8004c26:	681b      	ldr	r3, [r3, #0]
 8004c28:	430a      	orrs	r2, r1
 8004c2a:	619a      	str	r2, [r3, #24]
      break;
 8004c2c:	e043      	b.n	8004cb6 <HAL_TIM_PWM_ConfigChannel+0x172>
    {
      /* Check the parameters */
      assert_param(IS_TIM_CC3_INSTANCE(htim->Instance));

      /* Configure the Channel 3 in PWM mode */
      TIM_OC3_SetConfig(htim->Instance, sConfig);
 8004c2e:	68fb      	ldr	r3, [r7, #12]
 8004c30:	681b      	ldr	r3, [r3, #0]
 8004c32:	68b9      	ldr	r1, [r7, #8]
 8004c34:	4618      	mov	r0, r3
 8004c36:	f000 fad3 	bl	80051e0 <TIM_OC3_SetConfig>

      /* Set the Preload enable bit for channel3 */
      htim->Instance->CCMR2 |= TIM_CCMR2_OC3PE;
 8004c3a:	68fb      	ldr	r3, [r7, #12]
 8004c3c:	681b      	ldr	r3, [r3, #0]
 8004c3e:	69da      	ldr	r2, [r3, #28]
 8004c40:	68fb      	ldr	r3, [r7, #12]
 8004c42:	681b      	ldr	r3, [r3, #0]
 8004c44:	f042 0208 	orr.w	r2, r2, #8
 8004c48:	61da      	str	r2, [r3, #28]

      /* Configure the Output Fast mode */
      htim->Instance->CCMR2 &= ~TIM_CCMR2_OC3FE;
 8004c4a:	68fb      	ldr	r3, [r7, #12]
 8004c4c:	681b      	ldr	r3, [r3, #0]
 8004c4e:	69da      	ldr	r2, [r3, #28]
 8004c50:	68fb      	ldr	r3, [r7, #12]
 8004c52:	681b      	ldr	r3, [r3, #0]
 8004c54:	f022 0204 	bic.w	r2, r2, #4
 8004c58:	61da      	str	r2, [r3, #28]
      htim->Instance->CCMR2 |= sConfig->OCFastMode;
 8004c5a:	68fb      	ldr	r3, [r7, #12]
 8004c5c:	681b      	ldr	r3, [r3, #0]
 8004c5e:	69d9      	ldr	r1, [r3, #28]
 8004c60:	68bb      	ldr	r3, [r7, #8]
 8004c62:	691a      	ldr	r2, [r3, #16]
 8004c64:	68fb      	ldr	r3, [r7, #12]
 8004c66:	681b      	ldr	r3, [r3, #0]
 8004c68:	430a      	orrs	r2, r1
 8004c6a:	61da      	str	r2, [r3, #28]
      break;
 8004c6c:	e023      	b.n	8004cb6 <HAL_TIM_PWM_ConfigChannel+0x172>
    {
      /* Check the parameters */
      assert_param(IS_TIM_CC4_INSTANCE(htim->Instance));

      /* Configure the Channel 4 in PWM mode */
      TIM_OC4_SetConfig(htim->Instance, sConfig);
 8004c6e:	68fb      	ldr	r3, [r7, #12]
 8004c70:	681b      	ldr	r3, [r3, #0]
 8004c72:	68b9      	ldr	r1, [r7, #8]
 8004c74:	4618      	mov	r0, r3
 8004c76:	f000 fb27 	bl	80052c8 <TIM_OC4_SetConfig>

      /* Set the Preload enable bit for channel4 */
      htim->Instance->CCMR2 |= TIM_CCMR2_OC4PE;
 8004c7a:	68fb      	ldr	r3, [r7, #12]
 8004c7c:	681b      	ldr	r3, [r3, #0]
 8004c7e:	69da      	ldr	r2, [r3, #28]
 8004c80:	68fb      	ldr	r3, [r7, #12]
 8004c82:	681b      	ldr	r3, [r3, #0]
 8004c84:	f442 6200 	orr.w	r2, r2, #2048	; 0x800
 8004c88:	61da      	str	r2, [r3, #28]

      /* Configure the Output Fast mode */
      htim->Instance->CCMR2 &= ~TIM_CCMR2_OC4FE;
 8004c8a:	68fb      	ldr	r3, [r7, #12]
 8004c8c:	681b      	ldr	r3, [r3, #0]
 8004c8e:	69da      	ldr	r2, [r3, #28]
 8004c90:	68fb      	ldr	r3, [r7, #12]
 8004c92:	681b      	ldr	r3, [r3, #0]
 8004c94:	f422 6280 	bic.w	r2, r2, #1024	; 0x400
 8004c98:	61da      	str	r2, [r3, #28]
      htim->Instance->CCMR2 |= sConfig->OCFastMode << 8U;
 8004c9a:	68fb      	ldr	r3, [r7, #12]
 8004c9c:	681b      	ldr	r3, [r3, #0]
 8004c9e:	69d9      	ldr	r1, [r3, #28]
 8004ca0:	68bb      	ldr	r3, [r7, #8]
 8004ca2:	691b      	ldr	r3, [r3, #16]
 8004ca4:	021a      	lsls	r2, r3, #8
 8004ca6:	68fb      	ldr	r3, [r7, #12]
 8004ca8:	681b      	ldr	r3, [r3, #0]
 8004caa:	430a      	orrs	r2, r1
 8004cac:	61da      	str	r2, [r3, #28]
      break;
 8004cae:	e002      	b.n	8004cb6 <HAL_TIM_PWM_ConfigChannel+0x172>
    }

    default:
      status = HAL_ERROR;
 8004cb0:	2301      	movs	r3, #1
 8004cb2:	75fb      	strb	r3, [r7, #23]
      break;
 8004cb4:	bf00      	nop
  }

  __HAL_UNLOCK(htim);
 8004cb6:	68fb      	ldr	r3, [r7, #12]
 8004cb8:	2200      	movs	r2, #0
 8004cba:	f883 203c 	strb.w	r2, [r3, #60]	; 0x3c

  return status;
 8004cbe:	7dfb      	ldrb	r3, [r7, #23]
}
 8004cc0:	4618      	mov	r0, r3
 8004cc2:	3718      	adds	r7, #24
 8004cc4:	46bd      	mov	sp, r7
 8004cc6:	bd80      	pop	{r7, pc}

08004cc8 <HAL_TIM_ConfigClockSource>:
  * @param  sClockSourceConfig pointer to a TIM_ClockConfigTypeDef structure that
  *         contains the clock source information for the TIM peripheral.
  * @retval HAL status
  */
HAL_StatusTypeDef HAL_TIM_ConfigClockSource(TIM_HandleTypeDef *htim, const TIM_ClockConfigTypeDef *sClockSourceConfig)
{
 8004cc8:	b580      	push	{r7, lr}
 8004cca:	b084      	sub	sp, #16
 8004ccc:	af00      	add	r7, sp, #0
 8004cce:	6078      	str	r0, [r7, #4]
 8004cd0:	6039      	str	r1, [r7, #0]
  HAL_StatusTypeDef status = HAL_OK;
 8004cd2:	2300      	movs	r3, #0
 8004cd4:	73fb      	strb	r3, [r7, #15]
  uint32_t tmpsmcr;

  /* Process Locked */
  __HAL_LOCK(htim);
 8004cd6:	687b      	ldr	r3, [r7, #4]
 8004cd8:	f893 303c 	ldrb.w	r3, [r3, #60]	; 0x3c
 8004cdc:	2b01      	cmp	r3, #1
 8004cde:	d101      	bne.n	8004ce4 <HAL_TIM_ConfigClockSource+0x1c>
 8004ce0:	2302      	movs	r3, #2
 8004ce2:	e0b4      	b.n	8004e4e <HAL_TIM_ConfigClockSource+0x186>
 8004ce4:	687b      	ldr	r3, [r7, #4]
 8004ce6:	2201      	movs	r2, #1
 8004ce8:	f883 203c 	strb.w	r2, [r3, #60]	; 0x3c

  htim->State = HAL_TIM_STATE_BUSY;
 8004cec:	687b      	ldr	r3, [r7, #4]
 8004cee:	2202      	movs	r2, #2
 8004cf0:	f883 203d 	strb.w	r2, [r3, #61]	; 0x3d

  /* Check the parameters */
  assert_param(IS_TIM_CLOCKSOURCE(sClockSourceConfig->ClockSource));

  /* Reset the SMS, TS, ECE, ETPS and ETRF bits */
  tmpsmcr = htim->Instance->SMCR;
 8004cf4:	687b      	ldr	r3, [r7, #4]
 8004cf6:	681b      	ldr	r3, [r3, #0]
 8004cf8:	689b      	ldr	r3, [r3, #8]
 8004cfa:	60bb      	str	r3, [r7, #8]
  tmpsmcr &= ~(TIM_SMCR_SMS | TIM_SMCR_TS);
 8004cfc:	68bb      	ldr	r3, [r7, #8]
 8004cfe:	f023 0377 	bic.w	r3, r3, #119	; 0x77
 8004d02:	60bb      	str	r3, [r7, #8]
  tmpsmcr &= ~(TIM_SMCR_ETF | TIM_SMCR_ETPS | TIM_SMCR_ECE | TIM_SMCR_ETP);
 8004d04:	68bb      	ldr	r3, [r7, #8]
 8004d06:	f423 437f 	bic.w	r3, r3, #65280	; 0xff00
 8004d0a:	60bb      	str	r3, [r7, #8]
  htim->Instance->SMCR = tmpsmcr;
 8004d0c:	687b      	ldr	r3, [r7, #4]
 8004d0e:	681b      	ldr	r3, [r3, #0]
 8004d10:	68ba      	ldr	r2, [r7, #8]
 8004d12:	609a      	str	r2, [r3, #8]

  switch (sClockSourceConfig->ClockSource)
 8004d14:	683b      	ldr	r3, [r7, #0]
 8004d16:	681b      	ldr	r3, [r3, #0]
 8004d18:	f5b3 5f00 	cmp.w	r3, #8192	; 0x2000
 8004d1c:	d03e      	beq.n	8004d9c <HAL_TIM_ConfigClockSource+0xd4>
 8004d1e:	f5b3 5f00 	cmp.w	r3, #8192	; 0x2000
 8004d22:	f200 8087 	bhi.w	8004e34 <HAL_TIM_ConfigClockSource+0x16c>
 8004d26:	f5b3 5f80 	cmp.w	r3, #4096	; 0x1000
 8004d2a:	f000 8086 	beq.w	8004e3a <HAL_TIM_ConfigClockSource+0x172>
 8004d2e:	f5b3 5f80 	cmp.w	r3, #4096	; 0x1000
 8004d32:	d87f      	bhi.n	8004e34 <HAL_TIM_ConfigClockSource+0x16c>
 8004d34:	2b70      	cmp	r3, #112	; 0x70
 8004d36:	d01a      	beq.n	8004d6e <HAL_TIM_ConfigClockSource+0xa6>
 8004d38:	2b70      	cmp	r3, #112	; 0x70
 8004d3a:	d87b      	bhi.n	8004e34 <HAL_TIM_ConfigClockSource+0x16c>
 8004d3c:	2b60      	cmp	r3, #96	; 0x60
 8004d3e:	d050      	beq.n	8004de2 <HAL_TIM_ConfigClockSource+0x11a>
 8004d40:	2b60      	cmp	r3, #96	; 0x60
 8004d42:	d877      	bhi.n	8004e34 <HAL_TIM_ConfigClockSource+0x16c>
 8004d44:	2b50      	cmp	r3, #80	; 0x50
 8004d46:	d03c      	beq.n	8004dc2 <HAL_TIM_ConfigClockSource+0xfa>
 8004d48:	2b50      	cmp	r3, #80	; 0x50
 8004d4a:	d873      	bhi.n	8004e34 <HAL_TIM_ConfigClockSource+0x16c>
 8004d4c:	2b40      	cmp	r3, #64	; 0x40
 8004d4e:	d058      	beq.n	8004e02 <HAL_TIM_ConfigClockSource+0x13a>
 8004d50:	2b40      	cmp	r3, #64	; 0x40
 8004d52:	d86f      	bhi.n	8004e34 <HAL_TIM_ConfigClockSource+0x16c>
 8004d54:	2b30      	cmp	r3, #48	; 0x30
 8004d56:	d064      	beq.n	8004e22 <HAL_TIM_ConfigClockSource+0x15a>
 8004d58:	2b30      	cmp	r3, #48	; 0x30
 8004d5a:	d86b      	bhi.n	8004e34 <HAL_TIM_ConfigClockSource+0x16c>
 8004d5c:	2b20      	cmp	r3, #32
 8004d5e:	d060      	beq.n	8004e22 <HAL_TIM_ConfigClockSource+0x15a>
 8004d60:	2b20      	cmp	r3, #32
 8004d62:	d867      	bhi.n	8004e34 <HAL_TIM_ConfigClockSource+0x16c>
 8004d64:	2b00      	cmp	r3, #0
 8004d66:	d05c      	beq.n	8004e22 <HAL_TIM_ConfigClockSource+0x15a>
 8004d68:	2b10      	cmp	r3, #16
 8004d6a:	d05a      	beq.n	8004e22 <HAL_TIM_ConfigClockSource+0x15a>
 8004d6c:	e062      	b.n	8004e34 <HAL_TIM_ConfigClockSource+0x16c>
      assert_param(IS_TIM_CLOCKPRESCALER(sClockSourceConfig->ClockPrescaler));
      assert_param(IS_TIM_CLOCKPOLARITY(sClockSourceConfig->ClockPolarity));
      assert_param(IS_TIM_CLOCKFILTER(sClockSourceConfig->ClockFilter));

      /* Configure the ETR Clock source */
      TIM_ETR_SetConfig(htim->Instance,
 8004d6e:	687b      	ldr	r3, [r7, #4]
 8004d70:	6818      	ldr	r0, [r3, #0]
                        sClockSourceConfig->ClockPrescaler,
 8004d72:	683b      	ldr	r3, [r7, #0]
 8004d74:	6899      	ldr	r1, [r3, #8]
                        sClockSourceConfig->ClockPolarity,
 8004d76:	683b      	ldr	r3, [r7, #0]
 8004d78:	685a      	ldr	r2, [r3, #4]
                        sClockSourceConfig->ClockFilter);
 8004d7a:	683b      	ldr	r3, [r7, #0]
 8004d7c:	68db      	ldr	r3, [r3, #12]
      TIM_ETR_SetConfig(htim->Instance,
 8004d7e:	f000 fb73 	bl	8005468 <TIM_ETR_SetConfig>

      /* Select the External clock mode1 and the ETRF trigger */
      tmpsmcr = htim->Instance->SMCR;
 8004d82:	687b      	ldr	r3, [r7, #4]
 8004d84:	681b      	ldr	r3, [r3, #0]
 8004d86:	689b      	ldr	r3, [r3, #8]
 8004d88:	60bb      	str	r3, [r7, #8]
      tmpsmcr |= (TIM_SLAVEMODE_EXTERNAL1 | TIM_CLOCKSOURCE_ETRMODE1);
 8004d8a:	68bb      	ldr	r3, [r7, #8]
 8004d8c:	f043 0377 	orr.w	r3, r3, #119	; 0x77
 8004d90:	60bb      	str	r3, [r7, #8]
      /* Write to TIMx SMCR */
      htim->Instance->SMCR = tmpsmcr;
 8004d92:	687b      	ldr	r3, [r7, #4]
 8004d94:	681b      	ldr	r3, [r3, #0]
 8004d96:	68ba      	ldr	r2, [r7, #8]
 8004d98:	609a      	str	r2, [r3, #8]
      break;
 8004d9a:	e04f      	b.n	8004e3c <HAL_TIM_ConfigClockSource+0x174>
      assert_param(IS_TIM_CLOCKPRESCALER(sClockSourceConfig->ClockPrescaler));
      assert_param(IS_TIM_CLOCKPOLARITY(sClockSourceConfig->ClockPolarity));
      assert_param(IS_TIM_CLOCKFILTER(sClockSourceConfig->ClockFilter));

      /* Configure the ETR Clock source */
      TIM_ETR_SetConfig(htim->Instance,
 8004d9c:	687b      	ldr	r3, [r7, #4]
 8004d9e:	6818      	ldr	r0, [r3, #0]
                        sClockSourceConfig->ClockPrescaler,
 8004da0:	683b      	ldr	r3, [r7, #0]
 8004da2:	6899      	ldr	r1, [r3, #8]
                        sClockSourceConfig->ClockPolarity,
 8004da4:	683b      	ldr	r3, [r7, #0]
 8004da6:	685a      	ldr	r2, [r3, #4]
                        sClockSourceConfig->ClockFilter);
 8004da8:	683b      	ldr	r3, [r7, #0]
 8004daa:	68db      	ldr	r3, [r3, #12]
      TIM_ETR_SetConfig(htim->Instance,
 8004dac:	f000 fb5c 	bl	8005468 <TIM_ETR_SetConfig>
      /* Enable the External clock mode2 */
      htim->Instance->SMCR |= TIM_SMCR_ECE;
 8004db0:	687b      	ldr	r3, [r7, #4]
 8004db2:	681b      	ldr	r3, [r3, #0]
 8004db4:	689a      	ldr	r2, [r3, #8]
 8004db6:	687b      	ldr	r3, [r7, #4]
 8004db8:	681b      	ldr	r3, [r3, #0]
 8004dba:	f442 4280 	orr.w	r2, r2, #16384	; 0x4000
 8004dbe:	609a      	str	r2, [r3, #8]
      break;
 8004dc0:	e03c      	b.n	8004e3c <HAL_TIM_ConfigClockSource+0x174>

      /* Check TI1 input conditioning related parameters */
      assert_param(IS_TIM_CLOCKPOLARITY(sClockSourceConfig->ClockPolarity));
      assert_param(IS_TIM_CLOCKFILTER(sClockSourceConfig->ClockFilter));

      TIM_TI1_ConfigInputStage(htim->Instance,
 8004dc2:	687b      	ldr	r3, [r7, #4]
 8004dc4:	6818      	ldr	r0, [r3, #0]
                               sClockSourceConfig->ClockPolarity,
 8004dc6:	683b      	ldr	r3, [r7, #0]
 8004dc8:	6859      	ldr	r1, [r3, #4]
                               sClockSourceConfig->ClockFilter);
 8004dca:	683b      	ldr	r3, [r7, #0]
 8004dcc:	68db      	ldr	r3, [r3, #12]
      TIM_TI1_ConfigInputStage(htim->Instance,
 8004dce:	461a      	mov	r2, r3
 8004dd0:	f000 fad0 	bl	8005374 <TIM_TI1_ConfigInputStage>
      TIM_ITRx_SetConfig(htim->Instance, TIM_CLOCKSOURCE_TI1);
 8004dd4:	687b      	ldr	r3, [r7, #4]
 8004dd6:	681b      	ldr	r3, [r3, #0]
 8004dd8:	2150      	movs	r1, #80	; 0x50
 8004dda:	4618      	mov	r0, r3
 8004ddc:	f000 fb29 	bl	8005432 <TIM_ITRx_SetConfig>
      break;
 8004de0:	e02c      	b.n	8004e3c <HAL_TIM_ConfigClockSource+0x174>

      /* Check TI2 input conditioning related parameters */
      assert_param(IS_TIM_CLOCKPOLARITY(sClockSourceConfig->ClockPolarity));
      assert_param(IS_TIM_CLOCKFILTER(sClockSourceConfig->ClockFilter));

      TIM_TI2_ConfigInputStage(htim->Instance,
 8004de2:	687b      	ldr	r3, [r7, #4]
 8004de4:	6818      	ldr	r0, [r3, #0]
                               sClockSourceConfig->ClockPolarity,
 8004de6:	683b      	ldr	r3, [r7, #0]
 8004de8:	6859      	ldr	r1, [r3, #4]
                               sClockSourceConfig->ClockFilter);
 8004dea:	683b      	ldr	r3, [r7, #0]
 8004dec:	68db      	ldr	r3, [r3, #12]
      TIM_TI2_ConfigInputStage(htim->Instance,
 8004dee:	461a      	mov	r2, r3
 8004df0:	f000 faef 	bl	80053d2 <TIM_TI2_ConfigInputStage>
      TIM_ITRx_SetConfig(htim->Instance, TIM_CLOCKSOURCE_TI2);
 8004df4:	687b      	ldr	r3, [r7, #4]
 8004df6:	681b      	ldr	r3, [r3, #0]
 8004df8:	2160      	movs	r1, #96	; 0x60
 8004dfa:	4618      	mov	r0, r3
 8004dfc:	f000 fb19 	bl	8005432 <TIM_ITRx_SetConfig>
      break;
 8004e00:	e01c      	b.n	8004e3c <HAL_TIM_ConfigClockSource+0x174>

      /* Check TI1 input conditioning related parameters */
      assert_param(IS_TIM_CLOCKPOLARITY(sClockSourceConfig->ClockPolarity));
      assert_param(IS_TIM_CLOCKFILTER(sClockSourceConfig->ClockFilter));

      TIM_TI1_ConfigInputStage(htim->Instance,
 8004e02:	687b      	ldr	r3, [r7, #4]
 8004e04:	6818      	ldr	r0, [r3, #0]
                               sClockSourceConfig->ClockPolarity,
 8004e06:	683b      	ldr	r3, [r7, #0]
 8004e08:	6859      	ldr	r1, [r3, #4]
                               sClockSourceConfig->ClockFilter);
 8004e0a:	683b      	ldr	r3, [r7, #0]
 8004e0c:	68db      	ldr	r3, [r3, #12]
      TIM_TI1_ConfigInputStage(htim->Instance,
 8004e0e:	461a      	mov	r2, r3
 8004e10:	f000 fab0 	bl	8005374 <TIM_TI1_ConfigInputStage>
      TIM_ITRx_SetConfig(htim->Instance, TIM_CLOCKSOURCE_TI1ED);
 8004e14:	687b      	ldr	r3, [r7, #4]
 8004e16:	681b      	ldr	r3, [r3, #0]
 8004e18:	2140      	movs	r1, #64	; 0x40
 8004e1a:	4618      	mov	r0, r3
 8004e1c:	f000 fb09 	bl	8005432 <TIM_ITRx_SetConfig>
      break;
 8004e20:	e00c      	b.n	8004e3c <HAL_TIM_ConfigClockSource+0x174>
    case TIM_CLOCKSOURCE_ITR3:
    {
      /* Check whether or not the timer instance supports internal trigger input */
      assert_param(IS_TIM_CLOCKSOURCE_ITRX_INSTANCE(htim->Instance));

      TIM_ITRx_SetConfig(htim->Instance, sClockSourceConfig->ClockSource);
 8004e22:	687b      	ldr	r3, [r7, #4]
 8004e24:	681a      	ldr	r2, [r3, #0]
 8004e26:	683b      	ldr	r3, [r7, #0]
 8004e28:	681b      	ldr	r3, [r3, #0]
 8004e2a:	4619      	mov	r1, r3
 8004e2c:	4610      	mov	r0, r2
 8004e2e:	f000 fb00 	bl	8005432 <TIM_ITRx_SetConfig>
      break;
 8004e32:	e003      	b.n	8004e3c <HAL_TIM_ConfigClockSource+0x174>
    }

    default:
      status = HAL_ERROR;
 8004e34:	2301      	movs	r3, #1
 8004e36:	73fb      	strb	r3, [r7, #15]
      break;
 8004e38:	e000      	b.n	8004e3c <HAL_TIM_ConfigClockSource+0x174>
      break;
 8004e3a:	bf00      	nop
  }
  htim->State = HAL_TIM_STATE_READY;
 8004e3c:	687b      	ldr	r3, [r7, #4]
 8004e3e:	2201      	movs	r2, #1
 8004e40:	f883 203d 	strb.w	r2, [r3, #61]	; 0x3d

  __HAL_UNLOCK(htim);
 8004e44:	687b      	ldr	r3, [r7, #4]
 8004e46:	2200      	movs	r2, #0
 8004e48:	f883 203c 	strb.w	r2, [r3, #60]	; 0x3c

  return status;
 8004e4c:	7bfb      	ldrb	r3, [r7, #15]
}
 8004e4e:	4618      	mov	r0, r3
 8004e50:	3710      	adds	r7, #16
 8004e52:	46bd      	mov	sp, r7
 8004e54:	bd80      	pop	{r7, pc}

08004e56 <HAL_TIM_PeriodElapsedCallback>:
  * @brief  Period elapsed callback in non-blocking mode
  * @param  htim TIM handle
  * @retval None
  */
__weak void HAL_TIM_PeriodElapsedCallback(TIM_HandleTypeDef *htim)
{
 8004e56:	b480      	push	{r7}
 8004e58:	b083      	sub	sp, #12
 8004e5a:	af00      	add	r7, sp, #0
 8004e5c:	6078      	str	r0, [r7, #4]
  UNUSED(htim);

  /* NOTE : This function should not be modified, when the callback is needed,
            the HAL_TIM_PeriodElapsedCallback could be implemented in the user file
   */
}
 8004e5e:	bf00      	nop
 8004e60:	370c      	adds	r7, #12
 8004e62:	46bd      	mov	sp, r7
 8004e64:	f85d 7b04 	ldr.w	r7, [sp], #4
 8004e68:	4770      	bx	lr

08004e6a <HAL_TIM_OC_DelayElapsedCallback>:
  * @brief  Output Compare callback in non-blocking mode
  * @param  htim TIM OC handle
  * @retval None
  */
__weak void HAL_TIM_OC_DelayElapsedCallback(TIM_HandleTypeDef *htim)
{
 8004e6a:	b480      	push	{r7}
 8004e6c:	b083      	sub	sp, #12
 8004e6e:	af00      	add	r7, sp, #0
 8004e70:	6078      	str	r0, [r7, #4]
  UNUSED(htim);

  /* NOTE : This function should not be modified, when the callback is needed,
            the HAL_TIM_OC_DelayElapsedCallback could be implemented in the user file
   */
}
 8004e72:	bf00      	nop
 8004e74:	370c      	adds	r7, #12
 8004e76:	46bd      	mov	sp, r7
 8004e78:	f85d 7b04 	ldr.w	r7, [sp], #4
 8004e7c:	4770      	bx	lr

08004e7e <HAL_TIM_IC_CaptureCallback>:
  * @brief  Input Capture callback in non-blocking mode
  * @param  htim TIM IC handle
  * @retval None
  */
__weak void HAL_TIM_IC_CaptureCallback(TIM_HandleTypeDef *htim)
{
 8004e7e:	b480      	push	{r7}
 8004e80:	b083      	sub	sp, #12
 8004e82:	af00      	add	r7, sp, #0
 8004e84:	6078      	str	r0, [r7, #4]
  UNUSED(htim);

  /* NOTE : This function should not be modified, when the callback is needed,
            the HAL_TIM_IC_CaptureCallback could be implemented in the user file
   */
}
 8004e86:	bf00      	nop
 8004e88:	370c      	adds	r7, #12
 8004e8a:	46bd      	mov	sp, r7
 8004e8c:	f85d 7b04 	ldr.w	r7, [sp], #4
 8004e90:	4770      	bx	lr

08004e92 <HAL_TIM_PWM_PulseFinishedCallback>:
  * @brief  PWM Pulse finished callback in non-blocking mode
  * @param  htim TIM handle
  * @retval None
  */
__weak void HAL_TIM_PWM_PulseFinishedCallback(TIM_HandleTypeDef *htim)
{
 8004e92:	b480      	push	{r7}
 8004e94:	b083      	sub	sp, #12
 8004e96:	af00      	add	r7, sp, #0
 8004e98:	6078      	str	r0, [r7, #4]
  UNUSED(htim);

  /* NOTE : This function should not be modified, when the callback is needed,
            the HAL_TIM_PWM_PulseFinishedCallback could be implemented in the user file
   */
}
 8004e9a:	bf00      	nop
 8004e9c:	370c      	adds	r7, #12
 8004e9e:	46bd      	mov	sp, r7
 8004ea0:	f85d 7b04 	ldr.w	r7, [sp], #4
 8004ea4:	4770      	bx	lr

08004ea6 <HAL_TIM_TriggerCallback>:
  * @brief  Hall Trigger detection callback in non-blocking mode
  * @param  htim TIM handle
  * @retval None
  */
__weak void HAL_TIM_TriggerCallback(TIM_HandleTypeDef *htim)
{
 8004ea6:	b480      	push	{r7}
 8004ea8:	b083      	sub	sp, #12
 8004eaa:	af00      	add	r7, sp, #0
 8004eac:	6078      	str	r0, [r7, #4]
  UNUSED(htim);

  /* NOTE : This function should not be modified, when the callback is needed,
            the HAL_TIM_TriggerCallback could be implemented in the user file
   */
}
 8004eae:	bf00      	nop
 8004eb0:	370c      	adds	r7, #12
 8004eb2:	46bd      	mov	sp, r7
 8004eb4:	f85d 7b04 	ldr.w	r7, [sp], #4
 8004eb8:	4770      	bx	lr
	...

08004ebc <TIM_Base_SetConfig>:
  * @param  TIMx TIM peripheral
  * @param  Structure TIM Base configuration structure
  * @retval None
  */
void TIM_Base_SetConfig(TIM_TypeDef *TIMx, const TIM_Base_InitTypeDef *Structure)
{
 8004ebc:	b480      	push	{r7}
 8004ebe:	b085      	sub	sp, #20
 8004ec0:	af00      	add	r7, sp, #0
 8004ec2:	6078      	str	r0, [r7, #4]
 8004ec4:	6039      	str	r1, [r7, #0]
  uint32_t tmpcr1;
  tmpcr1 = TIMx->CR1;
 8004ec6:	687b      	ldr	r3, [r7, #4]
 8004ec8:	681b      	ldr	r3, [r3, #0]
 8004eca:	60fb      	str	r3, [r7, #12]

  /* Set TIM Time Base Unit parameters ---------------------------------------*/
  if (IS_TIM_COUNTER_MODE_SELECT_INSTANCE(TIMx))
 8004ecc:	687b      	ldr	r3, [r7, #4]
 8004ece:	4a46      	ldr	r2, [pc, #280]	; (8004fe8 <TIM_Base_SetConfig+0x12c>)
 8004ed0:	4293      	cmp	r3, r2
 8004ed2:	d013      	beq.n	8004efc <TIM_Base_SetConfig+0x40>
 8004ed4:	687b      	ldr	r3, [r7, #4]
 8004ed6:	f1b3 4f80 	cmp.w	r3, #1073741824	; 0x40000000
 8004eda:	d00f      	beq.n	8004efc <TIM_Base_SetConfig+0x40>
 8004edc:	687b      	ldr	r3, [r7, #4]
 8004ede:	4a43      	ldr	r2, [pc, #268]	; (8004fec <TIM_Base_SetConfig+0x130>)
 8004ee0:	4293      	cmp	r3, r2
 8004ee2:	d00b      	beq.n	8004efc <TIM_Base_SetConfig+0x40>
 8004ee4:	687b      	ldr	r3, [r7, #4]
 8004ee6:	4a42      	ldr	r2, [pc, #264]	; (8004ff0 <TIM_Base_SetConfig+0x134>)
 8004ee8:	4293      	cmp	r3, r2
 8004eea:	d007      	beq.n	8004efc <TIM_Base_SetConfig+0x40>
 8004eec:	687b      	ldr	r3, [r7, #4]
 8004eee:	4a41      	ldr	r2, [pc, #260]	; (8004ff4 <TIM_Base_SetConfig+0x138>)
 8004ef0:	4293      	cmp	r3, r2
 8004ef2:	d003      	beq.n	8004efc <TIM_Base_SetConfig+0x40>
 8004ef4:	687b      	ldr	r3, [r7, #4]
 8004ef6:	4a40      	ldr	r2, [pc, #256]	; (8004ff8 <TIM_Base_SetConfig+0x13c>)
 8004ef8:	4293      	cmp	r3, r2
 8004efa:	d108      	bne.n	8004f0e <TIM_Base_SetConfig+0x52>
  {
    /* Select the Counter Mode */
    tmpcr1 &= ~(TIM_CR1_DIR | TIM_CR1_CMS);
 8004efc:	68fb      	ldr	r3, [r7, #12]
 8004efe:	f023 0370 	bic.w	r3, r3, #112	; 0x70
 8004f02:	60fb      	str	r3, [r7, #12]
    tmpcr1 |= Structure->CounterMode;
 8004f04:	683b      	ldr	r3, [r7, #0]
 8004f06:	685b      	ldr	r3, [r3, #4]
 8004f08:	68fa      	ldr	r2, [r7, #12]
 8004f0a:	4313      	orrs	r3, r2
 8004f0c:	60fb      	str	r3, [r7, #12]
  }

  if (IS_TIM_CLOCK_DIVISION_INSTANCE(TIMx))
 8004f0e:	687b      	ldr	r3, [r7, #4]
 8004f10:	4a35      	ldr	r2, [pc, #212]	; (8004fe8 <TIM_Base_SetConfig+0x12c>)
 8004f12:	4293      	cmp	r3, r2
 8004f14:	d02b      	beq.n	8004f6e <TIM_Base_SetConfig+0xb2>
 8004f16:	687b      	ldr	r3, [r7, #4]
 8004f18:	f1b3 4f80 	cmp.w	r3, #1073741824	; 0x40000000
 8004f1c:	d027      	beq.n	8004f6e <TIM_Base_SetConfig+0xb2>
 8004f1e:	687b      	ldr	r3, [r7, #4]
 8004f20:	4a32      	ldr	r2, [pc, #200]	; (8004fec <TIM_Base_SetConfig+0x130>)
 8004f22:	4293      	cmp	r3, r2
 8004f24:	d023      	beq.n	8004f6e <TIM_Base_SetConfig+0xb2>
 8004f26:	687b      	ldr	r3, [r7, #4]
 8004f28:	4a31      	ldr	r2, [pc, #196]	; (8004ff0 <TIM_Base_SetConfig+0x134>)
 8004f2a:	4293      	cmp	r3, r2
 8004f2c:	d01f      	beq.n	8004f6e <TIM_Base_SetConfig+0xb2>
 8004f2e:	687b      	ldr	r3, [r7, #4]
 8004f30:	4a30      	ldr	r2, [pc, #192]	; (8004ff4 <TIM_Base_SetConfig+0x138>)
 8004f32:	4293      	cmp	r3, r2
 8004f34:	d01b      	beq.n	8004f6e <TIM_Base_SetConfig+0xb2>
 8004f36:	687b      	ldr	r3, [r7, #4]
 8004f38:	4a2f      	ldr	r2, [pc, #188]	; (8004ff8 <TIM_Base_SetConfig+0x13c>)
 8004f3a:	4293      	cmp	r3, r2
 8004f3c:	d017      	beq.n	8004f6e <TIM_Base_SetConfig+0xb2>
 8004f3e:	687b      	ldr	r3, [r7, #4]
 8004f40:	4a2e      	ldr	r2, [pc, #184]	; (8004ffc <TIM_Base_SetConfig+0x140>)
 8004f42:	4293      	cmp	r3, r2
 8004f44:	d013      	beq.n	8004f6e <TIM_Base_SetConfig+0xb2>
 8004f46:	687b      	ldr	r3, [r7, #4]
 8004f48:	4a2d      	ldr	r2, [pc, #180]	; (8005000 <TIM_Base_SetConfig+0x144>)
 8004f4a:	4293      	cmp	r3, r2
 8004f4c:	d00f      	beq.n	8004f6e <TIM_Base_SetConfig+0xb2>
 8004f4e:	687b      	ldr	r3, [r7, #4]
 8004f50:	4a2c      	ldr	r2, [pc, #176]	; (8005004 <TIM_Base_SetConfig+0x148>)
 8004f52:	4293      	cmp	r3, r2
 8004f54:	d00b      	beq.n	8004f6e <TIM_Base_SetConfig+0xb2>
 8004f56:	687b      	ldr	r3, [r7, #4]
 8004f58:	4a2b      	ldr	r2, [pc, #172]	; (8005008 <TIM_Base_SetConfig+0x14c>)
 8004f5a:	4293      	cmp	r3, r2
 8004f5c:	d007      	beq.n	8004f6e <TIM_Base_SetConfig+0xb2>
 8004f5e:	687b      	ldr	r3, [r7, #4]
 8004f60:	4a2a      	ldr	r2, [pc, #168]	; (800500c <TIM_Base_SetConfig+0x150>)
 8004f62:	4293      	cmp	r3, r2
 8004f64:	d003      	beq.n	8004f6e <TIM_Base_SetConfig+0xb2>
 8004f66:	687b      	ldr	r3, [r7, #4]
 8004f68:	4a29      	ldr	r2, [pc, #164]	; (8005010 <TIM_Base_SetConfig+0x154>)
 8004f6a:	4293      	cmp	r3, r2
 8004f6c:	d108      	bne.n	8004f80 <TIM_Base_SetConfig+0xc4>
  {
    /* Set the clock division */
    tmpcr1 &= ~TIM_CR1_CKD;
 8004f6e:	68fb      	ldr	r3, [r7, #12]
 8004f70:	f423 7340 	bic.w	r3, r3, #768	; 0x300
 8004f74:	60fb      	str	r3, [r7, #12]
    tmpcr1 |= (uint32_t)Structure->ClockDivision;
 8004f76:	683b      	ldr	r3, [r7, #0]
 8004f78:	68db      	ldr	r3, [r3, #12]
 8004f7a:	68fa      	ldr	r2, [r7, #12]
 8004f7c:	4313      	orrs	r3, r2
 8004f7e:	60fb      	str	r3, [r7, #12]
  }

  /* Set the auto-reload preload */
  MODIFY_REG(tmpcr1, TIM_CR1_ARPE, Structure->AutoReloadPreload);
 8004f80:	68fb      	ldr	r3, [r7, #12]
 8004f82:	f023 0280 	bic.w	r2, r3, #128	; 0x80
 8004f86:	683b      	ldr	r3, [r7, #0]
 8004f88:	695b      	ldr	r3, [r3, #20]
 8004f8a:	4313      	orrs	r3, r2
 8004f8c:	60fb      	str	r3, [r7, #12]

  TIMx->CR1 = tmpcr1;
 8004f8e:	687b      	ldr	r3, [r7, #4]
 8004f90:	68fa      	ldr	r2, [r7, #12]
 8004f92:	601a      	str	r2, [r3, #0]

  /* Set the Autoreload value */
  TIMx->ARR = (uint32_t)Structure->Period ;
 8004f94:	683b      	ldr	r3, [r7, #0]
 8004f96:	689a      	ldr	r2, [r3, #8]
 8004f98:	687b      	ldr	r3, [r7, #4]
 8004f9a:	62da      	str	r2, [r3, #44]	; 0x2c

  /* Set the Prescaler value */
  TIMx->PSC = Structure->Prescaler;
 8004f9c:	683b      	ldr	r3, [r7, #0]
 8004f9e:	681a      	ldr	r2, [r3, #0]
 8004fa0:	687b      	ldr	r3, [r7, #4]
 8004fa2:	629a      	str	r2, [r3, #40]	; 0x28

  if (IS_TIM_REPETITION_COUNTER_INSTANCE(TIMx))
 8004fa4:	687b      	ldr	r3, [r7, #4]
 8004fa6:	4a10      	ldr	r2, [pc, #64]	; (8004fe8 <TIM_Base_SetConfig+0x12c>)
 8004fa8:	4293      	cmp	r3, r2
 8004faa:	d003      	beq.n	8004fb4 <TIM_Base_SetConfig+0xf8>
 8004fac:	687b      	ldr	r3, [r7, #4]
 8004fae:	4a12      	ldr	r2, [pc, #72]	; (8004ff8 <TIM_Base_SetConfig+0x13c>)
 8004fb0:	4293      	cmp	r3, r2
 8004fb2:	d103      	bne.n	8004fbc <TIM_Base_SetConfig+0x100>
  {
    /* Set the Repetition Counter value */
    TIMx->RCR = Structure->RepetitionCounter;
 8004fb4:	683b      	ldr	r3, [r7, #0]
 8004fb6:	691a      	ldr	r2, [r3, #16]
 8004fb8:	687b      	ldr	r3, [r7, #4]
 8004fba:	631a      	str	r2, [r3, #48]	; 0x30
  }

  /* Generate an update event to reload the Prescaler
     and the repetition counter (only for advanced timer) value immediately */
  TIMx->EGR = TIM_EGR_UG;
 8004fbc:	687b      	ldr	r3, [r7, #4]
 8004fbe:	2201      	movs	r2, #1
 8004fc0:	615a      	str	r2, [r3, #20]

  /* Check if the update flag is set after the Update Generation, if so clear the UIF flag */
  if (HAL_IS_BIT_SET(TIMx->SR, TIM_FLAG_UPDATE))
 8004fc2:	687b      	ldr	r3, [r7, #4]
 8004fc4:	691b      	ldr	r3, [r3, #16]
 8004fc6:	f003 0301 	and.w	r3, r3, #1
 8004fca:	2b01      	cmp	r3, #1
 8004fcc:	d105      	bne.n	8004fda <TIM_Base_SetConfig+0x11e>
  {
    /* Clear the update flag */
    CLEAR_BIT(TIMx->SR, TIM_FLAG_UPDATE);
 8004fce:	687b      	ldr	r3, [r7, #4]
 8004fd0:	691b      	ldr	r3, [r3, #16]
 8004fd2:	f023 0201 	bic.w	r2, r3, #1
 8004fd6:	687b      	ldr	r3, [r7, #4]
 8004fd8:	611a      	str	r2, [r3, #16]
  }
}
 8004fda:	bf00      	nop
 8004fdc:	3714      	adds	r7, #20
 8004fde:	46bd      	mov	sp, r7
 8004fe0:	f85d 7b04 	ldr.w	r7, [sp], #4
 8004fe4:	4770      	bx	lr
 8004fe6:	bf00      	nop
 8004fe8:	40010000 	.word	0x40010000
 8004fec:	40000400 	.word	0x40000400
 8004ff0:	40000800 	.word	0x40000800
 8004ff4:	40000c00 	.word	0x40000c00
 8004ff8:	40010400 	.word	0x40010400
 8004ffc:	40014000 	.word	0x40014000
 8005000:	40014400 	.word	0x40014400
 8005004:	40014800 	.word	0x40014800
 8005008:	40001800 	.word	0x40001800
 800500c:	40001c00 	.word	0x40001c00
 8005010:	40002000 	.word	0x40002000

08005014 <TIM_OC1_SetConfig>:
  * @param  TIMx to select the TIM peripheral
  * @param  OC_Config The output configuration structure
  * @retval None
  */
static void TIM_OC1_SetConfig(TIM_TypeDef *TIMx, const TIM_OC_InitTypeDef *OC_Config)
{
 8005014:	b480      	push	{r7}
 8005016:	b087      	sub	sp, #28
 8005018:	af00      	add	r7, sp, #0
 800501a:	6078      	str	r0, [r7, #4]
 800501c:	6039      	str	r1, [r7, #0]
  uint32_t tmpccmrx;
  uint32_t tmpccer;
  uint32_t tmpcr2;

  /* Get the TIMx CCER register value */
  tmpccer = TIMx->CCER;
 800501e:	687b      	ldr	r3, [r7, #4]
 8005020:	6a1b      	ldr	r3, [r3, #32]
 8005022:	617b      	str	r3, [r7, #20]

  /* Disable the Channel 1: Reset the CC1E Bit */
  TIMx->CCER &= ~TIM_CCER_CC1E;
 8005024:	687b      	ldr	r3, [r7, #4]
 8005026:	6a1b      	ldr	r3, [r3, #32]
 8005028:	f023 0201 	bic.w	r2, r3, #1
 800502c:	687b      	ldr	r3, [r7, #4]
 800502e:	621a      	str	r2, [r3, #32]

  /* Get the TIMx CR2 register value */
  tmpcr2 =  TIMx->CR2;
 8005030:	687b      	ldr	r3, [r7, #4]
 8005032:	685b      	ldr	r3, [r3, #4]
 8005034:	613b      	str	r3, [r7, #16]

  /* Get the TIMx CCMR1 register value */
  tmpccmrx = TIMx->CCMR1;
 8005036:	687b      	ldr	r3, [r7, #4]
 8005038:	699b      	ldr	r3, [r3, #24]
 800503a:	60fb      	str	r3, [r7, #12]

  /* Reset the Output Compare Mode Bits */
  tmpccmrx &= ~TIM_CCMR1_OC1M;
 800503c:	68fb      	ldr	r3, [r7, #12]
 800503e:	f023 0370 	bic.w	r3, r3, #112	; 0x70
 8005042:	60fb      	str	r3, [r7, #12]
  tmpccmrx &= ~TIM_CCMR1_CC1S;
 8005044:	68fb      	ldr	r3, [r7, #12]
 8005046:	f023 0303 	bic.w	r3, r3, #3
 800504a:	60fb      	str	r3, [r7, #12]
  /* Select the Output Compare Mode */
  tmpccmrx |= OC_Config->OCMode;
 800504c:	683b      	ldr	r3, [r7, #0]
 800504e:	681b      	ldr	r3, [r3, #0]
 8005050:	68fa      	ldr	r2, [r7, #12]
 8005052:	4313      	orrs	r3, r2
 8005054:	60fb      	str	r3, [r7, #12]

  /* Reset the Output Polarity level */
  tmpccer &= ~TIM_CCER_CC1P;
 8005056:	697b      	ldr	r3, [r7, #20]
 8005058:	f023 0302 	bic.w	r3, r3, #2
 800505c:	617b      	str	r3, [r7, #20]
  /* Set the Output Compare Polarity */
  tmpccer |= OC_Config->OCPolarity;
 800505e:	683b      	ldr	r3, [r7, #0]
 8005060:	689b      	ldr	r3, [r3, #8]
 8005062:	697a      	ldr	r2, [r7, #20]
 8005064:	4313      	orrs	r3, r2
 8005066:	617b      	str	r3, [r7, #20]

  if (IS_TIM_CCXN_INSTANCE(TIMx, TIM_CHANNEL_1))
 8005068:	687b      	ldr	r3, [r7, #4]
 800506a:	4a20      	ldr	r2, [pc, #128]	; (80050ec <TIM_OC1_SetConfig+0xd8>)
 800506c:	4293      	cmp	r3, r2
 800506e:	d003      	beq.n	8005078 <TIM_OC1_SetConfig+0x64>
 8005070:	687b      	ldr	r3, [r7, #4]
 8005072:	4a1f      	ldr	r2, [pc, #124]	; (80050f0 <TIM_OC1_SetConfig+0xdc>)
 8005074:	4293      	cmp	r3, r2
 8005076:	d10c      	bne.n	8005092 <TIM_OC1_SetConfig+0x7e>
  {
    /* Check parameters */
    assert_param(IS_TIM_OCN_POLARITY(OC_Config->OCNPolarity));

    /* Reset the Output N Polarity level */
    tmpccer &= ~TIM_CCER_CC1NP;
 8005078:	697b      	ldr	r3, [r7, #20]
 800507a:	f023 0308 	bic.w	r3, r3, #8
 800507e:	617b      	str	r3, [r7, #20]
    /* Set the Output N Polarity */
    tmpccer |= OC_Config->OCNPolarity;
 8005080:	683b      	ldr	r3, [r7, #0]
 8005082:	68db      	ldr	r3, [r3, #12]
 8005084:	697a      	ldr	r2, [r7, #20]
 8005086:	4313      	orrs	r3, r2
 8005088:	617b      	str	r3, [r7, #20]
    /* Reset the Output N State */
    tmpccer &= ~TIM_CCER_CC1NE;
 800508a:	697b      	ldr	r3, [r7, #20]
 800508c:	f023 0304 	bic.w	r3, r3, #4
 8005090:	617b      	str	r3, [r7, #20]
  }

  if (IS_TIM_BREAK_INSTANCE(TIMx))
 8005092:	687b      	ldr	r3, [r7, #4]
 8005094:	4a15      	ldr	r2, [pc, #84]	; (80050ec <TIM_OC1_SetConfig+0xd8>)
 8005096:	4293      	cmp	r3, r2
 8005098:	d003      	beq.n	80050a2 <TIM_OC1_SetConfig+0x8e>
 800509a:	687b      	ldr	r3, [r7, #4]
 800509c:	4a14      	ldr	r2, [pc, #80]	; (80050f0 <TIM_OC1_SetConfig+0xdc>)
 800509e:	4293      	cmp	r3, r2
 80050a0:	d111      	bne.n	80050c6 <TIM_OC1_SetConfig+0xb2>
    /* Check parameters */
    assert_param(IS_TIM_OCNIDLE_STATE(OC_Config->OCNIdleState));
    assert_param(IS_TIM_OCIDLE_STATE(OC_Config->OCIdleState));

    /* Reset the Output Compare and Output Compare N IDLE State */
    tmpcr2 &= ~TIM_CR2_OIS1;
 80050a2:	693b      	ldr	r3, [r7, #16]
 80050a4:	f423 7380 	bic.w	r3, r3, #256	; 0x100
 80050a8:	613b      	str	r3, [r7, #16]
    tmpcr2 &= ~TIM_CR2_OIS1N;
 80050aa:	693b      	ldr	r3, [r7, #16]
 80050ac:	f423 7300 	bic.w	r3, r3, #512	; 0x200
 80050b0:	613b      	str	r3, [r7, #16]
    /* Set the Output Idle state */
    tmpcr2 |= OC_Config->OCIdleState;
 80050b2:	683b      	ldr	r3, [r7, #0]
 80050b4:	695b      	ldr	r3, [r3, #20]
 80050b6:	693a      	ldr	r2, [r7, #16]
 80050b8:	4313      	orrs	r3, r2
 80050ba:	613b      	str	r3, [r7, #16]
    /* Set the Output N Idle state */
    tmpcr2 |= OC_Config->OCNIdleState;
 80050bc:	683b      	ldr	r3, [r7, #0]
 80050be:	699b      	ldr	r3, [r3, #24]
 80050c0:	693a      	ldr	r2, [r7, #16]
 80050c2:	4313      	orrs	r3, r2
 80050c4:	613b      	str	r3, [r7, #16]
  }

  /* Write to TIMx CR2 */
  TIMx->CR2 = tmpcr2;
 80050c6:	687b      	ldr	r3, [r7, #4]
 80050c8:	693a      	ldr	r2, [r7, #16]
 80050ca:	605a      	str	r2, [r3, #4]

  /* Write to TIMx CCMR1 */
  TIMx->CCMR1 = tmpccmrx;
 80050cc:	687b      	ldr	r3, [r7, #4]
 80050ce:	68fa      	ldr	r2, [r7, #12]
 80050d0:	619a      	str	r2, [r3, #24]

  /* Set the Capture Compare Register value */
  TIMx->CCR1 = OC_Config->Pulse;
 80050d2:	683b      	ldr	r3, [r7, #0]
 80050d4:	685a      	ldr	r2, [r3, #4]
 80050d6:	687b      	ldr	r3, [r7, #4]
 80050d8:	635a      	str	r2, [r3, #52]	; 0x34

  /* Write to TIMx CCER */
  TIMx->CCER = tmpccer;
 80050da:	687b      	ldr	r3, [r7, #4]
 80050dc:	697a      	ldr	r2, [r7, #20]
 80050de:	621a      	str	r2, [r3, #32]
}
 80050e0:	bf00      	nop
 80050e2:	371c      	adds	r7, #28
 80050e4:	46bd      	mov	sp, r7
 80050e6:	f85d 7b04 	ldr.w	r7, [sp], #4
 80050ea:	4770      	bx	lr
 80050ec:	40010000 	.word	0x40010000
 80050f0:	40010400 	.word	0x40010400

080050f4 <TIM_OC2_SetConfig>:
  * @param  TIMx to select the TIM peripheral
  * @param  OC_Config The output configuration structure
  * @retval None
  */
void TIM_OC2_SetConfig(TIM_TypeDef *TIMx, const TIM_OC_InitTypeDef *OC_Config)
{
 80050f4:	b480      	push	{r7}
 80050f6:	b087      	sub	sp, #28
 80050f8:	af00      	add	r7, sp, #0
 80050fa:	6078      	str	r0, [r7, #4]
 80050fc:	6039      	str	r1, [r7, #0]
  uint32_t tmpccmrx;
  uint32_t tmpccer;
  uint32_t tmpcr2;

  /* Get the TIMx CCER register value */
  tmpccer = TIMx->CCER;
 80050fe:	687b      	ldr	r3, [r7, #4]
 8005100:	6a1b      	ldr	r3, [r3, #32]
 8005102:	617b      	str	r3, [r7, #20]

  /* Disable the Channel 2: Reset the CC2E Bit */
  TIMx->CCER &= ~TIM_CCER_CC2E;
 8005104:	687b      	ldr	r3, [r7, #4]
 8005106:	6a1b      	ldr	r3, [r3, #32]
 8005108:	f023 0210 	bic.w	r2, r3, #16
 800510c:	687b      	ldr	r3, [r7, #4]
 800510e:	621a      	str	r2, [r3, #32]

  /* Get the TIMx CR2 register value */
  tmpcr2 =  TIMx->CR2;
 8005110:	687b      	ldr	r3, [r7, #4]
 8005112:	685b      	ldr	r3, [r3, #4]
 8005114:	613b      	str	r3, [r7, #16]

  /* Get the TIMx CCMR1 register value */
  tmpccmrx = TIMx->CCMR1;
 8005116:	687b      	ldr	r3, [r7, #4]
 8005118:	699b      	ldr	r3, [r3, #24]
 800511a:	60fb      	str	r3, [r7, #12]

  /* Reset the Output Compare mode and Capture/Compare selection Bits */
  tmpccmrx &= ~TIM_CCMR1_OC2M;
 800511c:	68fb      	ldr	r3, [r7, #12]
 800511e:	f423 43e0 	bic.w	r3, r3, #28672	; 0x7000
 8005122:	60fb      	str	r3, [r7, #12]
  tmpccmrx &= ~TIM_CCMR1_CC2S;
 8005124:	68fb      	ldr	r3, [r7, #12]
 8005126:	f423 7340 	bic.w	r3, r3, #768	; 0x300
 800512a:	60fb      	str	r3, [r7, #12]

  /* Select the Output Compare Mode */
  tmpccmrx |= (OC_Config->OCMode << 8U);
 800512c:	683b      	ldr	r3, [r7, #0]
 800512e:	681b      	ldr	r3, [r3, #0]
 8005130:	021b      	lsls	r3, r3, #8
 8005132:	68fa      	ldr	r2, [r7, #12]
 8005134:	4313      	orrs	r3, r2
 8005136:	60fb      	str	r3, [r7, #12]

  /* Reset the Output Polarity level */
  tmpccer &= ~TIM_CCER_CC2P;
 8005138:	697b      	ldr	r3, [r7, #20]
 800513a:	f023 0320 	bic.w	r3, r3, #32
 800513e:	617b      	str	r3, [r7, #20]
  /* Set the Output Compare Polarity */
  tmpccer |= (OC_Config->OCPolarity << 4U);
 8005140:	683b      	ldr	r3, [r7, #0]
 8005142:	689b      	ldr	r3, [r3, #8]
 8005144:	011b      	lsls	r3, r3, #4
 8005146:	697a      	ldr	r2, [r7, #20]
 8005148:	4313      	orrs	r3, r2
 800514a:	617b      	str	r3, [r7, #20]

  if (IS_TIM_CCXN_INSTANCE(TIMx, TIM_CHANNEL_2))
 800514c:	687b      	ldr	r3, [r7, #4]
 800514e:	4a22      	ldr	r2, [pc, #136]	; (80051d8 <TIM_OC2_SetConfig+0xe4>)
 8005150:	4293      	cmp	r3, r2
 8005152:	d003      	beq.n	800515c <TIM_OC2_SetConfig+0x68>
 8005154:	687b      	ldr	r3, [r7, #4]
 8005156:	4a21      	ldr	r2, [pc, #132]	; (80051dc <TIM_OC2_SetConfig+0xe8>)
 8005158:	4293      	cmp	r3, r2
 800515a:	d10d      	bne.n	8005178 <TIM_OC2_SetConfig+0x84>
  {
    assert_param(IS_TIM_OCN_POLARITY(OC_Config->OCNPolarity));

    /* Reset the Output N Polarity level */
    tmpccer &= ~TIM_CCER_CC2NP;
 800515c:	697b      	ldr	r3, [r7, #20]
 800515e:	f023 0380 	bic.w	r3, r3, #128	; 0x80
 8005162:	617b      	str	r3, [r7, #20]
    /* Set the Output N Polarity */
    tmpccer |= (OC_Config->OCNPolarity << 4U);
 8005164:	683b      	ldr	r3, [r7, #0]
 8005166:	68db      	ldr	r3, [r3, #12]
 8005168:	011b      	lsls	r3, r3, #4
 800516a:	697a      	ldr	r2, [r7, #20]
 800516c:	4313      	orrs	r3, r2
 800516e:	617b      	str	r3, [r7, #20]
    /* Reset the Output N State */
    tmpccer &= ~TIM_CCER_CC2NE;
 8005170:	697b      	ldr	r3, [r7, #20]
 8005172:	f023 0340 	bic.w	r3, r3, #64	; 0x40
 8005176:	617b      	str	r3, [r7, #20]
  }

  if (IS_TIM_BREAK_INSTANCE(TIMx))
 8005178:	687b      	ldr	r3, [r7, #4]
 800517a:	4a17      	ldr	r2, [pc, #92]	; (80051d8 <TIM_OC2_SetConfig+0xe4>)
 800517c:	4293      	cmp	r3, r2
 800517e:	d003      	beq.n	8005188 <TIM_OC2_SetConfig+0x94>
 8005180:	687b      	ldr	r3, [r7, #4]
 8005182:	4a16      	ldr	r2, [pc, #88]	; (80051dc <TIM_OC2_SetConfig+0xe8>)
 8005184:	4293      	cmp	r3, r2
 8005186:	d113      	bne.n	80051b0 <TIM_OC2_SetConfig+0xbc>
    /* Check parameters */
    assert_param(IS_TIM_OCNIDLE_STATE(OC_Config->OCNIdleState));
    assert_param(IS_TIM_OCIDLE_STATE(OC_Config->OCIdleState));

    /* Reset the Output Compare and Output Compare N IDLE State */
    tmpcr2 &= ~TIM_CR2_OIS2;
 8005188:	693b      	ldr	r3, [r7, #16]
 800518a:	f423 6380 	bic.w	r3, r3, #1024	; 0x400
 800518e:	613b      	str	r3, [r7, #16]
    tmpcr2 &= ~TIM_CR2_OIS2N;
 8005190:	693b      	ldr	r3, [r7, #16]
 8005192:	f423 6300 	bic.w	r3, r3, #2048	; 0x800
 8005196:	613b      	str	r3, [r7, #16]
    /* Set the Output Idle state */
    tmpcr2 |= (OC_Config->OCIdleState << 2U);
 8005198:	683b      	ldr	r3, [r7, #0]
 800519a:	695b      	ldr	r3, [r3, #20]
 800519c:	009b      	lsls	r3, r3, #2
 800519e:	693a      	ldr	r2, [r7, #16]
 80051a0:	4313      	orrs	r3, r2
 80051a2:	613b      	str	r3, [r7, #16]
    /* Set the Output N Idle state */
    tmpcr2 |= (OC_Config->OCNIdleState << 2U);
 80051a4:	683b      	ldr	r3, [r7, #0]
 80051a6:	699b      	ldr	r3, [r3, #24]
 80051a8:	009b      	lsls	r3, r3, #2
 80051aa:	693a      	ldr	r2, [r7, #16]
 80051ac:	4313      	orrs	r3, r2
 80051ae:	613b      	str	r3, [r7, #16]
  }

  /* Write to TIMx CR2 */
  TIMx->CR2 = tmpcr2;
 80051b0:	687b      	ldr	r3, [r7, #4]
 80051b2:	693a      	ldr	r2, [r7, #16]
 80051b4:	605a      	str	r2, [r3, #4]

  /* Write to TIMx CCMR1 */
  TIMx->CCMR1 = tmpccmrx;
 80051b6:	687b      	ldr	r3, [r7, #4]
 80051b8:	68fa      	ldr	r2, [r7, #12]
 80051ba:	619a      	str	r2, [r3, #24]

  /* Set the Capture Compare Register value */
  TIMx->CCR2 = OC_Config->Pulse;
 80051bc:	683b      	ldr	r3, [r7, #0]
 80051be:	685a      	ldr	r2, [r3, #4]
 80051c0:	687b      	ldr	r3, [r7, #4]
 80051c2:	639a      	str	r2, [r3, #56]	; 0x38

  /* Write to TIMx CCER */
  TIMx->CCER = tmpccer;
 80051c4:	687b      	ldr	r3, [r7, #4]
 80051c6:	697a      	ldr	r2, [r7, #20]
 80051c8:	621a      	str	r2, [r3, #32]
}
 80051ca:	bf00      	nop
 80051cc:	371c      	adds	r7, #28
 80051ce:	46bd      	mov	sp, r7
 80051d0:	f85d 7b04 	ldr.w	r7, [sp], #4
 80051d4:	4770      	bx	lr
 80051d6:	bf00      	nop
 80051d8:	40010000 	.word	0x40010000
 80051dc:	40010400 	.word	0x40010400

080051e0 <TIM_OC3_SetConfig>:
  * @param  TIMx to select the TIM peripheral
  * @param  OC_Config The output configuration structure
  * @retval None
  */
static void TIM_OC3_SetConfig(TIM_TypeDef *TIMx, const TIM_OC_InitTypeDef *OC_Config)
{
 80051e0:	b480      	push	{r7}
 80051e2:	b087      	sub	sp, #28
 80051e4:	af00      	add	r7, sp, #0
 80051e6:	6078      	str	r0, [r7, #4]
 80051e8:	6039      	str	r1, [r7, #0]
  uint32_t tmpccmrx;
  uint32_t tmpccer;
  uint32_t tmpcr2;

  /* Get the TIMx CCER register value */
  tmpccer = TIMx->CCER;
 80051ea:	687b      	ldr	r3, [r7, #4]
 80051ec:	6a1b      	ldr	r3, [r3, #32]
 80051ee:	617b      	str	r3, [r7, #20]

  /* Disable the Channel 3: Reset the CC2E Bit */
  TIMx->CCER &= ~TIM_CCER_CC3E;
 80051f0:	687b      	ldr	r3, [r7, #4]
 80051f2:	6a1b      	ldr	r3, [r3, #32]
 80051f4:	f423 7280 	bic.w	r2, r3, #256	; 0x100
 80051f8:	687b      	ldr	r3, [r7, #4]
 80051fa:	621a      	str	r2, [r3, #32]

  /* Get the TIMx CR2 register value */
  tmpcr2 =  TIMx->CR2;
 80051fc:	687b      	ldr	r3, [r7, #4]
 80051fe:	685b      	ldr	r3, [r3, #4]
 8005200:	613b      	str	r3, [r7, #16]

  /* Get the TIMx CCMR2 register value */
  tmpccmrx = TIMx->CCMR2;
 8005202:	687b      	ldr	r3, [r7, #4]
 8005204:	69db      	ldr	r3, [r3, #28]
 8005206:	60fb      	str	r3, [r7, #12]

  /* Reset the Output Compare mode and Capture/Compare selection Bits */
  tmpccmrx &= ~TIM_CCMR2_OC3M;
 8005208:	68fb      	ldr	r3, [r7, #12]
 800520a:	f023 0370 	bic.w	r3, r3, #112	; 0x70
 800520e:	60fb      	str	r3, [r7, #12]
  tmpccmrx &= ~TIM_CCMR2_CC3S;
 8005210:	68fb      	ldr	r3, [r7, #12]
 8005212:	f023 0303 	bic.w	r3, r3, #3
 8005216:	60fb      	str	r3, [r7, #12]
  /* Select the Output Compare Mode */
  tmpccmrx |= OC_Config->OCMode;
 8005218:	683b      	ldr	r3, [r7, #0]
 800521a:	681b      	ldr	r3, [r3, #0]
 800521c:	68fa      	ldr	r2, [r7, #12]
 800521e:	4313      	orrs	r3, r2
 8005220:	60fb      	str	r3, [r7, #12]

  /* Reset the Output Polarity level */
  tmpccer &= ~TIM_CCER_CC3P;
 8005222:	697b      	ldr	r3, [r7, #20]
 8005224:	f423 7300 	bic.w	r3, r3, #512	; 0x200
 8005228:	617b      	str	r3, [r7, #20]
  /* Set the Output Compare Polarity */
  tmpccer |= (OC_Config->OCPolarity << 8U);
 800522a:	683b      	ldr	r3, [r7, #0]
 800522c:	689b      	ldr	r3, [r3, #8]
 800522e:	021b      	lsls	r3, r3, #8
 8005230:	697a      	ldr	r2, [r7, #20]
 8005232:	4313      	orrs	r3, r2
 8005234:	617b      	str	r3, [r7, #20]

  if (IS_TIM_CCXN_INSTANCE(TIMx, TIM_CHANNEL_3))
 8005236:	687b      	ldr	r3, [r7, #4]
 8005238:	4a21      	ldr	r2, [pc, #132]	; (80052c0 <TIM_OC3_SetConfig+0xe0>)
 800523a:	4293      	cmp	r3, r2
 800523c:	d003      	beq.n	8005246 <TIM_OC3_SetConfig+0x66>
 800523e:	687b      	ldr	r3, [r7, #4]
 8005240:	4a20      	ldr	r2, [pc, #128]	; (80052c4 <TIM_OC3_SetConfig+0xe4>)
 8005242:	4293      	cmp	r3, r2
 8005244:	d10d      	bne.n	8005262 <TIM_OC3_SetConfig+0x82>
  {
    assert_param(IS_TIM_OCN_POLARITY(OC_Config->OCNPolarity));

    /* Reset the Output N Polarity level */
    tmpccer &= ~TIM_CCER_CC3NP;
 8005246:	697b      	ldr	r3, [r7, #20]
 8005248:	f423 6300 	bic.w	r3, r3, #2048	; 0x800
 800524c:	617b      	str	r3, [r7, #20]
    /* Set the Output N Polarity */
    tmpccer |= (OC_Config->OCNPolarity << 8U);
 800524e:	683b      	ldr	r3, [r7, #0]
 8005250:	68db      	ldr	r3, [r3, #12]
 8005252:	021b      	lsls	r3, r3, #8
 8005254:	697a      	ldr	r2, [r7, #20]
 8005256:	4313      	orrs	r3, r2
 8005258:	617b      	str	r3, [r7, #20]
    /* Reset the Output N State */
    tmpccer &= ~TIM_CCER_CC3NE;
 800525a:	697b      	ldr	r3, [r7, #20]
 800525c:	f423 6380 	bic.w	r3, r3, #1024	; 0x400
 8005260:	617b      	str	r3, [r7, #20]
  }

  if (IS_TIM_BREAK_INSTANCE(TIMx))
 8005262:	687b      	ldr	r3, [r7, #4]
 8005264:	4a16      	ldr	r2, [pc, #88]	; (80052c0 <TIM_OC3_SetConfig+0xe0>)
 8005266:	4293      	cmp	r3, r2
 8005268:	d003      	beq.n	8005272 <TIM_OC3_SetConfig+0x92>
 800526a:	687b      	ldr	r3, [r7, #4]
 800526c:	4a15      	ldr	r2, [pc, #84]	; (80052c4 <TIM_OC3_SetConfig+0xe4>)
 800526e:	4293      	cmp	r3, r2
 8005270:	d113      	bne.n	800529a <TIM_OC3_SetConfig+0xba>
    /* Check parameters */
    assert_param(IS_TIM_OCNIDLE_STATE(OC_Config->OCNIdleState));
    assert_param(IS_TIM_OCIDLE_STATE(OC_Config->OCIdleState));

    /* Reset the Output Compare and Output Compare N IDLE State */
    tmpcr2 &= ~TIM_CR2_OIS3;
 8005272:	693b      	ldr	r3, [r7, #16]
 8005274:	f423 5380 	bic.w	r3, r3, #4096	; 0x1000
 8005278:	613b      	str	r3, [r7, #16]
    tmpcr2 &= ~TIM_CR2_OIS3N;
 800527a:	693b      	ldr	r3, [r7, #16]
 800527c:	f423 5300 	bic.w	r3, r3, #8192	; 0x2000
 8005280:	613b      	str	r3, [r7, #16]
    /* Set the Output Idle state */
    tmpcr2 |= (OC_Config->OCIdleState << 4U);
 8005282:	683b      	ldr	r3, [r7, #0]
 8005284:	695b      	ldr	r3, [r3, #20]
 8005286:	011b      	lsls	r3, r3, #4
 8005288:	693a      	ldr	r2, [r7, #16]
 800528a:	4313      	orrs	r3, r2
 800528c:	613b      	str	r3, [r7, #16]
    /* Set the Output N Idle state */
    tmpcr2 |= (OC_Config->OCNIdleState << 4U);
 800528e:	683b      	ldr	r3, [r7, #0]
 8005290:	699b      	ldr	r3, [r3, #24]
 8005292:	011b      	lsls	r3, r3, #4
 8005294:	693a      	ldr	r2, [r7, #16]
 8005296:	4313      	orrs	r3, r2
 8005298:	613b      	str	r3, [r7, #16]
  }

  /* Write to TIMx CR2 */
  TIMx->CR2 = tmpcr2;
 800529a:	687b      	ldr	r3, [r7, #4]
 800529c:	693a      	ldr	r2, [r7, #16]
 800529e:	605a      	str	r2, [r3, #4]

  /* Write to TIMx CCMR2 */
  TIMx->CCMR2 = tmpccmrx;
 80052a0:	687b      	ldr	r3, [r7, #4]
 80052a2:	68fa      	ldr	r2, [r7, #12]
 80052a4:	61da      	str	r2, [r3, #28]

  /* Set the Capture Compare Register value */
  TIMx->CCR3 = OC_Config->Pulse;
 80052a6:	683b      	ldr	r3, [r7, #0]
 80052a8:	685a      	ldr	r2, [r3, #4]
 80052aa:	687b      	ldr	r3, [r7, #4]
 80052ac:	63da      	str	r2, [r3, #60]	; 0x3c

  /* Write to TIMx CCER */
  TIMx->CCER = tmpccer;
 80052ae:	687b      	ldr	r3, [r7, #4]
 80052b0:	697a      	ldr	r2, [r7, #20]
 80052b2:	621a      	str	r2, [r3, #32]
}
 80052b4:	bf00      	nop
 80052b6:	371c      	adds	r7, #28
 80052b8:	46bd      	mov	sp, r7
 80052ba:	f85d 7b04 	ldr.w	r7, [sp], #4
 80052be:	4770      	bx	lr
 80052c0:	40010000 	.word	0x40010000
 80052c4:	40010400 	.word	0x40010400

080052c8 <TIM_OC4_SetConfig>:
  * @param  TIMx to select the TIM peripheral
  * @param  OC_Config The output configuration structure
  * @retval None
  */
static void TIM_OC4_SetConfig(TIM_TypeDef *TIMx, const TIM_OC_InitTypeDef *OC_Config)
{
 80052c8:	b480      	push	{r7}
 80052ca:	b087      	sub	sp, #28
 80052cc:	af00      	add	r7, sp, #0
 80052ce:	6078      	str	r0, [r7, #4]
 80052d0:	6039      	str	r1, [r7, #0]
  uint32_t tmpccmrx;
  uint32_t tmpccer;
  uint32_t tmpcr2;

  /* Get the TIMx CCER register value */
  tmpccer = TIMx->CCER;
 80052d2:	687b      	ldr	r3, [r7, #4]
 80052d4:	6a1b      	ldr	r3, [r3, #32]
 80052d6:	613b      	str	r3, [r7, #16]

  /* Disable the Channel 4: Reset the CC4E Bit */
  TIMx->CCER &= ~TIM_CCER_CC4E;
 80052d8:	687b      	ldr	r3, [r7, #4]
 80052da:	6a1b      	ldr	r3, [r3, #32]
 80052dc:	f423 5280 	bic.w	r2, r3, #4096	; 0x1000
 80052e0:	687b      	ldr	r3, [r7, #4]
 80052e2:	621a      	str	r2, [r3, #32]

  /* Get the TIMx CR2 register value */
  tmpcr2 =  TIMx->CR2;
 80052e4:	687b      	ldr	r3, [r7, #4]
 80052e6:	685b      	ldr	r3, [r3, #4]
 80052e8:	617b      	str	r3, [r7, #20]

  /* Get the TIMx CCMR2 register value */
  tmpccmrx = TIMx->CCMR2;
 80052ea:	687b      	ldr	r3, [r7, #4]
 80052ec:	69db      	ldr	r3, [r3, #28]
 80052ee:	60fb      	str	r3, [r7, #12]

  /* Reset the Output Compare mode and Capture/Compare selection Bits */
  tmpccmrx &= ~TIM_CCMR2_OC4M;
 80052f0:	68fb      	ldr	r3, [r7, #12]
 80052f2:	f423 43e0 	bic.w	r3, r3, #28672	; 0x7000
 80052f6:	60fb      	str	r3, [r7, #12]
  tmpccmrx &= ~TIM_CCMR2_CC4S;
 80052f8:	68fb      	ldr	r3, [r7, #12]
 80052fa:	f423 7340 	bic.w	r3, r3, #768	; 0x300
 80052fe:	60fb      	str	r3, [r7, #12]

  /* Select the Output Compare Mode */
  tmpccmrx |= (OC_Config->OCMode << 8U);
 8005300:	683b      	ldr	r3, [r7, #0]
 8005302:	681b      	ldr	r3, [r3, #0]
 8005304:	021b      	lsls	r3, r3, #8
 8005306:	68fa      	ldr	r2, [r7, #12]
 8005308:	4313      	orrs	r3, r2
 800530a:	60fb      	str	r3, [r7, #12]

  /* Reset the Output Polarity level */
  tmpccer &= ~TIM_CCER_CC4P;
 800530c:	693b      	ldr	r3, [r7, #16]
 800530e:	f423 5300 	bic.w	r3, r3, #8192	; 0x2000
 8005312:	613b      	str	r3, [r7, #16]
  /* Set the Output Compare Polarity */
  tmpccer |= (OC_Config->OCPolarity << 12U);
 8005314:	683b      	ldr	r3, [r7, #0]
 8005316:	689b      	ldr	r3, [r3, #8]
 8005318:	031b      	lsls	r3, r3, #12
 800531a:	693a      	ldr	r2, [r7, #16]
 800531c:	4313      	orrs	r3, r2
 800531e:	613b      	str	r3, [r7, #16]

  if (IS_TIM_BREAK_INSTANCE(TIMx))
 8005320:	687b      	ldr	r3, [r7, #4]
 8005322:	4a12      	ldr	r2, [pc, #72]	; (800536c <TIM_OC4_SetConfig+0xa4>)
 8005324:	4293      	cmp	r3, r2
 8005326:	d003      	beq.n	8005330 <TIM_OC4_SetConfig+0x68>
 8005328:	687b      	ldr	r3, [r7, #4]
 800532a:	4a11      	ldr	r2, [pc, #68]	; (8005370 <TIM_OC4_SetConfig+0xa8>)
 800532c:	4293      	cmp	r3, r2
 800532e:	d109      	bne.n	8005344 <TIM_OC4_SetConfig+0x7c>
  {
    /* Check parameters */
    assert_param(IS_TIM_OCIDLE_STATE(OC_Config->OCIdleState));

    /* Reset the Output Compare IDLE State */
    tmpcr2 &= ~TIM_CR2_OIS4;
 8005330:	697b      	ldr	r3, [r7, #20]
 8005332:	f423 4380 	bic.w	r3, r3, #16384	; 0x4000
 8005336:	617b      	str	r3, [r7, #20]

    /* Set the Output Idle state */
    tmpcr2 |= (OC_Config->OCIdleState << 6U);
 8005338:	683b      	ldr	r3, [r7, #0]
 800533a:	695b      	ldr	r3, [r3, #20]
 800533c:	019b      	lsls	r3, r3, #6
 800533e:	697a      	ldr	r2, [r7, #20]
 8005340:	4313      	orrs	r3, r2
 8005342:	617b      	str	r3, [r7, #20]
  }

  /* Write to TIMx CR2 */
  TIMx->CR2 = tmpcr2;
 8005344:	687b      	ldr	r3, [r7, #4]
 8005346:	697a      	ldr	r2, [r7, #20]
 8005348:	605a      	str	r2, [r3, #4]

  /* Write to TIMx CCMR2 */
  TIMx->CCMR2 = tmpccmrx;
 800534a:	687b      	ldr	r3, [r7, #4]
 800534c:	68fa      	ldr	r2, [r7, #12]
 800534e:	61da      	str	r2, [r3, #28]

  /* Set the Capture Compare Register value */
  TIMx->CCR4 = OC_Config->Pulse;
 8005350:	683b      	ldr	r3, [r7, #0]
 8005352:	685a      	ldr	r2, [r3, #4]
 8005354:	687b      	ldr	r3, [r7, #4]
 8005356:	641a      	str	r2, [r3, #64]	; 0x40

  /* Write to TIMx CCER */
  TIMx->CCER = tmpccer;
 8005358:	687b      	ldr	r3, [r7, #4]
 800535a:	693a      	ldr	r2, [r7, #16]
 800535c:	621a      	str	r2, [r3, #32]
}
 800535e:	bf00      	nop
 8005360:	371c      	adds	r7, #28
 8005362:	46bd      	mov	sp, r7
 8005364:	f85d 7b04 	ldr.w	r7, [sp], #4
 8005368:	4770      	bx	lr
 800536a:	bf00      	nop
 800536c:	40010000 	.word	0x40010000
 8005370:	40010400 	.word	0x40010400

08005374 <TIM_TI1_ConfigInputStage>:
  * @param  TIM_ICFilter Specifies the Input Capture Filter.
  *          This parameter must be a value between 0x00 and 0x0F.
  * @retval None
  */
static void TIM_TI1_ConfigInputStage(TIM_TypeDef *TIMx, uint32_t TIM_ICPolarity, uint32_t TIM_ICFilter)
{
 8005374:	b480      	push	{r7}
 8005376:	b087      	sub	sp, #28
 8005378:	af00      	add	r7, sp, #0
 800537a:	60f8      	str	r0, [r7, #12]
 800537c:	60b9      	str	r1, [r7, #8]
 800537e:	607a      	str	r2, [r7, #4]
  uint32_t tmpccmr1;
  uint32_t tmpccer;

  /* Disable the Channel 1: Reset the CC1E Bit */
  tmpccer = TIMx->CCER;
 8005380:	68fb      	ldr	r3, [r7, #12]
 8005382:	6a1b      	ldr	r3, [r3, #32]
 8005384:	617b      	str	r3, [r7, #20]
  TIMx->CCER &= ~TIM_CCER_CC1E;
 8005386:	68fb      	ldr	r3, [r7, #12]
 8005388:	6a1b      	ldr	r3, [r3, #32]
 800538a:	f023 0201 	bic.w	r2, r3, #1
 800538e:	68fb      	ldr	r3, [r7, #12]
 8005390:	621a      	str	r2, [r3, #32]
  tmpccmr1 = TIMx->CCMR1;
 8005392:	68fb      	ldr	r3, [r7, #12]
 8005394:	699b      	ldr	r3, [r3, #24]
 8005396:	613b      	str	r3, [r7, #16]

  /* Set the filter */
  tmpccmr1 &= ~TIM_CCMR1_IC1F;
 8005398:	693b      	ldr	r3, [r7, #16]
 800539a:	f023 03f0 	bic.w	r3, r3, #240	; 0xf0
 800539e:	613b      	str	r3, [r7, #16]
  tmpccmr1 |= (TIM_ICFilter << 4U);
 80053a0:	687b      	ldr	r3, [r7, #4]
 80053a2:	011b      	lsls	r3, r3, #4
 80053a4:	693a      	ldr	r2, [r7, #16]
 80053a6:	4313      	orrs	r3, r2
 80053a8:	613b      	str	r3, [r7, #16]

  /* Select the Polarity and set the CC1E Bit */
  tmpccer &= ~(TIM_CCER_CC1P | TIM_CCER_CC1NP);
 80053aa:	697b      	ldr	r3, [r7, #20]
 80053ac:	f023 030a 	bic.w	r3, r3, #10
 80053b0:	617b      	str	r3, [r7, #20]
  tmpccer |= TIM_ICPolarity;
 80053b2:	697a      	ldr	r2, [r7, #20]
 80053b4:	68bb      	ldr	r3, [r7, #8]
 80053b6:	4313      	orrs	r3, r2
 80053b8:	617b      	str	r3, [r7, #20]

  /* Write to TIMx CCMR1 and CCER registers */
  TIMx->CCMR1 = tmpccmr1;
 80053ba:	68fb      	ldr	r3, [r7, #12]
 80053bc:	693a      	ldr	r2, [r7, #16]
 80053be:	619a      	str	r2, [r3, #24]
  TIMx->CCER = tmpccer;
 80053c0:	68fb      	ldr	r3, [r7, #12]
 80053c2:	697a      	ldr	r2, [r7, #20]
 80053c4:	621a      	str	r2, [r3, #32]
}
 80053c6:	bf00      	nop
 80053c8:	371c      	adds	r7, #28
 80053ca:	46bd      	mov	sp, r7
 80053cc:	f85d 7b04 	ldr.w	r7, [sp], #4
 80053d0:	4770      	bx	lr

080053d2 <TIM_TI2_ConfigInputStage>:
  * @param  TIM_ICFilter Specifies the Input Capture Filter.
  *          This parameter must be a value between 0x00 and 0x0F.
  * @retval None
  */
static void TIM_TI2_ConfigInputStage(TIM_TypeDef *TIMx, uint32_t TIM_ICPolarity, uint32_t TIM_ICFilter)
{
 80053d2:	b480      	push	{r7}
 80053d4:	b087      	sub	sp, #28
 80053d6:	af00      	add	r7, sp, #0
 80053d8:	60f8      	str	r0, [r7, #12]
 80053da:	60b9      	str	r1, [r7, #8]
 80053dc:	607a      	str	r2, [r7, #4]
  uint32_t tmpccmr1;
  uint32_t tmpccer;

  /* Disable the Channel 2: Reset the CC2E Bit */
  tmpccer = TIMx->CCER;
 80053de:	68fb      	ldr	r3, [r7, #12]
 80053e0:	6a1b      	ldr	r3, [r3, #32]
 80053e2:	617b      	str	r3, [r7, #20]
  TIMx->CCER &= ~TIM_CCER_CC2E;
 80053e4:	68fb      	ldr	r3, [r7, #12]
 80053e6:	6a1b      	ldr	r3, [r3, #32]
 80053e8:	f023 0210 	bic.w	r2, r3, #16
 80053ec:	68fb      	ldr	r3, [r7, #12]
 80053ee:	621a      	str	r2, [r3, #32]
  tmpccmr1 = TIMx->CCMR1;
 80053f0:	68fb      	ldr	r3, [r7, #12]
 80053f2:	699b      	ldr	r3, [r3, #24]
 80053f4:	613b      	str	r3, [r7, #16]

  /* Set the filter */
  tmpccmr1 &= ~TIM_CCMR1_IC2F;
 80053f6:	693b      	ldr	r3, [r7, #16]
 80053f8:	f423 4370 	bic.w	r3, r3, #61440	; 0xf000
 80053fc:	613b      	str	r3, [r7, #16]
  tmpccmr1 |= (TIM_ICFilter << 12U);
 80053fe:	687b      	ldr	r3, [r7, #4]
 8005400:	031b      	lsls	r3, r3, #12
 8005402:	693a      	ldr	r2, [r7, #16]
 8005404:	4313      	orrs	r3, r2
 8005406:	613b      	str	r3, [r7, #16]

  /* Select the Polarity and set the CC2E Bit */
  tmpccer &= ~(TIM_CCER_CC2P | TIM_CCER_CC2NP);
 8005408:	697b      	ldr	r3, [r7, #20]
 800540a:	f023 03a0 	bic.w	r3, r3, #160	; 0xa0
 800540e:	617b      	str	r3, [r7, #20]
  tmpccer |= (TIM_ICPolarity << 4U);
 8005410:	68bb      	ldr	r3, [r7, #8]
 8005412:	011b      	lsls	r3, r3, #4
 8005414:	697a      	ldr	r2, [r7, #20]
 8005416:	4313      	orrs	r3, r2
 8005418:	617b      	str	r3, [r7, #20]

  /* Write to TIMx CCMR1 and CCER registers */
  TIMx->CCMR1 = tmpccmr1 ;
 800541a:	68fb      	ldr	r3, [r7, #12]
 800541c:	693a      	ldr	r2, [r7, #16]
 800541e:	619a      	str	r2, [r3, #24]
  TIMx->CCER = tmpccer;
 8005420:	68fb      	ldr	r3, [r7, #12]
 8005422:	697a      	ldr	r2, [r7, #20]
 8005424:	621a      	str	r2, [r3, #32]
}
 8005426:	bf00      	nop
 8005428:	371c      	adds	r7, #28
 800542a:	46bd      	mov	sp, r7
 800542c:	f85d 7b04 	ldr.w	r7, [sp], #4
 8005430:	4770      	bx	lr

08005432 <TIM_ITRx_SetConfig>:
  *            @arg TIM_TS_TI2FP2: Filtered Timer Input 2
  *            @arg TIM_TS_ETRF: External Trigger input
  * @retval None
  */
static void TIM_ITRx_SetConfig(TIM_TypeDef *TIMx, uint32_t InputTriggerSource)
{
 8005432:	b480      	push	{r7}
 8005434:	b085      	sub	sp, #20
 8005436:	af00      	add	r7, sp, #0
 8005438:	6078      	str	r0, [r7, #4]
 800543a:	6039      	str	r1, [r7, #0]
  uint32_t tmpsmcr;

  /* Get the TIMx SMCR register value */
  tmpsmcr = TIMx->SMCR;
 800543c:	687b      	ldr	r3, [r7, #4]
 800543e:	689b      	ldr	r3, [r3, #8]
 8005440:	60fb      	str	r3, [r7, #12]
  /* Reset the TS Bits */
  tmpsmcr &= ~TIM_SMCR_TS;
 8005442:	68fb      	ldr	r3, [r7, #12]
 8005444:	f023 0370 	bic.w	r3, r3, #112	; 0x70
 8005448:	60fb      	str	r3, [r7, #12]
  /* Set the Input Trigger source and the slave mode*/
  tmpsmcr |= (InputTriggerSource | TIM_SLAVEMODE_EXTERNAL1);
 800544a:	683a      	ldr	r2, [r7, #0]
 800544c:	68fb      	ldr	r3, [r7, #12]
 800544e:	4313      	orrs	r3, r2
 8005450:	f043 0307 	orr.w	r3, r3, #7
 8005454:	60fb      	str	r3, [r7, #12]
  /* Write to TIMx SMCR */
  TIMx->SMCR = tmpsmcr;
 8005456:	687b      	ldr	r3, [r7, #4]
 8005458:	68fa      	ldr	r2, [r7, #12]
 800545a:	609a      	str	r2, [r3, #8]
}
 800545c:	bf00      	nop
 800545e:	3714      	adds	r7, #20
 8005460:	46bd      	mov	sp, r7
 8005462:	f85d 7b04 	ldr.w	r7, [sp], #4
 8005466:	4770      	bx	lr

08005468 <TIM_ETR_SetConfig>:
  *          This parameter must be a value between 0x00 and 0x0F
  * @retval None
  */
void TIM_ETR_SetConfig(TIM_TypeDef *TIMx, uint32_t TIM_ExtTRGPrescaler,
                       uint32_t TIM_ExtTRGPolarity, uint32_t ExtTRGFilter)
{
 8005468:	b480      	push	{r7}
 800546a:	b087      	sub	sp, #28
 800546c:	af00      	add	r7, sp, #0
 800546e:	60f8      	str	r0, [r7, #12]
 8005470:	60b9      	str	r1, [r7, #8]
 8005472:	607a      	str	r2, [r7, #4]
 8005474:	603b      	str	r3, [r7, #0]
  uint32_t tmpsmcr;

  tmpsmcr = TIMx->SMCR;
 8005476:	68fb      	ldr	r3, [r7, #12]
 8005478:	689b      	ldr	r3, [r3, #8]
 800547a:	617b      	str	r3, [r7, #20]

  /* Reset the ETR Bits */
  tmpsmcr &= ~(TIM_SMCR_ETF | TIM_SMCR_ETPS | TIM_SMCR_ECE | TIM_SMCR_ETP);
 800547c:	697b      	ldr	r3, [r7, #20]
 800547e:	f423 437f 	bic.w	r3, r3, #65280	; 0xff00
 8005482:	617b      	str	r3, [r7, #20]

  /* Set the Prescaler, the Filter value and the Polarity */
  tmpsmcr |= (uint32_t)(TIM_ExtTRGPrescaler | (TIM_ExtTRGPolarity | (ExtTRGFilter << 8U)));
 8005484:	683b      	ldr	r3, [r7, #0]
 8005486:	021a      	lsls	r2, r3, #8
 8005488:	687b      	ldr	r3, [r7, #4]
 800548a:	431a      	orrs	r2, r3
 800548c:	68bb      	ldr	r3, [r7, #8]
 800548e:	4313      	orrs	r3, r2
 8005490:	697a      	ldr	r2, [r7, #20]
 8005492:	4313      	orrs	r3, r2
 8005494:	617b      	str	r3, [r7, #20]

  /* Write to TIMx SMCR */
  TIMx->SMCR = tmpsmcr;
 8005496:	68fb      	ldr	r3, [r7, #12]
 8005498:	697a      	ldr	r2, [r7, #20]
 800549a:	609a      	str	r2, [r3, #8]
}
 800549c:	bf00      	nop
 800549e:	371c      	adds	r7, #28
 80054a0:	46bd      	mov	sp, r7
 80054a2:	f85d 7b04 	ldr.w	r7, [sp], #4
 80054a6:	4770      	bx	lr

080054a8 <TIM_CCxChannelCmd>:
  * @param  ChannelState specifies the TIM Channel CCxE bit new state.
  *          This parameter can be: TIM_CCx_ENABLE or TIM_CCx_DISABLE.
  * @retval None
  */
void TIM_CCxChannelCmd(TIM_TypeDef *TIMx, uint32_t Channel, uint32_t ChannelState)
{
 80054a8:	b480      	push	{r7}
 80054aa:	b087      	sub	sp, #28
 80054ac:	af00      	add	r7, sp, #0
 80054ae:	60f8      	str	r0, [r7, #12]
 80054b0:	60b9      	str	r1, [r7, #8]
 80054b2:	607a      	str	r2, [r7, #4]

  /* Check the parameters */
  assert_param(IS_TIM_CC1_INSTANCE(TIMx));
  assert_param(IS_TIM_CHANNELS(Channel));

  tmp = TIM_CCER_CC1E << (Channel & 0x1FU); /* 0x1FU = 31 bits max shift */
 80054b4:	68bb      	ldr	r3, [r7, #8]
 80054b6:	f003 031f 	and.w	r3, r3, #31
 80054ba:	2201      	movs	r2, #1
 80054bc:	fa02 f303 	lsl.w	r3, r2, r3
 80054c0:	617b      	str	r3, [r7, #20]

  /* Reset the CCxE Bit */
  TIMx->CCER &= ~tmp;
 80054c2:	68fb      	ldr	r3, [r7, #12]
 80054c4:	6a1a      	ldr	r2, [r3, #32]
 80054c6:	697b      	ldr	r3, [r7, #20]
 80054c8:	43db      	mvns	r3, r3
 80054ca:	401a      	ands	r2, r3
 80054cc:	68fb      	ldr	r3, [r7, #12]
 80054ce:	621a      	str	r2, [r3, #32]

  /* Set or reset the CCxE Bit */
  TIMx->CCER |= (uint32_t)(ChannelState << (Channel & 0x1FU)); /* 0x1FU = 31 bits max shift */
 80054d0:	68fb      	ldr	r3, [r7, #12]
 80054d2:	6a1a      	ldr	r2, [r3, #32]
 80054d4:	68bb      	ldr	r3, [r7, #8]
 80054d6:	f003 031f 	and.w	r3, r3, #31
 80054da:	6879      	ldr	r1, [r7, #4]
 80054dc:	fa01 f303 	lsl.w	r3, r1, r3
 80054e0:	431a      	orrs	r2, r3
 80054e2:	68fb      	ldr	r3, [r7, #12]
 80054e4:	621a      	str	r2, [r3, #32]
}
 80054e6:	bf00      	nop
 80054e8:	371c      	adds	r7, #28
 80054ea:	46bd      	mov	sp, r7
 80054ec:	f85d 7b04 	ldr.w	r7, [sp], #4
 80054f0:	4770      	bx	lr
	...

080054f4 <HAL_TIMEx_MasterConfigSynchronization>:
  *         mode.
  * @retval HAL status
  */
HAL_StatusTypeDef HAL_TIMEx_MasterConfigSynchronization(TIM_HandleTypeDef *htim,
                                                        const TIM_MasterConfigTypeDef *sMasterConfig)
{
 80054f4:	b480      	push	{r7}
 80054f6:	b085      	sub	sp, #20
 80054f8:	af00      	add	r7, sp, #0
 80054fa:	6078      	str	r0, [r7, #4]
 80054fc:	6039      	str	r1, [r7, #0]
  assert_param(IS_TIM_MASTER_INSTANCE(htim->Instance));
  assert_param(IS_TIM_TRGO_SOURCE(sMasterConfig->MasterOutputTrigger));
  assert_param(IS_TIM_MSM_STATE(sMasterConfig->MasterSlaveMode));

  /* Check input state */
  __HAL_LOCK(htim);
 80054fe:	687b      	ldr	r3, [r7, #4]
 8005500:	f893 303c 	ldrb.w	r3, [r3, #60]	; 0x3c
 8005504:	2b01      	cmp	r3, #1
 8005506:	d101      	bne.n	800550c <HAL_TIMEx_MasterConfigSynchronization+0x18>
 8005508:	2302      	movs	r3, #2
 800550a:	e05a      	b.n	80055c2 <HAL_TIMEx_MasterConfigSynchronization+0xce>
 800550c:	687b      	ldr	r3, [r7, #4]
 800550e:	2201      	movs	r2, #1
 8005510:	f883 203c 	strb.w	r2, [r3, #60]	; 0x3c

  /* Change the handler state */
  htim->State = HAL_TIM_STATE_BUSY;
 8005514:	687b      	ldr	r3, [r7, #4]
 8005516:	2202      	movs	r2, #2
 8005518:	f883 203d 	strb.w	r2, [r3, #61]	; 0x3d

  /* Get the TIMx CR2 register value */
  tmpcr2 = htim->Instance->CR2;
 800551c:	687b      	ldr	r3, [r7, #4]
 800551e:	681b      	ldr	r3, [r3, #0]
 8005520:	685b      	ldr	r3, [r3, #4]
 8005522:	60fb      	str	r3, [r7, #12]

  /* Get the TIMx SMCR register value */
  tmpsmcr = htim->Instance->SMCR;
 8005524:	687b      	ldr	r3, [r7, #4]
 8005526:	681b      	ldr	r3, [r3, #0]
 8005528:	689b      	ldr	r3, [r3, #8]
 800552a:	60bb      	str	r3, [r7, #8]

  /* Reset the MMS Bits */
  tmpcr2 &= ~TIM_CR2_MMS;
 800552c:	68fb      	ldr	r3, [r7, #12]
 800552e:	f023 0370 	bic.w	r3, r3, #112	; 0x70
 8005532:	60fb      	str	r3, [r7, #12]
  /* Select the TRGO source */
  tmpcr2 |=  sMasterConfig->MasterOutputTrigger;
 8005534:	683b      	ldr	r3, [r7, #0]
 8005536:	681b      	ldr	r3, [r3, #0]
 8005538:	68fa      	ldr	r2, [r7, #12]
 800553a:	4313      	orrs	r3, r2
 800553c:	60fb      	str	r3, [r7, #12]

  /* Update TIMx CR2 */
  htim->Instance->CR2 = tmpcr2;
 800553e:	687b      	ldr	r3, [r7, #4]
 8005540:	681b      	ldr	r3, [r3, #0]
 8005542:	68fa      	ldr	r2, [r7, #12]
 8005544:	605a      	str	r2, [r3, #4]

  if (IS_TIM_SLAVE_INSTANCE(htim->Instance))
 8005546:	687b      	ldr	r3, [r7, #4]
 8005548:	681b      	ldr	r3, [r3, #0]
 800554a:	4a21      	ldr	r2, [pc, #132]	; (80055d0 <HAL_TIMEx_MasterConfigSynchronization+0xdc>)
 800554c:	4293      	cmp	r3, r2
 800554e:	d022      	beq.n	8005596 <HAL_TIMEx_MasterConfigSynchronization+0xa2>
 8005550:	687b      	ldr	r3, [r7, #4]
 8005552:	681b      	ldr	r3, [r3, #0]
 8005554:	f1b3 4f80 	cmp.w	r3, #1073741824	; 0x40000000
 8005558:	d01d      	beq.n	8005596 <HAL_TIMEx_MasterConfigSynchronization+0xa2>
 800555a:	687b      	ldr	r3, [r7, #4]
 800555c:	681b      	ldr	r3, [r3, #0]
 800555e:	4a1d      	ldr	r2, [pc, #116]	; (80055d4 <HAL_TIMEx_MasterConfigSynchronization+0xe0>)
 8005560:	4293      	cmp	r3, r2
 8005562:	d018      	beq.n	8005596 <HAL_TIMEx_MasterConfigSynchronization+0xa2>
 8005564:	687b      	ldr	r3, [r7, #4]
 8005566:	681b      	ldr	r3, [r3, #0]
 8005568:	4a1b      	ldr	r2, [pc, #108]	; (80055d8 <HAL_TIMEx_MasterConfigSynchronization+0xe4>)
 800556a:	4293      	cmp	r3, r2
 800556c:	d013      	beq.n	8005596 <HAL_TIMEx_MasterConfigSynchronization+0xa2>
 800556e:	687b      	ldr	r3, [r7, #4]
 8005570:	681b      	ldr	r3, [r3, #0]
 8005572:	4a1a      	ldr	r2, [pc, #104]	; (80055dc <HAL_TIMEx_MasterConfigSynchronization+0xe8>)
 8005574:	4293      	cmp	r3, r2
 8005576:	d00e      	beq.n	8005596 <HAL_TIMEx_MasterConfigSynchronization+0xa2>
 8005578:	687b      	ldr	r3, [r7, #4]
 800557a:	681b      	ldr	r3, [r3, #0]
 800557c:	4a18      	ldr	r2, [pc, #96]	; (80055e0 <HAL_TIMEx_MasterConfigSynchronization+0xec>)
 800557e:	4293      	cmp	r3, r2
 8005580:	d009      	beq.n	8005596 <HAL_TIMEx_MasterConfigSynchronization+0xa2>
 8005582:	687b      	ldr	r3, [r7, #4]
 8005584:	681b      	ldr	r3, [r3, #0]
 8005586:	4a17      	ldr	r2, [pc, #92]	; (80055e4 <HAL_TIMEx_MasterConfigSynchronization+0xf0>)
 8005588:	4293      	cmp	r3, r2
 800558a:	d004      	beq.n	8005596 <HAL_TIMEx_MasterConfigSynchronization+0xa2>
 800558c:	687b      	ldr	r3, [r7, #4]
 800558e:	681b      	ldr	r3, [r3, #0]
 8005590:	4a15      	ldr	r2, [pc, #84]	; (80055e8 <HAL_TIMEx_MasterConfigSynchronization+0xf4>)
 8005592:	4293      	cmp	r3, r2
 8005594:	d10c      	bne.n	80055b0 <HAL_TIMEx_MasterConfigSynchronization+0xbc>
  {
    /* Reset the MSM Bit */
    tmpsmcr &= ~TIM_SMCR_MSM;
 8005596:	68bb      	ldr	r3, [r7, #8]
 8005598:	f023 0380 	bic.w	r3, r3, #128	; 0x80
 800559c:	60bb      	str	r3, [r7, #8]
    /* Set master mode */
    tmpsmcr |= sMasterConfig->MasterSlaveMode;
 800559e:	683b      	ldr	r3, [r7, #0]
 80055a0:	685b      	ldr	r3, [r3, #4]
 80055a2:	68ba      	ldr	r2, [r7, #8]
 80055a4:	4313      	orrs	r3, r2
 80055a6:	60bb      	str	r3, [r7, #8]

    /* Update TIMx SMCR */
    htim->Instance->SMCR = tmpsmcr;
 80055a8:	687b      	ldr	r3, [r7, #4]
 80055aa:	681b      	ldr	r3, [r3, #0]
 80055ac:	68ba      	ldr	r2, [r7, #8]
 80055ae:	609a      	str	r2, [r3, #8]
  }

  /* Change the htim state */
  htim->State = HAL_TIM_STATE_READY;
 80055b0:	687b      	ldr	r3, [r7, #4]
 80055b2:	2201      	movs	r2, #1
 80055b4:	f883 203d 	strb.w	r2, [r3, #61]	; 0x3d

  __HAL_UNLOCK(htim);
 80055b8:	687b      	ldr	r3, [r7, #4]
 80055ba:	2200      	movs	r2, #0
 80055bc:	f883 203c 	strb.w	r2, [r3, #60]	; 0x3c

  return HAL_OK;
 80055c0:	2300      	movs	r3, #0
}
 80055c2:	4618      	mov	r0, r3
 80055c4:	3714      	adds	r7, #20
 80055c6:	46bd      	mov	sp, r7
 80055c8:	f85d 7b04 	ldr.w	r7, [sp], #4
 80055cc:	4770      	bx	lr
 80055ce:	bf00      	nop
 80055d0:	40010000 	.word	0x40010000
 80055d4:	40000400 	.word	0x40000400
 80055d8:	40000800 	.word	0x40000800
 80055dc:	40000c00 	.word	0x40000c00
 80055e0:	40010400 	.word	0x40010400
 80055e4:	40014000 	.word	0x40014000
 80055e8:	40001800 	.word	0x40001800

080055ec <HAL_TIMEx_CommutCallback>:
  * @brief  Commutation callback in non-blocking mode
  * @param  htim TIM handle
  * @retval None
  */
__weak void HAL_TIMEx_CommutCallback(TIM_HandleTypeDef *htim)
{
 80055ec:	b480      	push	{r7}
 80055ee:	b083      	sub	sp, #12
 80055f0:	af00      	add	r7, sp, #0
 80055f2:	6078      	str	r0, [r7, #4]
  UNUSED(htim);

  /* NOTE : This function should not be modified, when the callback is needed,
            the HAL_TIMEx_CommutCallback could be implemented in the user file
   */
}
 80055f4:	bf00      	nop
 80055f6:	370c      	adds	r7, #12
 80055f8:	46bd      	mov	sp, r7
 80055fa:	f85d 7b04 	ldr.w	r7, [sp], #4
 80055fe:	4770      	bx	lr

08005600 <HAL_TIMEx_BreakCallback>:
  * @brief  Break detection callback in non-blocking mode
  * @param  htim TIM handle
  * @retval None
  */
__weak void HAL_TIMEx_BreakCallback(TIM_HandleTypeDef *htim)
{
 8005600:	b480      	push	{r7}
 8005602:	b083      	sub	sp, #12
 8005604:	af00      	add	r7, sp, #0
 8005606:	6078      	str	r0, [r7, #4]
  UNUSED(htim);

  /* NOTE : This function should not be modified, when the callback is needed,
            the HAL_TIMEx_BreakCallback could be implemented in the user file
   */
}
 8005608:	bf00      	nop
 800560a:	370c      	adds	r7, #12
 800560c:	46bd      	mov	sp, r7
 800560e:	f85d 7b04 	ldr.w	r7, [sp], #4
 8005612:	4770      	bx	lr

08005614 <memset>:
 8005614:	4402      	add	r2, r0
 8005616:	4603      	mov	r3, r0
 8005618:	4293      	cmp	r3, r2
 800561a:	d100      	bne.n	800561e <memset+0xa>
 800561c:	4770      	bx	lr
 800561e:	f803 1b01 	strb.w	r1, [r3], #1
 8005622:	e7f9      	b.n	8005618 <memset+0x4>

08005624 <__libc_init_array>:
 8005624:	b570      	push	{r4, r5, r6, lr}
 8005626:	4d0d      	ldr	r5, [pc, #52]	; (800565c <__libc_init_array+0x38>)
 8005628:	4c0d      	ldr	r4, [pc, #52]	; (8005660 <__libc_init_array+0x3c>)
 800562a:	1b64      	subs	r4, r4, r5
 800562c:	10a4      	asrs	r4, r4, #2
 800562e:	2600      	movs	r6, #0
 8005630:	42a6      	cmp	r6, r4
 8005632:	d109      	bne.n	8005648 <__libc_init_array+0x24>
 8005634:	4d0b      	ldr	r5, [pc, #44]	; (8005664 <__libc_init_array+0x40>)
 8005636:	4c0c      	ldr	r4, [pc, #48]	; (8005668 <__libc_init_array+0x44>)
 8005638:	f000 f818 	bl	800566c <_init>
 800563c:	1b64      	subs	r4, r4, r5
 800563e:	10a4      	asrs	r4, r4, #2
 8005640:	2600      	movs	r6, #0
 8005642:	42a6      	cmp	r6, r4
 8005644:	d105      	bne.n	8005652 <__libc_init_array+0x2e>
 8005646:	bd70      	pop	{r4, r5, r6, pc}
 8005648:	f855 3b04 	ldr.w	r3, [r5], #4
 800564c:	4798      	blx	r3
 800564e:	3601      	adds	r6, #1
 8005650:	e7ee      	b.n	8005630 <__libc_init_array+0xc>
 8005652:	f855 3b04 	ldr.w	r3, [r5], #4
 8005656:	4798      	blx	r3
 8005658:	3601      	adds	r6, #1
 800565a:	e7f2      	b.n	8005642 <__libc_init_array+0x1e>
 800565c:	080056c0 	.word	0x080056c0
 8005660:	080056c0 	.word	0x080056c0
 8005664:	080056c0 	.word	0x080056c0
 8005668:	080056c4 	.word	0x080056c4

0800566c <_init>:
 800566c:	b5f8      	push	{r3, r4, r5, r6, r7, lr}
 800566e:	bf00      	nop
 8005670:	bcf8      	pop	{r3, r4, r5, r6, r7}
 8005672:	bc08      	pop	{r3}
 8005674:	469e      	mov	lr, r3
 8005676:	4770      	bx	lr

08005678 <_fini>:
 8005678:	b5f8      	push	{r3, r4, r5, r6, r7, lr}
 800567a:	bf00      	nop
 800567c:	bcf8      	pop	{r3, r4, r5, r6, r7}
 800567e:	bc08      	pop	{r3}
 8005680:	469e      	mov	lr, r3
 8005682:	4770      	bx	lr
