
Test.elf:     file format elf32-littlearm

Sections:
Idx Name          Size      VMA       LMA       File off  Algn
  0 .isr_vector   00000188  08000000  08000000  00001000  2**0
                  CONTENTS, ALLOC, LOAD, READONLY, DATA
  1 .text         000091d0  08000190  08000190  00001190  2**4
                  CONTENTS, ALLOC, LOAD, READONLY, CODE
  2 .rodata       000003d8  08009360  08009360  0000a360  2**3
                  CONTENTS, ALLOC, LOAD, READONLY, DATA
  3 .ARM.extab    00000000  08009738  08009738  0000b1dc  2**0
                  CONTENTS
  4 .ARM          00000008  08009738  08009738  0000a738  2**2
                  CONTENTS, ALLOC, LOAD, READONLY, DATA
  5 .preinit_array 00000000  08009740  08009740  0000b1dc  2**0
                  CONTENTS, ALLOC, LOAD, DATA
  6 .init_array   00000004  08009740  08009740  0000a740  2**2
                  CONTENTS, ALLOC, LOAD, DATA
  7 .fini_array   00000004  08009744  08009744  0000a744  2**2
                  CONTENTS, ALLOC, LOAD, DATA
  8 .data         000001dc  20000000  08009748  0000b000  2**2
                  CONTENTS, ALLOC, LOAD, DATA
  9 .ccmram       00000000  10000000  10000000  0000b1dc  2**0
                  CONTENTS
 10 .bss          0000033c  200001dc  200001dc  0000b1dc  2**2
                  ALLOC
 11 ._user_heap_stack 00000600  20000518  20000518  0000b1dc  2**0
                  ALLOC
 12 .ARM.attributes 00000030  00000000  00000000  0000b1dc  2**0
                  CONTENTS, READONLY
 13 .debug_info   00012898  00000000  00000000  0000b20c  2**0
                  CONTENTS, READONLY, DEBUGGING, OCTETS
 14 .debug_abbrev 0000285f  00000000  00000000  0001daa4  2**0
                  CONTENTS, READONLY, DEBUGGING, OCTETS
 15 .debug_aranges 00001218  00000000  00000000  00020308  2**3
                  CONTENTS, READONLY, DEBUGGING, OCTETS
 16 .debug_rnglists 00000e40  00000000  00000000  00021520  2**0
                  CONTENTS, READONLY, DEBUGGING, OCTETS
 17 .debug_macro  00003fcd  00000000  00000000  00022360  2**0
                  CONTENTS, READONLY, DEBUGGING, OCTETS
 18 .debug_line   00015914  00000000  00000000  0002632d  2**0
                  CONTENTS, READONLY, DEBUGGING, OCTETS
 19 .debug_str    000dcd4b  00000000  00000000  0003bc41  2**0
                  CONTENTS, READONLY, DEBUGGING, OCTETS
 20 .comment      00000043  00000000  00000000  0011898c  2**0
                  CONTENTS, READONLY
 21 .debug_frame  00005f54  00000000  00000000  001189d0  2**2
                  CONTENTS, READONLY, DEBUGGING, OCTETS
 22 .debug_line_str 0000005e  00000000  00000000  0011e924  2**0
                  CONTENTS, READONLY, DEBUGGING, OCTETS

Disassembly of section .text:

08000190 <__do_global_dtors_aux>:
 8000190:	b510      	push	{r4, lr}
 8000192:	4c05      	ldr	r4, [pc, #20]	@ (80001a8 <__do_global_dtors_aux+0x18>)
 8000194:	7823      	ldrb	r3, [r4, #0]
 8000196:	b933      	cbnz	r3, 80001a6 <__do_global_dtors_aux+0x16>
 8000198:	4b04      	ldr	r3, [pc, #16]	@ (80001ac <__do_global_dtors_aux+0x1c>)
 800019a:	b113      	cbz	r3, 80001a2 <__do_global_dtors_aux+0x12>
 800019c:	4804      	ldr	r0, [pc, #16]	@ (80001b0 <__do_global_dtors_aux+0x20>)
 800019e:	f3af 8000 	nop.w
 80001a2:	2301      	movs	r3, #1
 80001a4:	7023      	strb	r3, [r4, #0]
 80001a6:	bd10      	pop	{r4, pc}
 80001a8:	200001dc 	.word	0x200001dc
 80001ac:	00000000 	.word	0x00000000
 80001b0:	08009348 	.word	0x08009348

080001b4 <frame_dummy>:
 80001b4:	b508      	push	{r3, lr}
 80001b6:	4b03      	ldr	r3, [pc, #12]	@ (80001c4 <frame_dummy+0x10>)
 80001b8:	b11b      	cbz	r3, 80001c2 <frame_dummy+0xe>
 80001ba:	4903      	ldr	r1, [pc, #12]	@ (80001c8 <frame_dummy+0x14>)
 80001bc:	4803      	ldr	r0, [pc, #12]	@ (80001cc <frame_dummy+0x18>)
 80001be:	f3af 8000 	nop.w
 80001c2:	bd08      	pop	{r3, pc}
 80001c4:	00000000 	.word	0x00000000
 80001c8:	200001e0 	.word	0x200001e0
 80001cc:	08009348 	.word	0x08009348

080001d0 <memchr>:
 80001d0:	f001 01ff 	and.w	r1, r1, #255	@ 0xff
 80001d4:	2a10      	cmp	r2, #16
 80001d6:	db2b      	blt.n	8000230 <memchr+0x60>
 80001d8:	f010 0f07 	tst.w	r0, #7
 80001dc:	d008      	beq.n	80001f0 <memchr+0x20>
 80001de:	f810 3b01 	ldrb.w	r3, [r0], #1
 80001e2:	3a01      	subs	r2, #1
 80001e4:	428b      	cmp	r3, r1
 80001e6:	d02d      	beq.n	8000244 <memchr+0x74>
 80001e8:	f010 0f07 	tst.w	r0, #7
 80001ec:	b342      	cbz	r2, 8000240 <memchr+0x70>
 80001ee:	d1f6      	bne.n	80001de <memchr+0xe>
 80001f0:	b4f0      	push	{r4, r5, r6, r7}
 80001f2:	ea41 2101 	orr.w	r1, r1, r1, lsl #8
 80001f6:	ea41 4101 	orr.w	r1, r1, r1, lsl #16
 80001fa:	f022 0407 	bic.w	r4, r2, #7
 80001fe:	f07f 0700 	mvns.w	r7, #0
 8000202:	2300      	movs	r3, #0
 8000204:	e8f0 5602 	ldrd	r5, r6, [r0], #8
 8000208:	3c08      	subs	r4, #8
 800020a:	ea85 0501 	eor.w	r5, r5, r1
 800020e:	ea86 0601 	eor.w	r6, r6, r1
 8000212:	fa85 f547 	uadd8	r5, r5, r7
 8000216:	faa3 f587 	sel	r5, r3, r7
 800021a:	fa86 f647 	uadd8	r6, r6, r7
 800021e:	faa5 f687 	sel	r6, r5, r7
 8000222:	b98e      	cbnz	r6, 8000248 <memchr+0x78>
 8000224:	d1ee      	bne.n	8000204 <memchr+0x34>
 8000226:	bcf0      	pop	{r4, r5, r6, r7}
 8000228:	f001 01ff 	and.w	r1, r1, #255	@ 0xff
 800022c:	f002 0207 	and.w	r2, r2, #7
 8000230:	b132      	cbz	r2, 8000240 <memchr+0x70>
 8000232:	f810 3b01 	ldrb.w	r3, [r0], #1
 8000236:	3a01      	subs	r2, #1
 8000238:	ea83 0301 	eor.w	r3, r3, r1
 800023c:	b113      	cbz	r3, 8000244 <memchr+0x74>
 800023e:	d1f8      	bne.n	8000232 <memchr+0x62>
 8000240:	2000      	movs	r0, #0
 8000242:	4770      	bx	lr
 8000244:	3801      	subs	r0, #1
 8000246:	4770      	bx	lr
 8000248:	2d00      	cmp	r5, #0
 800024a:	bf06      	itte	eq
 800024c:	4635      	moveq	r5, r6
 800024e:	3803      	subeq	r0, #3
 8000250:	3807      	subne	r0, #7
 8000252:	f015 0f01 	tst.w	r5, #1
 8000256:	d107      	bne.n	8000268 <memchr+0x98>
 8000258:	3001      	adds	r0, #1
 800025a:	f415 7f80 	tst.w	r5, #256	@ 0x100
 800025e:	bf02      	ittt	eq
 8000260:	3001      	addeq	r0, #1
 8000262:	f415 3fc0 	tsteq.w	r5, #98304	@ 0x18000
 8000266:	3001      	addeq	r0, #1
 8000268:	bcf0      	pop	{r4, r5, r6, r7}
 800026a:	3801      	subs	r0, #1
 800026c:	4770      	bx	lr
 800026e:	bf00      	nop

08000270 <strlen>:
 8000270:	4603      	mov	r3, r0
 8000272:	f813 2b01 	ldrb.w	r2, [r3], #1
 8000276:	2a00      	cmp	r2, #0
 8000278:	d1fb      	bne.n	8000272 <strlen+0x2>
 800027a:	1a18      	subs	r0, r3, r0
 800027c:	3801      	subs	r0, #1
 800027e:	4770      	bx	lr

08000280 <__aeabi_drsub>:
 8000280:	f081 4100 	eor.w	r1, r1, #2147483648	@ 0x80000000
 8000284:	e002      	b.n	800028c <__adddf3>
 8000286:	bf00      	nop

08000288 <__aeabi_dsub>:
 8000288:	f083 4300 	eor.w	r3, r3, #2147483648	@ 0x80000000

0800028c <__adddf3>:
 800028c:	b530      	push	{r4, r5, lr}
 800028e:	ea4f 0441 	mov.w	r4, r1, lsl #1
 8000292:	ea4f 0543 	mov.w	r5, r3, lsl #1
 8000296:	ea94 0f05 	teq	r4, r5
 800029a:	bf08      	it	eq
 800029c:	ea90 0f02 	teqeq	r0, r2
 80002a0:	bf1f      	itttt	ne
 80002a2:	ea54 0c00 	orrsne.w	ip, r4, r0
 80002a6:	ea55 0c02 	orrsne.w	ip, r5, r2
 80002aa:	ea7f 5c64 	mvnsne.w	ip, r4, asr #21
 80002ae:	ea7f 5c65 	mvnsne.w	ip, r5, asr #21
 80002b2:	f000 80e2 	beq.w	800047a <__adddf3+0x1ee>
 80002b6:	ea4f 5454 	mov.w	r4, r4, lsr #21
 80002ba:	ebd4 5555 	rsbs	r5, r4, r5, lsr #21
 80002be:	bfb8      	it	lt
 80002c0:	426d      	neglt	r5, r5
 80002c2:	dd0c      	ble.n	80002de <__adddf3+0x52>
 80002c4:	442c      	add	r4, r5
 80002c6:	ea80 0202 	eor.w	r2, r0, r2
 80002ca:	ea81 0303 	eor.w	r3, r1, r3
 80002ce:	ea82 0000 	eor.w	r0, r2, r0
 80002d2:	ea83 0101 	eor.w	r1, r3, r1
 80002d6:	ea80 0202 	eor.w	r2, r0, r2
 80002da:	ea81 0303 	eor.w	r3, r1, r3
 80002de:	2d36      	cmp	r5, #54	@ 0x36
 80002e0:	bf88      	it	hi
 80002e2:	bd30      	pophi	{r4, r5, pc}
 80002e4:	f011 4f00 	tst.w	r1, #2147483648	@ 0x80000000
 80002e8:	ea4f 3101 	mov.w	r1, r1, lsl #12
 80002ec:	f44f 1c80 	mov.w	ip, #1048576	@ 0x100000
 80002f0:	ea4c 3111 	orr.w	r1, ip, r1, lsr #12
 80002f4:	d002      	beq.n	80002fc <__adddf3+0x70>
 80002f6:	4240      	negs	r0, r0
 80002f8:	eb61 0141 	sbc.w	r1, r1, r1, lsl #1
 80002fc:	f013 4f00 	tst.w	r3, #2147483648	@ 0x80000000
 8000300:	ea4f 3303 	mov.w	r3, r3, lsl #12
 8000304:	ea4c 3313 	orr.w	r3, ip, r3, lsr #12
 8000308:	d002      	beq.n	8000310 <__adddf3+0x84>
 800030a:	4252      	negs	r2, r2
 800030c:	eb63 0343 	sbc.w	r3, r3, r3, lsl #1
 8000310:	ea94 0f05 	teq	r4, r5
 8000314:	f000 80a7 	beq.w	8000466 <__adddf3+0x1da>
 8000318:	f1a4 0401 	sub.w	r4, r4, #1
 800031c:	f1d5 0e20 	rsbs	lr, r5, #32
 8000320:	db0d      	blt.n	800033e <__adddf3+0xb2>
 8000322:	fa02 fc0e 	lsl.w	ip, r2, lr
 8000326:	fa22 f205 	lsr.w	r2, r2, r5
 800032a:	1880      	adds	r0, r0, r2
 800032c:	f141 0100 	adc.w	r1, r1, #0
 8000330:	fa03 f20e 	lsl.w	r2, r3, lr
 8000334:	1880      	adds	r0, r0, r2
 8000336:	fa43 f305 	asr.w	r3, r3, r5
 800033a:	4159      	adcs	r1, r3
 800033c:	e00e      	b.n	800035c <__adddf3+0xd0>
 800033e:	f1a5 0520 	sub.w	r5, r5, #32
 8000342:	f10e 0e20 	add.w	lr, lr, #32
 8000346:	2a01      	cmp	r2, #1
 8000348:	fa03 fc0e 	lsl.w	ip, r3, lr
 800034c:	bf28      	it	cs
 800034e:	f04c 0c02 	orrcs.w	ip, ip, #2
 8000352:	fa43 f305 	asr.w	r3, r3, r5
 8000356:	18c0      	adds	r0, r0, r3
 8000358:	eb51 71e3 	adcs.w	r1, r1, r3, asr #31
 800035c:	f001 4500 	and.w	r5, r1, #2147483648	@ 0x80000000
 8000360:	d507      	bpl.n	8000372 <__adddf3+0xe6>
 8000362:	f04f 0e00 	mov.w	lr, #0
 8000366:	f1dc 0c00 	rsbs	ip, ip, #0
 800036a:	eb7e 0000 	sbcs.w	r0, lr, r0
 800036e:	eb6e 0101 	sbc.w	r1, lr, r1
 8000372:	f5b1 1f80 	cmp.w	r1, #1048576	@ 0x100000
 8000376:	d31b      	bcc.n	80003b0 <__adddf3+0x124>
 8000378:	f5b1 1f00 	cmp.w	r1, #2097152	@ 0x200000
 800037c:	d30c      	bcc.n	8000398 <__adddf3+0x10c>
 800037e:	0849      	lsrs	r1, r1, #1
 8000380:	ea5f 0030 	movs.w	r0, r0, rrx
 8000384:	ea4f 0c3c 	mov.w	ip, ip, rrx
 8000388:	f104 0401 	add.w	r4, r4, #1
 800038c:	ea4f 5244 	mov.w	r2, r4, lsl #21
 8000390:	f512 0f80 	cmn.w	r2, #4194304	@ 0x400000
 8000394:	f080 809a 	bcs.w	80004cc <__adddf3+0x240>
 8000398:	f1bc 4f00 	cmp.w	ip, #2147483648	@ 0x80000000
 800039c:	bf08      	it	eq
 800039e:	ea5f 0c50 	movseq.w	ip, r0, lsr #1
 80003a2:	f150 0000 	adcs.w	r0, r0, #0
 80003a6:	eb41 5104 	adc.w	r1, r1, r4, lsl #20
 80003aa:	ea41 0105 	orr.w	r1, r1, r5
 80003ae:	bd30      	pop	{r4, r5, pc}
 80003b0:	ea5f 0c4c 	movs.w	ip, ip, lsl #1
 80003b4:	4140      	adcs	r0, r0
 80003b6:	eb41 0101 	adc.w	r1, r1, r1
 80003ba:	3c01      	subs	r4, #1
 80003bc:	bf28      	it	cs
 80003be:	f5b1 1f80 	cmpcs.w	r1, #1048576	@ 0x100000
 80003c2:	d2e9      	bcs.n	8000398 <__adddf3+0x10c>
 80003c4:	f091 0f00 	teq	r1, #0
 80003c8:	bf04      	itt	eq
 80003ca:	4601      	moveq	r1, r0
 80003cc:	2000      	moveq	r0, #0
 80003ce:	fab1 f381 	clz	r3, r1
 80003d2:	bf08      	it	eq
 80003d4:	3320      	addeq	r3, #32
 80003d6:	f1a3 030b 	sub.w	r3, r3, #11
 80003da:	f1b3 0220 	subs.w	r2, r3, #32
 80003de:	da0c      	bge.n	80003fa <__adddf3+0x16e>
 80003e0:	320c      	adds	r2, #12
 80003e2:	dd08      	ble.n	80003f6 <__adddf3+0x16a>
 80003e4:	f102 0c14 	add.w	ip, r2, #20
 80003e8:	f1c2 020c 	rsb	r2, r2, #12
 80003ec:	fa01 f00c 	lsl.w	r0, r1, ip
 80003f0:	fa21 f102 	lsr.w	r1, r1, r2
 80003f4:	e00c      	b.n	8000410 <__adddf3+0x184>
 80003f6:	f102 0214 	add.w	r2, r2, #20
 80003fa:	bfd8      	it	le
 80003fc:	f1c2 0c20 	rsble	ip, r2, #32
 8000400:	fa01 f102 	lsl.w	r1, r1, r2
 8000404:	fa20 fc0c 	lsr.w	ip, r0, ip
 8000408:	bfdc      	itt	le
 800040a:	ea41 010c 	orrle.w	r1, r1, ip
 800040e:	4090      	lslle	r0, r2
 8000410:	1ae4      	subs	r4, r4, r3
 8000412:	bfa2      	ittt	ge
 8000414:	eb01 5104 	addge.w	r1, r1, r4, lsl #20
 8000418:	4329      	orrge	r1, r5
 800041a:	bd30      	popge	{r4, r5, pc}
 800041c:	ea6f 0404 	mvn.w	r4, r4
 8000420:	3c1f      	subs	r4, #31
 8000422:	da1c      	bge.n	800045e <__adddf3+0x1d2>
 8000424:	340c      	adds	r4, #12
 8000426:	dc0e      	bgt.n	8000446 <__adddf3+0x1ba>
 8000428:	f104 0414 	add.w	r4, r4, #20
 800042c:	f1c4 0220 	rsb	r2, r4, #32
 8000430:	fa20 f004 	lsr.w	r0, r0, r4
 8000434:	fa01 f302 	lsl.w	r3, r1, r2
 8000438:	ea40 0003 	orr.w	r0, r0, r3
 800043c:	fa21 f304 	lsr.w	r3, r1, r4
 8000440:	ea45 0103 	orr.w	r1, r5, r3
 8000444:	bd30      	pop	{r4, r5, pc}
 8000446:	f1c4 040c 	rsb	r4, r4, #12
 800044a:	f1c4 0220 	rsb	r2, r4, #32
 800044e:	fa20 f002 	lsr.w	r0, r0, r2
 8000452:	fa01 f304 	lsl.w	r3, r1, r4
 8000456:	ea40 0003 	orr.w	r0, r0, r3
 800045a:	4629      	mov	r1, r5
 800045c:	bd30      	pop	{r4, r5, pc}
 800045e:	fa21 f004 	lsr.w	r0, r1, r4
 8000462:	4629      	mov	r1, r5
 8000464:	bd30      	pop	{r4, r5, pc}
 8000466:	f094 0f00 	teq	r4, #0
 800046a:	f483 1380 	eor.w	r3, r3, #1048576	@ 0x100000
 800046e:	bf06      	itte	eq
 8000470:	f481 1180 	eoreq.w	r1, r1, #1048576	@ 0x100000
 8000474:	3401      	addeq	r4, #1
 8000476:	3d01      	subne	r5, #1
 8000478:	e74e      	b.n	8000318 <__adddf3+0x8c>
 800047a:	ea7f 5c64 	mvns.w	ip, r4, asr #21
 800047e:	bf18      	it	ne
 8000480:	ea7f 5c65 	mvnsne.w	ip, r5, asr #21
 8000484:	d029      	beq.n	80004da <__adddf3+0x24e>
 8000486:	ea94 0f05 	teq	r4, r5
 800048a:	bf08      	it	eq
 800048c:	ea90 0f02 	teqeq	r0, r2
 8000490:	d005      	beq.n	800049e <__adddf3+0x212>
 8000492:	ea54 0c00 	orrs.w	ip, r4, r0
 8000496:	bf04      	itt	eq
 8000498:	4619      	moveq	r1, r3
 800049a:	4610      	moveq	r0, r2
 800049c:	bd30      	pop	{r4, r5, pc}
 800049e:	ea91 0f03 	teq	r1, r3
 80004a2:	bf1e      	ittt	ne
 80004a4:	2100      	movne	r1, #0
 80004a6:	2000      	movne	r0, #0
 80004a8:	bd30      	popne	{r4, r5, pc}
 80004aa:	ea5f 5c54 	movs.w	ip, r4, lsr #21
 80004ae:	d105      	bne.n	80004bc <__adddf3+0x230>
 80004b0:	0040      	lsls	r0, r0, #1
 80004b2:	4149      	adcs	r1, r1
 80004b4:	bf28      	it	cs
 80004b6:	f041 4100 	orrcs.w	r1, r1, #2147483648	@ 0x80000000
 80004ba:	bd30      	pop	{r4, r5, pc}
 80004bc:	f514 0480 	adds.w	r4, r4, #4194304	@ 0x400000
 80004c0:	bf3c      	itt	cc
 80004c2:	f501 1180 	addcc.w	r1, r1, #1048576	@ 0x100000
 80004c6:	bd30      	popcc	{r4, r5, pc}
 80004c8:	f001 4500 	and.w	r5, r1, #2147483648	@ 0x80000000
 80004cc:	f045 41fe 	orr.w	r1, r5, #2130706432	@ 0x7f000000
 80004d0:	f441 0170 	orr.w	r1, r1, #15728640	@ 0xf00000
 80004d4:	f04f 0000 	mov.w	r0, #0
 80004d8:	bd30      	pop	{r4, r5, pc}
 80004da:	ea7f 5c64 	mvns.w	ip, r4, asr #21
 80004de:	bf1a      	itte	ne
 80004e0:	4619      	movne	r1, r3
 80004e2:	4610      	movne	r0, r2
 80004e4:	ea7f 5c65 	mvnseq.w	ip, r5, asr #21
 80004e8:	bf1c      	itt	ne
 80004ea:	460b      	movne	r3, r1
 80004ec:	4602      	movne	r2, r0
 80004ee:	ea50 3401 	orrs.w	r4, r0, r1, lsl #12
 80004f2:	bf06      	itte	eq
 80004f4:	ea52 3503 	orrseq.w	r5, r2, r3, lsl #12
 80004f8:	ea91 0f03 	teqeq	r1, r3
 80004fc:	f441 2100 	orrne.w	r1, r1, #524288	@ 0x80000
 8000500:	bd30      	pop	{r4, r5, pc}
 8000502:	bf00      	nop

08000504 <__aeabi_ui2d>:
 8000504:	f090 0f00 	teq	r0, #0
 8000508:	bf04      	itt	eq
 800050a:	2100      	moveq	r1, #0
 800050c:	4770      	bxeq	lr
 800050e:	b530      	push	{r4, r5, lr}
 8000510:	f44f 6480 	mov.w	r4, #1024	@ 0x400
 8000514:	f104 0432 	add.w	r4, r4, #50	@ 0x32
 8000518:	f04f 0500 	mov.w	r5, #0
 800051c:	f04f 0100 	mov.w	r1, #0
 8000520:	e750      	b.n	80003c4 <__adddf3+0x138>
 8000522:	bf00      	nop

08000524 <__aeabi_i2d>:
 8000524:	f090 0f00 	teq	r0, #0
 8000528:	bf04      	itt	eq
 800052a:	2100      	moveq	r1, #0
 800052c:	4770      	bxeq	lr
 800052e:	b530      	push	{r4, r5, lr}
 8000530:	f44f 6480 	mov.w	r4, #1024	@ 0x400
 8000534:	f104 0432 	add.w	r4, r4, #50	@ 0x32
 8000538:	f010 4500 	ands.w	r5, r0, #2147483648	@ 0x80000000
 800053c:	bf48      	it	mi
 800053e:	4240      	negmi	r0, r0
 8000540:	f04f 0100 	mov.w	r1, #0
 8000544:	e73e      	b.n	80003c4 <__adddf3+0x138>
 8000546:	bf00      	nop

08000548 <__aeabi_f2d>:
 8000548:	0042      	lsls	r2, r0, #1
 800054a:	ea4f 01e2 	mov.w	r1, r2, asr #3
 800054e:	ea4f 0131 	mov.w	r1, r1, rrx
 8000552:	ea4f 7002 	mov.w	r0, r2, lsl #28
 8000556:	bf1f      	itttt	ne
 8000558:	f012 437f 	andsne.w	r3, r2, #4278190080	@ 0xff000000
 800055c:	f093 4f7f 	teqne	r3, #4278190080	@ 0xff000000
 8000560:	f081 5160 	eorne.w	r1, r1, #939524096	@ 0x38000000
 8000564:	4770      	bxne	lr
 8000566:	f032 427f 	bics.w	r2, r2, #4278190080	@ 0xff000000
 800056a:	bf08      	it	eq
 800056c:	4770      	bxeq	lr
 800056e:	f093 4f7f 	teq	r3, #4278190080	@ 0xff000000
 8000572:	bf04      	itt	eq
 8000574:	f441 2100 	orreq.w	r1, r1, #524288	@ 0x80000
 8000578:	4770      	bxeq	lr
 800057a:	b530      	push	{r4, r5, lr}
 800057c:	f44f 7460 	mov.w	r4, #896	@ 0x380
 8000580:	f001 4500 	and.w	r5, r1, #2147483648	@ 0x80000000
 8000584:	f021 4100 	bic.w	r1, r1, #2147483648	@ 0x80000000
 8000588:	e71c      	b.n	80003c4 <__adddf3+0x138>
 800058a:	bf00      	nop

0800058c <__aeabi_ul2d>:
 800058c:	ea50 0201 	orrs.w	r2, r0, r1
 8000590:	bf08      	it	eq
 8000592:	4770      	bxeq	lr
 8000594:	b530      	push	{r4, r5, lr}
 8000596:	f04f 0500 	mov.w	r5, #0
 800059a:	e00a      	b.n	80005b2 <__aeabi_l2d+0x16>

0800059c <__aeabi_l2d>:
 800059c:	ea50 0201 	orrs.w	r2, r0, r1
 80005a0:	bf08      	it	eq
 80005a2:	4770      	bxeq	lr
 80005a4:	b530      	push	{r4, r5, lr}
 80005a6:	f011 4500 	ands.w	r5, r1, #2147483648	@ 0x80000000
 80005aa:	d502      	bpl.n	80005b2 <__aeabi_l2d+0x16>
 80005ac:	4240      	negs	r0, r0
 80005ae:	eb61 0141 	sbc.w	r1, r1, r1, lsl #1
 80005b2:	f44f 6480 	mov.w	r4, #1024	@ 0x400
 80005b6:	f104 0432 	add.w	r4, r4, #50	@ 0x32
 80005ba:	ea5f 5c91 	movs.w	ip, r1, lsr #22
 80005be:	f43f aed8 	beq.w	8000372 <__adddf3+0xe6>
 80005c2:	f04f 0203 	mov.w	r2, #3
 80005c6:	ea5f 0cdc 	movs.w	ip, ip, lsr #3
 80005ca:	bf18      	it	ne
 80005cc:	3203      	addne	r2, #3
 80005ce:	ea5f 0cdc 	movs.w	ip, ip, lsr #3
 80005d2:	bf18      	it	ne
 80005d4:	3203      	addne	r2, #3
 80005d6:	eb02 02dc 	add.w	r2, r2, ip, lsr #3
 80005da:	f1c2 0320 	rsb	r3, r2, #32
 80005de:	fa00 fc03 	lsl.w	ip, r0, r3
 80005e2:	fa20 f002 	lsr.w	r0, r0, r2
 80005e6:	fa01 fe03 	lsl.w	lr, r1, r3
 80005ea:	ea40 000e 	orr.w	r0, r0, lr
 80005ee:	fa21 f102 	lsr.w	r1, r1, r2
 80005f2:	4414      	add	r4, r2
 80005f4:	e6bd      	b.n	8000372 <__adddf3+0xe6>
 80005f6:	bf00      	nop

080005f8 <__aeabi_dmul>:
 80005f8:	b570      	push	{r4, r5, r6, lr}
 80005fa:	f04f 0cff 	mov.w	ip, #255	@ 0xff
 80005fe:	f44c 6ce0 	orr.w	ip, ip, #1792	@ 0x700
 8000602:	ea1c 5411 	ands.w	r4, ip, r1, lsr #20
 8000606:	bf1d      	ittte	ne
 8000608:	ea1c 5513 	andsne.w	r5, ip, r3, lsr #20
 800060c:	ea94 0f0c 	teqne	r4, ip
 8000610:	ea95 0f0c 	teqne	r5, ip
 8000614:	f000 f8de 	bleq	80007d4 <__aeabi_dmul+0x1dc>
 8000618:	442c      	add	r4, r5
 800061a:	ea81 0603 	eor.w	r6, r1, r3
 800061e:	ea21 514c 	bic.w	r1, r1, ip, lsl #21
 8000622:	ea23 534c 	bic.w	r3, r3, ip, lsl #21
 8000626:	ea50 3501 	orrs.w	r5, r0, r1, lsl #12
 800062a:	bf18      	it	ne
 800062c:	ea52 3503 	orrsne.w	r5, r2, r3, lsl #12
 8000630:	f441 1180 	orr.w	r1, r1, #1048576	@ 0x100000
 8000634:	f443 1380 	orr.w	r3, r3, #1048576	@ 0x100000
 8000638:	d038      	beq.n	80006ac <__aeabi_dmul+0xb4>
 800063a:	fba0 ce02 	umull	ip, lr, r0, r2
 800063e:	f04f 0500 	mov.w	r5, #0
 8000642:	fbe1 e502 	umlal	lr, r5, r1, r2
 8000646:	f006 4200 	and.w	r2, r6, #2147483648	@ 0x80000000
 800064a:	fbe0 e503 	umlal	lr, r5, r0, r3
 800064e:	f04f 0600 	mov.w	r6, #0
 8000652:	fbe1 5603 	umlal	r5, r6, r1, r3
 8000656:	f09c 0f00 	teq	ip, #0
 800065a:	bf18      	it	ne
 800065c:	f04e 0e01 	orrne.w	lr, lr, #1
 8000660:	f1a4 04ff 	sub.w	r4, r4, #255	@ 0xff
 8000664:	f5b6 7f00 	cmp.w	r6, #512	@ 0x200
 8000668:	f564 7440 	sbc.w	r4, r4, #768	@ 0x300
 800066c:	d204      	bcs.n	8000678 <__aeabi_dmul+0x80>
 800066e:	ea5f 0e4e 	movs.w	lr, lr, lsl #1
 8000672:	416d      	adcs	r5, r5
 8000674:	eb46 0606 	adc.w	r6, r6, r6
 8000678:	ea42 21c6 	orr.w	r1, r2, r6, lsl #11
 800067c:	ea41 5155 	orr.w	r1, r1, r5, lsr #21
 8000680:	ea4f 20c5 	mov.w	r0, r5, lsl #11
 8000684:	ea40 505e 	orr.w	r0, r0, lr, lsr #21
 8000688:	ea4f 2ece 	mov.w	lr, lr, lsl #11
 800068c:	f1b4 0cfd 	subs.w	ip, r4, #253	@ 0xfd
 8000690:	bf88      	it	hi
 8000692:	f5bc 6fe0 	cmphi.w	ip, #1792	@ 0x700
 8000696:	d81e      	bhi.n	80006d6 <__aeabi_dmul+0xde>
 8000698:	f1be 4f00 	cmp.w	lr, #2147483648	@ 0x80000000
 800069c:	bf08      	it	eq
 800069e:	ea5f 0e50 	movseq.w	lr, r0, lsr #1
 80006a2:	f150 0000 	adcs.w	r0, r0, #0
 80006a6:	eb41 5104 	adc.w	r1, r1, r4, lsl #20
 80006aa:	bd70      	pop	{r4, r5, r6, pc}
 80006ac:	f006 4600 	and.w	r6, r6, #2147483648	@ 0x80000000
 80006b0:	ea46 0101 	orr.w	r1, r6, r1
 80006b4:	ea40 0002 	orr.w	r0, r0, r2
 80006b8:	ea81 0103 	eor.w	r1, r1, r3
 80006bc:	ebb4 045c 	subs.w	r4, r4, ip, lsr #1
 80006c0:	bfc2      	ittt	gt
 80006c2:	ebd4 050c 	rsbsgt	r5, r4, ip
 80006c6:	ea41 5104 	orrgt.w	r1, r1, r4, lsl #20
 80006ca:	bd70      	popgt	{r4, r5, r6, pc}
 80006cc:	f441 1180 	orr.w	r1, r1, #1048576	@ 0x100000
 80006d0:	f04f 0e00 	mov.w	lr, #0
 80006d4:	3c01      	subs	r4, #1
 80006d6:	f300 80ab 	bgt.w	8000830 <__aeabi_dmul+0x238>
 80006da:	f114 0f36 	cmn.w	r4, #54	@ 0x36
 80006de:	bfde      	ittt	le
 80006e0:	2000      	movle	r0, #0
 80006e2:	f001 4100 	andle.w	r1, r1, #2147483648	@ 0x80000000
 80006e6:	bd70      	pople	{r4, r5, r6, pc}
 80006e8:	f1c4 0400 	rsb	r4, r4, #0
 80006ec:	3c20      	subs	r4, #32
 80006ee:	da35      	bge.n	800075c <__aeabi_dmul+0x164>
 80006f0:	340c      	adds	r4, #12
 80006f2:	dc1b      	bgt.n	800072c <__aeabi_dmul+0x134>
 80006f4:	f104 0414 	add.w	r4, r4, #20
 80006f8:	f1c4 0520 	rsb	r5, r4, #32
 80006fc:	fa00 f305 	lsl.w	r3, r0, r5
 8000700:	fa20 f004 	lsr.w	r0, r0, r4
 8000704:	fa01 f205 	lsl.w	r2, r1, r5
 8000708:	ea40 0002 	orr.w	r0, r0, r2
 800070c:	f001 4200 	and.w	r2, r1, #2147483648	@ 0x80000000
 8000710:	f021 4100 	bic.w	r1, r1, #2147483648	@ 0x80000000
 8000714:	eb10 70d3 	adds.w	r0, r0, r3, lsr #31
 8000718:	fa21 f604 	lsr.w	r6, r1, r4
 800071c:	eb42 0106 	adc.w	r1, r2, r6
 8000720:	ea5e 0e43 	orrs.w	lr, lr, r3, lsl #1
 8000724:	bf08      	it	eq
 8000726:	ea20 70d3 	biceq.w	r0, r0, r3, lsr #31
 800072a:	bd70      	pop	{r4, r5, r6, pc}
 800072c:	f1c4 040c 	rsb	r4, r4, #12
 8000730:	f1c4 0520 	rsb	r5, r4, #32
 8000734:	fa00 f304 	lsl.w	r3, r0, r4
 8000738:	fa20 f005 	lsr.w	r0, r0, r5
 800073c:	fa01 f204 	lsl.w	r2, r1, r4
 8000740:	ea40 0002 	orr.w	r0, r0, r2
 8000744:	f001 4100 	and.w	r1, r1, #2147483648	@ 0x80000000
 8000748:	eb10 70d3 	adds.w	r0, r0, r3, lsr #31
 800074c:	f141 0100 	adc.w	r1, r1, #0
 8000750:	ea5e 0e43 	orrs.w	lr, lr, r3, lsl #1
 8000754:	bf08      	it	eq
 8000756:	ea20 70d3 	biceq.w	r0, r0, r3, lsr #31
 800075a:	bd70      	pop	{r4, r5, r6, pc}
 800075c:	f1c4 0520 	rsb	r5, r4, #32
 8000760:	fa00 f205 	lsl.w	r2, r0, r5
 8000764:	ea4e 0e02 	orr.w	lr, lr, r2
 8000768:	fa20 f304 	lsr.w	r3, r0, r4
 800076c:	fa01 f205 	lsl.w	r2, r1, r5
 8000770:	ea43 0302 	orr.w	r3, r3, r2
 8000774:	fa21 f004 	lsr.w	r0, r1, r4
 8000778:	f001 4100 	and.w	r1, r1, #2147483648	@ 0x80000000
 800077c:	fa21 f204 	lsr.w	r2, r1, r4
 8000780:	ea20 0002 	bic.w	r0, r0, r2
 8000784:	eb00 70d3 	add.w	r0, r0, r3, lsr #31
 8000788:	ea5e 0e43 	orrs.w	lr, lr, r3, lsl #1
 800078c:	bf08      	it	eq
 800078e:	ea20 70d3 	biceq.w	r0, r0, r3, lsr #31
 8000792:	bd70      	pop	{r4, r5, r6, pc}
 8000794:	f094 0f00 	teq	r4, #0
 8000798:	d10f      	bne.n	80007ba <__aeabi_dmul+0x1c2>
 800079a:	f001 4600 	and.w	r6, r1, #2147483648	@ 0x80000000
 800079e:	0040      	lsls	r0, r0, #1
 80007a0:	eb41 0101 	adc.w	r1, r1, r1
 80007a4:	f411 1f80 	tst.w	r1, #1048576	@ 0x100000
 80007a8:	bf08      	it	eq
 80007aa:	3c01      	subeq	r4, #1
 80007ac:	d0f7      	beq.n	800079e <__aeabi_dmul+0x1a6>
 80007ae:	ea41 0106 	orr.w	r1, r1, r6
 80007b2:	f095 0f00 	teq	r5, #0
 80007b6:	bf18      	it	ne
 80007b8:	4770      	bxne	lr
 80007ba:	f003 4600 	and.w	r6, r3, #2147483648	@ 0x80000000
 80007be:	0052      	lsls	r2, r2, #1
 80007c0:	eb43 0303 	adc.w	r3, r3, r3
 80007c4:	f413 1f80 	tst.w	r3, #1048576	@ 0x100000
 80007c8:	bf08      	it	eq
 80007ca:	3d01      	subeq	r5, #1
 80007cc:	d0f7      	beq.n	80007be <__aeabi_dmul+0x1c6>
 80007ce:	ea43 0306 	orr.w	r3, r3, r6
 80007d2:	4770      	bx	lr
 80007d4:	ea94 0f0c 	teq	r4, ip
 80007d8:	ea0c 5513 	and.w	r5, ip, r3, lsr #20
 80007dc:	bf18      	it	ne
 80007de:	ea95 0f0c 	teqne	r5, ip
 80007e2:	d00c      	beq.n	80007fe <__aeabi_dmul+0x206>
 80007e4:	ea50 0641 	orrs.w	r6, r0, r1, lsl #1
 80007e8:	bf18      	it	ne
 80007ea:	ea52 0643 	orrsne.w	r6, r2, r3, lsl #1
 80007ee:	d1d1      	bne.n	8000794 <__aeabi_dmul+0x19c>
 80007f0:	ea81 0103 	eor.w	r1, r1, r3
 80007f4:	f001 4100 	and.w	r1, r1, #2147483648	@ 0x80000000
 80007f8:	f04f 0000 	mov.w	r0, #0
 80007fc:	bd70      	pop	{r4, r5, r6, pc}
 80007fe:	ea50 0641 	orrs.w	r6, r0, r1, lsl #1
 8000802:	bf06      	itte	eq
 8000804:	4610      	moveq	r0, r2
 8000806:	4619      	moveq	r1, r3
 8000808:	ea52 0643 	orrsne.w	r6, r2, r3, lsl #1
 800080c:	d019      	beq.n	8000842 <__aeabi_dmul+0x24a>
 800080e:	ea94 0f0c 	teq	r4, ip
 8000812:	d102      	bne.n	800081a <__aeabi_dmul+0x222>
 8000814:	ea50 3601 	orrs.w	r6, r0, r1, lsl #12
 8000818:	d113      	bne.n	8000842 <__aeabi_dmul+0x24a>
 800081a:	ea95 0f0c 	teq	r5, ip
 800081e:	d105      	bne.n	800082c <__aeabi_dmul+0x234>
 8000820:	ea52 3603 	orrs.w	r6, r2, r3, lsl #12
 8000824:	bf1c      	itt	ne
 8000826:	4610      	movne	r0, r2
 8000828:	4619      	movne	r1, r3
 800082a:	d10a      	bne.n	8000842 <__aeabi_dmul+0x24a>
 800082c:	ea81 0103 	eor.w	r1, r1, r3
 8000830:	f001 4100 	and.w	r1, r1, #2147483648	@ 0x80000000
 8000834:	f041 41fe 	orr.w	r1, r1, #2130706432	@ 0x7f000000
 8000838:	f441 0170 	orr.w	r1, r1, #15728640	@ 0xf00000
 800083c:	f04f 0000 	mov.w	r0, #0
 8000840:	bd70      	pop	{r4, r5, r6, pc}
 8000842:	f041 41fe 	orr.w	r1, r1, #2130706432	@ 0x7f000000
 8000846:	f441 0178 	orr.w	r1, r1, #16252928	@ 0xf80000
 800084a:	bd70      	pop	{r4, r5, r6, pc}

0800084c <__aeabi_ddiv>:
 800084c:	b570      	push	{r4, r5, r6, lr}
 800084e:	f04f 0cff 	mov.w	ip, #255	@ 0xff
 8000852:	f44c 6ce0 	orr.w	ip, ip, #1792	@ 0x700
 8000856:	ea1c 5411 	ands.w	r4, ip, r1, lsr #20
 800085a:	bf1d      	ittte	ne
 800085c:	ea1c 5513 	andsne.w	r5, ip, r3, lsr #20
 8000860:	ea94 0f0c 	teqne	r4, ip
 8000864:	ea95 0f0c 	teqne	r5, ip
 8000868:	f000 f8a7 	bleq	80009ba <__aeabi_ddiv+0x16e>
 800086c:	eba4 0405 	sub.w	r4, r4, r5
 8000870:	ea81 0e03 	eor.w	lr, r1, r3
 8000874:	ea52 3503 	orrs.w	r5, r2, r3, lsl #12
 8000878:	ea4f 3101 	mov.w	r1, r1, lsl #12
 800087c:	f000 8088 	beq.w	8000990 <__aeabi_ddiv+0x144>
 8000880:	ea4f 3303 	mov.w	r3, r3, lsl #12
 8000884:	f04f 5580 	mov.w	r5, #268435456	@ 0x10000000
 8000888:	ea45 1313 	orr.w	r3, r5, r3, lsr #4
 800088c:	ea43 6312 	orr.w	r3, r3, r2, lsr #24
 8000890:	ea4f 2202 	mov.w	r2, r2, lsl #8
 8000894:	ea45 1511 	orr.w	r5, r5, r1, lsr #4
 8000898:	ea45 6510 	orr.w	r5, r5, r0, lsr #24
 800089c:	ea4f 2600 	mov.w	r6, r0, lsl #8
 80008a0:	f00e 4100 	and.w	r1, lr, #2147483648	@ 0x80000000
 80008a4:	429d      	cmp	r5, r3
 80008a6:	bf08      	it	eq
 80008a8:	4296      	cmpeq	r6, r2
 80008aa:	f144 04fd 	adc.w	r4, r4, #253	@ 0xfd
 80008ae:	f504 7440 	add.w	r4, r4, #768	@ 0x300
 80008b2:	d202      	bcs.n	80008ba <__aeabi_ddiv+0x6e>
 80008b4:	085b      	lsrs	r3, r3, #1
 80008b6:	ea4f 0232 	mov.w	r2, r2, rrx
 80008ba:	1ab6      	subs	r6, r6, r2
 80008bc:	eb65 0503 	sbc.w	r5, r5, r3
 80008c0:	085b      	lsrs	r3, r3, #1
 80008c2:	ea4f 0232 	mov.w	r2, r2, rrx
 80008c6:	f44f 1080 	mov.w	r0, #1048576	@ 0x100000
 80008ca:	f44f 2c00 	mov.w	ip, #524288	@ 0x80000
 80008ce:	ebb6 0e02 	subs.w	lr, r6, r2
 80008d2:	eb75 0e03 	sbcs.w	lr, r5, r3
 80008d6:	bf22      	ittt	cs
 80008d8:	1ab6      	subcs	r6, r6, r2
 80008da:	4675      	movcs	r5, lr
 80008dc:	ea40 000c 	orrcs.w	r0, r0, ip
 80008e0:	085b      	lsrs	r3, r3, #1
 80008e2:	ea4f 0232 	mov.w	r2, r2, rrx
 80008e6:	ebb6 0e02 	subs.w	lr, r6, r2
 80008ea:	eb75 0e03 	sbcs.w	lr, r5, r3
 80008ee:	bf22      	ittt	cs
 80008f0:	1ab6      	subcs	r6, r6, r2
 80008f2:	4675      	movcs	r5, lr
 80008f4:	ea40 005c 	orrcs.w	r0, r0, ip, lsr #1
 80008f8:	085b      	lsrs	r3, r3, #1
 80008fa:	ea4f 0232 	mov.w	r2, r2, rrx
 80008fe:	ebb6 0e02 	subs.w	lr, r6, r2
 8000902:	eb75 0e03 	sbcs.w	lr, r5, r3
 8000906:	bf22      	ittt	cs
 8000908:	1ab6      	subcs	r6, r6, r2
 800090a:	4675      	movcs	r5, lr
 800090c:	ea40 009c 	orrcs.w	r0, r0, ip, lsr #2
 8000910:	085b      	lsrs	r3, r3, #1
 8000912:	ea4f 0232 	mov.w	r2, r2, rrx
 8000916:	ebb6 0e02 	subs.w	lr, r6, r2
 800091a:	eb75 0e03 	sbcs.w	lr, r5, r3
 800091e:	bf22      	ittt	cs
 8000920:	1ab6      	subcs	r6, r6, r2
 8000922:	4675      	movcs	r5, lr
 8000924:	ea40 00dc 	orrcs.w	r0, r0, ip, lsr #3
 8000928:	ea55 0e06 	orrs.w	lr, r5, r6
 800092c:	d018      	beq.n	8000960 <__aeabi_ddiv+0x114>
 800092e:	ea4f 1505 	mov.w	r5, r5, lsl #4
 8000932:	ea45 7516 	orr.w	r5, r5, r6, lsr #28
 8000936:	ea4f 1606 	mov.w	r6, r6, lsl #4
 800093a:	ea4f 03c3 	mov.w	r3, r3, lsl #3
 800093e:	ea43 7352 	orr.w	r3, r3, r2, lsr #29
 8000942:	ea4f 02c2 	mov.w	r2, r2, lsl #3
 8000946:	ea5f 1c1c 	movs.w	ip, ip, lsr #4
 800094a:	d1c0      	bne.n	80008ce <__aeabi_ddiv+0x82>
 800094c:	f411 1f80 	tst.w	r1, #1048576	@ 0x100000
 8000950:	d10b      	bne.n	800096a <__aeabi_ddiv+0x11e>
 8000952:	ea41 0100 	orr.w	r1, r1, r0
 8000956:	f04f 0000 	mov.w	r0, #0
 800095a:	f04f 4c00 	mov.w	ip, #2147483648	@ 0x80000000
 800095e:	e7b6      	b.n	80008ce <__aeabi_ddiv+0x82>
 8000960:	f411 1f80 	tst.w	r1, #1048576	@ 0x100000
 8000964:	bf04      	itt	eq
 8000966:	4301      	orreq	r1, r0
 8000968:	2000      	moveq	r0, #0
 800096a:	f1b4 0cfd 	subs.w	ip, r4, #253	@ 0xfd
 800096e:	bf88      	it	hi
 8000970:	f5bc 6fe0 	cmphi.w	ip, #1792	@ 0x700
 8000974:	f63f aeaf 	bhi.w	80006d6 <__aeabi_dmul+0xde>
 8000978:	ebb5 0c03 	subs.w	ip, r5, r3
 800097c:	bf04      	itt	eq
 800097e:	ebb6 0c02 	subseq.w	ip, r6, r2
 8000982:	ea5f 0c50 	movseq.w	ip, r0, lsr #1
 8000986:	f150 0000 	adcs.w	r0, r0, #0
 800098a:	eb41 5104 	adc.w	r1, r1, r4, lsl #20
 800098e:	bd70      	pop	{r4, r5, r6, pc}
 8000990:	f00e 4e00 	and.w	lr, lr, #2147483648	@ 0x80000000
 8000994:	ea4e 3111 	orr.w	r1, lr, r1, lsr #12
 8000998:	eb14 045c 	adds.w	r4, r4, ip, lsr #1
 800099c:	bfc2      	ittt	gt
 800099e:	ebd4 050c 	rsbsgt	r5, r4, ip
 80009a2:	ea41 5104 	orrgt.w	r1, r1, r4, lsl #20
 80009a6:	bd70      	popgt	{r4, r5, r6, pc}
 80009a8:	f441 1180 	orr.w	r1, r1, #1048576	@ 0x100000
 80009ac:	f04f 0e00 	mov.w	lr, #0
 80009b0:	3c01      	subs	r4, #1
 80009b2:	e690      	b.n	80006d6 <__aeabi_dmul+0xde>
 80009b4:	ea45 0e06 	orr.w	lr, r5, r6
 80009b8:	e68d      	b.n	80006d6 <__aeabi_dmul+0xde>
 80009ba:	ea0c 5513 	and.w	r5, ip, r3, lsr #20
 80009be:	ea94 0f0c 	teq	r4, ip
 80009c2:	bf08      	it	eq
 80009c4:	ea95 0f0c 	teqeq	r5, ip
 80009c8:	f43f af3b 	beq.w	8000842 <__aeabi_dmul+0x24a>
 80009cc:	ea94 0f0c 	teq	r4, ip
 80009d0:	d10a      	bne.n	80009e8 <__aeabi_ddiv+0x19c>
 80009d2:	ea50 3401 	orrs.w	r4, r0, r1, lsl #12
 80009d6:	f47f af34 	bne.w	8000842 <__aeabi_dmul+0x24a>
 80009da:	ea95 0f0c 	teq	r5, ip
 80009de:	f47f af25 	bne.w	800082c <__aeabi_dmul+0x234>
 80009e2:	4610      	mov	r0, r2
 80009e4:	4619      	mov	r1, r3
 80009e6:	e72c      	b.n	8000842 <__aeabi_dmul+0x24a>
 80009e8:	ea95 0f0c 	teq	r5, ip
 80009ec:	d106      	bne.n	80009fc <__aeabi_ddiv+0x1b0>
 80009ee:	ea52 3503 	orrs.w	r5, r2, r3, lsl #12
 80009f2:	f43f aefd 	beq.w	80007f0 <__aeabi_dmul+0x1f8>
 80009f6:	4610      	mov	r0, r2
 80009f8:	4619      	mov	r1, r3
 80009fa:	e722      	b.n	8000842 <__aeabi_dmul+0x24a>
 80009fc:	ea50 0641 	orrs.w	r6, r0, r1, lsl #1
 8000a00:	bf18      	it	ne
 8000a02:	ea52 0643 	orrsne.w	r6, r2, r3, lsl #1
 8000a06:	f47f aec5 	bne.w	8000794 <__aeabi_dmul+0x19c>
 8000a0a:	ea50 0441 	orrs.w	r4, r0, r1, lsl #1
 8000a0e:	f47f af0d 	bne.w	800082c <__aeabi_dmul+0x234>
 8000a12:	ea52 0543 	orrs.w	r5, r2, r3, lsl #1
 8000a16:	f47f aeeb 	bne.w	80007f0 <__aeabi_dmul+0x1f8>
 8000a1a:	e712      	b.n	8000842 <__aeabi_dmul+0x24a>

08000a1c <__gedf2>:
 8000a1c:	f04f 3cff 	mov.w	ip, #4294967295
 8000a20:	e006      	b.n	8000a30 <__cmpdf2+0x4>
 8000a22:	bf00      	nop

08000a24 <__ledf2>:
 8000a24:	f04f 0c01 	mov.w	ip, #1
 8000a28:	e002      	b.n	8000a30 <__cmpdf2+0x4>
 8000a2a:	bf00      	nop

08000a2c <__cmpdf2>:
 8000a2c:	f04f 0c01 	mov.w	ip, #1
 8000a30:	f84d cd04 	str.w	ip, [sp, #-4]!
 8000a34:	ea4f 0c41 	mov.w	ip, r1, lsl #1
 8000a38:	ea7f 5c6c 	mvns.w	ip, ip, asr #21
 8000a3c:	ea4f 0c43 	mov.w	ip, r3, lsl #1
 8000a40:	bf18      	it	ne
 8000a42:	ea7f 5c6c 	mvnsne.w	ip, ip, asr #21
 8000a46:	d01b      	beq.n	8000a80 <__cmpdf2+0x54>
 8000a48:	b001      	add	sp, #4
 8000a4a:	ea50 0c41 	orrs.w	ip, r0, r1, lsl #1
 8000a4e:	bf0c      	ite	eq
 8000a50:	ea52 0c43 	orrseq.w	ip, r2, r3, lsl #1
 8000a54:	ea91 0f03 	teqne	r1, r3
 8000a58:	bf02      	ittt	eq
 8000a5a:	ea90 0f02 	teqeq	r0, r2
 8000a5e:	2000      	moveq	r0, #0
 8000a60:	4770      	bxeq	lr
 8000a62:	f110 0f00 	cmn.w	r0, #0
 8000a66:	ea91 0f03 	teq	r1, r3
 8000a6a:	bf58      	it	pl
 8000a6c:	4299      	cmppl	r1, r3
 8000a6e:	bf08      	it	eq
 8000a70:	4290      	cmpeq	r0, r2
 8000a72:	bf2c      	ite	cs
 8000a74:	17d8      	asrcs	r0, r3, #31
 8000a76:	ea6f 70e3 	mvncc.w	r0, r3, asr #31
 8000a7a:	f040 0001 	orr.w	r0, r0, #1
 8000a7e:	4770      	bx	lr
 8000a80:	ea4f 0c41 	mov.w	ip, r1, lsl #1
 8000a84:	ea7f 5c6c 	mvns.w	ip, ip, asr #21
 8000a88:	d102      	bne.n	8000a90 <__cmpdf2+0x64>
 8000a8a:	ea50 3c01 	orrs.w	ip, r0, r1, lsl #12
 8000a8e:	d107      	bne.n	8000aa0 <__cmpdf2+0x74>
 8000a90:	ea4f 0c43 	mov.w	ip, r3, lsl #1
 8000a94:	ea7f 5c6c 	mvns.w	ip, ip, asr #21
 8000a98:	d1d6      	bne.n	8000a48 <__cmpdf2+0x1c>
 8000a9a:	ea52 3c03 	orrs.w	ip, r2, r3, lsl #12
 8000a9e:	d0d3      	beq.n	8000a48 <__cmpdf2+0x1c>
 8000aa0:	f85d 0b04 	ldr.w	r0, [sp], #4
 8000aa4:	4770      	bx	lr
 8000aa6:	bf00      	nop

08000aa8 <__aeabi_cdrcmple>:
 8000aa8:	4684      	mov	ip, r0
 8000aaa:	4610      	mov	r0, r2
 8000aac:	4662      	mov	r2, ip
 8000aae:	468c      	mov	ip, r1
 8000ab0:	4619      	mov	r1, r3
 8000ab2:	4663      	mov	r3, ip
 8000ab4:	e000      	b.n	8000ab8 <__aeabi_cdcmpeq>
 8000ab6:	bf00      	nop

08000ab8 <__aeabi_cdcmpeq>:
 8000ab8:	b501      	push	{r0, lr}
 8000aba:	f7ff ffb7 	bl	8000a2c <__cmpdf2>
 8000abe:	2800      	cmp	r0, #0
 8000ac0:	bf48      	it	mi
 8000ac2:	f110 0f00 	cmnmi.w	r0, #0
 8000ac6:	bd01      	pop	{r0, pc}

08000ac8 <__aeabi_dcmpeq>:
 8000ac8:	f84d ed08 	str.w	lr, [sp, #-8]!
 8000acc:	f7ff fff4 	bl	8000ab8 <__aeabi_cdcmpeq>
 8000ad0:	bf0c      	ite	eq
 8000ad2:	2001      	moveq	r0, #1
 8000ad4:	2000      	movne	r0, #0
 8000ad6:	f85d fb08 	ldr.w	pc, [sp], #8
 8000ada:	bf00      	nop

08000adc <__aeabi_dcmplt>:
 8000adc:	f84d ed08 	str.w	lr, [sp, #-8]!
 8000ae0:	f7ff ffea 	bl	8000ab8 <__aeabi_cdcmpeq>
 8000ae4:	bf34      	ite	cc
 8000ae6:	2001      	movcc	r0, #1
 8000ae8:	2000      	movcs	r0, #0
 8000aea:	f85d fb08 	ldr.w	pc, [sp], #8
 8000aee:	bf00      	nop

08000af0 <__aeabi_dcmple>:
 8000af0:	f84d ed08 	str.w	lr, [sp, #-8]!
 8000af4:	f7ff ffe0 	bl	8000ab8 <__aeabi_cdcmpeq>
 8000af8:	bf94      	ite	ls
 8000afa:	2001      	movls	r0, #1
 8000afc:	2000      	movhi	r0, #0
 8000afe:	f85d fb08 	ldr.w	pc, [sp], #8
 8000b02:	bf00      	nop

08000b04 <__aeabi_dcmpge>:
 8000b04:	f84d ed08 	str.w	lr, [sp, #-8]!
 8000b08:	f7ff ffce 	bl	8000aa8 <__aeabi_cdrcmple>
 8000b0c:	bf94      	ite	ls
 8000b0e:	2001      	movls	r0, #1
 8000b10:	2000      	movhi	r0, #0
 8000b12:	f85d fb08 	ldr.w	pc, [sp], #8
 8000b16:	bf00      	nop

08000b18 <__aeabi_dcmpgt>:
 8000b18:	f84d ed08 	str.w	lr, [sp, #-8]!
 8000b1c:	f7ff ffc4 	bl	8000aa8 <__aeabi_cdrcmple>
 8000b20:	bf34      	ite	cc
 8000b22:	2001      	movcc	r0, #1
 8000b24:	2000      	movcs	r0, #0
 8000b26:	f85d fb08 	ldr.w	pc, [sp], #8
 8000b2a:	bf00      	nop

08000b2c <__aeabi_dcmpun>:
 8000b2c:	ea4f 0c41 	mov.w	ip, r1, lsl #1
 8000b30:	ea7f 5c6c 	mvns.w	ip, ip, asr #21
 8000b34:	d102      	bne.n	8000b3c <__aeabi_dcmpun+0x10>
 8000b36:	ea50 3c01 	orrs.w	ip, r0, r1, lsl #12
 8000b3a:	d10a      	bne.n	8000b52 <__aeabi_dcmpun+0x26>
 8000b3c:	ea4f 0c43 	mov.w	ip, r3, lsl #1
 8000b40:	ea7f 5c6c 	mvns.w	ip, ip, asr #21
 8000b44:	d102      	bne.n	8000b4c <__aeabi_dcmpun+0x20>
 8000b46:	ea52 3c03 	orrs.w	ip, r2, r3, lsl #12
 8000b4a:	d102      	bne.n	8000b52 <__aeabi_dcmpun+0x26>
 8000b4c:	f04f 0000 	mov.w	r0, #0
 8000b50:	4770      	bx	lr
 8000b52:	f04f 0001 	mov.w	r0, #1
 8000b56:	4770      	bx	lr

08000b58 <__aeabi_d2iz>:
 8000b58:	ea4f 0241 	mov.w	r2, r1, lsl #1
 8000b5c:	f512 1200 	adds.w	r2, r2, #2097152	@ 0x200000
 8000b60:	d215      	bcs.n	8000b8e <__aeabi_d2iz+0x36>
 8000b62:	d511      	bpl.n	8000b88 <__aeabi_d2iz+0x30>
 8000b64:	f46f 7378 	mvn.w	r3, #992	@ 0x3e0
 8000b68:	ebb3 5262 	subs.w	r2, r3, r2, asr #21
 8000b6c:	d912      	bls.n	8000b94 <__aeabi_d2iz+0x3c>
 8000b6e:	ea4f 23c1 	mov.w	r3, r1, lsl #11
 8000b72:	f043 4300 	orr.w	r3, r3, #2147483648	@ 0x80000000
 8000b76:	ea43 5350 	orr.w	r3, r3, r0, lsr #21
 8000b7a:	f011 4f00 	tst.w	r1, #2147483648	@ 0x80000000
 8000b7e:	fa23 f002 	lsr.w	r0, r3, r2
 8000b82:	bf18      	it	ne
 8000b84:	4240      	negne	r0, r0
 8000b86:	4770      	bx	lr
 8000b88:	f04f 0000 	mov.w	r0, #0
 8000b8c:	4770      	bx	lr
 8000b8e:	ea50 3001 	orrs.w	r0, r0, r1, lsl #12
 8000b92:	d105      	bne.n	8000ba0 <__aeabi_d2iz+0x48>
 8000b94:	f011 4000 	ands.w	r0, r1, #2147483648	@ 0x80000000
 8000b98:	bf08      	it	eq
 8000b9a:	f06f 4000 	mvneq.w	r0, #2147483648	@ 0x80000000
 8000b9e:	4770      	bx	lr
 8000ba0:	f04f 0000 	mov.w	r0, #0
 8000ba4:	4770      	bx	lr
 8000ba6:	bf00      	nop

08000ba8 <__aeabi_d2f>:
 8000ba8:	ea4f 0241 	mov.w	r2, r1, lsl #1
 8000bac:	f1b2 43e0 	subs.w	r3, r2, #1879048192	@ 0x70000000
 8000bb0:	bf24      	itt	cs
 8000bb2:	f5b3 1c00 	subscs.w	ip, r3, #2097152	@ 0x200000
 8000bb6:	f1dc 5cfe 	rsbscs	ip, ip, #532676608	@ 0x1fc00000
 8000bba:	d90d      	bls.n	8000bd8 <__aeabi_d2f+0x30>
 8000bbc:	f001 4c00 	and.w	ip, r1, #2147483648	@ 0x80000000
 8000bc0:	ea4f 02c0 	mov.w	r2, r0, lsl #3
 8000bc4:	ea4c 7050 	orr.w	r0, ip, r0, lsr #29
 8000bc8:	f1b2 4f00 	cmp.w	r2, #2147483648	@ 0x80000000
 8000bcc:	eb40 0083 	adc.w	r0, r0, r3, lsl #2
 8000bd0:	bf08      	it	eq
 8000bd2:	f020 0001 	biceq.w	r0, r0, #1
 8000bd6:	4770      	bx	lr
 8000bd8:	f011 4f80 	tst.w	r1, #1073741824	@ 0x40000000
 8000bdc:	d121      	bne.n	8000c22 <__aeabi_d2f+0x7a>
 8000bde:	f113 7238 	adds.w	r2, r3, #48234496	@ 0x2e00000
 8000be2:	bfbc      	itt	lt
 8000be4:	f001 4000 	andlt.w	r0, r1, #2147483648	@ 0x80000000
 8000be8:	4770      	bxlt	lr
 8000bea:	f441 1180 	orr.w	r1, r1, #1048576	@ 0x100000
 8000bee:	ea4f 5252 	mov.w	r2, r2, lsr #21
 8000bf2:	f1c2 0218 	rsb	r2, r2, #24
 8000bf6:	f1c2 0c20 	rsb	ip, r2, #32
 8000bfa:	fa10 f30c 	lsls.w	r3, r0, ip
 8000bfe:	fa20 f002 	lsr.w	r0, r0, r2
 8000c02:	bf18      	it	ne
 8000c04:	f040 0001 	orrne.w	r0, r0, #1
 8000c08:	ea4f 23c1 	mov.w	r3, r1, lsl #11
 8000c0c:	ea4f 23d3 	mov.w	r3, r3, lsr #11
 8000c10:	fa03 fc0c 	lsl.w	ip, r3, ip
 8000c14:	ea40 000c 	orr.w	r0, r0, ip
 8000c18:	fa23 f302 	lsr.w	r3, r3, r2
 8000c1c:	ea4f 0343 	mov.w	r3, r3, lsl #1
 8000c20:	e7cc      	b.n	8000bbc <__aeabi_d2f+0x14>
 8000c22:	ea7f 5362 	mvns.w	r3, r2, asr #21
 8000c26:	d107      	bne.n	8000c38 <__aeabi_d2f+0x90>
 8000c28:	ea50 3301 	orrs.w	r3, r0, r1, lsl #12
 8000c2c:	bf1e      	ittt	ne
 8000c2e:	f04f 40fe 	movne.w	r0, #2130706432	@ 0x7f000000
 8000c32:	f440 0040 	orrne.w	r0, r0, #12582912	@ 0xc00000
 8000c36:	4770      	bxne	lr
 8000c38:	f001 4000 	and.w	r0, r1, #2147483648	@ 0x80000000
 8000c3c:	f040 40fe 	orr.w	r0, r0, #2130706432	@ 0x7f000000
 8000c40:	f440 0000 	orr.w	r0, r0, #8388608	@ 0x800000
 8000c44:	4770      	bx	lr
 8000c46:	bf00      	nop

08000c48 <__aeabi_uldivmod>:
 8000c48:	b953      	cbnz	r3, 8000c60 <__aeabi_uldivmod+0x18>
 8000c4a:	b94a      	cbnz	r2, 8000c60 <__aeabi_uldivmod+0x18>
 8000c4c:	2900      	cmp	r1, #0
 8000c4e:	bf08      	it	eq
 8000c50:	2800      	cmpeq	r0, #0
 8000c52:	bf1c      	itt	ne
 8000c54:	f04f 31ff 	movne.w	r1, #4294967295
 8000c58:	f04f 30ff 	movne.w	r0, #4294967295
 8000c5c:	f000 b96a 	b.w	8000f34 <__aeabi_idiv0>
 8000c60:	f1ad 0c08 	sub.w	ip, sp, #8
 8000c64:	e96d ce04 	strd	ip, lr, [sp, #-16]!
 8000c68:	f000 f806 	bl	8000c78 <__udivmoddi4>
 8000c6c:	f8dd e004 	ldr.w	lr, [sp, #4]
 8000c70:	e9dd 2302 	ldrd	r2, r3, [sp, #8]
 8000c74:	b004      	add	sp, #16
 8000c76:	4770      	bx	lr

08000c78 <__udivmoddi4>:
 8000c78:	e92d 47f0 	stmdb	sp!, {r4, r5, r6, r7, r8, r9, sl, lr}
 8000c7c:	9d08      	ldr	r5, [sp, #32]
 8000c7e:	460c      	mov	r4, r1
 8000c80:	2b00      	cmp	r3, #0
 8000c82:	d14e      	bne.n	8000d22 <__udivmoddi4+0xaa>
 8000c84:	4694      	mov	ip, r2
 8000c86:	458c      	cmp	ip, r1
 8000c88:	4686      	mov	lr, r0
 8000c8a:	fab2 f282 	clz	r2, r2
 8000c8e:	d962      	bls.n	8000d56 <__udivmoddi4+0xde>
 8000c90:	b14a      	cbz	r2, 8000ca6 <__udivmoddi4+0x2e>
 8000c92:	f1c2 0320 	rsb	r3, r2, #32
 8000c96:	4091      	lsls	r1, r2
 8000c98:	fa20 f303 	lsr.w	r3, r0, r3
 8000c9c:	fa0c fc02 	lsl.w	ip, ip, r2
 8000ca0:	4319      	orrs	r1, r3
 8000ca2:	fa00 fe02 	lsl.w	lr, r0, r2
 8000ca6:	ea4f 471c 	mov.w	r7, ip, lsr #16
 8000caa:	fa1f f68c 	uxth.w	r6, ip
 8000cae:	fbb1 f4f7 	udiv	r4, r1, r7
 8000cb2:	ea4f 431e 	mov.w	r3, lr, lsr #16
 8000cb6:	fb07 1114 	mls	r1, r7, r4, r1
 8000cba:	ea43 4301 	orr.w	r3, r3, r1, lsl #16
 8000cbe:	fb04 f106 	mul.w	r1, r4, r6
 8000cc2:	4299      	cmp	r1, r3
 8000cc4:	d90a      	bls.n	8000cdc <__udivmoddi4+0x64>
 8000cc6:	eb1c 0303 	adds.w	r3, ip, r3
 8000cca:	f104 30ff 	add.w	r0, r4, #4294967295
 8000cce:	f080 8112 	bcs.w	8000ef6 <__udivmoddi4+0x27e>
 8000cd2:	4299      	cmp	r1, r3
 8000cd4:	f240 810f 	bls.w	8000ef6 <__udivmoddi4+0x27e>
 8000cd8:	3c02      	subs	r4, #2
 8000cda:	4463      	add	r3, ip
 8000cdc:	1a59      	subs	r1, r3, r1
 8000cde:	fa1f f38e 	uxth.w	r3, lr
 8000ce2:	fbb1 f0f7 	udiv	r0, r1, r7
 8000ce6:	fb07 1110 	mls	r1, r7, r0, r1
 8000cea:	ea43 4301 	orr.w	r3, r3, r1, lsl #16
 8000cee:	fb00 f606 	mul.w	r6, r0, r6
 8000cf2:	429e      	cmp	r6, r3
 8000cf4:	d90a      	bls.n	8000d0c <__udivmoddi4+0x94>
 8000cf6:	eb1c 0303 	adds.w	r3, ip, r3
 8000cfa:	f100 31ff 	add.w	r1, r0, #4294967295
 8000cfe:	f080 80fc 	bcs.w	8000efa <__udivmoddi4+0x282>
 8000d02:	429e      	cmp	r6, r3
 8000d04:	f240 80f9 	bls.w	8000efa <__udivmoddi4+0x282>
 8000d08:	4463      	add	r3, ip
 8000d0a:	3802      	subs	r0, #2
 8000d0c:	1b9b      	subs	r3, r3, r6
 8000d0e:	ea40 4004 	orr.w	r0, r0, r4, lsl #16
 8000d12:	2100      	movs	r1, #0
 8000d14:	b11d      	cbz	r5, 8000d1e <__udivmoddi4+0xa6>
 8000d16:	40d3      	lsrs	r3, r2
 8000d18:	2200      	movs	r2, #0
 8000d1a:	e9c5 3200 	strd	r3, r2, [r5]
 8000d1e:	e8bd 87f0 	ldmia.w	sp!, {r4, r5, r6, r7, r8, r9, sl, pc}
 8000d22:	428b      	cmp	r3, r1
 8000d24:	d905      	bls.n	8000d32 <__udivmoddi4+0xba>
 8000d26:	b10d      	cbz	r5, 8000d2c <__udivmoddi4+0xb4>
 8000d28:	e9c5 0100 	strd	r0, r1, [r5]
 8000d2c:	2100      	movs	r1, #0
 8000d2e:	4608      	mov	r0, r1
 8000d30:	e7f5      	b.n	8000d1e <__udivmoddi4+0xa6>
 8000d32:	fab3 f183 	clz	r1, r3
 8000d36:	2900      	cmp	r1, #0
 8000d38:	d146      	bne.n	8000dc8 <__udivmoddi4+0x150>
 8000d3a:	42a3      	cmp	r3, r4
 8000d3c:	d302      	bcc.n	8000d44 <__udivmoddi4+0xcc>
 8000d3e:	4290      	cmp	r0, r2
 8000d40:	f0c0 80f0 	bcc.w	8000f24 <__udivmoddi4+0x2ac>
 8000d44:	1a86      	subs	r6, r0, r2
 8000d46:	eb64 0303 	sbc.w	r3, r4, r3
 8000d4a:	2001      	movs	r0, #1
 8000d4c:	2d00      	cmp	r5, #0
 8000d4e:	d0e6      	beq.n	8000d1e <__udivmoddi4+0xa6>
 8000d50:	e9c5 6300 	strd	r6, r3, [r5]
 8000d54:	e7e3      	b.n	8000d1e <__udivmoddi4+0xa6>
 8000d56:	2a00      	cmp	r2, #0
 8000d58:	f040 8090 	bne.w	8000e7c <__udivmoddi4+0x204>
 8000d5c:	eba1 040c 	sub.w	r4, r1, ip
 8000d60:	ea4f 481c 	mov.w	r8, ip, lsr #16
 8000d64:	fa1f f78c 	uxth.w	r7, ip
 8000d68:	2101      	movs	r1, #1
 8000d6a:	fbb4 f6f8 	udiv	r6, r4, r8
 8000d6e:	ea4f 431e 	mov.w	r3, lr, lsr #16
 8000d72:	fb08 4416 	mls	r4, r8, r6, r4
 8000d76:	ea43 4304 	orr.w	r3, r3, r4, lsl #16
 8000d7a:	fb07 f006 	mul.w	r0, r7, r6
 8000d7e:	4298      	cmp	r0, r3
 8000d80:	d908      	bls.n	8000d94 <__udivmoddi4+0x11c>
 8000d82:	eb1c 0303 	adds.w	r3, ip, r3
 8000d86:	f106 34ff 	add.w	r4, r6, #4294967295
 8000d8a:	d202      	bcs.n	8000d92 <__udivmoddi4+0x11a>
 8000d8c:	4298      	cmp	r0, r3
 8000d8e:	f200 80cd 	bhi.w	8000f2c <__udivmoddi4+0x2b4>
 8000d92:	4626      	mov	r6, r4
 8000d94:	1a1c      	subs	r4, r3, r0
 8000d96:	fa1f f38e 	uxth.w	r3, lr
 8000d9a:	fbb4 f0f8 	udiv	r0, r4, r8
 8000d9e:	fb08 4410 	mls	r4, r8, r0, r4
 8000da2:	ea43 4304 	orr.w	r3, r3, r4, lsl #16
 8000da6:	fb00 f707 	mul.w	r7, r0, r7
 8000daa:	429f      	cmp	r7, r3
 8000dac:	d908      	bls.n	8000dc0 <__udivmoddi4+0x148>
 8000dae:	eb1c 0303 	adds.w	r3, ip, r3
 8000db2:	f100 34ff 	add.w	r4, r0, #4294967295
 8000db6:	d202      	bcs.n	8000dbe <__udivmoddi4+0x146>
 8000db8:	429f      	cmp	r7, r3
 8000dba:	f200 80b0 	bhi.w	8000f1e <__udivmoddi4+0x2a6>
 8000dbe:	4620      	mov	r0, r4
 8000dc0:	1bdb      	subs	r3, r3, r7
 8000dc2:	ea40 4006 	orr.w	r0, r0, r6, lsl #16
 8000dc6:	e7a5      	b.n	8000d14 <__udivmoddi4+0x9c>
 8000dc8:	f1c1 0620 	rsb	r6, r1, #32
 8000dcc:	408b      	lsls	r3, r1
 8000dce:	fa22 f706 	lsr.w	r7, r2, r6
 8000dd2:	431f      	orrs	r7, r3
 8000dd4:	fa20 fc06 	lsr.w	ip, r0, r6
 8000dd8:	fa04 f301 	lsl.w	r3, r4, r1
 8000ddc:	ea43 030c 	orr.w	r3, r3, ip
 8000de0:	40f4      	lsrs	r4, r6
 8000de2:	fa00 f801 	lsl.w	r8, r0, r1
 8000de6:	0c38      	lsrs	r0, r7, #16
 8000de8:	ea4f 4913 	mov.w	r9, r3, lsr #16
 8000dec:	fbb4 fef0 	udiv	lr, r4, r0
 8000df0:	fa1f fc87 	uxth.w	ip, r7
 8000df4:	fb00 441e 	mls	r4, r0, lr, r4
 8000df8:	ea49 4404 	orr.w	r4, r9, r4, lsl #16
 8000dfc:	fb0e f90c 	mul.w	r9, lr, ip
 8000e00:	45a1      	cmp	r9, r4
 8000e02:	fa02 f201 	lsl.w	r2, r2, r1
 8000e06:	d90a      	bls.n	8000e1e <__udivmoddi4+0x1a6>
 8000e08:	193c      	adds	r4, r7, r4
 8000e0a:	f10e 3aff 	add.w	sl, lr, #4294967295
 8000e0e:	f080 8084 	bcs.w	8000f1a <__udivmoddi4+0x2a2>
 8000e12:	45a1      	cmp	r9, r4
 8000e14:	f240 8081 	bls.w	8000f1a <__udivmoddi4+0x2a2>
 8000e18:	f1ae 0e02 	sub.w	lr, lr, #2
 8000e1c:	443c      	add	r4, r7
 8000e1e:	eba4 0409 	sub.w	r4, r4, r9
 8000e22:	fa1f f983 	uxth.w	r9, r3
 8000e26:	fbb4 f3f0 	udiv	r3, r4, r0
 8000e2a:	fb00 4413 	mls	r4, r0, r3, r4
 8000e2e:	ea49 4404 	orr.w	r4, r9, r4, lsl #16
 8000e32:	fb03 fc0c 	mul.w	ip, r3, ip
 8000e36:	45a4      	cmp	ip, r4
 8000e38:	d907      	bls.n	8000e4a <__udivmoddi4+0x1d2>
 8000e3a:	193c      	adds	r4, r7, r4
 8000e3c:	f103 30ff 	add.w	r0, r3, #4294967295
 8000e40:	d267      	bcs.n	8000f12 <__udivmoddi4+0x29a>
 8000e42:	45a4      	cmp	ip, r4
 8000e44:	d965      	bls.n	8000f12 <__udivmoddi4+0x29a>
 8000e46:	3b02      	subs	r3, #2
 8000e48:	443c      	add	r4, r7
 8000e4a:	ea43 400e 	orr.w	r0, r3, lr, lsl #16
 8000e4e:	fba0 9302 	umull	r9, r3, r0, r2
 8000e52:	eba4 040c 	sub.w	r4, r4, ip
 8000e56:	429c      	cmp	r4, r3
 8000e58:	46ce      	mov	lr, r9
 8000e5a:	469c      	mov	ip, r3
 8000e5c:	d351      	bcc.n	8000f02 <__udivmoddi4+0x28a>
 8000e5e:	d04e      	beq.n	8000efe <__udivmoddi4+0x286>
 8000e60:	b155      	cbz	r5, 8000e78 <__udivmoddi4+0x200>
 8000e62:	ebb8 030e 	subs.w	r3, r8, lr
 8000e66:	eb64 040c 	sbc.w	r4, r4, ip
 8000e6a:	fa04 f606 	lsl.w	r6, r4, r6
 8000e6e:	40cb      	lsrs	r3, r1
 8000e70:	431e      	orrs	r6, r3
 8000e72:	40cc      	lsrs	r4, r1
 8000e74:	e9c5 6400 	strd	r6, r4, [r5]
 8000e78:	2100      	movs	r1, #0
 8000e7a:	e750      	b.n	8000d1e <__udivmoddi4+0xa6>
 8000e7c:	f1c2 0320 	rsb	r3, r2, #32
 8000e80:	fa20 f103 	lsr.w	r1, r0, r3
 8000e84:	fa0c fc02 	lsl.w	ip, ip, r2
 8000e88:	fa24 f303 	lsr.w	r3, r4, r3
 8000e8c:	4094      	lsls	r4, r2
 8000e8e:	430c      	orrs	r4, r1
 8000e90:	ea4f 481c 	mov.w	r8, ip, lsr #16
 8000e94:	fa00 fe02 	lsl.w	lr, r0, r2
 8000e98:	fa1f f78c 	uxth.w	r7, ip
 8000e9c:	fbb3 f0f8 	udiv	r0, r3, r8
 8000ea0:	fb08 3110 	mls	r1, r8, r0, r3
 8000ea4:	0c23      	lsrs	r3, r4, #16
 8000ea6:	ea43 4301 	orr.w	r3, r3, r1, lsl #16
 8000eaa:	fb00 f107 	mul.w	r1, r0, r7
 8000eae:	4299      	cmp	r1, r3
 8000eb0:	d908      	bls.n	8000ec4 <__udivmoddi4+0x24c>
 8000eb2:	eb1c 0303 	adds.w	r3, ip, r3
 8000eb6:	f100 36ff 	add.w	r6, r0, #4294967295
 8000eba:	d22c      	bcs.n	8000f16 <__udivmoddi4+0x29e>
 8000ebc:	4299      	cmp	r1, r3
 8000ebe:	d92a      	bls.n	8000f16 <__udivmoddi4+0x29e>
 8000ec0:	3802      	subs	r0, #2
 8000ec2:	4463      	add	r3, ip
 8000ec4:	1a5b      	subs	r3, r3, r1
 8000ec6:	b2a4      	uxth	r4, r4
 8000ec8:	fbb3 f1f8 	udiv	r1, r3, r8
 8000ecc:	fb08 3311 	mls	r3, r8, r1, r3
 8000ed0:	ea44 4403 	orr.w	r4, r4, r3, lsl #16
 8000ed4:	fb01 f307 	mul.w	r3, r1, r7
 8000ed8:	42a3      	cmp	r3, r4
 8000eda:	d908      	bls.n	8000eee <__udivmoddi4+0x276>
 8000edc:	eb1c 0404 	adds.w	r4, ip, r4
 8000ee0:	f101 36ff 	add.w	r6, r1, #4294967295
 8000ee4:	d213      	bcs.n	8000f0e <__udivmoddi4+0x296>
 8000ee6:	42a3      	cmp	r3, r4
 8000ee8:	d911      	bls.n	8000f0e <__udivmoddi4+0x296>
 8000eea:	3902      	subs	r1, #2
 8000eec:	4464      	add	r4, ip
 8000eee:	1ae4      	subs	r4, r4, r3
 8000ef0:	ea41 4100 	orr.w	r1, r1, r0, lsl #16
 8000ef4:	e739      	b.n	8000d6a <__udivmoddi4+0xf2>
 8000ef6:	4604      	mov	r4, r0
 8000ef8:	e6f0      	b.n	8000cdc <__udivmoddi4+0x64>
 8000efa:	4608      	mov	r0, r1
 8000efc:	e706      	b.n	8000d0c <__udivmoddi4+0x94>
 8000efe:	45c8      	cmp	r8, r9
 8000f00:	d2ae      	bcs.n	8000e60 <__udivmoddi4+0x1e8>
 8000f02:	ebb9 0e02 	subs.w	lr, r9, r2
 8000f06:	eb63 0c07 	sbc.w	ip, r3, r7
 8000f0a:	3801      	subs	r0, #1
 8000f0c:	e7a8      	b.n	8000e60 <__udivmoddi4+0x1e8>
 8000f0e:	4631      	mov	r1, r6
 8000f10:	e7ed      	b.n	8000eee <__udivmoddi4+0x276>
 8000f12:	4603      	mov	r3, r0
 8000f14:	e799      	b.n	8000e4a <__udivmoddi4+0x1d2>
 8000f16:	4630      	mov	r0, r6
 8000f18:	e7d4      	b.n	8000ec4 <__udivmoddi4+0x24c>
 8000f1a:	46d6      	mov	lr, sl
 8000f1c:	e77f      	b.n	8000e1e <__udivmoddi4+0x1a6>
 8000f1e:	4463      	add	r3, ip
 8000f20:	3802      	subs	r0, #2
 8000f22:	e74d      	b.n	8000dc0 <__udivmoddi4+0x148>
 8000f24:	4606      	mov	r6, r0
 8000f26:	4623      	mov	r3, r4
 8000f28:	4608      	mov	r0, r1
 8000f2a:	e70f      	b.n	8000d4c <__udivmoddi4+0xd4>
 8000f2c:	3e02      	subs	r6, #2
 8000f2e:	4463      	add	r3, ip
 8000f30:	e730      	b.n	8000d94 <__udivmoddi4+0x11c>
 8000f32:	bf00      	nop

08000f34 <__aeabi_idiv0>:
 8000f34:	4770      	bx	lr
 8000f36:	bf00      	nop

08000f38 <lcd10usDelay>:
}
#endif /* USE_BUSY_FLAG */

/*!	\brief	Creates delay multiples of 10us. */
static void lcd10usDelay(volatile uint32_t us)
{
 8000f38:	b480      	push	{r7}
 8000f3a:	b083      	sub	sp, #12
 8000f3c:	af00      	add	r7, sp, #0
 8000f3e:	6078      	str	r0, [r7, #4]
	/* onversion to us */
	us *= MCU_FREQ_VALUE;
 8000f40:	4b0b      	ldr	r3, [pc, #44]	@ (8000f70 <lcd10usDelay+0x38>)
 8000f42:	681b      	ldr	r3, [r3, #0]
 8000f44:	4a0b      	ldr	r2, [pc, #44]	@ (8000f74 <lcd10usDelay+0x3c>)
 8000f46:	fba2 2303 	umull	r2, r3, r2, r3
 8000f4a:	0c9b      	lsrs	r3, r3, #18
 8000f4c:	687a      	ldr	r2, [r7, #4]
 8000f4e:	fb02 f303 	mul.w	r3, r2, r3
 8000f52:	607b      	str	r3, [r7, #4]
	/* Wait */
	while (us > 0u)
 8000f54:	e002      	b.n	8000f5c <lcd10usDelay+0x24>
	{
		us--;
 8000f56:	687b      	ldr	r3, [r7, #4]
 8000f58:	3b01      	subs	r3, #1
 8000f5a:	607b      	str	r3, [r7, #4]
	while (us > 0u)
 8000f5c:	687b      	ldr	r3, [r7, #4]
 8000f5e:	2b00      	cmp	r3, #0
 8000f60:	d1f9      	bne.n	8000f56 <lcd10usDelay+0x1e>
	}
}
 8000f62:	bf00      	nop
 8000f64:	bf00      	nop
 8000f66:	370c      	adds	r7, #12
 8000f68:	46bd      	mov	sp, r7
 8000f6a:	f85d 7b04 	ldr.w	r7, [sp], #4
 8000f6e:	4770      	bx	lr
 8000f70:	20000008 	.word	0x20000008
 8000f74:	431bde83 	.word	0x431bde83

08000f78 <lcdStrobe>:

/*!	\brief	Initiate the transfer of data/commands to LCD. */
static void lcdStrobe(void)
{/* Low level function. */
 8000f78:	b580      	push	{r7, lr}
 8000f7a:	af00      	add	r7, sp, #0
	SET(LCD_E_OUT, LCD_E);
 8000f7c:	4b08      	ldr	r3, [pc, #32]	@ (8000fa0 <lcdStrobe+0x28>)
 8000f7e:	695b      	ldr	r3, [r3, #20]
 8000f80:	4a07      	ldr	r2, [pc, #28]	@ (8000fa0 <lcdStrobe+0x28>)
 8000f82:	f443 6300 	orr.w	r3, r3, #2048	@ 0x800
 8000f86:	6153      	str	r3, [r2, #20]
	lcd10usDelay(ENABLE_CYCLE_TIME);
 8000f88:	2001      	movs	r0, #1
 8000f8a:	f7ff ffd5 	bl	8000f38 <lcd10usDelay>
	CLR(LCD_E_OUT, LCD_E);	/* Enable strobe */
 8000f8e:	4b04      	ldr	r3, [pc, #16]	@ (8000fa0 <lcdStrobe+0x28>)
 8000f90:	695b      	ldr	r3, [r3, #20]
 8000f92:	4a03      	ldr	r2, [pc, #12]	@ (8000fa0 <lcdStrobe+0x28>)
 8000f94:	f423 6300 	bic.w	r3, r3, #2048	@ 0x800
 8000f98:	6153      	str	r3, [r2, #20]
}
 8000f9a:	bf00      	nop
 8000f9c:	bd80      	pop	{r7, pc}
 8000f9e:	bf00      	nop
 8000fa0:	40021000 	.word	0x40021000

08000fa4 <lcdHigh>:

/*!	\brief	Send the msb nibble of the data / command to LCD. */
static void lcdHigh(uint8_t data)
{/* Low level function. */
 8000fa4:	b480      	push	{r7}
 8000fa6:	b083      	sub	sp, #12
 8000fa8:	af00      	add	r7, sp, #0
 8000faa:	4603      	mov	r3, r0
 8000fac:	71fb      	strb	r3, [r7, #7]
	if(data & LCD_D7_MASK) SET(LCD_D7_OUT, LCD_D7); else CLR(LCD_D7_OUT, LCD_D7);
 8000fae:	f997 3007 	ldrsb.w	r3, [r7, #7]
 8000fb2:	2b00      	cmp	r3, #0
 8000fb4:	da06      	bge.n	8000fc4 <lcdHigh+0x20>
 8000fb6:	4b24      	ldr	r3, [pc, #144]	@ (8001048 <lcdHigh+0xa4>)
 8000fb8:	695b      	ldr	r3, [r3, #20]
 8000fba:	4a23      	ldr	r2, [pc, #140]	@ (8001048 <lcdHigh+0xa4>)
 8000fbc:	f443 4300 	orr.w	r3, r3, #32768	@ 0x8000
 8000fc0:	6153      	str	r3, [r2, #20]
 8000fc2:	e005      	b.n	8000fd0 <lcdHigh+0x2c>
 8000fc4:	4b20      	ldr	r3, [pc, #128]	@ (8001048 <lcdHigh+0xa4>)
 8000fc6:	695b      	ldr	r3, [r3, #20]
 8000fc8:	4a1f      	ldr	r2, [pc, #124]	@ (8001048 <lcdHigh+0xa4>)
 8000fca:	f423 4300 	bic.w	r3, r3, #32768	@ 0x8000
 8000fce:	6153      	str	r3, [r2, #20]
	if(data & LCD_D6_MASK) SET(LCD_D6_OUT, LCD_D6); else CLR(LCD_D6_OUT, LCD_D6);
 8000fd0:	79fb      	ldrb	r3, [r7, #7]
 8000fd2:	f003 0340 	and.w	r3, r3, #64	@ 0x40
 8000fd6:	2b00      	cmp	r3, #0
 8000fd8:	d006      	beq.n	8000fe8 <lcdHigh+0x44>
 8000fda:	4b1b      	ldr	r3, [pc, #108]	@ (8001048 <lcdHigh+0xa4>)
 8000fdc:	695b      	ldr	r3, [r3, #20]
 8000fde:	4a1a      	ldr	r2, [pc, #104]	@ (8001048 <lcdHigh+0xa4>)
 8000fe0:	f443 4380 	orr.w	r3, r3, #16384	@ 0x4000
 8000fe4:	6153      	str	r3, [r2, #20]
 8000fe6:	e005      	b.n	8000ff4 <lcdHigh+0x50>
 8000fe8:	4b17      	ldr	r3, [pc, #92]	@ (8001048 <lcdHigh+0xa4>)
 8000fea:	695b      	ldr	r3, [r3, #20]
 8000fec:	4a16      	ldr	r2, [pc, #88]	@ (8001048 <lcdHigh+0xa4>)
 8000fee:	f423 4380 	bic.w	r3, r3, #16384	@ 0x4000
 8000ff2:	6153      	str	r3, [r2, #20]
	if(data & LCD_D5_MASK) SET(LCD_D5_OUT, LCD_D5); else CLR(LCD_D5_OUT, LCD_D5);
 8000ff4:	79fb      	ldrb	r3, [r7, #7]
 8000ff6:	f003 0320 	and.w	r3, r3, #32
 8000ffa:	2b00      	cmp	r3, #0
 8000ffc:	d006      	beq.n	800100c <lcdHigh+0x68>
 8000ffe:	4b12      	ldr	r3, [pc, #72]	@ (8001048 <lcdHigh+0xa4>)
 8001000:	695b      	ldr	r3, [r3, #20]
 8001002:	4a11      	ldr	r2, [pc, #68]	@ (8001048 <lcdHigh+0xa4>)
 8001004:	f443 5300 	orr.w	r3, r3, #8192	@ 0x2000
 8001008:	6153      	str	r3, [r2, #20]
 800100a:	e005      	b.n	8001018 <lcdHigh+0x74>
 800100c:	4b0e      	ldr	r3, [pc, #56]	@ (8001048 <lcdHigh+0xa4>)
 800100e:	695b      	ldr	r3, [r3, #20]
 8001010:	4a0d      	ldr	r2, [pc, #52]	@ (8001048 <lcdHigh+0xa4>)
 8001012:	f423 5300 	bic.w	r3, r3, #8192	@ 0x2000
 8001016:	6153      	str	r3, [r2, #20]
	if(data & LCD_D4_MASK) SET(LCD_D4_OUT, LCD_D4); else CLR(LCD_D4_OUT, LCD_D4);
 8001018:	79fb      	ldrb	r3, [r7, #7]
 800101a:	f003 0310 	and.w	r3, r3, #16
 800101e:	2b00      	cmp	r3, #0
 8001020:	d006      	beq.n	8001030 <lcdHigh+0x8c>
 8001022:	4b09      	ldr	r3, [pc, #36]	@ (8001048 <lcdHigh+0xa4>)
 8001024:	695b      	ldr	r3, [r3, #20]
 8001026:	4a08      	ldr	r2, [pc, #32]	@ (8001048 <lcdHigh+0xa4>)
 8001028:	f443 5380 	orr.w	r3, r3, #4096	@ 0x1000
 800102c:	6153      	str	r3, [r2, #20]
}
 800102e:	e005      	b.n	800103c <lcdHigh+0x98>
	if(data & LCD_D4_MASK) SET(LCD_D4_OUT, LCD_D4); else CLR(LCD_D4_OUT, LCD_D4);
 8001030:	4b05      	ldr	r3, [pc, #20]	@ (8001048 <lcdHigh+0xa4>)
 8001032:	695b      	ldr	r3, [r3, #20]
 8001034:	4a04      	ldr	r2, [pc, #16]	@ (8001048 <lcdHigh+0xa4>)
 8001036:	f423 5380 	bic.w	r3, r3, #4096	@ 0x1000
 800103a:	6153      	str	r3, [r2, #20]
}
 800103c:	bf00      	nop
 800103e:	370c      	adds	r7, #12
 8001040:	46bd      	mov	sp, r7
 8001042:	f85d 7b04 	ldr.w	r7, [sp], #4
 8001046:	4770      	bx	lr
 8001048:	40021000 	.word	0x40021000

0800104c <lcdLow>:

/*!	\brief	Send the lsb nibble of the data / command to LCD. */
static void lcdLow(uint8_t data)
{/* Low level function. */
 800104c:	b480      	push	{r7}
 800104e:	b083      	sub	sp, #12
 8001050:	af00      	add	r7, sp, #0
 8001052:	4603      	mov	r3, r0
 8001054:	71fb      	strb	r3, [r7, #7]
	if(data & LCD_D3_MASK) SET(LCD_D7_OUT, LCD_D7); else CLR(LCD_D7_OUT, LCD_D7);
 8001056:	79fb      	ldrb	r3, [r7, #7]
 8001058:	f003 0308 	and.w	r3, r3, #8
 800105c:	2b00      	cmp	r3, #0
 800105e:	d006      	beq.n	800106e <lcdLow+0x22>
 8001060:	4b24      	ldr	r3, [pc, #144]	@ (80010f4 <lcdLow+0xa8>)
 8001062:	695b      	ldr	r3, [r3, #20]
 8001064:	4a23      	ldr	r2, [pc, #140]	@ (80010f4 <lcdLow+0xa8>)
 8001066:	f443 4300 	orr.w	r3, r3, #32768	@ 0x8000
 800106a:	6153      	str	r3, [r2, #20]
 800106c:	e005      	b.n	800107a <lcdLow+0x2e>
 800106e:	4b21      	ldr	r3, [pc, #132]	@ (80010f4 <lcdLow+0xa8>)
 8001070:	695b      	ldr	r3, [r3, #20]
 8001072:	4a20      	ldr	r2, [pc, #128]	@ (80010f4 <lcdLow+0xa8>)
 8001074:	f423 4300 	bic.w	r3, r3, #32768	@ 0x8000
 8001078:	6153      	str	r3, [r2, #20]
	if(data & LCD_D2_MASK) SET(LCD_D6_OUT, LCD_D6); else CLR(LCD_D6_OUT, LCD_D6);
 800107a:	79fb      	ldrb	r3, [r7, #7]
 800107c:	f003 0304 	and.w	r3, r3, #4
 8001080:	2b00      	cmp	r3, #0
 8001082:	d006      	beq.n	8001092 <lcdLow+0x46>
 8001084:	4b1b      	ldr	r3, [pc, #108]	@ (80010f4 <lcdLow+0xa8>)
 8001086:	695b      	ldr	r3, [r3, #20]
 8001088:	4a1a      	ldr	r2, [pc, #104]	@ (80010f4 <lcdLow+0xa8>)
 800108a:	f443 4380 	orr.w	r3, r3, #16384	@ 0x4000
 800108e:	6153      	str	r3, [r2, #20]
 8001090:	e005      	b.n	800109e <lcdLow+0x52>
 8001092:	4b18      	ldr	r3, [pc, #96]	@ (80010f4 <lcdLow+0xa8>)
 8001094:	695b      	ldr	r3, [r3, #20]
 8001096:	4a17      	ldr	r2, [pc, #92]	@ (80010f4 <lcdLow+0xa8>)
 8001098:	f423 4380 	bic.w	r3, r3, #16384	@ 0x4000
 800109c:	6153      	str	r3, [r2, #20]
	if(data & LCD_D1_MASK) SET(LCD_D5_OUT, LCD_D5); else CLR(LCD_D5_OUT, LCD_D5);
 800109e:	79fb      	ldrb	r3, [r7, #7]
 80010a0:	f003 0302 	and.w	r3, r3, #2
 80010a4:	2b00      	cmp	r3, #0
 80010a6:	d006      	beq.n	80010b6 <lcdLow+0x6a>
 80010a8:	4b12      	ldr	r3, [pc, #72]	@ (80010f4 <lcdLow+0xa8>)
 80010aa:	695b      	ldr	r3, [r3, #20]
 80010ac:	4a11      	ldr	r2, [pc, #68]	@ (80010f4 <lcdLow+0xa8>)
 80010ae:	f443 5300 	orr.w	r3, r3, #8192	@ 0x2000
 80010b2:	6153      	str	r3, [r2, #20]
 80010b4:	e005      	b.n	80010c2 <lcdLow+0x76>
 80010b6:	4b0f      	ldr	r3, [pc, #60]	@ (80010f4 <lcdLow+0xa8>)
 80010b8:	695b      	ldr	r3, [r3, #20]
 80010ba:	4a0e      	ldr	r2, [pc, #56]	@ (80010f4 <lcdLow+0xa8>)
 80010bc:	f423 5300 	bic.w	r3, r3, #8192	@ 0x2000
 80010c0:	6153      	str	r3, [r2, #20]
	if(data & LCD_D0_MASK) SET(LCD_D4_OUT, LCD_D4); else CLR(LCD_D4_OUT, LCD_D4);
 80010c2:	79fb      	ldrb	r3, [r7, #7]
 80010c4:	f003 0301 	and.w	r3, r3, #1
 80010c8:	2b00      	cmp	r3, #0
 80010ca:	d006      	beq.n	80010da <lcdLow+0x8e>
 80010cc:	4b09      	ldr	r3, [pc, #36]	@ (80010f4 <lcdLow+0xa8>)
 80010ce:	695b      	ldr	r3, [r3, #20]
 80010d0:	4a08      	ldr	r2, [pc, #32]	@ (80010f4 <lcdLow+0xa8>)
 80010d2:	f443 5380 	orr.w	r3, r3, #4096	@ 0x1000
 80010d6:	6153      	str	r3, [r2, #20]
}
 80010d8:	e005      	b.n	80010e6 <lcdLow+0x9a>
	if(data & LCD_D0_MASK) SET(LCD_D4_OUT, LCD_D4); else CLR(LCD_D4_OUT, LCD_D4);
 80010da:	4b06      	ldr	r3, [pc, #24]	@ (80010f4 <lcdLow+0xa8>)
 80010dc:	695b      	ldr	r3, [r3, #20]
 80010de:	4a05      	ldr	r2, [pc, #20]	@ (80010f4 <lcdLow+0xa8>)
 80010e0:	f423 5380 	bic.w	r3, r3, #4096	@ 0x1000
 80010e4:	6153      	str	r3, [r2, #20]
}
 80010e6:	bf00      	nop
 80010e8:	370c      	adds	r7, #12
 80010ea:	46bd      	mov	sp, r7
 80010ec:	f85d 7b04 	ldr.w	r7, [sp], #4
 80010f0:	4770      	bx	lr
 80010f2:	bf00      	nop
 80010f4:	40021000 	.word	0x40021000

080010f8 <lcdWrite>:

/*!	\brief	Send data/commands to the display. */
static void lcdWrite(uint8_t data)
{/* Low level function. */
 80010f8:	b580      	push	{r7, lr}
 80010fa:	b082      	sub	sp, #8
 80010fc:	af00      	add	r7, sp, #0
 80010fe:	4603      	mov	r3, r0
 8001100:	71fb      	strb	r3, [r7, #7]
#if (USE_BUSY_FLAG)
	/* Write data/commands to LCD. */
	CLR(LCD_RW_OUT, LCD_RW);
#endif /* USE_BUSY_FLAG */

	lcdHigh(data);
 8001102:	79fb      	ldrb	r3, [r7, #7]
 8001104:	4618      	mov	r0, r3
 8001106:	f7ff ff4d 	bl	8000fa4 <lcdHigh>
	lcdStrobe();
 800110a:	f7ff ff35 	bl	8000f78 <lcdStrobe>
	lcdLow(data);
 800110e:	79fb      	ldrb	r3, [r7, #7]
 8001110:	4618      	mov	r0, r3
 8001112:	f7ff ff9b 	bl	800104c <lcdLow>
	lcdStrobe();
 8001116:	f7ff ff2f 	bl	8000f78 <lcdStrobe>

	/* The busy flag must be checked after the 4-bit data has been transferred twice. */
#if (USE_BUSY_FLAG)
	lcd_busy_delay();
#else
	lcd10usDelay(BUSY_CYCLE_TIME);
 800111a:	2005      	movs	r0, #5
 800111c:	f7ff ff0c 	bl	8000f38 <lcd10usDelay>
#endif /* USE_BUSY_FLAG */
}
 8001120:	bf00      	nop
 8001122:	3708      	adds	r7, #8
 8001124:	46bd      	mov	sp, r7
 8001126:	bd80      	pop	{r7, pc}

08001128 <lcdConfig>:

/*!	\brief	Initializing by instruction. 4-bit interface initialization. */
static void lcdConfig(uint8_t param)
{/* Low level function. */
 8001128:	b580      	push	{r7, lr}
 800112a:	b082      	sub	sp, #8
 800112c:	af00      	add	r7, sp, #0
 800112e:	4603      	mov	r3, r0
 8001130:	71fb      	strb	r3, [r7, #7]
	/* Send commands to LCD. */
	CLR(LCD_RS_OUT, LCD_RS);
 8001132:	4b10      	ldr	r3, [pc, #64]	@ (8001174 <lcdConfig+0x4c>)
 8001134:	695b      	ldr	r3, [r3, #20]
 8001136:	4a0f      	ldr	r2, [pc, #60]	@ (8001174 <lcdConfig+0x4c>)
 8001138:	f023 0380 	bic.w	r3, r3, #128	@ 0x80
 800113c:	6153      	str	r3, [r2, #20]
#if (USE_BUSY_FLAG)
	/* Write data/commands to LCD. */
	CLR(LCD_RW_OUT, LCD_RW);
#endif /* USE_BUSY_FLAG */

	lcdHigh(param);
 800113e:	79fb      	ldrb	r3, [r7, #7]
 8001140:	4618      	mov	r0, r3
 8001142:	f7ff ff2f 	bl	8000fa4 <lcdHigh>
	lcdStrobe();		// Change 8-bit interface to 4-bit interface
 8001146:	f7ff ff17 	bl	8000f78 <lcdStrobe>
	lcd10usDelay(BUSY_CYCLE_TIME);
 800114a:	2005      	movs	r0, #5
 800114c:	f7ff fef4 	bl	8000f38 <lcd10usDelay>
	lcdStrobe();		/* DB7 to DB4 of the "Function set" instruction is written twice. */
 8001150:	f7ff ff12 	bl	8000f78 <lcdStrobe>
	lcd10usDelay(BUSY_CYCLE_TIME);
 8001154:	2005      	movs	r0, #5
 8001156:	f7ff feef 	bl	8000f38 <lcd10usDelay>
	lcdLow(param);
 800115a:	79fb      	ldrb	r3, [r7, #7]
 800115c:	4618      	mov	r0, r3
 800115e:	f7ff ff75 	bl	800104c <lcdLow>
	lcdStrobe();		// 4-bit, two lines, 5x8 pixel
 8001162:	f7ff ff09 	bl	8000f78 <lcdStrobe>
	lcd10usDelay(BUSY_CYCLE_TIME);
 8001166:	2005      	movs	r0, #5
 8001168:	f7ff fee6 	bl	8000f38 <lcd10usDelay>
	/* Note: The number of display lines and character font cannot be changed after this point. */
}
 800116c:	bf00      	nop
 800116e:	3708      	adds	r7, #8
 8001170:	46bd      	mov	sp, r7
 8001172:	bd80      	pop	{r7, pc}
 8001174:	40021000 	.word	0x40021000

08001178 <lcdClrScr>:
 * 				and returns the display to its original status if it was shifted.
 * 				In other words, the display disappears and the cursor
 * 				or blinking goes to the left edge of the display (in the first line if 2 lines are displayed).
 * 				It also sets I/D to 1 (increment mode) in entry mode (S of entry mode does not change). */
void lcdClrScr(void)
{
 8001178:	b580      	push	{r7, lr}
 800117a:	af00      	add	r7, sp, #0
	/* Send a command to LCD. */
	CLR(LCD_RS_OUT, LCD_RS);
 800117c:	4b06      	ldr	r3, [pc, #24]	@ (8001198 <lcdClrScr+0x20>)
 800117e:	695b      	ldr	r3, [r3, #20]
 8001180:	4a05      	ldr	r2, [pc, #20]	@ (8001198 <lcdClrScr+0x20>)
 8001182:	f023 0380 	bic.w	r3, r3, #128	@ 0x80
 8001186:	6153      	str	r3, [r2, #20]
	/* Clear screen */
	lcdWrite(0x01u);
 8001188:	2001      	movs	r0, #1
 800118a:	f7ff ffb5 	bl	80010f8 <lcdWrite>
	/* Busy delay */
#if (USE_BUSY_FLAG)
	lcd_busy_delay();
#else
	lcd10usDelay(CLRSCR_CYCLE_TIME);
 800118e:	20c8      	movs	r0, #200	@ 0xc8
 8001190:	f7ff fed2 	bl	8000f38 <lcd10usDelay>
#endif /* USE_BUSY_FLAG */
}
 8001194:	bf00      	nop
 8001196:	bd80      	pop	{r7, pc}
 8001198:	40021000 	.word	0x40021000

0800119c <lcdReturn>:
 * 				and returns the display to its original status if it was shifted.
 * 				The DDRAM contents do not change.
 * 				The cursor or blinking go to the left edge of the display
 * 				(in the first line if 2 lines are displayed). */
void lcdReturn(void)
{
 800119c:	b580      	push	{r7, lr}
 800119e:	af00      	add	r7, sp, #0
	/* Send a command to LCD. */
	CLR(LCD_RS_OUT, LCD_RS);
 80011a0:	4b06      	ldr	r3, [pc, #24]	@ (80011bc <lcdReturn+0x20>)
 80011a2:	695b      	ldr	r3, [r3, #20]
 80011a4:	4a05      	ldr	r2, [pc, #20]	@ (80011bc <lcdReturn+0x20>)
 80011a6:	f023 0380 	bic.w	r3, r3, #128	@ 0x80
 80011aa:	6153      	str	r3, [r2, #20]
	/* Return home */
	lcdWrite(0x02u);
 80011ac:	2002      	movs	r0, #2
 80011ae:	f7ff ffa3 	bl	80010f8 <lcdWrite>
	/* Busy delay */
#if (USE_BUSY_FLAG)
	lcd_busy_delay();
#else
	lcd10usDelay(RETHOME_CYCLE_TIME);
 80011b2:	20c8      	movs	r0, #200	@ 0xc8
 80011b4:	f7ff fec0 	bl	8000f38 <lcd10usDelay>
#endif /* USE_BUSY_FLAG */
}
 80011b8:	bf00      	nop
 80011ba:	bd80      	pop	{r7, pc}
 80011bc:	40021000 	.word	0x40021000

080011c0 <cursorShift>:
 * 				without writing or reading display data.
 * 				This function is used to correct or search the display.
 * 				In a 2-line display, the cursor moves to the second line
 * 				when it passes the 40th digit of the first line. */
void cursorShift(uint8_t direction)
{
 80011c0:	b580      	push	{r7, lr}
 80011c2:	b082      	sub	sp, #8
 80011c4:	af00      	add	r7, sp, #0
 80011c6:	4603      	mov	r3, r0
 80011c8:	71fb      	strb	r3, [r7, #7]
	/* Send a command to LCD. */
	CLR(LCD_RS_OUT, LCD_RS);
 80011ca:	4b0c      	ldr	r3, [pc, #48]	@ (80011fc <cursorShift+0x3c>)
 80011cc:	695b      	ldr	r3, [r3, #20]
 80011ce:	4a0b      	ldr	r2, [pc, #44]	@ (80011fc <cursorShift+0x3c>)
 80011d0:	f023 0380 	bic.w	r3, r3, #128	@ 0x80
 80011d4:	6153      	str	r3, [r2, #20]
	/* Shift cursor */
	switch (direction)
 80011d6:	79fb      	ldrb	r3, [r7, #7]
 80011d8:	2b3c      	cmp	r3, #60	@ 0x3c
 80011da:	d002      	beq.n	80011e2 <cursorShift+0x22>
 80011dc:	2b3e      	cmp	r3, #62	@ 0x3e
 80011de:	d004      	beq.n	80011ea <cursorShift+0x2a>
			lcdWrite(0x14u);
			break;

		default:
			/* Ignore this command */
			break;
 80011e0:	e007      	b.n	80011f2 <cursorShift+0x32>
			lcdWrite(0x10u);
 80011e2:	2010      	movs	r0, #16
 80011e4:	f7ff ff88 	bl	80010f8 <lcdWrite>
			break;
 80011e8:	e003      	b.n	80011f2 <cursorShift+0x32>
			lcdWrite(0x14u);
 80011ea:	2014      	movs	r0, #20
 80011ec:	f7ff ff84 	bl	80010f8 <lcdWrite>
			break;
 80011f0:	bf00      	nop
	}
}
 80011f2:	bf00      	nop
 80011f4:	3708      	adds	r7, #8
 80011f6:	46bd      	mov	sp, r7
 80011f8:	bd80      	pop	{r7, pc}
 80011fa:	bf00      	nop
 80011fc:	40021000 	.word	0x40021000

08001200 <lcdGoto>:

/*!	\details	Go to the specified (DDRAM/CGRAM) memory address.*/
void lcdGoto(uint8_t line, uint8_t address)
{
 8001200:	b580      	push	{r7, lr}
 8001202:	b082      	sub	sp, #8
 8001204:	af00      	add	r7, sp, #0
 8001206:	4603      	mov	r3, r0
 8001208:	460a      	mov	r2, r1
 800120a:	71fb      	strb	r3, [r7, #7]
 800120c:	4613      	mov	r3, r2
 800120e:	71bb      	strb	r3, [r7, #6]
	/* Send a command to LCD. */
	CLR(LCD_RS_OUT, LCD_RS);
 8001210:	4b22      	ldr	r3, [pc, #136]	@ (800129c <lcdGoto+0x9c>)
 8001212:	695b      	ldr	r3, [r3, #20]
 8001214:	4a21      	ldr	r2, [pc, #132]	@ (800129c <lcdGoto+0x9c>)
 8001216:	f023 0380 	bic.w	r3, r3, #128	@ 0x80
 800121a:	6153      	str	r3, [r2, #20]
	/* Set DDRAM/CGRAM address. */
	switch (line)
 800121c:	79fb      	ldrb	r3, [r7, #7]
 800121e:	3b01      	subs	r3, #1
 8001220:	2b04      	cmp	r3, #4
 8001222:	d835      	bhi.n	8001290 <lcdGoto+0x90>
 8001224:	a201      	add	r2, pc, #4	@ (adr r2, 800122c <lcdGoto+0x2c>)
 8001226:	f852 f023 	ldr.w	pc, [r2, r3, lsl #2]
 800122a:	bf00      	nop
 800122c:	08001241 	.word	0x08001241
 8001230:	08001251 	.word	0x08001251
 8001234:	08001261 	.word	0x08001261
 8001238:	08001271 	.word	0x08001271
 800123c:	08001281 	.word	0x08001281
	{
		/* Set DDRAM address. */
		case LCD_1st_LINE: lcdWrite(0x80u | START_ADDRESS_1st_LINE | address); break;
 8001240:	79bb      	ldrb	r3, [r7, #6]
 8001242:	f063 037f 	orn	r3, r3, #127	@ 0x7f
 8001246:	b2db      	uxtb	r3, r3
 8001248:	4618      	mov	r0, r3
 800124a:	f7ff ff55 	bl	80010f8 <lcdWrite>
 800124e:	e020      	b.n	8001292 <lcdGoto+0x92>
		case LCD_2nd_LINE: lcdWrite(0x80u | START_ADDRESS_2nd_LINE | address); break;
 8001250:	79bb      	ldrb	r3, [r7, #6]
 8001252:	f063 033f 	orn	r3, r3, #63	@ 0x3f
 8001256:	b2db      	uxtb	r3, r3
 8001258:	4618      	mov	r0, r3
 800125a:	f7ff ff4d 	bl	80010f8 <lcdWrite>
 800125e:	e018      	b.n	8001292 <lcdGoto+0x92>
		case LCD_3rd_LINE: lcdWrite(0x80u | START_ADDRESS_3rd_LINE | address); break;
 8001260:	79bb      	ldrb	r3, [r7, #6]
 8001262:	f063 036f 	orn	r3, r3, #111	@ 0x6f
 8001266:	b2db      	uxtb	r3, r3
 8001268:	4618      	mov	r0, r3
 800126a:	f7ff ff45 	bl	80010f8 <lcdWrite>
 800126e:	e010      	b.n	8001292 <lcdGoto+0x92>
		case LCD_4th_LINE: lcdWrite(0x80u | START_ADDRESS_4th_LINE | address); break;
 8001270:	79bb      	ldrb	r3, [r7, #6]
 8001272:	f063 032f 	orn	r3, r3, #47	@ 0x2f
 8001276:	b2db      	uxtb	r3, r3
 8001278:	4618      	mov	r0, r3
 800127a:	f7ff ff3d 	bl	80010f8 <lcdWrite>
 800127e:	e008      	b.n	8001292 <lcdGoto+0x92>
		/* Set CGRAM address. */
		case CGRAM : lcdWrite(0x40u | address); break;
 8001280:	79bb      	ldrb	r3, [r7, #6]
 8001282:	f043 0340 	orr.w	r3, r3, #64	@ 0x40
 8001286:	b2db      	uxtb	r3, r3
 8001288:	4618      	mov	r0, r3
 800128a:	f7ff ff35 	bl	80010f8 <lcdWrite>
 800128e:	e000      	b.n	8001292 <lcdGoto+0x92>

		default:
			/* Ignore this command */
			break;
 8001290:	bf00      	nop
	}
}
 8001292:	bf00      	nop
 8001294:	3708      	adds	r7, #8
 8001296:	46bd      	mov	sp, r7
 8001298:	bd80      	pop	{r7, pc}
 800129a:	bf00      	nop
 800129c:	40021000 	.word	0x40021000

080012a0 <lcdSetMode>:

/*!	\details	Change LCD settings. */
void lcdSetMode(uint8_t param)
{
 80012a0:	b580      	push	{r7, lr}
 80012a2:	b082      	sub	sp, #8
 80012a4:	af00      	add	r7, sp, #0
 80012a6:	4603      	mov	r3, r0
 80012a8:	71fb      	strb	r3, [r7, #7]
	/* Send a command to LCD. */
	CLR(LCD_RS_OUT, LCD_RS);
 80012aa:	4b07      	ldr	r3, [pc, #28]	@ (80012c8 <lcdSetMode+0x28>)
 80012ac:	695b      	ldr	r3, [r3, #20]
 80012ae:	4a06      	ldr	r2, [pc, #24]	@ (80012c8 <lcdSetMode+0x28>)
 80012b0:	f023 0380 	bic.w	r3, r3, #128	@ 0x80
 80012b4:	6153      	str	r3, [r2, #20]
	lcdWrite(param);
 80012b6:	79fb      	ldrb	r3, [r7, #7]
 80012b8:	4618      	mov	r0, r3
 80012ba:	f7ff ff1d 	bl	80010f8 <lcdWrite>
}
 80012be:	bf00      	nop
 80012c0:	3708      	adds	r7, #8
 80012c2:	46bd      	mov	sp, r7
 80012c4:	bd80      	pop	{r7, pc}
 80012c6:	bf00      	nop
 80012c8:	40021000 	.word	0x40021000

080012cc <lcdPutc>:

/*!	\details	Write a single char to the current memory space (DDRAM/CGRAM). */
void lcdPutc(uint8_t data)
{
 80012cc:	b580      	push	{r7, lr}
 80012ce:	b082      	sub	sp, #8
 80012d0:	af00      	add	r7, sp, #0
 80012d2:	4603      	mov	r3, r0
 80012d4:	71fb      	strb	r3, [r7, #7]
	/* Send data to LCD. */
	SET(LCD_RS_OUT, LCD_RS);
 80012d6:	4b08      	ldr	r3, [pc, #32]	@ (80012f8 <lcdPutc+0x2c>)
 80012d8:	695b      	ldr	r3, [r3, #20]
 80012da:	4a07      	ldr	r2, [pc, #28]	@ (80012f8 <lcdPutc+0x2c>)
 80012dc:	f043 0380 	orr.w	r3, r3, #128	@ 0x80
 80012e0:	6153      	str	r3, [r2, #20]
	lcdWrite(data);
 80012e2:	79fb      	ldrb	r3, [r7, #7]
 80012e4:	4618      	mov	r0, r3
 80012e6:	f7ff ff07 	bl	80010f8 <lcdWrite>
	/* Note:
	 * After execution of the CGRAM/DDRAM data write/read instruction, the RAM address counter is incremented
	 * or decremented by 1. The RAM address counter is updated after the busy flag turns off.
	 * tADD is the time elapsed after the busy flag turns off until the address counter is updated. */
	lcd10usDelay(AC_UPDATE_TIME);	/* Update RAM address counter delay. */
 80012ea:	2001      	movs	r0, #1
 80012ec:	f7ff fe24 	bl	8000f38 <lcd10usDelay>
}
 80012f0:	bf00      	nop
 80012f2:	3708      	adds	r7, #8
 80012f4:	46bd      	mov	sp, r7
 80012f6:	bd80      	pop	{r7, pc}
 80012f8:	40021000 	.word	0x40021000

080012fc <lcdPuts>:

/*!	\details	Writes ANSI-C string to LCD (DDRAM memory space). */
//void lcdPuts(const uint8_t *str)
void lcdPuts(const char *str)
{
 80012fc:	b580      	push	{r7, lr}
 80012fe:	b084      	sub	sp, #16
 8001300:	af00      	add	r7, sp, #0
 8001302:	6078      	str	r0, [r7, #4]
	/* Send a ANSI-C string to LCD. */
	while ('\0' != *str)
 8001304:	e028      	b.n	8001358 <lcdPuts+0x5c>
	{
#if ( USE_FORMATTED_OUTPUT )
		if(('\n' == *str))
 8001306:	687b      	ldr	r3, [r7, #4]
 8001308:	781b      	ldrb	r3, [r3, #0]
 800130a:	2b0a      	cmp	r3, #10
 800130c:	d104      	bne.n	8001318 <lcdPuts+0x1c>
		{/*New line */
			lcdGoto(LCD_2nd_LINE, 0u);
 800130e:	2100      	movs	r1, #0
 8001310:	2002      	movs	r0, #2
 8001312:	f7ff ff75 	bl	8001200 <lcdGoto>
 8001316:	e01c      	b.n	8001352 <lcdPuts+0x56>
		}
		else if(('\r' == *str))
 8001318:	687b      	ldr	r3, [r7, #4]
 800131a:	781b      	ldrb	r3, [r3, #0]
 800131c:	2b0d      	cmp	r3, #13
 800131e:	d102      	bne.n	8001326 <lcdPuts+0x2a>
		{/* Return home */
			lcdReturn();
 8001320:	f7ff ff3c 	bl	800119c <lcdReturn>
 8001324:	e015      	b.n	8001352 <lcdPuts+0x56>
		}
		else if(('\t' == *str))
 8001326:	687b      	ldr	r3, [r7, #4]
 8001328:	781b      	ldrb	r3, [r3, #0]
 800132a:	2b09      	cmp	r3, #9
 800132c:	d10c      	bne.n	8001348 <lcdPuts+0x4c>
		{/* Tab space */
			uint8_t i;

			for(i=0u; i<TAB_SPACE; i++)
 800132e:	2300      	movs	r3, #0
 8001330:	73fb      	strb	r3, [r7, #15]
 8001332:	e005      	b.n	8001340 <lcdPuts+0x44>
			{/* Shift cursor to the right. */
				cursorShift(RIGHT);
 8001334:	203e      	movs	r0, #62	@ 0x3e
 8001336:	f7ff ff43 	bl	80011c0 <cursorShift>
			for(i=0u; i<TAB_SPACE; i++)
 800133a:	7bfb      	ldrb	r3, [r7, #15]
 800133c:	3301      	adds	r3, #1
 800133e:	73fb      	strb	r3, [r7, #15]
 8001340:	7bfb      	ldrb	r3, [r7, #15]
 8001342:	2b03      	cmp	r3, #3
 8001344:	d9f6      	bls.n	8001334 <lcdPuts+0x38>
 8001346:	e004      	b.n	8001352 <lcdPuts+0x56>
		}
		else
#endif
		{
			/* Display a symbol. */
			lcdPutc(*str);
 8001348:	687b      	ldr	r3, [r7, #4]
 800134a:	781b      	ldrb	r3, [r3, #0]
 800134c:	4618      	mov	r0, r3
 800134e:	f7ff ffbd 	bl	80012cc <lcdPutc>
		}
		/* Get the next symbol. */
		str++;
 8001352:	687b      	ldr	r3, [r7, #4]
 8001354:	3301      	adds	r3, #1
 8001356:	607b      	str	r3, [r7, #4]
	while ('\0' != *str)
 8001358:	687b      	ldr	r3, [r7, #4]
 800135a:	781b      	ldrb	r3, [r3, #0]
 800135c:	2b00      	cmp	r3, #0
 800135e:	d1d2      	bne.n	8001306 <lcdPuts+0xa>
	}
}
 8001360:	bf00      	nop
 8001362:	bf00      	nop
 8001364:	3710      	adds	r7, #16
 8001366:	46bd      	mov	sp, r7
 8001368:	bd80      	pop	{r7, pc}

0800136a <lcdLoadChar>:

/*!	\details	Load the user-defined symbol into the CGRAM memory. */
void lcdLoadChar(uint8_t* vector, uint8_t position)
{
 800136a:	b580      	push	{r7, lr}
 800136c:	b084      	sub	sp, #16
 800136e:	af00      	add	r7, sp, #0
 8001370:	6078      	str	r0, [r7, #4]
 8001372:	460b      	mov	r3, r1
 8001374:	70fb      	strb	r3, [r7, #3]
	uint8_t i;
	/* Go to the CGRAM memory space: 0 to 7 */
	lcdGoto(CGRAM, (position * FONT_HEIGHT));
 8001376:	78fb      	ldrb	r3, [r7, #3]
 8001378:	00db      	lsls	r3, r3, #3
 800137a:	b2db      	uxtb	r3, r3
 800137c:	4619      	mov	r1, r3
 800137e:	2005      	movs	r0, #5
 8001380:	f7ff ff3e 	bl	8001200 <lcdGoto>

	for(i = 0u; i < FONT_HEIGHT; i++)
 8001384:	2300      	movs	r3, #0
 8001386:	73fb      	strb	r3, [r7, #15]
 8001388:	e009      	b.n	800139e <lcdLoadChar+0x34>
	{/* Load one row of pixels into the CGRAM register. */
		lcdPutc(vector[i]);
 800138a:	7bfb      	ldrb	r3, [r7, #15]
 800138c:	687a      	ldr	r2, [r7, #4]
 800138e:	4413      	add	r3, r2
 8001390:	781b      	ldrb	r3, [r3, #0]
 8001392:	4618      	mov	r0, r3
 8001394:	f7ff ff9a 	bl	80012cc <lcdPutc>
	for(i = 0u; i < FONT_HEIGHT; i++)
 8001398:	7bfb      	ldrb	r3, [r7, #15]
 800139a:	3301      	adds	r3, #1
 800139c:	73fb      	strb	r3, [r7, #15]
 800139e:	7bfb      	ldrb	r3, [r7, #15]
 80013a0:	2b07      	cmp	r3, #7
 80013a2:	d9f2      	bls.n	800138a <lcdLoadChar+0x20>
	}

	/* Return to the DDRAM memory space. */
	lcdGoto(LCD_1st_LINE, 0u);
 80013a4:	2100      	movs	r1, #0
 80013a6:	2001      	movs	r0, #1
 80013a8:	f7ff ff2a 	bl	8001200 <lcdGoto>
}
 80013ac:	bf00      	nop
 80013ae:	3710      	adds	r7, #16
 80013b0:	46bd      	mov	sp, r7
 80013b2:	bd80      	pop	{r7, pc}

080013b4 <lcdPow10>:
	cursorShift(LEFT);		//      
}

/*!	\brief	Returns 10^n value. */
static uint32_t lcdPow10(uint8_t n)
{
 80013b4:	b480      	push	{r7}
 80013b6:	b085      	sub	sp, #20
 80013b8:	af00      	add	r7, sp, #0
 80013ba:	4603      	mov	r3, r0
 80013bc:	71fb      	strb	r3, [r7, #7]
	uint32_t retval = 1u;
 80013be:	2301      	movs	r3, #1
 80013c0:	60fb      	str	r3, [r7, #12]

	while (n > 0u)
 80013c2:	e008      	b.n	80013d6 <lcdPow10+0x22>
	{
		retval *= 10u;
 80013c4:	68fa      	ldr	r2, [r7, #12]
 80013c6:	4613      	mov	r3, r2
 80013c8:	009b      	lsls	r3, r3, #2
 80013ca:	4413      	add	r3, r2
 80013cc:	005b      	lsls	r3, r3, #1
 80013ce:	60fb      	str	r3, [r7, #12]
		n--;
 80013d0:	79fb      	ldrb	r3, [r7, #7]
 80013d2:	3b01      	subs	r3, #1
 80013d4:	71fb      	strb	r3, [r7, #7]
	while (n > 0u)
 80013d6:	79fb      	ldrb	r3, [r7, #7]
 80013d8:	2b00      	cmp	r3, #0
 80013da:	d1f3      	bne.n	80013c4 <lcdPow10+0x10>
	}

	return retval;
 80013dc:	68fb      	ldr	r3, [r7, #12]
}
 80013de:	4618      	mov	r0, r3
 80013e0:	3714      	adds	r7, #20
 80013e2:	46bd      	mov	sp, r7
 80013e4:	f85d 7b04 	ldr.w	r7, [sp], #4
 80013e8:	4770      	bx	lr
	...

080013ec <lcdItos>:

/*!	\brief	Display a integer number: +/- 2147483647. */
void lcdItos(int32_t value)
{
 80013ec:	b580      	push	{r7, lr}
 80013ee:	b084      	sub	sp, #16
 80013f0:	af00      	add	r7, sp, #0
 80013f2:	6078      	str	r0, [r7, #4]
	int32_t i;

	if (value < 0)
 80013f4:	687b      	ldr	r3, [r7, #4]
 80013f6:	2b00      	cmp	r3, #0
 80013f8:	da05      	bge.n	8001406 <lcdItos+0x1a>
	{
		lcdPutc('-');
 80013fa:	202d      	movs	r0, #45	@ 0x2d
 80013fc:	f7ff ff66 	bl	80012cc <lcdPutc>
		value = -value;
 8001400:	687b      	ldr	r3, [r7, #4]
 8001402:	425b      	negs	r3, r3
 8001404:	607b      	str	r3, [r7, #4]
	}

	i = 1;
 8001406:	2301      	movs	r3, #1
 8001408:	60fb      	str	r3, [r7, #12]
	while ((value / i) > 9)
 800140a:	e005      	b.n	8001418 <lcdItos+0x2c>
	{
		i *= 10;
 800140c:	68fa      	ldr	r2, [r7, #12]
 800140e:	4613      	mov	r3, r2
 8001410:	009b      	lsls	r3, r3, #2
 8001412:	4413      	add	r3, r2
 8001414:	005b      	lsls	r3, r3, #1
 8001416:	60fb      	str	r3, [r7, #12]
	while ((value / i) > 9)
 8001418:	687a      	ldr	r2, [r7, #4]
 800141a:	68fb      	ldr	r3, [r7, #12]
 800141c:	fb92 f3f3 	sdiv	r3, r2, r3
 8001420:	2b09      	cmp	r3, #9
 8001422:	dcf3      	bgt.n	800140c <lcdItos+0x20>
	}

	lcdPutc(value/i + '0');	/* Display at least one symbol */
 8001424:	687a      	ldr	r2, [r7, #4]
 8001426:	68fb      	ldr	r3, [r7, #12]
 8001428:	fb92 f3f3 	sdiv	r3, r2, r3
 800142c:	b2db      	uxtb	r3, r3
 800142e:	3330      	adds	r3, #48	@ 0x30
 8001430:	b2db      	uxtb	r3, r3
 8001432:	4618      	mov	r0, r3
 8001434:	f7ff ff4a 	bl	80012cc <lcdPutc>
	i /= 10;
 8001438:	68fb      	ldr	r3, [r7, #12]
 800143a:	4a16      	ldr	r2, [pc, #88]	@ (8001494 <lcdItos+0xa8>)
 800143c:	fb82 1203 	smull	r1, r2, r2, r3
 8001440:	1092      	asrs	r2, r2, #2
 8001442:	17db      	asrs	r3, r3, #31
 8001444:	1ad3      	subs	r3, r2, r3
 8001446:	60fb      	str	r3, [r7, #12]

	while (i > 0)
 8001448:	e01c      	b.n	8001484 <lcdItos+0x98>
	{
		lcdPutc('0' + ((value % (i*10)) / i));
 800144a:	68fa      	ldr	r2, [r7, #12]
 800144c:	4613      	mov	r3, r2
 800144e:	009b      	lsls	r3, r3, #2
 8001450:	4413      	add	r3, r2
 8001452:	005b      	lsls	r3, r3, #1
 8001454:	461a      	mov	r2, r3
 8001456:	687b      	ldr	r3, [r7, #4]
 8001458:	fb93 f1f2 	sdiv	r1, r3, r2
 800145c:	fb01 f202 	mul.w	r2, r1, r2
 8001460:	1a9a      	subs	r2, r3, r2
 8001462:	68fb      	ldr	r3, [r7, #12]
 8001464:	fb92 f3f3 	sdiv	r3, r2, r3
 8001468:	b2db      	uxtb	r3, r3
 800146a:	3330      	adds	r3, #48	@ 0x30
 800146c:	b2db      	uxtb	r3, r3
 800146e:	4618      	mov	r0, r3
 8001470:	f7ff ff2c 	bl	80012cc <lcdPutc>
		i /= 10;
 8001474:	68fb      	ldr	r3, [r7, #12]
 8001476:	4a07      	ldr	r2, [pc, #28]	@ (8001494 <lcdItos+0xa8>)
 8001478:	fb82 1203 	smull	r1, r2, r2, r3
 800147c:	1092      	asrs	r2, r2, #2
 800147e:	17db      	asrs	r3, r3, #31
 8001480:	1ad3      	subs	r3, r2, r3
 8001482:	60fb      	str	r3, [r7, #12]
	while (i > 0)
 8001484:	68fb      	ldr	r3, [r7, #12]
 8001486:	2b00      	cmp	r3, #0
 8001488:	dcdf      	bgt.n	800144a <lcdItos+0x5e>
	}
}
 800148a:	bf00      	nop
 800148c:	bf00      	nop
 800148e:	3710      	adds	r7, #16
 8001490:	46bd      	mov	sp, r7
 8001492:	bd80      	pop	{r7, pc}
 8001494:	66666667 	.word	0x66666667

08001498 <lcdFtos>:

/*!	\brief	Display a floating point number. */
void lcdFtos(float value, uint8_t n)
{
 8001498:	b580      	push	{r7, lr}
 800149a:	b082      	sub	sp, #8
 800149c:	af00      	add	r7, sp, #0
 800149e:	ed87 0a01 	vstr	s0, [r7, #4]
 80014a2:	4603      	mov	r3, r0
 80014a4:	70fb      	strb	r3, [r7, #3]
	if (value < 0.0)
 80014a6:	edd7 7a01 	vldr	s15, [r7, #4]
 80014aa:	eef5 7ac0 	vcmpe.f32	s15, #0.0
 80014ae:	eef1 fa10 	vmrs	APSR_nzcv, fpscr
 80014b2:	d508      	bpl.n	80014c6 <lcdFtos+0x2e>
	{
		lcdPutc('-');
 80014b4:	202d      	movs	r0, #45	@ 0x2d
 80014b6:	f7ff ff09 	bl	80012cc <lcdPutc>
		value = -value;
 80014ba:	edd7 7a01 	vldr	s15, [r7, #4]
 80014be:	eef1 7a67 	vneg.f32	s15, s15
 80014c2:	edc7 7a01 	vstr	s15, [r7, #4]
	}

	lcdItos((int32_t)value); //   
 80014c6:	edd7 7a01 	vldr	s15, [r7, #4]
 80014ca:	eefd 7ae7 	vcvt.s32.f32	s15, s15
 80014ce:	ee17 0a90 	vmov	r0, s15
 80014d2:	f7ff ff8b 	bl	80013ec <lcdItos>

	if (n > 0u)
 80014d6:	78fb      	ldrb	r3, [r7, #3]
 80014d8:	2b00      	cmp	r3, #0
 80014da:	d016      	beq.n	800150a <lcdFtos+0x72>
	{
		lcdPutc('.'); // 
 80014dc:	202e      	movs	r0, #46	@ 0x2e
 80014de:	f7ff fef5 	bl	80012cc <lcdPutc>

		lcdNtos((uint32_t)(value * (float)lcdPow10(n)), n); //   
 80014e2:	78fb      	ldrb	r3, [r7, #3]
 80014e4:	4618      	mov	r0, r3
 80014e6:	f7ff ff65 	bl	80013b4 <lcdPow10>
 80014ea:	ee07 0a90 	vmov	s15, r0
 80014ee:	eeb8 7a67 	vcvt.f32.u32	s14, s15
 80014f2:	edd7 7a01 	vldr	s15, [r7, #4]
 80014f6:	ee67 7a27 	vmul.f32	s15, s14, s15
 80014fa:	eefc 7ae7 	vcvt.u32.f32	s15, s15
 80014fe:	78fb      	ldrb	r3, [r7, #3]
 8001500:	4619      	mov	r1, r3
 8001502:	ee17 0a90 	vmov	r0, s15
 8001506:	f000 f805 	bl	8001514 <lcdNtos>
	}
}
 800150a:	bf00      	nop
 800150c:	3708      	adds	r7, #8
 800150e:	46bd      	mov	sp, r7
 8001510:	bd80      	pop	{r7, pc}
	...

08001514 <lcdNtos>:

/*!	\brief	Display "n" right digits of "value". */
void lcdNtos(uint32_t value, uint8_t n)
{
 8001514:	b580      	push	{r7, lr}
 8001516:	b084      	sub	sp, #16
 8001518:	af00      	add	r7, sp, #0
 800151a:	6078      	str	r0, [r7, #4]
 800151c:	460b      	mov	r3, r1
 800151e:	70fb      	strb	r3, [r7, #3]
	if (n > 0u)
 8001520:	78fb      	ldrb	r3, [r7, #3]
 8001522:	2b00      	cmp	r3, #0
 8001524:	d023      	beq.n	800156e <lcdNtos+0x5a>
	{
		uint32_t i = lcdPow10(n - 1u);
 8001526:	78fb      	ldrb	r3, [r7, #3]
 8001528:	3b01      	subs	r3, #1
 800152a:	b2db      	uxtb	r3, r3
 800152c:	4618      	mov	r0, r3
 800152e:	f7ff ff41 	bl	80013b4 <lcdPow10>
 8001532:	60f8      	str	r0, [r7, #12]

		while (i > 0u)	/* Display at least one symbol */
 8001534:	e018      	b.n	8001568 <lcdNtos+0x54>
		{
			lcdPutc('0' + ((value/i) % 10u));
 8001536:	687a      	ldr	r2, [r7, #4]
 8001538:	68fb      	ldr	r3, [r7, #12]
 800153a:	fbb2 f1f3 	udiv	r1, r2, r3
 800153e:	4b0e      	ldr	r3, [pc, #56]	@ (8001578 <lcdNtos+0x64>)
 8001540:	fba3 2301 	umull	r2, r3, r3, r1
 8001544:	08da      	lsrs	r2, r3, #3
 8001546:	4613      	mov	r3, r2
 8001548:	009b      	lsls	r3, r3, #2
 800154a:	4413      	add	r3, r2
 800154c:	005b      	lsls	r3, r3, #1
 800154e:	1aca      	subs	r2, r1, r3
 8001550:	b2d3      	uxtb	r3, r2
 8001552:	3330      	adds	r3, #48	@ 0x30
 8001554:	b2db      	uxtb	r3, r3
 8001556:	4618      	mov	r0, r3
 8001558:	f7ff feb8 	bl	80012cc <lcdPutc>

			i /= 10u;
 800155c:	68fb      	ldr	r3, [r7, #12]
 800155e:	4a06      	ldr	r2, [pc, #24]	@ (8001578 <lcdNtos+0x64>)
 8001560:	fba2 2303 	umull	r2, r3, r2, r3
 8001564:	08db      	lsrs	r3, r3, #3
 8001566:	60fb      	str	r3, [r7, #12]
		while (i > 0u)	/* Display at least one symbol */
 8001568:	68fb      	ldr	r3, [r7, #12]
 800156a:	2b00      	cmp	r3, #0
 800156c:	d1e3      	bne.n	8001536 <lcdNtos+0x22>
		}
	}
}
 800156e:	bf00      	nop
 8001570:	3710      	adds	r7, #16
 8001572:	46bd      	mov	sp, r7
 8001574:	bd80      	pop	{r7, pc}
 8001576:	bf00      	nop
 8001578:	cccccccd 	.word	0xcccccccd

0800157c <lcdInit>:
#endif

/*!	\brief	Initialize the LCD.
 * 	\note	This library use the 4-bit interface. */
void lcdInit(void)
{
 800157c:	b580      	push	{r7, lr}
 800157e:	af00      	add	r7, sp, #0
	/* GPIO initialization. */
	setAllPinsAsOutputs();
 8001580:	f000 f81d 	bl	80015be <lcdGpioInit>
	/* LCD initialization. */
	lcdWrite(0x30);
 8001584:	2030      	movs	r0, #48	@ 0x30
 8001586:	f7ff fdb7 	bl	80010f8 <lcdWrite>
	lcd10usDelay(INIT_CYCLE_TIME);
 800158a:	f44f 70c8 	mov.w	r0, #400	@ 0x190
 800158e:	f7ff fcd3 	bl	8000f38 <lcd10usDelay>
	lcdWrite(0x30);
 8001592:	2030      	movs	r0, #48	@ 0x30
 8001594:	f7ff fdb0 	bl	80010f8 <lcdWrite>
	lcd10usDelay(INIT_CYCLE_TIME);
 8001598:	f44f 70c8 	mov.w	r0, #400	@ 0x190
 800159c:	f7ff fccc 	bl	8000f38 <lcd10usDelay>
	lcdConfig(DEFAULT_DISPLAY_CONFIG);
 80015a0:	2028      	movs	r0, #40	@ 0x28
 80015a2:	f7ff fdc1 	bl	8001128 <lcdConfig>
	lcdSetMode(DEFAULT_VIEW_MODE);
 80015a6:	200c      	movs	r0, #12
 80015a8:	f7ff fe7a 	bl	80012a0 <lcdSetMode>
	lcdSetMode(DEFAULT_ENTRY_MODE);
 80015ac:	2006      	movs	r0, #6
 80015ae:	f7ff fe77 	bl	80012a0 <lcdSetMode>
	lcdClrScr();
 80015b2:	f7ff fde1 	bl	8001178 <lcdClrScr>
	lcdReturn();
 80015b6:	f7ff fdf1 	bl	800119c <lcdReturn>
	#if (USE_PROGRESS_BAR)
		lcdInitBar();
	#endif
}
 80015ba:	bf00      	nop
 80015bc:	bd80      	pop	{r7, pc}

080015be <lcdGpioInit>:

void lcdGpioInit(void)
{
 80015be:	b480      	push	{r7}
 80015c0:	af00      	add	r7, sp, #0
  	 GPIO_InitStruct.Speed = GPIO_SPEED_FREQ_LOW;
  	 HAL_GPIO_Init(GPIOC, &GPIO_InitStruct);

  	 HAL_GPIO_WritePin(GPIOC, GPIO_PIN_0|GPIO_PIN_1|GPIO_PIN_4|GPIO_PIN_5|GPIO_PIN_6|GPIO_PIN_7, GPIO_PIN_RESET);
	 */
}
 80015c2:	bf00      	nop
 80015c4:	46bd      	mov	sp, r7
 80015c6:	f85d 7b04 	ldr.w	r7, [sp], #4
 80015ca:	4770      	bx	lr

080015cc <main>:
/**
  * @brief  The application entry point.
  * @retval int
  */
int main(void)
{
 80015cc:	e92d 4ff0 	stmdb	sp!, {r4, r5, r6, r7, r8, r9, sl, fp, lr}
 80015d0:	b091      	sub	sp, #68	@ 0x44
 80015d2:	af04      	add	r7, sp, #16
  /* USER CODE END 1 */

  /* MCU Configuration--------------------------------------------------------*/

  /* Reset of all peripherals, Initializes the Flash interface and the Systick. */
  HAL_Init();
 80015d4:	f001 f8ce 	bl	8002774 <HAL_Init>
  /* USER CODE BEGIN Init */

  /* USER CODE END Init */

  /* Configure the system clock */
  SystemClock_Config();
 80015d8:	f000 f98e 	bl	80018f8 <SystemClock_Config>
  /* USER CODE BEGIN SysInit */

  /* USER CODE END SysInit */

  /* Initialize all configured peripherals */
  MX_GPIO_Init();
 80015dc:	f000 fb8a 	bl	8001cf4 <MX_GPIO_Init>
  MX_I2C1_Init();
 80015e0:	f000 fa8c 	bl	8001afc <MX_I2C1_Init>
  MX_ADC1_Init();
 80015e4:	f000 f9e6 	bl	80019b4 <MX_ADC1_Init>
  MX_TIM4_Init();
 80015e8:	f000 fb0c 	bl	8001c04 <MX_TIM4_Init>
  MX_ADC2_Init();
 80015ec:	f000 fa34 	bl	8001a58 <MX_ADC2_Init>
  MX_TIM1_Init();
 80015f0:	f000 fab2 	bl	8001b58 <MX_TIM1_Init>
  MX_USART3_UART_Init();
 80015f4:	f000 fb54 	bl	8001ca0 <MX_USART3_UART_Init>
  /* USER CODE BEGIN 2 */
  // temperature-humidity sensor
  SHT2x_Init(&hi2c1);
 80015f8:	48a9      	ldr	r0, [pc, #676]	@ (80018a0 <main+0x2d4>)
 80015fa:	f000 fc79 	bl	8001ef0 <SHT2x_Init>
  SHT2x_SetResolution(RES_14_12);
 80015fe:	2000      	movs	r0, #0
 8001600:	f000 fd74 	bl	80020ec <SHT2x_SetResolution>
  SHT2x_SoftReset();
 8001604:	f000 fc84 	bl	8001f10 <SHT2x_SoftReset>
  // LCD display
  lcdInit();
 8001608:	f7ff ffb8 	bl	800157c <lcdInit>
  // load degree symbol
  lcdLoadChar(deg_sym,6);
 800160c:	2106      	movs	r1, #6
 800160e:	48a5      	ldr	r0, [pc, #660]	@ (80018a4 <main+0x2d8>)
 8001610:	f7ff feab 	bl	800136a <lcdLoadChar>
  //PWM timer
  HAL_TIM_PWM_Start(&htim4, TIM_CHANNEL_1);
 8001614:	2100      	movs	r1, #0
 8001616:	48a4      	ldr	r0, [pc, #656]	@ (80018a8 <main+0x2dc>)
 8001618:	f003 fd4c 	bl	80050b4 <HAL_TIM_PWM_Start>
  HAL_TIM_PWM_Start(&htim4, TIM_CHANNEL_3);
 800161c:	2108      	movs	r1, #8
 800161e:	48a2      	ldr	r0, [pc, #648]	@ (80018a8 <main+0x2dc>)
 8001620:	f003 fd48 	bl	80050b4 <HAL_TIM_PWM_Start>
  HAL_TIM_PWM_Start(&htim4, TIM_CHANNEL_4);
 8001624:	210c      	movs	r1, #12
 8001626:	48a0      	ldr	r0, [pc, #640]	@ (80018a8 <main+0x2dc>)
 8001628:	f003 fd44 	bl	80050b4 <HAL_TIM_PWM_Start>
  /* USER CODE END 2 */

  /* Infinite loop */
  /* USER CODE BEGIN WHILE */

  HAL_ADC_Start_IT(&hadc1);
 800162c:	489f      	ldr	r0, [pc, #636]	@ (80018ac <main+0x2e0>)
 800162e:	f001 f97b 	bl	8002928 <HAL_ADC_Start_IT>
  HAL_ADC_Start_IT(&hadc2);
 8001632:	489f      	ldr	r0, [pc, #636]	@ (80018b0 <main+0x2e4>)
 8001634:	f001 f978 	bl	8002928 <HAL_ADC_Start_IT>

  while (1)
  {
	  uint32_t adcValue;

	  switch (task){
 8001638:	4b9e      	ldr	r3, [pc, #632]	@ (80018b4 <main+0x2e8>)
 800163a:	681b      	ldr	r3, [r3, #0]
 800163c:	2b02      	cmp	r3, #2
 800163e:	f000 80ac 	beq.w	800179a <main+0x1ce>
 8001642:	2b02      	cmp	r3, #2
 8001644:	dcf8      	bgt.n	8001638 <main+0x6c>
 8001646:	2b00      	cmp	r3, #0
 8001648:	d001      	beq.n	800164e <main+0x82>
 800164a:	2b01      	cmp	r3, #1

	    	  }
	    break;
	  }
	  case 1:
		  break;
 800164c:	e127      	b.n	800189e <main+0x2d2>
	    if(adc1Flag)
 800164e:	4b9a      	ldr	r3, [pc, #616]	@ (80018b8 <main+0x2ec>)
 8001650:	681b      	ldr	r3, [r3, #0]
 8001652:	2b00      	cmp	r3, #0
 8001654:	f000 8122 	beq.w	800189c <main+0x2d0>
	          adcValue = HAL_ADC_GetValue(&hadc1);
 8001658:	4894      	ldr	r0, [pc, #592]	@ (80018ac <main+0x2e0>)
 800165a:	f001 fb53 	bl	8002d04 <HAL_ADC_GetValue>
 800165e:	61b8      	str	r0, [r7, #24]
	          float volts = adcValue * 5.0 / 4096.0;
 8001660:	69b8      	ldr	r0, [r7, #24]
 8001662:	f7fe ff4f 	bl	8000504 <__aeabi_ui2d>
 8001666:	f04f 0200 	mov.w	r2, #0
 800166a:	4b94      	ldr	r3, [pc, #592]	@ (80018bc <main+0x2f0>)
 800166c:	f7fe ffc4 	bl	80005f8 <__aeabi_dmul>
 8001670:	4602      	mov	r2, r0
 8001672:	460b      	mov	r3, r1
 8001674:	4610      	mov	r0, r2
 8001676:	4619      	mov	r1, r3
 8001678:	f04f 0200 	mov.w	r2, #0
 800167c:	4b90      	ldr	r3, [pc, #576]	@ (80018c0 <main+0x2f4>)
 800167e:	f7ff f8e5 	bl	800084c <__aeabi_ddiv>
 8001682:	4602      	mov	r2, r0
 8001684:	460b      	mov	r3, r1
 8001686:	4610      	mov	r0, r2
 8001688:	4619      	mov	r1, r3
 800168a:	f7ff fa8d 	bl	8000ba8 <__aeabi_d2f>
 800168e:	4603      	mov	r3, r0
 8001690:	617b      	str	r3, [r7, #20]
	          float amps = volts / 10000.0;  // across 10,000 Ohms
 8001692:	ed97 7a05 	vldr	s14, [r7, #20]
 8001696:	eddf 6a8b 	vldr	s13, [pc, #556]	@ 80018c4 <main+0x2f8>
 800169a:	eec7 7a26 	vdiv.f32	s15, s14, s13
 800169e:	edc7 7a04 	vstr	s15, [r7, #16]
	          float microamps = amps * 1000000;
 80016a2:	edd7 7a04 	vldr	s15, [r7, #16]
 80016a6:	ed9f 7a88 	vldr	s14, [pc, #544]	@ 80018c8 <main+0x2fc>
 80016aa:	ee67 7a87 	vmul.f32	s15, s15, s14
 80016ae:	edc7 7a03 	vstr	s15, [r7, #12]
	          float lux = microamps * 2.0;
 80016b2:	edd7 7a03 	vldr	s15, [r7, #12]
 80016b6:	ee77 7aa7 	vadd.f32	s15, s15, s15
 80016ba:	edc7 7a02 	vstr	s15, [r7, #8]
	          uint32_t dutyCycle = 1000 - lux;
 80016be:	ed9f 7a83 	vldr	s14, [pc, #524]	@ 80018cc <main+0x300>
 80016c2:	edd7 7a02 	vldr	s15, [r7, #8]
 80016c6:	ee77 7a67 	vsub.f32	s15, s14, s15
 80016ca:	eefc 7ae7 	vcvt.u32.f32	s15, s15
 80016ce:	ee17 3a90 	vmov	r3, s15
 80016d2:	607b      	str	r3, [r7, #4]
	          HAL_GPIO_WritePin(GPIOD, GPIO_PIN_13 | GPIO_PIN_12 | GPIO_PIN_14 | GPIO_PIN_15, GPIO_PIN_RESET);
 80016d4:	2200      	movs	r2, #0
 80016d6:	f44f 4170 	mov.w	r1, #61440	@ 0xf000
 80016da:	487d      	ldr	r0, [pc, #500]	@ (80018d0 <main+0x304>)
 80016dc:	f002 f80a 	bl	80036f4 <HAL_GPIO_WritePin>
	          	          HAL_GPIO_WritePin(GPIOE, GPIO_PIN_5, GPIO_PIN_RESET);
 80016e0:	2200      	movs	r2, #0
 80016e2:	2120      	movs	r1, #32
 80016e4:	487b      	ldr	r0, [pc, #492]	@ (80018d4 <main+0x308>)
 80016e6:	f002 f805 	bl	80036f4 <HAL_GPIO_WritePin>
	          	          if (lux>100){
 80016ea:	edd7 7a02 	vldr	s15, [r7, #8]
 80016ee:	ed9f 7a7a 	vldr	s14, [pc, #488]	@ 80018d8 <main+0x30c>
 80016f2:	eef4 7ac7 	vcmpe.f32	s15, s14
 80016f6:	eef1 fa10 	vmrs	APSR_nzcv, fpscr
 80016fa:	dc40      	bgt.n	800177e <main+0x1b2>
	          	          } else if (lux>30) {
 80016fc:	edd7 7a02 	vldr	s15, [r7, #8]
 8001700:	eeb3 7a0e 	vmov.f32	s14, #62	@ 0x41f00000  30.0
 8001704:	eef4 7ac7 	vcmpe.f32	s15, s14
 8001708:	eef1 fa10 	vmrs	APSR_nzcv, fpscr
 800170c:	dd06      	ble.n	800171c <main+0x150>
	          	        	  HAL_GPIO_WritePin(GPIOD, GPIO_PIN_15, GPIO_PIN_SET);
 800170e:	2201      	movs	r2, #1
 8001710:	f44f 4100 	mov.w	r1, #32768	@ 0x8000
 8001714:	486e      	ldr	r0, [pc, #440]	@ (80018d0 <main+0x304>)
 8001716:	f001 ffed 	bl	80036f4 <HAL_GPIO_WritePin>
 800171a:	e030      	b.n	800177e <main+0x1b2>
	          	          } else if (lux>10) {
 800171c:	edd7 7a02 	vldr	s15, [r7, #8]
 8001720:	eeb2 7a04 	vmov.f32	s14, #36	@ 0x41200000  10.0
 8001724:	eef4 7ac7 	vcmpe.f32	s15, s14
 8001728:	eef1 fa10 	vmrs	APSR_nzcv, fpscr
 800172c:	dd0c      	ble.n	8001748 <main+0x17c>
	          	        	  HAL_GPIO_WritePin(GPIOD, GPIO_PIN_12, GPIO_PIN_SET);
 800172e:	2201      	movs	r2, #1
 8001730:	f44f 5180 	mov.w	r1, #4096	@ 0x1000
 8001734:	4866      	ldr	r0, [pc, #408]	@ (80018d0 <main+0x304>)
 8001736:	f001 ffdd 	bl	80036f4 <HAL_GPIO_WritePin>
	          	        	  HAL_GPIO_WritePin(GPIOD, GPIO_PIN_15, GPIO_PIN_SET);
 800173a:	2201      	movs	r2, #1
 800173c:	f44f 4100 	mov.w	r1, #32768	@ 0x8000
 8001740:	4863      	ldr	r0, [pc, #396]	@ (80018d0 <main+0x304>)
 8001742:	f001 ffd7 	bl	80036f4 <HAL_GPIO_WritePin>
 8001746:	e01a      	b.n	800177e <main+0x1b2>
	          	          } else if (lux>1) {
 8001748:	edd7 7a02 	vldr	s15, [r7, #8]
 800174c:	eeb7 7a00 	vmov.f32	s14, #112	@ 0x3f800000  1.0
 8001750:	eef4 7ac7 	vcmpe.f32	s15, s14
 8001754:	eef1 fa10 	vmrs	APSR_nzcv, fpscr
 8001758:	dd06      	ble.n	8001768 <main+0x19c>
	          	        	  HAL_GPIO_WritePin(GPIOD, GPIO_PIN_13 | GPIO_PIN_15 | GPIO_PIN_12, GPIO_PIN_SET);
 800175a:	2201      	movs	r2, #1
 800175c:	f44f 4130 	mov.w	r1, #45056	@ 0xb000
 8001760:	485b      	ldr	r0, [pc, #364]	@ (80018d0 <main+0x304>)
 8001762:	f001 ffc7 	bl	80036f4 <HAL_GPIO_WritePin>
 8001766:	e00a      	b.n	800177e <main+0x1b2>
	          	        	  HAL_GPIO_WritePin(GPIOD, GPIO_PIN_13 | GPIO_PIN_12 | GPIO_PIN_14 | GPIO_PIN_15, GPIO_PIN_SET);
 8001768:	2201      	movs	r2, #1
 800176a:	f44f 4170 	mov.w	r1, #61440	@ 0xf000
 800176e:	4858      	ldr	r0, [pc, #352]	@ (80018d0 <main+0x304>)
 8001770:	f001 ffc0 	bl	80036f4 <HAL_GPIO_WritePin>
	          	        	  HAL_GPIO_WritePin(GPIOE, GPIO_PIN_5, GPIO_PIN_SET);
 8001774:	2201      	movs	r2, #1
 8001776:	2120      	movs	r1, #32
 8001778:	4856      	ldr	r0, [pc, #344]	@ (80018d4 <main+0x308>)
 800177a:	f001 ffbb 	bl	80036f4 <HAL_GPIO_WritePin>
	          	          lcdClrScr();
 800177e:	f7ff fcfb 	bl	8001178 <lcdClrScr>
	          	          lcdFtos(lux, 5);
 8001782:	2005      	movs	r0, #5
 8001784:	ed97 0a02 	vldr	s0, [r7, #8]
 8001788:	f7ff fe86 	bl	8001498 <lcdFtos>
	          adc1Flag = 0;
 800178c:	4b4a      	ldr	r3, [pc, #296]	@ (80018b8 <main+0x2ec>)
 800178e:	2200      	movs	r2, #0
 8001790:	601a      	str	r2, [r3, #0]
	          HAL_ADC_Start_IT(&hadc1);
 8001792:	4846      	ldr	r0, [pc, #280]	@ (80018ac <main+0x2e0>)
 8001794:	f001 f8c8 	bl	8002928 <HAL_ADC_Start_IT>
	    break;
 8001798:	e080      	b.n	800189c <main+0x2d0>

	  case 2:
	  {
 800179a:	466b      	mov	r3, sp
 800179c:	461e      	mov	r6, r3



	  float cel = SHT2x_GetTemperature(1);
 800179e:	2001      	movs	r0, #1
 80017a0:	f000 fc1e 	bl	8001fe0 <SHT2x_GetTemperature>
 80017a4:	ed87 0a0b 	vstr	s0, [r7, #44]	@ 0x2c
	  float rh = SHT2x_GetRelativeHumidity(1);
 80017a8:	2001      	movs	r0, #1
 80017aa:	f000 fc5f 	bl	800206c <SHT2x_GetRelativeHumidity>
 80017ae:	ed87 0a0a 	vstr	s0, [r7, #40]	@ 0x28

	  lcdClrScr();
 80017b2:	f7ff fce1 	bl	8001178 <lcdClrScr>
	  lcdPuts("Temp: ");
 80017b6:	4849      	ldr	r0, [pc, #292]	@ (80018dc <main+0x310>)
 80017b8:	f7ff fda0 	bl	80012fc <lcdPuts>
	  lcdFtos(cel, 3);
 80017bc:	2003      	movs	r0, #3
 80017be:	ed97 0a0b 	vldr	s0, [r7, #44]	@ 0x2c
 80017c2:	f7ff fe69 	bl	8001498 <lcdFtos>
	  lcdPutc(6);
 80017c6:	2006      	movs	r0, #6
 80017c8:	f7ff fd80 	bl	80012cc <lcdPutc>
	  lcdPuts("C\n");
 80017cc:	4844      	ldr	r0, [pc, #272]	@ (80018e0 <main+0x314>)
 80017ce:	f7ff fd95 	bl	80012fc <lcdPuts>
	  lcdPuts("Hum : ");
 80017d2:	4844      	ldr	r0, [pc, #272]	@ (80018e4 <main+0x318>)
 80017d4:	f7ff fd92 	bl	80012fc <lcdPuts>
	  lcdFtos(rh, 3);
 80017d8:	2003      	movs	r0, #3
 80017da:	ed97 0a0a 	vldr	s0, [r7, #40]	@ 0x28
 80017de:	f7ff fe5b 	bl	8001498 <lcdFtos>
	  lcdPuts(" %");
 80017e2:	4841      	ldr	r0, [pc, #260]	@ (80018e8 <main+0x31c>)
 80017e4:	f7ff fd8a 	bl	80012fc <lcdPuts>


	  int len = snprintf(NULL, 0, "temp=%.2f C, hum=%.2f \n", cel, rh);
 80017e8:	6af8      	ldr	r0, [r7, #44]	@ 0x2c
 80017ea:	f7fe fead 	bl	8000548 <__aeabi_f2d>
 80017ee:	4682      	mov	sl, r0
 80017f0:	468b      	mov	fp, r1
 80017f2:	6ab8      	ldr	r0, [r7, #40]	@ 0x28
 80017f4:	f7fe fea8 	bl	8000548 <__aeabi_f2d>
 80017f8:	4602      	mov	r2, r0
 80017fa:	460b      	mov	r3, r1
 80017fc:	e9cd 2302 	strd	r2, r3, [sp, #8]
 8001800:	e9cd ab00 	strd	sl, fp, [sp]
 8001804:	4a39      	ldr	r2, [pc, #228]	@ (80018ec <main+0x320>)
 8001806:	2100      	movs	r1, #0
 8001808:	2000      	movs	r0, #0
 800180a:	f005 fc3b 	bl	8007084 <sniprintf>
 800180e:	6278      	str	r0, [r7, #36]	@ 0x24
	  char tempHumOut[len];
 8001810:	6a79      	ldr	r1, [r7, #36]	@ 0x24
 8001812:	1e4b      	subs	r3, r1, #1
 8001814:	623b      	str	r3, [r7, #32]
 8001816:	460a      	mov	r2, r1
 8001818:	2300      	movs	r3, #0
 800181a:	4614      	mov	r4, r2
 800181c:	461d      	mov	r5, r3
 800181e:	f04f 0200 	mov.w	r2, #0
 8001822:	f04f 0300 	mov.w	r3, #0
 8001826:	00eb      	lsls	r3, r5, #3
 8001828:	ea43 7354 	orr.w	r3, r3, r4, lsr #29
 800182c:	00e2      	lsls	r2, r4, #3
 800182e:	460a      	mov	r2, r1
 8001830:	2300      	movs	r3, #0
 8001832:	4690      	mov	r8, r2
 8001834:	4699      	mov	r9, r3
 8001836:	f04f 0200 	mov.w	r2, #0
 800183a:	f04f 0300 	mov.w	r3, #0
 800183e:	ea4f 03c9 	mov.w	r3, r9, lsl #3
 8001842:	ea43 7358 	orr.w	r3, r3, r8, lsr #29
 8001846:	ea4f 02c8 	mov.w	r2, r8, lsl #3
 800184a:	460b      	mov	r3, r1
 800184c:	3307      	adds	r3, #7
 800184e:	08db      	lsrs	r3, r3, #3
 8001850:	00db      	lsls	r3, r3, #3
 8001852:	ebad 0d03 	sub.w	sp, sp, r3
 8001856:	ab04      	add	r3, sp, #16
 8001858:	3300      	adds	r3, #0
 800185a:	61fb      	str	r3, [r7, #28]
	  sprintf(tempHumOut, "temp=%.2f C, hum=%.2f \r\n", cel, rh);
 800185c:	6af8      	ldr	r0, [r7, #44]	@ 0x2c
 800185e:	f7fe fe73 	bl	8000548 <__aeabi_f2d>
 8001862:	4682      	mov	sl, r0
 8001864:	468b      	mov	fp, r1
 8001866:	6ab8      	ldr	r0, [r7, #40]	@ 0x28
 8001868:	f7fe fe6e 	bl	8000548 <__aeabi_f2d>
 800186c:	4602      	mov	r2, r0
 800186e:	460b      	mov	r3, r1
 8001870:	e9cd 2300 	strd	r2, r3, [sp]
 8001874:	4652      	mov	r2, sl
 8001876:	465b      	mov	r3, fp
 8001878:	491d      	ldr	r1, [pc, #116]	@ (80018f0 <main+0x324>)
 800187a:	69f8      	ldr	r0, [r7, #28]
 800187c:	f005 fc36 	bl	80070ec <siprintf>

	  HAL_UART_Transmit(&huart3, (uint8_t *)tempHumOut, len, 100);
 8001880:	6a7b      	ldr	r3, [r7, #36]	@ 0x24
 8001882:	b29a      	uxth	r2, r3
 8001884:	2364      	movs	r3, #100	@ 0x64
 8001886:	69f9      	ldr	r1, [r7, #28]
 8001888:	481a      	ldr	r0, [pc, #104]	@ (80018f4 <main+0x328>)
 800188a:	f004 fb25 	bl	8005ed8 <HAL_UART_Transmit>

	  HAL_Delay(500);
 800188e:	f44f 70fa 	mov.w	r0, #500	@ 0x1f4
 8001892:	f000 ffe1 	bl	8002858 <HAL_Delay>
	  break;
 8001896:	bf00      	nop
 8001898:	46b5      	mov	sp, r6
 800189a:	e6cd      	b.n	8001638 <main+0x6c>
	    break;
 800189c:	bf00      	nop
  {
 800189e:	e6cb      	b.n	8001638 <main+0x6c>
 80018a0:	20000288 	.word	0x20000288
 80018a4:	20000000 	.word	0x20000000
 80018a8:	20000324 	.word	0x20000324
 80018ac:	200001f8 	.word	0x200001f8
 80018b0:	20000240 	.word	0x20000240
 80018b4:	200003bc 	.word	0x200003bc
 80018b8:	200003b4 	.word	0x200003b4
 80018bc:	40140000 	.word	0x40140000
 80018c0:	40b00000 	.word	0x40b00000
 80018c4:	461c4000 	.word	0x461c4000
 80018c8:	49742400 	.word	0x49742400
 80018cc:	447a0000 	.word	0x447a0000
 80018d0:	40020c00 	.word	0x40020c00
 80018d4:	40021000 	.word	0x40021000
 80018d8:	42c80000 	.word	0x42c80000
 80018dc:	08009360 	.word	0x08009360
 80018e0:	08009368 	.word	0x08009368
 80018e4:	0800936c 	.word	0x0800936c
 80018e8:	08009374 	.word	0x08009374
 80018ec:	08009378 	.word	0x08009378
 80018f0:	08009390 	.word	0x08009390
 80018f4:	2000036c 	.word	0x2000036c

080018f8 <SystemClock_Config>:
/**
  * @brief System Clock Configuration
  * @retval None
  */
void SystemClock_Config(void)
{
 80018f8:	b580      	push	{r7, lr}
 80018fa:	b094      	sub	sp, #80	@ 0x50
 80018fc:	af00      	add	r7, sp, #0
  RCC_OscInitTypeDef RCC_OscInitStruct = {0};
 80018fe:	f107 0320 	add.w	r3, r7, #32
 8001902:	2230      	movs	r2, #48	@ 0x30
 8001904:	2100      	movs	r1, #0
 8001906:	4618      	mov	r0, r3
 8001908:	f005 fc53 	bl	80071b2 <memset>
  RCC_ClkInitTypeDef RCC_ClkInitStruct = {0};
 800190c:	f107 030c 	add.w	r3, r7, #12
 8001910:	2200      	movs	r2, #0
 8001912:	601a      	str	r2, [r3, #0]
 8001914:	605a      	str	r2, [r3, #4]
 8001916:	609a      	str	r2, [r3, #8]
 8001918:	60da      	str	r2, [r3, #12]
 800191a:	611a      	str	r2, [r3, #16]

  /** Configure the main internal regulator output voltage
  */
  __HAL_RCC_PWR_CLK_ENABLE();
 800191c:	2300      	movs	r3, #0
 800191e:	60bb      	str	r3, [r7, #8]
 8001920:	4b22      	ldr	r3, [pc, #136]	@ (80019ac <SystemClock_Config+0xb4>)
 8001922:	6c1b      	ldr	r3, [r3, #64]	@ 0x40
 8001924:	4a21      	ldr	r2, [pc, #132]	@ (80019ac <SystemClock_Config+0xb4>)
 8001926:	f043 5380 	orr.w	r3, r3, #268435456	@ 0x10000000
 800192a:	6413      	str	r3, [r2, #64]	@ 0x40
 800192c:	4b1f      	ldr	r3, [pc, #124]	@ (80019ac <SystemClock_Config+0xb4>)
 800192e:	6c1b      	ldr	r3, [r3, #64]	@ 0x40
 8001930:	f003 5380 	and.w	r3, r3, #268435456	@ 0x10000000
 8001934:	60bb      	str	r3, [r7, #8]
 8001936:	68bb      	ldr	r3, [r7, #8]
  __HAL_PWR_VOLTAGESCALING_CONFIG(PWR_REGULATOR_VOLTAGE_SCALE1);
 8001938:	2300      	movs	r3, #0
 800193a:	607b      	str	r3, [r7, #4]
 800193c:	4b1c      	ldr	r3, [pc, #112]	@ (80019b0 <SystemClock_Config+0xb8>)
 800193e:	681b      	ldr	r3, [r3, #0]
 8001940:	4a1b      	ldr	r2, [pc, #108]	@ (80019b0 <SystemClock_Config+0xb8>)
 8001942:	f443 4380 	orr.w	r3, r3, #16384	@ 0x4000
 8001946:	6013      	str	r3, [r2, #0]
 8001948:	4b19      	ldr	r3, [pc, #100]	@ (80019b0 <SystemClock_Config+0xb8>)
 800194a:	681b      	ldr	r3, [r3, #0]
 800194c:	f403 4380 	and.w	r3, r3, #16384	@ 0x4000
 8001950:	607b      	str	r3, [r7, #4]
 8001952:	687b      	ldr	r3, [r7, #4]

  /** Initializes the RCC Oscillators according to the specified parameters
  * in the RCC_OscInitTypeDef structure.
  */
  RCC_OscInitStruct.OscillatorType = RCC_OSCILLATORTYPE_HSI;
 8001954:	2302      	movs	r3, #2
 8001956:	623b      	str	r3, [r7, #32]
  RCC_OscInitStruct.HSIState = RCC_HSI_ON;
 8001958:	2301      	movs	r3, #1
 800195a:	62fb      	str	r3, [r7, #44]	@ 0x2c
  RCC_OscInitStruct.HSICalibrationValue = RCC_HSICALIBRATION_DEFAULT;
 800195c:	2310      	movs	r3, #16
 800195e:	633b      	str	r3, [r7, #48]	@ 0x30
  RCC_OscInitStruct.PLL.PLLState = RCC_PLL_NONE;
 8001960:	2300      	movs	r3, #0
 8001962:	63bb      	str	r3, [r7, #56]	@ 0x38
  if (HAL_RCC_OscConfig(&RCC_OscInitStruct) != HAL_OK)
 8001964:	f107 0320 	add.w	r3, r7, #32
 8001968:	4618      	mov	r0, r3
 800196a:	f002 fefb 	bl	8004764 <HAL_RCC_OscConfig>
 800196e:	4603      	mov	r3, r0
 8001970:	2b00      	cmp	r3, #0
 8001972:	d001      	beq.n	8001978 <SystemClock_Config+0x80>
  {
    Error_Handler();
 8001974:	f000 fab6 	bl	8001ee4 <Error_Handler>
  }

  /** Initializes the CPU, AHB and APB buses clocks
  */
  RCC_ClkInitStruct.ClockType = RCC_CLOCKTYPE_HCLK|RCC_CLOCKTYPE_SYSCLK
 8001978:	230f      	movs	r3, #15
 800197a:	60fb      	str	r3, [r7, #12]
                              |RCC_CLOCKTYPE_PCLK1|RCC_CLOCKTYPE_PCLK2;
  RCC_ClkInitStruct.SYSCLKSource = RCC_SYSCLKSOURCE_HSI;
 800197c:	2300      	movs	r3, #0
 800197e:	613b      	str	r3, [r7, #16]
  RCC_ClkInitStruct.AHBCLKDivider = RCC_SYSCLK_DIV1;
 8001980:	2300      	movs	r3, #0
 8001982:	617b      	str	r3, [r7, #20]
  RCC_ClkInitStruct.APB1CLKDivider = RCC_HCLK_DIV1;
 8001984:	2300      	movs	r3, #0
 8001986:	61bb      	str	r3, [r7, #24]
  RCC_ClkInitStruct.APB2CLKDivider = RCC_HCLK_DIV1;
 8001988:	2300      	movs	r3, #0
 800198a:	61fb      	str	r3, [r7, #28]

  if (HAL_RCC_ClockConfig(&RCC_ClkInitStruct, FLASH_LATENCY_0) != HAL_OK)
 800198c:	f107 030c 	add.w	r3, r7, #12
 8001990:	2100      	movs	r1, #0
 8001992:	4618      	mov	r0, r3
 8001994:	f003 f95e 	bl	8004c54 <HAL_RCC_ClockConfig>
 8001998:	4603      	mov	r3, r0
 800199a:	2b00      	cmp	r3, #0
 800199c:	d001      	beq.n	80019a2 <SystemClock_Config+0xaa>
  {
    Error_Handler();
 800199e:	f000 faa1 	bl	8001ee4 <Error_Handler>
  }
}
 80019a2:	bf00      	nop
 80019a4:	3750      	adds	r7, #80	@ 0x50
 80019a6:	46bd      	mov	sp, r7
 80019a8:	bd80      	pop	{r7, pc}
 80019aa:	bf00      	nop
 80019ac:	40023800 	.word	0x40023800
 80019b0:	40007000 	.word	0x40007000

080019b4 <MX_ADC1_Init>:
  * @brief ADC1 Initialization Function
  * @param None
  * @retval None
  */
static void MX_ADC1_Init(void)
{
 80019b4:	b580      	push	{r7, lr}
 80019b6:	b084      	sub	sp, #16
 80019b8:	af00      	add	r7, sp, #0

  /* USER CODE BEGIN ADC1_Init 0 */

  /* USER CODE END ADC1_Init 0 */

  ADC_ChannelConfTypeDef sConfig = {0};
 80019ba:	463b      	mov	r3, r7
 80019bc:	2200      	movs	r2, #0
 80019be:	601a      	str	r2, [r3, #0]
 80019c0:	605a      	str	r2, [r3, #4]
 80019c2:	609a      	str	r2, [r3, #8]
 80019c4:	60da      	str	r2, [r3, #12]

  /* USER CODE END ADC1_Init 1 */

  /** Configure the global features of the ADC (Clock, Resolution, Data Alignment and number of conversion)
  */
  hadc1.Instance = ADC1;
 80019c6:	4b21      	ldr	r3, [pc, #132]	@ (8001a4c <MX_ADC1_Init+0x98>)
 80019c8:	4a21      	ldr	r2, [pc, #132]	@ (8001a50 <MX_ADC1_Init+0x9c>)
 80019ca:	601a      	str	r2, [r3, #0]
  hadc1.Init.ClockPrescaler = ADC_CLOCK_SYNC_PCLK_DIV2;
 80019cc:	4b1f      	ldr	r3, [pc, #124]	@ (8001a4c <MX_ADC1_Init+0x98>)
 80019ce:	2200      	movs	r2, #0
 80019d0:	605a      	str	r2, [r3, #4]
  hadc1.Init.Resolution = ADC_RESOLUTION_12B;
 80019d2:	4b1e      	ldr	r3, [pc, #120]	@ (8001a4c <MX_ADC1_Init+0x98>)
 80019d4:	2200      	movs	r2, #0
 80019d6:	609a      	str	r2, [r3, #8]
  hadc1.Init.ScanConvMode = DISABLE;
 80019d8:	4b1c      	ldr	r3, [pc, #112]	@ (8001a4c <MX_ADC1_Init+0x98>)
 80019da:	2200      	movs	r2, #0
 80019dc:	611a      	str	r2, [r3, #16]
  hadc1.Init.ContinuousConvMode = DISABLE;
 80019de:	4b1b      	ldr	r3, [pc, #108]	@ (8001a4c <MX_ADC1_Init+0x98>)
 80019e0:	2200      	movs	r2, #0
 80019e2:	761a      	strb	r2, [r3, #24]
  hadc1.Init.DiscontinuousConvMode = DISABLE;
 80019e4:	4b19      	ldr	r3, [pc, #100]	@ (8001a4c <MX_ADC1_Init+0x98>)
 80019e6:	2200      	movs	r2, #0
 80019e8:	f883 2020 	strb.w	r2, [r3, #32]
  hadc1.Init.ExternalTrigConvEdge = ADC_EXTERNALTRIGCONVEDGE_NONE;
 80019ec:	4b17      	ldr	r3, [pc, #92]	@ (8001a4c <MX_ADC1_Init+0x98>)
 80019ee:	2200      	movs	r2, #0
 80019f0:	62da      	str	r2, [r3, #44]	@ 0x2c
  hadc1.Init.ExternalTrigConv = ADC_SOFTWARE_START;
 80019f2:	4b16      	ldr	r3, [pc, #88]	@ (8001a4c <MX_ADC1_Init+0x98>)
 80019f4:	4a17      	ldr	r2, [pc, #92]	@ (8001a54 <MX_ADC1_Init+0xa0>)
 80019f6:	629a      	str	r2, [r3, #40]	@ 0x28
  hadc1.Init.DataAlign = ADC_DATAALIGN_RIGHT;
 80019f8:	4b14      	ldr	r3, [pc, #80]	@ (8001a4c <MX_ADC1_Init+0x98>)
 80019fa:	2200      	movs	r2, #0
 80019fc:	60da      	str	r2, [r3, #12]
  hadc1.Init.NbrOfConversion = 1;
 80019fe:	4b13      	ldr	r3, [pc, #76]	@ (8001a4c <MX_ADC1_Init+0x98>)
 8001a00:	2201      	movs	r2, #1
 8001a02:	61da      	str	r2, [r3, #28]
  hadc1.Init.DMAContinuousRequests = DISABLE;
 8001a04:	4b11      	ldr	r3, [pc, #68]	@ (8001a4c <MX_ADC1_Init+0x98>)
 8001a06:	2200      	movs	r2, #0
 8001a08:	f883 2030 	strb.w	r2, [r3, #48]	@ 0x30
  hadc1.Init.EOCSelection = ADC_EOC_SINGLE_CONV;
 8001a0c:	4b0f      	ldr	r3, [pc, #60]	@ (8001a4c <MX_ADC1_Init+0x98>)
 8001a0e:	2201      	movs	r2, #1
 8001a10:	615a      	str	r2, [r3, #20]
  if (HAL_ADC_Init(&hadc1) != HAL_OK)
 8001a12:	480e      	ldr	r0, [pc, #56]	@ (8001a4c <MX_ADC1_Init+0x98>)
 8001a14:	f000 ff44 	bl	80028a0 <HAL_ADC_Init>
 8001a18:	4603      	mov	r3, r0
 8001a1a:	2b00      	cmp	r3, #0
 8001a1c:	d001      	beq.n	8001a22 <MX_ADC1_Init+0x6e>
  {
    Error_Handler();
 8001a1e:	f000 fa61 	bl	8001ee4 <Error_Handler>
  }

  /** Configure for the selected ADC regular channel its corresponding rank in the sequencer and its sample time.
  */
  sConfig.Channel = ADC_CHANNEL_3;
 8001a22:	2303      	movs	r3, #3
 8001a24:	603b      	str	r3, [r7, #0]
  sConfig.Rank = 1;
 8001a26:	2301      	movs	r3, #1
 8001a28:	607b      	str	r3, [r7, #4]
  sConfig.SamplingTime = ADC_SAMPLETIME_480CYCLES;
 8001a2a:	2307      	movs	r3, #7
 8001a2c:	60bb      	str	r3, [r7, #8]
  if (HAL_ADC_ConfigChannel(&hadc1, &sConfig) != HAL_OK)
 8001a2e:	463b      	mov	r3, r7
 8001a30:	4619      	mov	r1, r3
 8001a32:	4806      	ldr	r0, [pc, #24]	@ (8001a4c <MX_ADC1_Init+0x98>)
 8001a34:	f001 f988 	bl	8002d48 <HAL_ADC_ConfigChannel>
 8001a38:	4603      	mov	r3, r0
 8001a3a:	2b00      	cmp	r3, #0
 8001a3c:	d001      	beq.n	8001a42 <MX_ADC1_Init+0x8e>
  {
    Error_Handler();
 8001a3e:	f000 fa51 	bl	8001ee4 <Error_Handler>
  }
  /* USER CODE BEGIN ADC1_Init 2 */

  /* USER CODE END ADC1_Init 2 */

}
 8001a42:	bf00      	nop
 8001a44:	3710      	adds	r7, #16
 8001a46:	46bd      	mov	sp, r7
 8001a48:	bd80      	pop	{r7, pc}
 8001a4a:	bf00      	nop
 8001a4c:	200001f8 	.word	0x200001f8
 8001a50:	40012000 	.word	0x40012000
 8001a54:	0f000001 	.word	0x0f000001

08001a58 <MX_ADC2_Init>:
  * @brief ADC2 Initialization Function
  * @param None
  * @retval None
  */
static void MX_ADC2_Init(void)
{
 8001a58:	b580      	push	{r7, lr}
 8001a5a:	b084      	sub	sp, #16
 8001a5c:	af00      	add	r7, sp, #0

  /* USER CODE BEGIN ADC2_Init 0 */

  /* USER CODE END ADC2_Init 0 */

  ADC_ChannelConfTypeDef sConfig = {0};
 8001a5e:	463b      	mov	r3, r7
 8001a60:	2200      	movs	r2, #0
 8001a62:	601a      	str	r2, [r3, #0]
 8001a64:	605a      	str	r2, [r3, #4]
 8001a66:	609a      	str	r2, [r3, #8]
 8001a68:	60da      	str	r2, [r3, #12]

  /* USER CODE END ADC2_Init 1 */

  /** Configure the global features of the ADC (Clock, Resolution, Data Alignment and number of conversion)
  */
  hadc2.Instance = ADC2;
 8001a6a:	4b21      	ldr	r3, [pc, #132]	@ (8001af0 <MX_ADC2_Init+0x98>)
 8001a6c:	4a21      	ldr	r2, [pc, #132]	@ (8001af4 <MX_ADC2_Init+0x9c>)
 8001a6e:	601a      	str	r2, [r3, #0]
  hadc2.Init.ClockPrescaler = ADC_CLOCK_SYNC_PCLK_DIV2;
 8001a70:	4b1f      	ldr	r3, [pc, #124]	@ (8001af0 <MX_ADC2_Init+0x98>)
 8001a72:	2200      	movs	r2, #0
 8001a74:	605a      	str	r2, [r3, #4]
  hadc2.Init.Resolution = ADC_RESOLUTION_12B;
 8001a76:	4b1e      	ldr	r3, [pc, #120]	@ (8001af0 <MX_ADC2_Init+0x98>)
 8001a78:	2200      	movs	r2, #0
 8001a7a:	609a      	str	r2, [r3, #8]
  hadc2.Init.ScanConvMode = DISABLE;
 8001a7c:	4b1c      	ldr	r3, [pc, #112]	@ (8001af0 <MX_ADC2_Init+0x98>)
 8001a7e:	2200      	movs	r2, #0
 8001a80:	611a      	str	r2, [r3, #16]
  hadc2.Init.ContinuousConvMode = DISABLE;
 8001a82:	4b1b      	ldr	r3, [pc, #108]	@ (8001af0 <MX_ADC2_Init+0x98>)
 8001a84:	2200      	movs	r2, #0
 8001a86:	761a      	strb	r2, [r3, #24]
  hadc2.Init.DiscontinuousConvMode = DISABLE;
 8001a88:	4b19      	ldr	r3, [pc, #100]	@ (8001af0 <MX_ADC2_Init+0x98>)
 8001a8a:	2200      	movs	r2, #0
 8001a8c:	f883 2020 	strb.w	r2, [r3, #32]
  hadc2.Init.ExternalTrigConvEdge = ADC_EXTERNALTRIGCONVEDGE_NONE;
 8001a90:	4b17      	ldr	r3, [pc, #92]	@ (8001af0 <MX_ADC2_Init+0x98>)
 8001a92:	2200      	movs	r2, #0
 8001a94:	62da      	str	r2, [r3, #44]	@ 0x2c
  hadc2.Init.ExternalTrigConv = ADC_SOFTWARE_START;
 8001a96:	4b16      	ldr	r3, [pc, #88]	@ (8001af0 <MX_ADC2_Init+0x98>)
 8001a98:	4a17      	ldr	r2, [pc, #92]	@ (8001af8 <MX_ADC2_Init+0xa0>)
 8001a9a:	629a      	str	r2, [r3, #40]	@ 0x28
  hadc2.Init.DataAlign = ADC_DATAALIGN_RIGHT;
 8001a9c:	4b14      	ldr	r3, [pc, #80]	@ (8001af0 <MX_ADC2_Init+0x98>)
 8001a9e:	2200      	movs	r2, #0
 8001aa0:	60da      	str	r2, [r3, #12]
  hadc2.Init.NbrOfConversion = 1;
 8001aa2:	4b13      	ldr	r3, [pc, #76]	@ (8001af0 <MX_ADC2_Init+0x98>)
 8001aa4:	2201      	movs	r2, #1
 8001aa6:	61da      	str	r2, [r3, #28]
  hadc2.Init.DMAContinuousRequests = DISABLE;
 8001aa8:	4b11      	ldr	r3, [pc, #68]	@ (8001af0 <MX_ADC2_Init+0x98>)
 8001aaa:	2200      	movs	r2, #0
 8001aac:	f883 2030 	strb.w	r2, [r3, #48]	@ 0x30
  hadc2.Init.EOCSelection = ADC_EOC_SINGLE_CONV;
 8001ab0:	4b0f      	ldr	r3, [pc, #60]	@ (8001af0 <MX_ADC2_Init+0x98>)
 8001ab2:	2201      	movs	r2, #1
 8001ab4:	615a      	str	r2, [r3, #20]
  if (HAL_ADC_Init(&hadc2) != HAL_OK)
 8001ab6:	480e      	ldr	r0, [pc, #56]	@ (8001af0 <MX_ADC2_Init+0x98>)
 8001ab8:	f000 fef2 	bl	80028a0 <HAL_ADC_Init>
 8001abc:	4603      	mov	r3, r0
 8001abe:	2b00      	cmp	r3, #0
 8001ac0:	d001      	beq.n	8001ac6 <MX_ADC2_Init+0x6e>
  {
    Error_Handler();
 8001ac2:	f000 fa0f 	bl	8001ee4 <Error_Handler>
  }

  /** Configure for the selected ADC regular channel its corresponding rank in the sequencer and its sample time.
  */
  sConfig.Channel = ADC_CHANNEL_0;
 8001ac6:	2300      	movs	r3, #0
 8001ac8:	603b      	str	r3, [r7, #0]
  sConfig.Rank = 1;
 8001aca:	2301      	movs	r3, #1
 8001acc:	607b      	str	r3, [r7, #4]
  sConfig.SamplingTime = ADC_SAMPLETIME_480CYCLES;
 8001ace:	2307      	movs	r3, #7
 8001ad0:	60bb      	str	r3, [r7, #8]
  if (HAL_ADC_ConfigChannel(&hadc2, &sConfig) != HAL_OK)
 8001ad2:	463b      	mov	r3, r7
 8001ad4:	4619      	mov	r1, r3
 8001ad6:	4806      	ldr	r0, [pc, #24]	@ (8001af0 <MX_ADC2_Init+0x98>)
 8001ad8:	f001 f936 	bl	8002d48 <HAL_ADC_ConfigChannel>
 8001adc:	4603      	mov	r3, r0
 8001ade:	2b00      	cmp	r3, #0
 8001ae0:	d001      	beq.n	8001ae6 <MX_ADC2_Init+0x8e>
  {
    Error_Handler();
 8001ae2:	f000 f9ff 	bl	8001ee4 <Error_Handler>
  }
  /* USER CODE BEGIN ADC2_Init 2 */

  /* USER CODE END ADC2_Init 2 */

}
 8001ae6:	bf00      	nop
 8001ae8:	3710      	adds	r7, #16
 8001aea:	46bd      	mov	sp, r7
 8001aec:	bd80      	pop	{r7, pc}
 8001aee:	bf00      	nop
 8001af0:	20000240 	.word	0x20000240
 8001af4:	40012100 	.word	0x40012100
 8001af8:	0f000001 	.word	0x0f000001

08001afc <MX_I2C1_Init>:
  * @brief I2C1 Initialization Function
  * @param None
  * @retval None
  */
static void MX_I2C1_Init(void)
{
 8001afc:	b580      	push	{r7, lr}
 8001afe:	af00      	add	r7, sp, #0
  /* USER CODE END I2C1_Init 0 */

  /* USER CODE BEGIN I2C1_Init 1 */

  /* USER CODE END I2C1_Init 1 */
  hi2c1.Instance = I2C1;
 8001b00:	4b12      	ldr	r3, [pc, #72]	@ (8001b4c <MX_I2C1_Init+0x50>)
 8001b02:	4a13      	ldr	r2, [pc, #76]	@ (8001b50 <MX_I2C1_Init+0x54>)
 8001b04:	601a      	str	r2, [r3, #0]
  hi2c1.Init.ClockSpeed = 100000;
 8001b06:	4b11      	ldr	r3, [pc, #68]	@ (8001b4c <MX_I2C1_Init+0x50>)
 8001b08:	4a12      	ldr	r2, [pc, #72]	@ (8001b54 <MX_I2C1_Init+0x58>)
 8001b0a:	605a      	str	r2, [r3, #4]
  hi2c1.Init.DutyCycle = I2C_DUTYCYCLE_2;
 8001b0c:	4b0f      	ldr	r3, [pc, #60]	@ (8001b4c <MX_I2C1_Init+0x50>)
 8001b0e:	2200      	movs	r2, #0
 8001b10:	609a      	str	r2, [r3, #8]
  hi2c1.Init.OwnAddress1 = 0;
 8001b12:	4b0e      	ldr	r3, [pc, #56]	@ (8001b4c <MX_I2C1_Init+0x50>)
 8001b14:	2200      	movs	r2, #0
 8001b16:	60da      	str	r2, [r3, #12]
  hi2c1.Init.AddressingMode = I2C_ADDRESSINGMODE_7BIT;
 8001b18:	4b0c      	ldr	r3, [pc, #48]	@ (8001b4c <MX_I2C1_Init+0x50>)
 8001b1a:	f44f 4280 	mov.w	r2, #16384	@ 0x4000
 8001b1e:	611a      	str	r2, [r3, #16]
  hi2c1.Init.DualAddressMode = I2C_DUALADDRESS_DISABLE;
 8001b20:	4b0a      	ldr	r3, [pc, #40]	@ (8001b4c <MX_I2C1_Init+0x50>)
 8001b22:	2200      	movs	r2, #0
 8001b24:	615a      	str	r2, [r3, #20]
  hi2c1.Init.OwnAddress2 = 0;
 8001b26:	4b09      	ldr	r3, [pc, #36]	@ (8001b4c <MX_I2C1_Init+0x50>)
 8001b28:	2200      	movs	r2, #0
 8001b2a:	619a      	str	r2, [r3, #24]
  hi2c1.Init.GeneralCallMode = I2C_GENERALCALL_DISABLE;
 8001b2c:	4b07      	ldr	r3, [pc, #28]	@ (8001b4c <MX_I2C1_Init+0x50>)
 8001b2e:	2200      	movs	r2, #0
 8001b30:	61da      	str	r2, [r3, #28]
  hi2c1.Init.NoStretchMode = I2C_NOSTRETCH_DISABLE;
 8001b32:	4b06      	ldr	r3, [pc, #24]	@ (8001b4c <MX_I2C1_Init+0x50>)
 8001b34:	2200      	movs	r2, #0
 8001b36:	621a      	str	r2, [r3, #32]
  if (HAL_I2C_Init(&hi2c1) != HAL_OK)
 8001b38:	4804      	ldr	r0, [pc, #16]	@ (8001b4c <MX_I2C1_Init+0x50>)
 8001b3a:	f001 fe19 	bl	8003770 <HAL_I2C_Init>
 8001b3e:	4603      	mov	r3, r0
 8001b40:	2b00      	cmp	r3, #0
 8001b42:	d001      	beq.n	8001b48 <MX_I2C1_Init+0x4c>
  {
    Error_Handler();
 8001b44:	f000 f9ce 	bl	8001ee4 <Error_Handler>
  }
  /* USER CODE BEGIN I2C1_Init 2 */

  /* USER CODE END I2C1_Init 2 */

}
 8001b48:	bf00      	nop
 8001b4a:	bd80      	pop	{r7, pc}
 8001b4c:	20000288 	.word	0x20000288
 8001b50:	40005400 	.word	0x40005400
 8001b54:	000186a0 	.word	0x000186a0

08001b58 <MX_TIM1_Init>:
  * @brief TIM1 Initialization Function
  * @param None
  * @retval None
  */
static void MX_TIM1_Init(void)
{
 8001b58:	b580      	push	{r7, lr}
 8001b5a:	b086      	sub	sp, #24
 8001b5c:	af00      	add	r7, sp, #0

  /* USER CODE BEGIN TIM1_Init 0 */

  /* USER CODE END TIM1_Init 0 */

  TIM_MasterConfigTypeDef sMasterConfig = {0};
 8001b5e:	f107 0310 	add.w	r3, r7, #16
 8001b62:	2200      	movs	r2, #0
 8001b64:	601a      	str	r2, [r3, #0]
 8001b66:	605a      	str	r2, [r3, #4]
  TIM_IC_InitTypeDef sConfigIC = {0};
 8001b68:	463b      	mov	r3, r7
 8001b6a:	2200      	movs	r2, #0
 8001b6c:	601a      	str	r2, [r3, #0]
 8001b6e:	605a      	str	r2, [r3, #4]
 8001b70:	609a      	str	r2, [r3, #8]
 8001b72:	60da      	str	r2, [r3, #12]

  /* USER CODE BEGIN TIM1_Init 1 */

  /* USER CODE END TIM1_Init 1 */
  htim1.Instance = TIM1;
 8001b74:	4b21      	ldr	r3, [pc, #132]	@ (8001bfc <MX_TIM1_Init+0xa4>)
 8001b76:	4a22      	ldr	r2, [pc, #136]	@ (8001c00 <MX_TIM1_Init+0xa8>)
 8001b78:	601a      	str	r2, [r3, #0]
  htim1.Init.Prescaler = 16-1;
 8001b7a:	4b20      	ldr	r3, [pc, #128]	@ (8001bfc <MX_TIM1_Init+0xa4>)
 8001b7c:	220f      	movs	r2, #15
 8001b7e:	605a      	str	r2, [r3, #4]
  htim1.Init.CounterMode = TIM_COUNTERMODE_UP;
 8001b80:	4b1e      	ldr	r3, [pc, #120]	@ (8001bfc <MX_TIM1_Init+0xa4>)
 8001b82:	2200      	movs	r2, #0
 8001b84:	609a      	str	r2, [r3, #8]
  htim1.Init.Period = 65535;
 8001b86:	4b1d      	ldr	r3, [pc, #116]	@ (8001bfc <MX_TIM1_Init+0xa4>)
 8001b88:	f64f 72ff 	movw	r2, #65535	@ 0xffff
 8001b8c:	60da      	str	r2, [r3, #12]
  htim1.Init.ClockDivision = TIM_CLOCKDIVISION_DIV1;
 8001b8e:	4b1b      	ldr	r3, [pc, #108]	@ (8001bfc <MX_TIM1_Init+0xa4>)
 8001b90:	2200      	movs	r2, #0
 8001b92:	611a      	str	r2, [r3, #16]
  htim1.Init.RepetitionCounter = 0;
 8001b94:	4b19      	ldr	r3, [pc, #100]	@ (8001bfc <MX_TIM1_Init+0xa4>)
 8001b96:	2200      	movs	r2, #0
 8001b98:	615a      	str	r2, [r3, #20]
  htim1.Init.AutoReloadPreload = TIM_AUTORELOAD_PRELOAD_DISABLE;
 8001b9a:	4b18      	ldr	r3, [pc, #96]	@ (8001bfc <MX_TIM1_Init+0xa4>)
 8001b9c:	2200      	movs	r2, #0
 8001b9e:	619a      	str	r2, [r3, #24]
  if (HAL_TIM_IC_Init(&htim1) != HAL_OK)
 8001ba0:	4816      	ldr	r0, [pc, #88]	@ (8001bfc <MX_TIM1_Init+0xa4>)
 8001ba2:	f003 fb4f 	bl	8005244 <HAL_TIM_IC_Init>
 8001ba6:	4603      	mov	r3, r0
 8001ba8:	2b00      	cmp	r3, #0
 8001baa:	d001      	beq.n	8001bb0 <MX_TIM1_Init+0x58>
  {
    Error_Handler();
 8001bac:	f000 f99a 	bl	8001ee4 <Error_Handler>
  }
  sMasterConfig.MasterOutputTrigger = TIM_TRGO_RESET;
 8001bb0:	2300      	movs	r3, #0
 8001bb2:	613b      	str	r3, [r7, #16]
  sMasterConfig.MasterSlaveMode = TIM_MASTERSLAVEMODE_DISABLE;
 8001bb4:	2300      	movs	r3, #0
 8001bb6:	617b      	str	r3, [r7, #20]
  if (HAL_TIMEx_MasterConfigSynchronization(&htim1, &sMasterConfig) != HAL_OK)
 8001bb8:	f107 0310 	add.w	r3, r7, #16
 8001bbc:	4619      	mov	r1, r3
 8001bbe:	480f      	ldr	r0, [pc, #60]	@ (8001bfc <MX_TIM1_Init+0xa4>)
 8001bc0:	f004 f8aa 	bl	8005d18 <HAL_TIMEx_MasterConfigSynchronization>
 8001bc4:	4603      	mov	r3, r0
 8001bc6:	2b00      	cmp	r3, #0
 8001bc8:	d001      	beq.n	8001bce <MX_TIM1_Init+0x76>
  {
    Error_Handler();
 8001bca:	f000 f98b 	bl	8001ee4 <Error_Handler>
  }
  sConfigIC.ICPolarity = TIM_INPUTCHANNELPOLARITY_RISING;
 8001bce:	2300      	movs	r3, #0
 8001bd0:	603b      	str	r3, [r7, #0]
  sConfigIC.ICSelection = TIM_ICSELECTION_DIRECTTI;
 8001bd2:	2301      	movs	r3, #1
 8001bd4:	607b      	str	r3, [r7, #4]
  sConfigIC.ICPrescaler = TIM_ICPSC_DIV1;
 8001bd6:	2300      	movs	r3, #0
 8001bd8:	60bb      	str	r3, [r7, #8]
  sConfigIC.ICFilter = 0;
 8001bda:	2300      	movs	r3, #0
 8001bdc:	60fb      	str	r3, [r7, #12]
  if (HAL_TIM_IC_ConfigChannel(&htim1, &sConfigIC, TIM_CHANNEL_2) != HAL_OK)
 8001bde:	463b      	mov	r3, r7
 8001be0:	2204      	movs	r2, #4
 8001be2:	4619      	mov	r1, r3
 8001be4:	4805      	ldr	r0, [pc, #20]	@ (8001bfc <MX_TIM1_Init+0xa4>)
 8001be6:	f003 fc6c 	bl	80054c2 <HAL_TIM_IC_ConfigChannel>
 8001bea:	4603      	mov	r3, r0
 8001bec:	2b00      	cmp	r3, #0
 8001bee:	d001      	beq.n	8001bf4 <MX_TIM1_Init+0x9c>
  {
    Error_Handler();
 8001bf0:	f000 f978 	bl	8001ee4 <Error_Handler>
  }
  /* USER CODE BEGIN TIM1_Init 2 */

  /* USER CODE END TIM1_Init 2 */

}
 8001bf4:	bf00      	nop
 8001bf6:	3718      	adds	r7, #24
 8001bf8:	46bd      	mov	sp, r7
 8001bfa:	bd80      	pop	{r7, pc}
 8001bfc:	200002dc 	.word	0x200002dc
 8001c00:	40010000 	.word	0x40010000

08001c04 <MX_TIM4_Init>:
  * @brief TIM4 Initialization Function
  * @param None
  * @retval None
  */
static void MX_TIM4_Init(void)
{
 8001c04:	b580      	push	{r7, lr}
 8001c06:	b086      	sub	sp, #24
 8001c08:	af00      	add	r7, sp, #0

  /* USER CODE BEGIN TIM4_Init 0 */

  /* USER CODE END TIM4_Init 0 */

  TIM_ClockConfigTypeDef sClockSourceConfig = {0};
 8001c0a:	f107 0308 	add.w	r3, r7, #8
 8001c0e:	2200      	movs	r2, #0
 8001c10:	601a      	str	r2, [r3, #0]
 8001c12:	605a      	str	r2, [r3, #4]
 8001c14:	609a      	str	r2, [r3, #8]
 8001c16:	60da      	str	r2, [r3, #12]
  TIM_MasterConfigTypeDef sMasterConfig = {0};
 8001c18:	463b      	mov	r3, r7
 8001c1a:	2200      	movs	r2, #0
 8001c1c:	601a      	str	r2, [r3, #0]
 8001c1e:	605a      	str	r2, [r3, #4]

  /* USER CODE BEGIN TIM4_Init 1 */

  /* USER CODE END TIM4_Init 1 */
  htim4.Instance = TIM4;
 8001c20:	4b1d      	ldr	r3, [pc, #116]	@ (8001c98 <MX_TIM4_Init+0x94>)
 8001c22:	4a1e      	ldr	r2, [pc, #120]	@ (8001c9c <MX_TIM4_Init+0x98>)
 8001c24:	601a      	str	r2, [r3, #0]
  htim4.Init.Prescaler = 0;
 8001c26:	4b1c      	ldr	r3, [pc, #112]	@ (8001c98 <MX_TIM4_Init+0x94>)
 8001c28:	2200      	movs	r2, #0
 8001c2a:	605a      	str	r2, [r3, #4]
  htim4.Init.CounterMode = TIM_COUNTERMODE_UP;
 8001c2c:	4b1a      	ldr	r3, [pc, #104]	@ (8001c98 <MX_TIM4_Init+0x94>)
 8001c2e:	2200      	movs	r2, #0
 8001c30:	609a      	str	r2, [r3, #8]
  htim4.Init.Period = 65535;
 8001c32:	4b19      	ldr	r3, [pc, #100]	@ (8001c98 <MX_TIM4_Init+0x94>)
 8001c34:	f64f 72ff 	movw	r2, #65535	@ 0xffff
 8001c38:	60da      	str	r2, [r3, #12]
  htim4.Init.ClockDivision = TIM_CLOCKDIVISION_DIV1;
 8001c3a:	4b17      	ldr	r3, [pc, #92]	@ (8001c98 <MX_TIM4_Init+0x94>)
 8001c3c:	2200      	movs	r2, #0
 8001c3e:	611a      	str	r2, [r3, #16]
  htim4.Init.AutoReloadPreload = TIM_AUTORELOAD_PRELOAD_DISABLE;
 8001c40:	4b15      	ldr	r3, [pc, #84]	@ (8001c98 <MX_TIM4_Init+0x94>)
 8001c42:	2200      	movs	r2, #0
 8001c44:	619a      	str	r2, [r3, #24]
  if (HAL_TIM_Base_Init(&htim4) != HAL_OK)
 8001c46:	4814      	ldr	r0, [pc, #80]	@ (8001c98 <MX_TIM4_Init+0x94>)
 8001c48:	f003 f9e4 	bl	8005014 <HAL_TIM_Base_Init>
 8001c4c:	4603      	mov	r3, r0
 8001c4e:	2b00      	cmp	r3, #0
 8001c50:	d001      	beq.n	8001c56 <MX_TIM4_Init+0x52>
  {
    Error_Handler();
 8001c52:	f000 f947 	bl	8001ee4 <Error_Handler>
  }
  sClockSourceConfig.ClockSource = TIM_CLOCKSOURCE_INTERNAL;
 8001c56:	f44f 5380 	mov.w	r3, #4096	@ 0x1000
 8001c5a:	60bb      	str	r3, [r7, #8]
  if (HAL_TIM_ConfigClockSource(&htim4, &sClockSourceConfig) != HAL_OK)
 8001c5c:	f107 0308 	add.w	r3, r7, #8
 8001c60:	4619      	mov	r1, r3
 8001c62:	480d      	ldr	r0, [pc, #52]	@ (8001c98 <MX_TIM4_Init+0x94>)
 8001c64:	f003 fcc9 	bl	80055fa <HAL_TIM_ConfigClockSource>
 8001c68:	4603      	mov	r3, r0
 8001c6a:	2b00      	cmp	r3, #0
 8001c6c:	d001      	beq.n	8001c72 <MX_TIM4_Init+0x6e>
  {
    Error_Handler();
 8001c6e:	f000 f939 	bl	8001ee4 <Error_Handler>
  }
  sMasterConfig.MasterOutputTrigger = TIM_TRGO_RESET;
 8001c72:	2300      	movs	r3, #0
 8001c74:	603b      	str	r3, [r7, #0]
  sMasterConfig.MasterSlaveMode = TIM_MASTERSLAVEMODE_DISABLE;
 8001c76:	2300      	movs	r3, #0
 8001c78:	607b      	str	r3, [r7, #4]
  if (HAL_TIMEx_MasterConfigSynchronization(&htim4, &sMasterConfig) != HAL_OK)
 8001c7a:	463b      	mov	r3, r7
 8001c7c:	4619      	mov	r1, r3
 8001c7e:	4806      	ldr	r0, [pc, #24]	@ (8001c98 <MX_TIM4_Init+0x94>)
 8001c80:	f004 f84a 	bl	8005d18 <HAL_TIMEx_MasterConfigSynchronization>
 8001c84:	4603      	mov	r3, r0
 8001c86:	2b00      	cmp	r3, #0
 8001c88:	d001      	beq.n	8001c8e <MX_TIM4_Init+0x8a>
  {
    Error_Handler();
 8001c8a:	f000 f92b 	bl	8001ee4 <Error_Handler>
  }
  /* USER CODE BEGIN TIM4_Init 2 */

  /* USER CODE END TIM4_Init 2 */

}
 8001c8e:	bf00      	nop
 8001c90:	3718      	adds	r7, #24
 8001c92:	46bd      	mov	sp, r7
 8001c94:	bd80      	pop	{r7, pc}
 8001c96:	bf00      	nop
 8001c98:	20000324 	.word	0x20000324
 8001c9c:	40000800 	.word	0x40000800

08001ca0 <MX_USART3_UART_Init>:
  * @brief USART3 Initialization Function
  * @param None
  * @retval None
  */
static void MX_USART3_UART_Init(void)
{
 8001ca0:	b580      	push	{r7, lr}
 8001ca2:	af00      	add	r7, sp, #0
  /* USER CODE END USART3_Init 0 */

  /* USER CODE BEGIN USART3_Init 1 */

  /* USER CODE END USART3_Init 1 */
  huart3.Instance = USART3;
 8001ca4:	4b11      	ldr	r3, [pc, #68]	@ (8001cec <MX_USART3_UART_Init+0x4c>)
 8001ca6:	4a12      	ldr	r2, [pc, #72]	@ (8001cf0 <MX_USART3_UART_Init+0x50>)
 8001ca8:	601a      	str	r2, [r3, #0]
  huart3.Init.BaudRate = 115200;
 8001caa:	4b10      	ldr	r3, [pc, #64]	@ (8001cec <MX_USART3_UART_Init+0x4c>)
 8001cac:	f44f 32e1 	mov.w	r2, #115200	@ 0x1c200
 8001cb0:	605a      	str	r2, [r3, #4]
  huart3.Init.WordLength = UART_WORDLENGTH_8B;
 8001cb2:	4b0e      	ldr	r3, [pc, #56]	@ (8001cec <MX_USART3_UART_Init+0x4c>)
 8001cb4:	2200      	movs	r2, #0
 8001cb6:	609a      	str	r2, [r3, #8]
  huart3.Init.StopBits = UART_STOPBITS_1;
 8001cb8:	4b0c      	ldr	r3, [pc, #48]	@ (8001cec <MX_USART3_UART_Init+0x4c>)
 8001cba:	2200      	movs	r2, #0
 8001cbc:	60da      	str	r2, [r3, #12]
  huart3.Init.Parity = UART_PARITY_NONE;
 8001cbe:	4b0b      	ldr	r3, [pc, #44]	@ (8001cec <MX_USART3_UART_Init+0x4c>)
 8001cc0:	2200      	movs	r2, #0
 8001cc2:	611a      	str	r2, [r3, #16]
  huart3.Init.Mode = UART_MODE_TX;
 8001cc4:	4b09      	ldr	r3, [pc, #36]	@ (8001cec <MX_USART3_UART_Init+0x4c>)
 8001cc6:	2208      	movs	r2, #8
 8001cc8:	615a      	str	r2, [r3, #20]
  huart3.Init.HwFlowCtl = UART_HWCONTROL_NONE;
 8001cca:	4b08      	ldr	r3, [pc, #32]	@ (8001cec <MX_USART3_UART_Init+0x4c>)
 8001ccc:	2200      	movs	r2, #0
 8001cce:	619a      	str	r2, [r3, #24]
  huart3.Init.OverSampling = UART_OVERSAMPLING_16;
 8001cd0:	4b06      	ldr	r3, [pc, #24]	@ (8001cec <MX_USART3_UART_Init+0x4c>)
 8001cd2:	2200      	movs	r2, #0
 8001cd4:	61da      	str	r2, [r3, #28]
  if (HAL_UART_Init(&huart3) != HAL_OK)
 8001cd6:	4805      	ldr	r0, [pc, #20]	@ (8001cec <MX_USART3_UART_Init+0x4c>)
 8001cd8:	f004 f8ae 	bl	8005e38 <HAL_UART_Init>
 8001cdc:	4603      	mov	r3, r0
 8001cde:	2b00      	cmp	r3, #0
 8001ce0:	d001      	beq.n	8001ce6 <MX_USART3_UART_Init+0x46>
  {
    Error_Handler();
 8001ce2:	f000 f8ff 	bl	8001ee4 <Error_Handler>
  }
  /* USER CODE BEGIN USART3_Init 2 */

  /* USER CODE END USART3_Init 2 */

}
 8001ce6:	bf00      	nop
 8001ce8:	bd80      	pop	{r7, pc}
 8001cea:	bf00      	nop
 8001cec:	2000036c 	.word	0x2000036c
 8001cf0:	40004800 	.word	0x40004800

08001cf4 <MX_GPIO_Init>:
  * @brief GPIO Initialization Function
  * @param None
  * @retval None
  */
static void MX_GPIO_Init(void)
{
 8001cf4:	b580      	push	{r7, lr}
 8001cf6:	b08a      	sub	sp, #40	@ 0x28
 8001cf8:	af00      	add	r7, sp, #0
  GPIO_InitTypeDef GPIO_InitStruct = {0};
 8001cfa:	f107 0314 	add.w	r3, r7, #20
 8001cfe:	2200      	movs	r2, #0
 8001d00:	601a      	str	r2, [r3, #0]
 8001d02:	605a      	str	r2, [r3, #4]
 8001d04:	609a      	str	r2, [r3, #8]
 8001d06:	60da      	str	r2, [r3, #12]
 8001d08:	611a      	str	r2, [r3, #16]
/* USER CODE BEGIN MX_GPIO_Init_1 */
/* USER CODE END MX_GPIO_Init_1 */

  /* GPIO Ports Clock Enable */
  __HAL_RCC_GPIOE_CLK_ENABLE();
 8001d0a:	2300      	movs	r3, #0
 8001d0c:	613b      	str	r3, [r7, #16]
 8001d0e:	4b5e      	ldr	r3, [pc, #376]	@ (8001e88 <MX_GPIO_Init+0x194>)
 8001d10:	6b1b      	ldr	r3, [r3, #48]	@ 0x30
 8001d12:	4a5d      	ldr	r2, [pc, #372]	@ (8001e88 <MX_GPIO_Init+0x194>)
 8001d14:	f043 0310 	orr.w	r3, r3, #16
 8001d18:	6313      	str	r3, [r2, #48]	@ 0x30
 8001d1a:	4b5b      	ldr	r3, [pc, #364]	@ (8001e88 <MX_GPIO_Init+0x194>)
 8001d1c:	6b1b      	ldr	r3, [r3, #48]	@ 0x30
 8001d1e:	f003 0310 	and.w	r3, r3, #16
 8001d22:	613b      	str	r3, [r7, #16]
 8001d24:	693b      	ldr	r3, [r7, #16]
  __HAL_RCC_GPIOH_CLK_ENABLE();
 8001d26:	2300      	movs	r3, #0
 8001d28:	60fb      	str	r3, [r7, #12]
 8001d2a:	4b57      	ldr	r3, [pc, #348]	@ (8001e88 <MX_GPIO_Init+0x194>)
 8001d2c:	6b1b      	ldr	r3, [r3, #48]	@ 0x30
 8001d2e:	4a56      	ldr	r2, [pc, #344]	@ (8001e88 <MX_GPIO_Init+0x194>)
 8001d30:	f043 0380 	orr.w	r3, r3, #128	@ 0x80
 8001d34:	6313      	str	r3, [r2, #48]	@ 0x30
 8001d36:	4b54      	ldr	r3, [pc, #336]	@ (8001e88 <MX_GPIO_Init+0x194>)
 8001d38:	6b1b      	ldr	r3, [r3, #48]	@ 0x30
 8001d3a:	f003 0380 	and.w	r3, r3, #128	@ 0x80
 8001d3e:	60fb      	str	r3, [r7, #12]
 8001d40:	68fb      	ldr	r3, [r7, #12]
  __HAL_RCC_GPIOA_CLK_ENABLE();
 8001d42:	2300      	movs	r3, #0
 8001d44:	60bb      	str	r3, [r7, #8]
 8001d46:	4b50      	ldr	r3, [pc, #320]	@ (8001e88 <MX_GPIO_Init+0x194>)
 8001d48:	6b1b      	ldr	r3, [r3, #48]	@ 0x30
 8001d4a:	4a4f      	ldr	r2, [pc, #316]	@ (8001e88 <MX_GPIO_Init+0x194>)
 8001d4c:	f043 0301 	orr.w	r3, r3, #1
 8001d50:	6313      	str	r3, [r2, #48]	@ 0x30
 8001d52:	4b4d      	ldr	r3, [pc, #308]	@ (8001e88 <MX_GPIO_Init+0x194>)
 8001d54:	6b1b      	ldr	r3, [r3, #48]	@ 0x30
 8001d56:	f003 0301 	and.w	r3, r3, #1
 8001d5a:	60bb      	str	r3, [r7, #8]
 8001d5c:	68bb      	ldr	r3, [r7, #8]
  __HAL_RCC_GPIOB_CLK_ENABLE();
 8001d5e:	2300      	movs	r3, #0
 8001d60:	607b      	str	r3, [r7, #4]
 8001d62:	4b49      	ldr	r3, [pc, #292]	@ (8001e88 <MX_GPIO_Init+0x194>)
 8001d64:	6b1b      	ldr	r3, [r3, #48]	@ 0x30
 8001d66:	4a48      	ldr	r2, [pc, #288]	@ (8001e88 <MX_GPIO_Init+0x194>)
 8001d68:	f043 0302 	orr.w	r3, r3, #2
 8001d6c:	6313      	str	r3, [r2, #48]	@ 0x30
 8001d6e:	4b46      	ldr	r3, [pc, #280]	@ (8001e88 <MX_GPIO_Init+0x194>)
 8001d70:	6b1b      	ldr	r3, [r3, #48]	@ 0x30
 8001d72:	f003 0302 	and.w	r3, r3, #2
 8001d76:	607b      	str	r3, [r7, #4]
 8001d78:	687b      	ldr	r3, [r7, #4]
  __HAL_RCC_GPIOD_CLK_ENABLE();
 8001d7a:	2300      	movs	r3, #0
 8001d7c:	603b      	str	r3, [r7, #0]
 8001d7e:	4b42      	ldr	r3, [pc, #264]	@ (8001e88 <MX_GPIO_Init+0x194>)
 8001d80:	6b1b      	ldr	r3, [r3, #48]	@ 0x30
 8001d82:	4a41      	ldr	r2, [pc, #260]	@ (8001e88 <MX_GPIO_Init+0x194>)
 8001d84:	f043 0308 	orr.w	r3, r3, #8
 8001d88:	6313      	str	r3, [r2, #48]	@ 0x30
 8001d8a:	4b3f      	ldr	r3, [pc, #252]	@ (8001e88 <MX_GPIO_Init+0x194>)
 8001d8c:	6b1b      	ldr	r3, [r3, #48]	@ 0x30
 8001d8e:	f003 0308 	and.w	r3, r3, #8
 8001d92:	603b      	str	r3, [r7, #0]
 8001d94:	683b      	ldr	r3, [r7, #0]

  /*Configure GPIO pin Output Level */
  HAL_GPIO_WritePin(GPIOE, GPIO_PIN_5|LCD_RS_Pin|LCD_RW_Pin|LCD_E_Pin
 8001d96:	2200      	movs	r2, #0
 8001d98:	f64f 41a0 	movw	r1, #64672	@ 0xfca0
 8001d9c:	483b      	ldr	r0, [pc, #236]	@ (8001e8c <MX_GPIO_Init+0x198>)
 8001d9e:	f001 fca9 	bl	80036f4 <HAL_GPIO_WritePin>
                          |LCD_D4_Pin|LCD_D5_Pin|LCD_D6_Pin|LCD_D7_Pin, GPIO_PIN_RESET);

  /*Configure GPIO pin Output Level */
  HAL_GPIO_WritePin(GPIOA, GPIO_PIN_1, GPIO_PIN_RESET);
 8001da2:	2200      	movs	r2, #0
 8001da4:	2102      	movs	r1, #2
 8001da6:	483a      	ldr	r0, [pc, #232]	@ (8001e90 <MX_GPIO_Init+0x19c>)
 8001da8:	f001 fca4 	bl	80036f4 <HAL_GPIO_WritePin>

  /*Configure GPIO pin Output Level */
  HAL_GPIO_WritePin(GPIOB, GPIO_PIN_11, GPIO_PIN_RESET);
 8001dac:	2200      	movs	r2, #0
 8001dae:	f44f 6100 	mov.w	r1, #2048	@ 0x800
 8001db2:	4838      	ldr	r0, [pc, #224]	@ (8001e94 <MX_GPIO_Init+0x1a0>)
 8001db4:	f001 fc9e 	bl	80036f4 <HAL_GPIO_WritePin>

  /*Configure GPIO pin Output Level */
  HAL_GPIO_WritePin(GPIOD, GPIO_PIN_12|GPIO_PIN_13|GPIO_PIN_14|GPIO_PIN_15, GPIO_PIN_RESET);
 8001db8:	2200      	movs	r2, #0
 8001dba:	f44f 4170 	mov.w	r1, #61440	@ 0xf000
 8001dbe:	4836      	ldr	r0, [pc, #216]	@ (8001e98 <MX_GPIO_Init+0x1a4>)
 8001dc0:	f001 fc98 	bl	80036f4 <HAL_GPIO_WritePin>

  /*Configure GPIO pins : PE5 LCD_RS_Pin LCD_RW_Pin LCD_E_Pin
                           LCD_D4_Pin LCD_D5_Pin LCD_D6_Pin LCD_D7_Pin */
  GPIO_InitStruct.Pin = GPIO_PIN_5|LCD_RS_Pin|LCD_RW_Pin|LCD_E_Pin
 8001dc4:	f64f 43a0 	movw	r3, #64672	@ 0xfca0
 8001dc8:	617b      	str	r3, [r7, #20]
                          |LCD_D4_Pin|LCD_D5_Pin|LCD_D6_Pin|LCD_D7_Pin;
  GPIO_InitStruct.Mode = GPIO_MODE_OUTPUT_PP;
 8001dca:	2301      	movs	r3, #1
 8001dcc:	61bb      	str	r3, [r7, #24]
  GPIO_InitStruct.Pull = GPIO_NOPULL;
 8001dce:	2300      	movs	r3, #0
 8001dd0:	61fb      	str	r3, [r7, #28]
  GPIO_InitStruct.Speed = GPIO_SPEED_FREQ_LOW;
 8001dd2:	2300      	movs	r3, #0
 8001dd4:	623b      	str	r3, [r7, #32]
  HAL_GPIO_Init(GPIOE, &GPIO_InitStruct);
 8001dd6:	f107 0314 	add.w	r3, r7, #20
 8001dda:	4619      	mov	r1, r3
 8001ddc:	482b      	ldr	r0, [pc, #172]	@ (8001e8c <MX_GPIO_Init+0x198>)
 8001dde:	f001 faed 	bl	80033bc <HAL_GPIO_Init>

  /*Configure GPIO pin : PA1 */
  GPIO_InitStruct.Pin = GPIO_PIN_1;
 8001de2:	2302      	movs	r3, #2
 8001de4:	617b      	str	r3, [r7, #20]
  GPIO_InitStruct.Mode = GPIO_MODE_OUTPUT_PP;
 8001de6:	2301      	movs	r3, #1
 8001de8:	61bb      	str	r3, [r7, #24]
  GPIO_InitStruct.Pull = GPIO_NOPULL;
 8001dea:	2300      	movs	r3, #0
 8001dec:	61fb      	str	r3, [r7, #28]
  GPIO_InitStruct.Speed = GPIO_SPEED_FREQ_LOW;
 8001dee:	2300      	movs	r3, #0
 8001df0:	623b      	str	r3, [r7, #32]
  HAL_GPIO_Init(GPIOA, &GPIO_InitStruct);
 8001df2:	f107 0314 	add.w	r3, r7, #20
 8001df6:	4619      	mov	r1, r3
 8001df8:	4825      	ldr	r0, [pc, #148]	@ (8001e90 <MX_GPIO_Init+0x19c>)
 8001dfa:	f001 fadf 	bl	80033bc <HAL_GPIO_Init>

  /*Configure GPIO pin : PE8 */
  GPIO_InitStruct.Pin = GPIO_PIN_8;
 8001dfe:	f44f 7380 	mov.w	r3, #256	@ 0x100
 8001e02:	617b      	str	r3, [r7, #20]
  GPIO_InitStruct.Mode = GPIO_MODE_INPUT;
 8001e04:	2300      	movs	r3, #0
 8001e06:	61bb      	str	r3, [r7, #24]
  GPIO_InitStruct.Pull = GPIO_NOPULL;
 8001e08:	2300      	movs	r3, #0
 8001e0a:	61fb      	str	r3, [r7, #28]
  HAL_GPIO_Init(GPIOE, &GPIO_InitStruct);
 8001e0c:	f107 0314 	add.w	r3, r7, #20
 8001e10:	4619      	mov	r1, r3
 8001e12:	481e      	ldr	r0, [pc, #120]	@ (8001e8c <MX_GPIO_Init+0x198>)
 8001e14:	f001 fad2 	bl	80033bc <HAL_GPIO_Init>

  /*Configure GPIO pin : PB11 */
  GPIO_InitStruct.Pin = GPIO_PIN_11;
 8001e18:	f44f 6300 	mov.w	r3, #2048	@ 0x800
 8001e1c:	617b      	str	r3, [r7, #20]
  GPIO_InitStruct.Mode = GPIO_MODE_OUTPUT_PP;
 8001e1e:	2301      	movs	r3, #1
 8001e20:	61bb      	str	r3, [r7, #24]
  GPIO_InitStruct.Pull = GPIO_NOPULL;
 8001e22:	2300      	movs	r3, #0
 8001e24:	61fb      	str	r3, [r7, #28]
  GPIO_InitStruct.Speed = GPIO_SPEED_FREQ_LOW;
 8001e26:	2300      	movs	r3, #0
 8001e28:	623b      	str	r3, [r7, #32]
  HAL_GPIO_Init(GPIOB, &GPIO_InitStruct);
 8001e2a:	f107 0314 	add.w	r3, r7, #20
 8001e2e:	4619      	mov	r1, r3
 8001e30:	4818      	ldr	r0, [pc, #96]	@ (8001e94 <MX_GPIO_Init+0x1a0>)
 8001e32:	f001 fac3 	bl	80033bc <HAL_GPIO_Init>

  /*Configure GPIO pins : PD12 PD13 PD14 PD15 */
  GPIO_InitStruct.Pin = GPIO_PIN_12|GPIO_PIN_13|GPIO_PIN_14|GPIO_PIN_15;
 8001e36:	f44f 4370 	mov.w	r3, #61440	@ 0xf000
 8001e3a:	617b      	str	r3, [r7, #20]
  GPIO_InitStruct.Mode = GPIO_MODE_OUTPUT_PP;
 8001e3c:	2301      	movs	r3, #1
 8001e3e:	61bb      	str	r3, [r7, #24]
  GPIO_InitStruct.Pull = GPIO_NOPULL;
 8001e40:	2300      	movs	r3, #0
 8001e42:	61fb      	str	r3, [r7, #28]
  GPIO_InitStruct.Speed = GPIO_SPEED_FREQ_LOW;
 8001e44:	2300      	movs	r3, #0
 8001e46:	623b      	str	r3, [r7, #32]
  HAL_GPIO_Init(GPIOD, &GPIO_InitStruct);
 8001e48:	f107 0314 	add.w	r3, r7, #20
 8001e4c:	4619      	mov	r1, r3
 8001e4e:	4812      	ldr	r0, [pc, #72]	@ (8001e98 <MX_GPIO_Init+0x1a4>)
 8001e50:	f001 fab4 	bl	80033bc <HAL_GPIO_Init>

  /*Configure GPIO pin : Task1_Pin */
  GPIO_InitStruct.Pin = Task1_Pin;
 8001e54:	f44f 4300 	mov.w	r3, #32768	@ 0x8000
 8001e58:	617b      	str	r3, [r7, #20]
  GPIO_InitStruct.Mode = GPIO_MODE_IT_RISING;
 8001e5a:	f44f 1388 	mov.w	r3, #1114112	@ 0x110000
 8001e5e:	61bb      	str	r3, [r7, #24]
  GPIO_InitStruct.Pull = GPIO_NOPULL;
 8001e60:	2300      	movs	r3, #0
 8001e62:	61fb      	str	r3, [r7, #28]
  HAL_GPIO_Init(Task1_GPIO_Port, &GPIO_InitStruct);
 8001e64:	f107 0314 	add.w	r3, r7, #20
 8001e68:	4619      	mov	r1, r3
 8001e6a:	4809      	ldr	r0, [pc, #36]	@ (8001e90 <MX_GPIO_Init+0x19c>)
 8001e6c:	f001 faa6 	bl	80033bc <HAL_GPIO_Init>

  /* EXTI interrupt init*/
  HAL_NVIC_SetPriority(EXTI15_10_IRQn, 0, 0);
 8001e70:	2200      	movs	r2, #0
 8001e72:	2100      	movs	r1, #0
 8001e74:	2028      	movs	r0, #40	@ 0x28
 8001e76:	f001 fa6a 	bl	800334e <HAL_NVIC_SetPriority>
  HAL_NVIC_EnableIRQ(EXTI15_10_IRQn);
 8001e7a:	2028      	movs	r0, #40	@ 0x28
 8001e7c:	f001 fa83 	bl	8003386 <HAL_NVIC_EnableIRQ>

/* USER CODE BEGIN MX_GPIO_Init_2 */
/* USER CODE END MX_GPIO_Init_2 */
}
 8001e80:	bf00      	nop
 8001e82:	3728      	adds	r7, #40	@ 0x28
 8001e84:	46bd      	mov	sp, r7
 8001e86:	bd80      	pop	{r7, pc}
 8001e88:	40023800 	.word	0x40023800
 8001e8c:	40021000 	.word	0x40021000
 8001e90:	40020000 	.word	0x40020000
 8001e94:	40020400 	.word	0x40020400
 8001e98:	40020c00 	.word	0x40020c00

08001e9c <HAL_ADC_ConvCpltCallback>:

/* USER CODE BEGIN 4 */

void HAL_ADC_ConvCpltCallback(ADC_HandleTypeDef* hadc)
{
 8001e9c:	b480      	push	{r7}
 8001e9e:	b083      	sub	sp, #12
 8001ea0:	af00      	add	r7, sp, #0
 8001ea2:	6078      	str	r0, [r7, #4]
  if (hadc->Instance == ADC1)
 8001ea4:	687b      	ldr	r3, [r7, #4]
 8001ea6:	681b      	ldr	r3, [r3, #0]
 8001ea8:	4a0a      	ldr	r2, [pc, #40]	@ (8001ed4 <HAL_ADC_ConvCpltCallback+0x38>)
 8001eaa:	4293      	cmp	r3, r2
 8001eac:	d103      	bne.n	8001eb6 <HAL_ADC_ConvCpltCallback+0x1a>
	  adc1Flag = 1;
 8001eae:	4b0a      	ldr	r3, [pc, #40]	@ (8001ed8 <HAL_ADC_ConvCpltCallback+0x3c>)
 8001eb0:	2201      	movs	r2, #1
 8001eb2:	601a      	str	r2, [r3, #0]
  else if (hadc->Instance == ADC2)
	  adc2Flag = 1;
}
 8001eb4:	e007      	b.n	8001ec6 <HAL_ADC_ConvCpltCallback+0x2a>
  else if (hadc->Instance == ADC2)
 8001eb6:	687b      	ldr	r3, [r7, #4]
 8001eb8:	681b      	ldr	r3, [r3, #0]
 8001eba:	4a08      	ldr	r2, [pc, #32]	@ (8001edc <HAL_ADC_ConvCpltCallback+0x40>)
 8001ebc:	4293      	cmp	r3, r2
 8001ebe:	d102      	bne.n	8001ec6 <HAL_ADC_ConvCpltCallback+0x2a>
	  adc2Flag = 1;
 8001ec0:	4b07      	ldr	r3, [pc, #28]	@ (8001ee0 <HAL_ADC_ConvCpltCallback+0x44>)
 8001ec2:	2201      	movs	r2, #1
 8001ec4:	601a      	str	r2, [r3, #0]
}
 8001ec6:	bf00      	nop
 8001ec8:	370c      	adds	r7, #12
 8001eca:	46bd      	mov	sp, r7
 8001ecc:	f85d 7b04 	ldr.w	r7, [sp], #4
 8001ed0:	4770      	bx	lr
 8001ed2:	bf00      	nop
 8001ed4:	40012000 	.word	0x40012000
 8001ed8:	200003b4 	.word	0x200003b4
 8001edc:	40012100 	.word	0x40012100
 8001ee0:	200003b8 	.word	0x200003b8

08001ee4 <Error_Handler>:
/**
  * @brief  This function is executed in case of error occurrence.
  * @retval None
  */
void Error_Handler(void)
{
 8001ee4:	b480      	push	{r7}
 8001ee6:	af00      	add	r7, sp, #0
  \details Disables IRQ interrupts by setting special-purpose register PRIMASK.
           Can only be executed in Privileged modes.
 */
__STATIC_FORCEINLINE void __disable_irq(void)
{
  __ASM volatile ("cpsid i" : : : "memory");
 8001ee8:	b672      	cpsid	i
}
 8001eea:	bf00      	nop
  /* USER CODE BEGIN Error_Handler_Debug */
  /* User can add his own implementation to report the HAL error return state */
  __disable_irq();
  while (1)
 8001eec:	bf00      	nop
 8001eee:	e7fd      	b.n	8001eec <Error_Handler+0x8>

08001ef0 <SHT2x_Init>:
	
/**
 * @brief Initializes the SHT2x temperature/humidity sensor.
 * @param hi2c User I2C handle pointer.
 */
void SHT2x_Init(I2C_HandleTypeDef *hi2c) {
 8001ef0:	b480      	push	{r7}
 8001ef2:	b083      	sub	sp, #12
 8001ef4:	af00      	add	r7, sp, #0
 8001ef6:	6078      	str	r0, [r7, #4]
	_sht2x_ui2c = hi2c;
 8001ef8:	4a04      	ldr	r2, [pc, #16]	@ (8001f0c <SHT2x_Init+0x1c>)
 8001efa:	687b      	ldr	r3, [r7, #4]
 8001efc:	6013      	str	r3, [r2, #0]
}
 8001efe:	bf00      	nop
 8001f00:	370c      	adds	r7, #12
 8001f02:	46bd      	mov	sp, r7
 8001f04:	f85d 7b04 	ldr.w	r7, [sp], #4
 8001f08:	4770      	bx	lr
 8001f0a:	bf00      	nop
 8001f0c:	200003c0 	.word	0x200003c0

08001f10 <SHT2x_SoftReset>:

/**
 *  @brief Performs a soft reset.
 */
void SHT2x_SoftReset(void){
 8001f10:	b580      	push	{r7, lr}
 8001f12:	b084      	sub	sp, #16
 8001f14:	af02      	add	r7, sp, #8
	uint8_t cmd = SHT2x_SOFT_RESET;
 8001f16:	23fe      	movs	r3, #254	@ 0xfe
 8001f18:	71fb      	strb	r3, [r7, #7]
	HAL_I2C_Master_Transmit(_sht2x_ui2c, SHT2x_I2C_ADDR << 1, &cmd, 1, SHT2x_TIMEOUT);
 8001f1a:	4b07      	ldr	r3, [pc, #28]	@ (8001f38 <SHT2x_SoftReset+0x28>)
 8001f1c:	6818      	ldr	r0, [r3, #0]
 8001f1e:	1dfa      	adds	r2, r7, #7
 8001f20:	f44f 737a 	mov.w	r3, #1000	@ 0x3e8
 8001f24:	9300      	str	r3, [sp, #0]
 8001f26:	2301      	movs	r3, #1
 8001f28:	2180      	movs	r1, #128	@ 0x80
 8001f2a:	f001 fd65 	bl	80039f8 <HAL_I2C_Master_Transmit>
}
 8001f2e:	bf00      	nop
 8001f30:	3708      	adds	r7, #8
 8001f32:	46bd      	mov	sp, r7
 8001f34:	bd80      	pop	{r7, pc}
 8001f36:	bf00      	nop
 8001f38:	200003c0 	.word	0x200003c0

08001f3c <SHT2x_ReadUserReg>:

/**
 * @brief Gets the value stored in user register.
 * @return 8-bit value stored in user register, 0 to 255.
 */
uint8_t SHT2x_ReadUserReg(void) {
 8001f3c:	b580      	push	{r7, lr}
 8001f3e:	b084      	sub	sp, #16
 8001f40:	af02      	add	r7, sp, #8
	uint8_t val;
	uint8_t cmd = SHT2x_READ_REG;
 8001f42:	23e7      	movs	r3, #231	@ 0xe7
 8001f44:	71bb      	strb	r3, [r7, #6]
	HAL_I2C_Master_Transmit(_sht2x_ui2c, SHT2x_I2C_ADDR << 1, &cmd, 1, SHT2x_TIMEOUT);
 8001f46:	4b0c      	ldr	r3, [pc, #48]	@ (8001f78 <SHT2x_ReadUserReg+0x3c>)
 8001f48:	6818      	ldr	r0, [r3, #0]
 8001f4a:	1dba      	adds	r2, r7, #6
 8001f4c:	f44f 737a 	mov.w	r3, #1000	@ 0x3e8
 8001f50:	9300      	str	r3, [sp, #0]
 8001f52:	2301      	movs	r3, #1
 8001f54:	2180      	movs	r1, #128	@ 0x80
 8001f56:	f001 fd4f 	bl	80039f8 <HAL_I2C_Master_Transmit>
	HAL_I2C_Master_Receive(_sht2x_ui2c, SHT2x_I2C_ADDR << 1, &val, 1, SHT2x_TIMEOUT);
 8001f5a:	4b07      	ldr	r3, [pc, #28]	@ (8001f78 <SHT2x_ReadUserReg+0x3c>)
 8001f5c:	6818      	ldr	r0, [r3, #0]
 8001f5e:	1dfa      	adds	r2, r7, #7
 8001f60:	f44f 737a 	mov.w	r3, #1000	@ 0x3e8
 8001f64:	9300      	str	r3, [sp, #0]
 8001f66:	2301      	movs	r3, #1
 8001f68:	2180      	movs	r1, #128	@ 0x80
 8001f6a:	f001 fe43 	bl	8003bf4 <HAL_I2C_Master_Receive>
	return val;
 8001f6e:	79fb      	ldrb	r3, [r7, #7]
}
 8001f70:	4618      	mov	r0, r3
 8001f72:	3708      	adds	r7, #8
 8001f74:	46bd      	mov	sp, r7
 8001f76:	bd80      	pop	{r7, pc}
 8001f78:	200003c0 	.word	0x200003c0

08001f7c <SHT2x_GetRaw>:
/**
 * @brief Sends the designated command to sensor and read a 16-bit raw value.
 * @param cmd Command to send to sensor.
 * @return 16-bit raw value, 0 to 65535.
 */
uint16_t SHT2x_GetRaw(uint8_t cmd) {
 8001f7c:	b580      	push	{r7, lr}
 8001f7e:	b086      	sub	sp, #24
 8001f80:	af02      	add	r7, sp, #8
 8001f82:	4603      	mov	r3, r0
 8001f84:	71fb      	strb	r3, [r7, #7]
	uint8_t val[3] = { 0 };
 8001f86:	4b13      	ldr	r3, [pc, #76]	@ (8001fd4 <SHT2x_GetRaw+0x58>)
 8001f88:	881b      	ldrh	r3, [r3, #0]
 8001f8a:	81bb      	strh	r3, [r7, #12]
 8001f8c:	2300      	movs	r3, #0
 8001f8e:	73bb      	strb	r3, [r7, #14]
	HAL_I2C_Master_Transmit(_sht2x_ui2c, SHT2x_I2C_ADDR << 1, &cmd, 1, SHT2x_TIMEOUT);
 8001f90:	4b11      	ldr	r3, [pc, #68]	@ (8001fd8 <SHT2x_GetRaw+0x5c>)
 8001f92:	6818      	ldr	r0, [r3, #0]
 8001f94:	1dfa      	adds	r2, r7, #7
 8001f96:	f44f 737a 	mov.w	r3, #1000	@ 0x3e8
 8001f9a:	9300      	str	r3, [sp, #0]
 8001f9c:	2301      	movs	r3, #1
 8001f9e:	2180      	movs	r1, #128	@ 0x80
 8001fa0:	f001 fd2a 	bl	80039f8 <HAL_I2C_Master_Transmit>
	HAL_I2C_Master_Receive(_sht2x_ui2c, SHT2x_I2C_ADDR << 1, val, 3, SHT2x_TIMEOUT);
 8001fa4:	4b0c      	ldr	r3, [pc, #48]	@ (8001fd8 <SHT2x_GetRaw+0x5c>)
 8001fa6:	6818      	ldr	r0, [r3, #0]
 8001fa8:	f107 020c 	add.w	r2, r7, #12
 8001fac:	f44f 737a 	mov.w	r3, #1000	@ 0x3e8
 8001fb0:	9300      	str	r3, [sp, #0]
 8001fb2:	2303      	movs	r3, #3
 8001fb4:	2180      	movs	r1, #128	@ 0x80
 8001fb6:	f001 fe1d 	bl	8003bf4 <HAL_I2C_Master_Receive>
	return val[0] << 8 | val[1];
 8001fba:	7b3b      	ldrb	r3, [r7, #12]
 8001fbc:	021b      	lsls	r3, r3, #8
 8001fbe:	b21a      	sxth	r2, r3
 8001fc0:	7b7b      	ldrb	r3, [r7, #13]
 8001fc2:	b21b      	sxth	r3, r3
 8001fc4:	4313      	orrs	r3, r2
 8001fc6:	b21b      	sxth	r3, r3
 8001fc8:	b29b      	uxth	r3, r3
}
 8001fca:	4618      	mov	r0, r3
 8001fcc:	3710      	adds	r7, #16
 8001fce:	46bd      	mov	sp, r7
 8001fd0:	bd80      	pop	{r7, pc}
 8001fd2:	bf00      	nop
 8001fd4:	080093ac 	.word	0x080093ac
 8001fd8:	200003c0 	.word	0x200003c0
 8001fdc:	00000000 	.word	0x00000000

08001fe0 <SHT2x_GetTemperature>:
/**
 * @brief Measures and gets the current temperature.
 * @param hold Holding mode, 0 for no hold master, 1 for hold master.
 * @return Floating point temperature value.
 */
float SHT2x_GetTemperature(uint8_t hold) {
 8001fe0:	b580      	push	{r7, lr}
 8001fe2:	b084      	sub	sp, #16
 8001fe4:	af00      	add	r7, sp, #0
 8001fe6:	4603      	mov	r3, r0
 8001fe8:	71fb      	strb	r3, [r7, #7]
	uint8_t cmd = (hold ? SHT2x_READ_TEMP_HOLD : SHT2x_READ_TEMP_NOHOLD);
 8001fea:	79fb      	ldrb	r3, [r7, #7]
 8001fec:	2b00      	cmp	r3, #0
 8001fee:	d001      	beq.n	8001ff4 <SHT2x_GetTemperature+0x14>
 8001ff0:	23e3      	movs	r3, #227	@ 0xe3
 8001ff2:	e000      	b.n	8001ff6 <SHT2x_GetTemperature+0x16>
 8001ff4:	23f3      	movs	r3, #243	@ 0xf3
 8001ff6:	73fb      	strb	r3, [r7, #15]
	return -46.85 + 175.72 * (SHT2x_GetRaw(cmd) / 65536.0);
 8001ff8:	7bfb      	ldrb	r3, [r7, #15]
 8001ffa:	4618      	mov	r0, r3
 8001ffc:	f7ff ffbe 	bl	8001f7c <SHT2x_GetRaw>
 8002000:	4603      	mov	r3, r0
 8002002:	4618      	mov	r0, r3
 8002004:	f7fe fa8e 	bl	8000524 <__aeabi_i2d>
 8002008:	f04f 0200 	mov.w	r2, #0
 800200c:	4b16      	ldr	r3, [pc, #88]	@ (8002068 <SHT2x_GetTemperature+0x88>)
 800200e:	f7fe fc1d 	bl	800084c <__aeabi_ddiv>
 8002012:	4602      	mov	r2, r0
 8002014:	460b      	mov	r3, r1
 8002016:	4610      	mov	r0, r2
 8002018:	4619      	mov	r1, r3
 800201a:	a30f      	add	r3, pc, #60	@ (adr r3, 8002058 <SHT2x_GetTemperature+0x78>)
 800201c:	e9d3 2300 	ldrd	r2, r3, [r3]
 8002020:	f7fe faea 	bl	80005f8 <__aeabi_dmul>
 8002024:	4602      	mov	r2, r0
 8002026:	460b      	mov	r3, r1
 8002028:	4610      	mov	r0, r2
 800202a:	4619      	mov	r1, r3
 800202c:	a30c      	add	r3, pc, #48	@ (adr r3, 8002060 <SHT2x_GetTemperature+0x80>)
 800202e:	e9d3 2300 	ldrd	r2, r3, [r3]
 8002032:	f7fe f929 	bl	8000288 <__aeabi_dsub>
 8002036:	4602      	mov	r2, r0
 8002038:	460b      	mov	r3, r1
 800203a:	4610      	mov	r0, r2
 800203c:	4619      	mov	r1, r3
 800203e:	f7fe fdb3 	bl	8000ba8 <__aeabi_d2f>
 8002042:	4603      	mov	r3, r0
 8002044:	ee07 3a90 	vmov	s15, r3
}
 8002048:	eeb0 0a67 	vmov.f32	s0, s15
 800204c:	3710      	adds	r7, #16
 800204e:	46bd      	mov	sp, r7
 8002050:	bd80      	pop	{r7, pc}
 8002052:	bf00      	nop
 8002054:	f3af 8000 	nop.w
 8002058:	3d70a3d7 	.word	0x3d70a3d7
 800205c:	4065f70a 	.word	0x4065f70a
 8002060:	cccccccd 	.word	0xcccccccd
 8002064:	40476ccc 	.word	0x40476ccc
 8002068:	40f00000 	.word	0x40f00000

0800206c <SHT2x_GetRelativeHumidity>:
/**
 * @brief Measures and gets the current relative humidity.
 * @param hold Holding mode, 0 for no hold master, 1 for hold master.
 * @return Floating point relative humidity value.
 */
float SHT2x_GetRelativeHumidity(uint8_t hold) {
 800206c:	b580      	push	{r7, lr}
 800206e:	b084      	sub	sp, #16
 8002070:	af00      	add	r7, sp, #0
 8002072:	4603      	mov	r3, r0
 8002074:	71fb      	strb	r3, [r7, #7]
	uint8_t cmd = (hold ? SHT2x_READ_RH_HOLD : SHT2x_READ_RH_NOHOLD);
 8002076:	79fb      	ldrb	r3, [r7, #7]
 8002078:	2b00      	cmp	r3, #0
 800207a:	d001      	beq.n	8002080 <SHT2x_GetRelativeHumidity+0x14>
 800207c:	23e5      	movs	r3, #229	@ 0xe5
 800207e:	e000      	b.n	8002082 <SHT2x_GetRelativeHumidity+0x16>
 8002080:	23f5      	movs	r3, #245	@ 0xf5
 8002082:	73fb      	strb	r3, [r7, #15]
	return -6 + 125.00 * (SHT2x_GetRaw(cmd) / 65536.0);
 8002084:	7bfb      	ldrb	r3, [r7, #15]
 8002086:	4618      	mov	r0, r3
 8002088:	f7ff ff78 	bl	8001f7c <SHT2x_GetRaw>
 800208c:	4603      	mov	r3, r0
 800208e:	4618      	mov	r0, r3
 8002090:	f7fe fa48 	bl	8000524 <__aeabi_i2d>
 8002094:	f04f 0200 	mov.w	r2, #0
 8002098:	4b11      	ldr	r3, [pc, #68]	@ (80020e0 <SHT2x_GetRelativeHumidity+0x74>)
 800209a:	f7fe fbd7 	bl	800084c <__aeabi_ddiv>
 800209e:	4602      	mov	r2, r0
 80020a0:	460b      	mov	r3, r1
 80020a2:	4610      	mov	r0, r2
 80020a4:	4619      	mov	r1, r3
 80020a6:	f04f 0200 	mov.w	r2, #0
 80020aa:	4b0e      	ldr	r3, [pc, #56]	@ (80020e4 <SHT2x_GetRelativeHumidity+0x78>)
 80020ac:	f7fe faa4 	bl	80005f8 <__aeabi_dmul>
 80020b0:	4602      	mov	r2, r0
 80020b2:	460b      	mov	r3, r1
 80020b4:	4610      	mov	r0, r2
 80020b6:	4619      	mov	r1, r3
 80020b8:	f04f 0200 	mov.w	r2, #0
 80020bc:	4b0a      	ldr	r3, [pc, #40]	@ (80020e8 <SHT2x_GetRelativeHumidity+0x7c>)
 80020be:	f7fe f8e3 	bl	8000288 <__aeabi_dsub>
 80020c2:	4602      	mov	r2, r0
 80020c4:	460b      	mov	r3, r1
 80020c6:	4610      	mov	r0, r2
 80020c8:	4619      	mov	r1, r3
 80020ca:	f7fe fd6d 	bl	8000ba8 <__aeabi_d2f>
 80020ce:	4603      	mov	r3, r0
 80020d0:	ee07 3a90 	vmov	s15, r3
}
 80020d4:	eeb0 0a67 	vmov.f32	s0, s15
 80020d8:	3710      	adds	r7, #16
 80020da:	46bd      	mov	sp, r7
 80020dc:	bd80      	pop	{r7, pc}
 80020de:	bf00      	nop
 80020e0:	40f00000 	.word	0x40f00000
 80020e4:	405f4000 	.word	0x405f4000
 80020e8:	40180000 	.word	0x40180000

080020ec <SHT2x_SetResolution>:
 * @brief Sets the measurement resolution.
 * @param res Enum resolution.
 * @note Available resolutions: RES_14_12, RES_12_8, RES_13_10, RES_11_11.
 * @note RES_14_12 = 14-bit temperature and 12-bit RH resolution, etc.
 */
void SHT2x_SetResolution(SHT2x_Resolution res) {
 80020ec:	b580      	push	{r7, lr}
 80020ee:	b086      	sub	sp, #24
 80020f0:	af02      	add	r7, sp, #8
 80020f2:	4603      	mov	r3, r0
 80020f4:	71fb      	strb	r3, [r7, #7]
	uint8_t val = SHT2x_ReadUserReg();
 80020f6:	f7ff ff21 	bl	8001f3c <SHT2x_ReadUserReg>
 80020fa:	4603      	mov	r3, r0
 80020fc:	73fb      	strb	r3, [r7, #15]
	val = (val & 0x7e) | res;
 80020fe:	f997 300f 	ldrsb.w	r3, [r7, #15]
 8002102:	f003 037e 	and.w	r3, r3, #126	@ 0x7e
 8002106:	b25a      	sxtb	r2, r3
 8002108:	f997 3007 	ldrsb.w	r3, [r7, #7]
 800210c:	4313      	orrs	r3, r2
 800210e:	b25b      	sxtb	r3, r3
 8002110:	73fb      	strb	r3, [r7, #15]
	uint8_t temp[2] = { SHT2x_WRITE_REG, val };
 8002112:	23e6      	movs	r3, #230	@ 0xe6
 8002114:	733b      	strb	r3, [r7, #12]
 8002116:	7bfb      	ldrb	r3, [r7, #15]
 8002118:	737b      	strb	r3, [r7, #13]
	HAL_I2C_Master_Transmit(_sht2x_ui2c, SHT2x_I2C_ADDR << 1, temp, 2, SHT2x_TIMEOUT);
 800211a:	4b07      	ldr	r3, [pc, #28]	@ (8002138 <SHT2x_SetResolution+0x4c>)
 800211c:	6818      	ldr	r0, [r3, #0]
 800211e:	f107 020c 	add.w	r2, r7, #12
 8002122:	f44f 737a 	mov.w	r3, #1000	@ 0x3e8
 8002126:	9300      	str	r3, [sp, #0]
 8002128:	2302      	movs	r3, #2
 800212a:	2180      	movs	r1, #128	@ 0x80
 800212c:	f001 fc64 	bl	80039f8 <HAL_I2C_Master_Transmit>
}
 8002130:	bf00      	nop
 8002132:	3710      	adds	r7, #16
 8002134:	46bd      	mov	sp, r7
 8002136:	bd80      	pop	{r7, pc}
 8002138:	200003c0 	.word	0x200003c0

0800213c <HAL_MspInit>:
/* USER CODE END 0 */
/**
  * Initializes the Global MSP.
  */
void HAL_MspInit(void)
{
 800213c:	b480      	push	{r7}
 800213e:	b083      	sub	sp, #12
 8002140:	af00      	add	r7, sp, #0

  /* USER CODE BEGIN MspInit 0 */

  /* USER CODE END MspInit 0 */

  __HAL_RCC_SYSCFG_CLK_ENABLE();
 8002142:	2300      	movs	r3, #0
 8002144:	607b      	str	r3, [r7, #4]
 8002146:	4b10      	ldr	r3, [pc, #64]	@ (8002188 <HAL_MspInit+0x4c>)
 8002148:	6c5b      	ldr	r3, [r3, #68]	@ 0x44
 800214a:	4a0f      	ldr	r2, [pc, #60]	@ (8002188 <HAL_MspInit+0x4c>)
 800214c:	f443 4380 	orr.w	r3, r3, #16384	@ 0x4000
 8002150:	6453      	str	r3, [r2, #68]	@ 0x44
 8002152:	4b0d      	ldr	r3, [pc, #52]	@ (8002188 <HAL_MspInit+0x4c>)
 8002154:	6c5b      	ldr	r3, [r3, #68]	@ 0x44
 8002156:	f403 4380 	and.w	r3, r3, #16384	@ 0x4000
 800215a:	607b      	str	r3, [r7, #4]
 800215c:	687b      	ldr	r3, [r7, #4]
  __HAL_RCC_PWR_CLK_ENABLE();
 800215e:	2300      	movs	r3, #0
 8002160:	603b      	str	r3, [r7, #0]
 8002162:	4b09      	ldr	r3, [pc, #36]	@ (8002188 <HAL_MspInit+0x4c>)
 8002164:	6c1b      	ldr	r3, [r3, #64]	@ 0x40
 8002166:	4a08      	ldr	r2, [pc, #32]	@ (8002188 <HAL_MspInit+0x4c>)
 8002168:	f043 5380 	orr.w	r3, r3, #268435456	@ 0x10000000
 800216c:	6413      	str	r3, [r2, #64]	@ 0x40
 800216e:	4b06      	ldr	r3, [pc, #24]	@ (8002188 <HAL_MspInit+0x4c>)
 8002170:	6c1b      	ldr	r3, [r3, #64]	@ 0x40
 8002172:	f003 5380 	and.w	r3, r3, #268435456	@ 0x10000000
 8002176:	603b      	str	r3, [r7, #0]
 8002178:	683b      	ldr	r3, [r7, #0]
  /* System interrupt init*/

  /* USER CODE BEGIN MspInit 1 */

  /* USER CODE END MspInit 1 */
}
 800217a:	bf00      	nop
 800217c:	370c      	adds	r7, #12
 800217e:	46bd      	mov	sp, r7
 8002180:	f85d 7b04 	ldr.w	r7, [sp], #4
 8002184:	4770      	bx	lr
 8002186:	bf00      	nop
 8002188:	40023800 	.word	0x40023800

0800218c <HAL_ADC_MspInit>:
* This function configures the hardware resources used in this example
* @param hadc: ADC handle pointer
* @retval None
*/
void HAL_ADC_MspInit(ADC_HandleTypeDef* hadc)
{
 800218c:	b580      	push	{r7, lr}
 800218e:	b08c      	sub	sp, #48	@ 0x30
 8002190:	af00      	add	r7, sp, #0
 8002192:	6078      	str	r0, [r7, #4]
  GPIO_InitTypeDef GPIO_InitStruct = {0};
 8002194:	f107 031c 	add.w	r3, r7, #28
 8002198:	2200      	movs	r2, #0
 800219a:	601a      	str	r2, [r3, #0]
 800219c:	605a      	str	r2, [r3, #4]
 800219e:	609a      	str	r2, [r3, #8]
 80021a0:	60da      	str	r2, [r3, #12]
 80021a2:	611a      	str	r2, [r3, #16]
  if(hadc->Instance==ADC1)
 80021a4:	687b      	ldr	r3, [r7, #4]
 80021a6:	681b      	ldr	r3, [r3, #0]
 80021a8:	4a36      	ldr	r2, [pc, #216]	@ (8002284 <HAL_ADC_MspInit+0xf8>)
 80021aa:	4293      	cmp	r3, r2
 80021ac:	d130      	bne.n	8002210 <HAL_ADC_MspInit+0x84>
  {
  /* USER CODE BEGIN ADC1_MspInit 0 */

  /* USER CODE END ADC1_MspInit 0 */
    /* Peripheral clock enable */
    __HAL_RCC_ADC1_CLK_ENABLE();
 80021ae:	2300      	movs	r3, #0
 80021b0:	61bb      	str	r3, [r7, #24]
 80021b2:	4b35      	ldr	r3, [pc, #212]	@ (8002288 <HAL_ADC_MspInit+0xfc>)
 80021b4:	6c5b      	ldr	r3, [r3, #68]	@ 0x44
 80021b6:	4a34      	ldr	r2, [pc, #208]	@ (8002288 <HAL_ADC_MspInit+0xfc>)
 80021b8:	f443 7380 	orr.w	r3, r3, #256	@ 0x100
 80021bc:	6453      	str	r3, [r2, #68]	@ 0x44
 80021be:	4b32      	ldr	r3, [pc, #200]	@ (8002288 <HAL_ADC_MspInit+0xfc>)
 80021c0:	6c5b      	ldr	r3, [r3, #68]	@ 0x44
 80021c2:	f403 7380 	and.w	r3, r3, #256	@ 0x100
 80021c6:	61bb      	str	r3, [r7, #24]
 80021c8:	69bb      	ldr	r3, [r7, #24]

    __HAL_RCC_GPIOA_CLK_ENABLE();
 80021ca:	2300      	movs	r3, #0
 80021cc:	617b      	str	r3, [r7, #20]
 80021ce:	4b2e      	ldr	r3, [pc, #184]	@ (8002288 <HAL_ADC_MspInit+0xfc>)
 80021d0:	6b1b      	ldr	r3, [r3, #48]	@ 0x30
 80021d2:	4a2d      	ldr	r2, [pc, #180]	@ (8002288 <HAL_ADC_MspInit+0xfc>)
 80021d4:	f043 0301 	orr.w	r3, r3, #1
 80021d8:	6313      	str	r3, [r2, #48]	@ 0x30
 80021da:	4b2b      	ldr	r3, [pc, #172]	@ (8002288 <HAL_ADC_MspInit+0xfc>)
 80021dc:	6b1b      	ldr	r3, [r3, #48]	@ 0x30
 80021de:	f003 0301 	and.w	r3, r3, #1
 80021e2:	617b      	str	r3, [r7, #20]
 80021e4:	697b      	ldr	r3, [r7, #20]
    /**ADC1 GPIO Configuration
    PA3     ------> ADC1_IN3
    */
    GPIO_InitStruct.Pin = GPIO_PIN_3;
 80021e6:	2308      	movs	r3, #8
 80021e8:	61fb      	str	r3, [r7, #28]
    GPIO_InitStruct.Mode = GPIO_MODE_ANALOG;
 80021ea:	2303      	movs	r3, #3
 80021ec:	623b      	str	r3, [r7, #32]
    GPIO_InitStruct.Pull = GPIO_NOPULL;
 80021ee:	2300      	movs	r3, #0
 80021f0:	627b      	str	r3, [r7, #36]	@ 0x24
    HAL_GPIO_Init(GPIOA, &GPIO_InitStruct);
 80021f2:	f107 031c 	add.w	r3, r7, #28
 80021f6:	4619      	mov	r1, r3
 80021f8:	4824      	ldr	r0, [pc, #144]	@ (800228c <HAL_ADC_MspInit+0x100>)
 80021fa:	f001 f8df 	bl	80033bc <HAL_GPIO_Init>

    /* ADC1 interrupt Init */
    HAL_NVIC_SetPriority(ADC_IRQn, 0, 0);
 80021fe:	2200      	movs	r2, #0
 8002200:	2100      	movs	r1, #0
 8002202:	2012      	movs	r0, #18
 8002204:	f001 f8a3 	bl	800334e <HAL_NVIC_SetPriority>
    HAL_NVIC_EnableIRQ(ADC_IRQn);
 8002208:	2012      	movs	r0, #18
 800220a:	f001 f8bc 	bl	8003386 <HAL_NVIC_EnableIRQ>
  /* USER CODE BEGIN ADC2_MspInit 1 */

  /* USER CODE END ADC2_MspInit 1 */
  }

}
 800220e:	e034      	b.n	800227a <HAL_ADC_MspInit+0xee>
  else if(hadc->Instance==ADC2)
 8002210:	687b      	ldr	r3, [r7, #4]
 8002212:	681b      	ldr	r3, [r3, #0]
 8002214:	4a1e      	ldr	r2, [pc, #120]	@ (8002290 <HAL_ADC_MspInit+0x104>)
 8002216:	4293      	cmp	r3, r2
 8002218:	d12f      	bne.n	800227a <HAL_ADC_MspInit+0xee>
    __HAL_RCC_ADC2_CLK_ENABLE();
 800221a:	2300      	movs	r3, #0
 800221c:	613b      	str	r3, [r7, #16]
 800221e:	4b1a      	ldr	r3, [pc, #104]	@ (8002288 <HAL_ADC_MspInit+0xfc>)
 8002220:	6c5b      	ldr	r3, [r3, #68]	@ 0x44
 8002222:	4a19      	ldr	r2, [pc, #100]	@ (8002288 <HAL_ADC_MspInit+0xfc>)
 8002224:	f443 7300 	orr.w	r3, r3, #512	@ 0x200
 8002228:	6453      	str	r3, [r2, #68]	@ 0x44
 800222a:	4b17      	ldr	r3, [pc, #92]	@ (8002288 <HAL_ADC_MspInit+0xfc>)
 800222c:	6c5b      	ldr	r3, [r3, #68]	@ 0x44
 800222e:	f403 7300 	and.w	r3, r3, #512	@ 0x200
 8002232:	613b      	str	r3, [r7, #16]
 8002234:	693b      	ldr	r3, [r7, #16]
    __HAL_RCC_GPIOA_CLK_ENABLE();
 8002236:	2300      	movs	r3, #0
 8002238:	60fb      	str	r3, [r7, #12]
 800223a:	4b13      	ldr	r3, [pc, #76]	@ (8002288 <HAL_ADC_MspInit+0xfc>)
 800223c:	6b1b      	ldr	r3, [r3, #48]	@ 0x30
 800223e:	4a12      	ldr	r2, [pc, #72]	@ (8002288 <HAL_ADC_MspInit+0xfc>)
 8002240:	f043 0301 	orr.w	r3, r3, #1
 8002244:	6313      	str	r3, [r2, #48]	@ 0x30
 8002246:	4b10      	ldr	r3, [pc, #64]	@ (8002288 <HAL_ADC_MspInit+0xfc>)
 8002248:	6b1b      	ldr	r3, [r3, #48]	@ 0x30
 800224a:	f003 0301 	and.w	r3, r3, #1
 800224e:	60fb      	str	r3, [r7, #12]
 8002250:	68fb      	ldr	r3, [r7, #12]
    GPIO_InitStruct.Pin = GPIO_PIN_0;
 8002252:	2301      	movs	r3, #1
 8002254:	61fb      	str	r3, [r7, #28]
    GPIO_InitStruct.Mode = GPIO_MODE_ANALOG;
 8002256:	2303      	movs	r3, #3
 8002258:	623b      	str	r3, [r7, #32]
    GPIO_InitStruct.Pull = GPIO_NOPULL;
 800225a:	2300      	movs	r3, #0
 800225c:	627b      	str	r3, [r7, #36]	@ 0x24
    HAL_GPIO_Init(GPIOA, &GPIO_InitStruct);
 800225e:	f107 031c 	add.w	r3, r7, #28
 8002262:	4619      	mov	r1, r3
 8002264:	4809      	ldr	r0, [pc, #36]	@ (800228c <HAL_ADC_MspInit+0x100>)
 8002266:	f001 f8a9 	bl	80033bc <HAL_GPIO_Init>
    HAL_NVIC_SetPriority(ADC_IRQn, 0, 0);
 800226a:	2200      	movs	r2, #0
 800226c:	2100      	movs	r1, #0
 800226e:	2012      	movs	r0, #18
 8002270:	f001 f86d 	bl	800334e <HAL_NVIC_SetPriority>
    HAL_NVIC_EnableIRQ(ADC_IRQn);
 8002274:	2012      	movs	r0, #18
 8002276:	f001 f886 	bl	8003386 <HAL_NVIC_EnableIRQ>
}
 800227a:	bf00      	nop
 800227c:	3730      	adds	r7, #48	@ 0x30
 800227e:	46bd      	mov	sp, r7
 8002280:	bd80      	pop	{r7, pc}
 8002282:	bf00      	nop
 8002284:	40012000 	.word	0x40012000
 8002288:	40023800 	.word	0x40023800
 800228c:	40020000 	.word	0x40020000
 8002290:	40012100 	.word	0x40012100

08002294 <HAL_I2C_MspInit>:
* This function configures the hardware resources used in this example
* @param hi2c: I2C handle pointer
* @retval None
*/
void HAL_I2C_MspInit(I2C_HandleTypeDef* hi2c)
{
 8002294:	b580      	push	{r7, lr}
 8002296:	b08a      	sub	sp, #40	@ 0x28
 8002298:	af00      	add	r7, sp, #0
 800229a:	6078      	str	r0, [r7, #4]
  GPIO_InitTypeDef GPIO_InitStruct = {0};
 800229c:	f107 0314 	add.w	r3, r7, #20
 80022a0:	2200      	movs	r2, #0
 80022a2:	601a      	str	r2, [r3, #0]
 80022a4:	605a      	str	r2, [r3, #4]
 80022a6:	609a      	str	r2, [r3, #8]
 80022a8:	60da      	str	r2, [r3, #12]
 80022aa:	611a      	str	r2, [r3, #16]
  if(hi2c->Instance==I2C1)
 80022ac:	687b      	ldr	r3, [r7, #4]
 80022ae:	681b      	ldr	r3, [r3, #0]
 80022b0:	4a19      	ldr	r2, [pc, #100]	@ (8002318 <HAL_I2C_MspInit+0x84>)
 80022b2:	4293      	cmp	r3, r2
 80022b4:	d12b      	bne.n	800230e <HAL_I2C_MspInit+0x7a>
  {
  /* USER CODE BEGIN I2C1_MspInit 0 */

  /* USER CODE END I2C1_MspInit 0 */

    __HAL_RCC_GPIOB_CLK_ENABLE();
 80022b6:	2300      	movs	r3, #0
 80022b8:	613b      	str	r3, [r7, #16]
 80022ba:	4b18      	ldr	r3, [pc, #96]	@ (800231c <HAL_I2C_MspInit+0x88>)
 80022bc:	6b1b      	ldr	r3, [r3, #48]	@ 0x30
 80022be:	4a17      	ldr	r2, [pc, #92]	@ (800231c <HAL_I2C_MspInit+0x88>)
 80022c0:	f043 0302 	orr.w	r3, r3, #2
 80022c4:	6313      	str	r3, [r2, #48]	@ 0x30
 80022c6:	4b15      	ldr	r3, [pc, #84]	@ (800231c <HAL_I2C_MspInit+0x88>)
 80022c8:	6b1b      	ldr	r3, [r3, #48]	@ 0x30
 80022ca:	f003 0302 	and.w	r3, r3, #2
 80022ce:	613b      	str	r3, [r7, #16]
 80022d0:	693b      	ldr	r3, [r7, #16]
    /**I2C1 GPIO Configuration
    PB6     ------> I2C1_SCL
    PB7     ------> I2C1_SDA
    */
    GPIO_InitStruct.Pin = GPIO_PIN_6|GPIO_PIN_7;
 80022d2:	23c0      	movs	r3, #192	@ 0xc0
 80022d4:	617b      	str	r3, [r7, #20]
    GPIO_InitStruct.Mode = GPIO_MODE_AF_OD;
 80022d6:	2312      	movs	r3, #18
 80022d8:	61bb      	str	r3, [r7, #24]
    GPIO_InitStruct.Pull = GPIO_NOPULL;
 80022da:	2300      	movs	r3, #0
 80022dc:	61fb      	str	r3, [r7, #28]
    GPIO_InitStruct.Speed = GPIO_SPEED_FREQ_VERY_HIGH;
 80022de:	2303      	movs	r3, #3
 80022e0:	623b      	str	r3, [r7, #32]
    GPIO_InitStruct.Alternate = GPIO_AF4_I2C1;
 80022e2:	2304      	movs	r3, #4
 80022e4:	627b      	str	r3, [r7, #36]	@ 0x24
    HAL_GPIO_Init(GPIOB, &GPIO_InitStruct);
 80022e6:	f107 0314 	add.w	r3, r7, #20
 80022ea:	4619      	mov	r1, r3
 80022ec:	480c      	ldr	r0, [pc, #48]	@ (8002320 <HAL_I2C_MspInit+0x8c>)
 80022ee:	f001 f865 	bl	80033bc <HAL_GPIO_Init>

    /* Peripheral clock enable */
    __HAL_RCC_I2C1_CLK_ENABLE();
 80022f2:	2300      	movs	r3, #0
 80022f4:	60fb      	str	r3, [r7, #12]
 80022f6:	4b09      	ldr	r3, [pc, #36]	@ (800231c <HAL_I2C_MspInit+0x88>)
 80022f8:	6c1b      	ldr	r3, [r3, #64]	@ 0x40
 80022fa:	4a08      	ldr	r2, [pc, #32]	@ (800231c <HAL_I2C_MspInit+0x88>)
 80022fc:	f443 1300 	orr.w	r3, r3, #2097152	@ 0x200000
 8002300:	6413      	str	r3, [r2, #64]	@ 0x40
 8002302:	4b06      	ldr	r3, [pc, #24]	@ (800231c <HAL_I2C_MspInit+0x88>)
 8002304:	6c1b      	ldr	r3, [r3, #64]	@ 0x40
 8002306:	f403 1300 	and.w	r3, r3, #2097152	@ 0x200000
 800230a:	60fb      	str	r3, [r7, #12]
 800230c:	68fb      	ldr	r3, [r7, #12]

  /* USER CODE END I2C1_MspInit 1 */

  }

}
 800230e:	bf00      	nop
 8002310:	3728      	adds	r7, #40	@ 0x28
 8002312:	46bd      	mov	sp, r7
 8002314:	bd80      	pop	{r7, pc}
 8002316:	bf00      	nop
 8002318:	40005400 	.word	0x40005400
 800231c:	40023800 	.word	0x40023800
 8002320:	40020400 	.word	0x40020400

08002324 <HAL_TIM_IC_MspInit>:
* This function configures the hardware resources used in this example
* @param htim_ic: TIM_IC handle pointer
* @retval None
*/
void HAL_TIM_IC_MspInit(TIM_HandleTypeDef* htim_ic)
{
 8002324:	b580      	push	{r7, lr}
 8002326:	b08a      	sub	sp, #40	@ 0x28
 8002328:	af00      	add	r7, sp, #0
 800232a:	6078      	str	r0, [r7, #4]
  GPIO_InitTypeDef GPIO_InitStruct = {0};
 800232c:	f107 0314 	add.w	r3, r7, #20
 8002330:	2200      	movs	r2, #0
 8002332:	601a      	str	r2, [r3, #0]
 8002334:	605a      	str	r2, [r3, #4]
 8002336:	609a      	str	r2, [r3, #8]
 8002338:	60da      	str	r2, [r3, #12]
 800233a:	611a      	str	r2, [r3, #16]
  if(htim_ic->Instance==TIM1)
 800233c:	687b      	ldr	r3, [r7, #4]
 800233e:	681b      	ldr	r3, [r3, #0]
 8002340:	4a1d      	ldr	r2, [pc, #116]	@ (80023b8 <HAL_TIM_IC_MspInit+0x94>)
 8002342:	4293      	cmp	r3, r2
 8002344:	d134      	bne.n	80023b0 <HAL_TIM_IC_MspInit+0x8c>
  {
  /* USER CODE BEGIN TIM1_MspInit 0 */

  /* USER CODE END TIM1_MspInit 0 */
    /* Peripheral clock enable */
    __HAL_RCC_TIM1_CLK_ENABLE();
 8002346:	2300      	movs	r3, #0
 8002348:	613b      	str	r3, [r7, #16]
 800234a:	4b1c      	ldr	r3, [pc, #112]	@ (80023bc <HAL_TIM_IC_MspInit+0x98>)
 800234c:	6c5b      	ldr	r3, [r3, #68]	@ 0x44
 800234e:	4a1b      	ldr	r2, [pc, #108]	@ (80023bc <HAL_TIM_IC_MspInit+0x98>)
 8002350:	f043 0301 	orr.w	r3, r3, #1
 8002354:	6453      	str	r3, [r2, #68]	@ 0x44
 8002356:	4b19      	ldr	r3, [pc, #100]	@ (80023bc <HAL_TIM_IC_MspInit+0x98>)
 8002358:	6c5b      	ldr	r3, [r3, #68]	@ 0x44
 800235a:	f003 0301 	and.w	r3, r3, #1
 800235e:	613b      	str	r3, [r7, #16]
 8002360:	693b      	ldr	r3, [r7, #16]

    __HAL_RCC_GPIOA_CLK_ENABLE();
 8002362:	2300      	movs	r3, #0
 8002364:	60fb      	str	r3, [r7, #12]
 8002366:	4b15      	ldr	r3, [pc, #84]	@ (80023bc <HAL_TIM_IC_MspInit+0x98>)
 8002368:	6b1b      	ldr	r3, [r3, #48]	@ 0x30
 800236a:	4a14      	ldr	r2, [pc, #80]	@ (80023bc <HAL_TIM_IC_MspInit+0x98>)
 800236c:	f043 0301 	orr.w	r3, r3, #1
 8002370:	6313      	str	r3, [r2, #48]	@ 0x30
 8002372:	4b12      	ldr	r3, [pc, #72]	@ (80023bc <HAL_TIM_IC_MspInit+0x98>)
 8002374:	6b1b      	ldr	r3, [r3, #48]	@ 0x30
 8002376:	f003 0301 	and.w	r3, r3, #1
 800237a:	60fb      	str	r3, [r7, #12]
 800237c:	68fb      	ldr	r3, [r7, #12]
    /**TIM1 GPIO Configuration
    PA9     ------> TIM1_CH2
    */
    GPIO_InitStruct.Pin = GPIO_PIN_9;
 800237e:	f44f 7300 	mov.w	r3, #512	@ 0x200
 8002382:	617b      	str	r3, [r7, #20]
    GPIO_InitStruct.Mode = GPIO_MODE_AF_PP;
 8002384:	2302      	movs	r3, #2
 8002386:	61bb      	str	r3, [r7, #24]
    GPIO_InitStruct.Pull = GPIO_NOPULL;
 8002388:	2300      	movs	r3, #0
 800238a:	61fb      	str	r3, [r7, #28]
    GPIO_InitStruct.Speed = GPIO_SPEED_FREQ_LOW;
 800238c:	2300      	movs	r3, #0
 800238e:	623b      	str	r3, [r7, #32]
    GPIO_InitStruct.Alternate = GPIO_AF1_TIM1;
 8002390:	2301      	movs	r3, #1
 8002392:	627b      	str	r3, [r7, #36]	@ 0x24
    HAL_GPIO_Init(GPIOA, &GPIO_InitStruct);
 8002394:	f107 0314 	add.w	r3, r7, #20
 8002398:	4619      	mov	r1, r3
 800239a:	4809      	ldr	r0, [pc, #36]	@ (80023c0 <HAL_TIM_IC_MspInit+0x9c>)
 800239c:	f001 f80e 	bl	80033bc <HAL_GPIO_Init>

    /* TIM1 interrupt Init */
    HAL_NVIC_SetPriority(TIM1_CC_IRQn, 0, 0);
 80023a0:	2200      	movs	r2, #0
 80023a2:	2100      	movs	r1, #0
 80023a4:	201b      	movs	r0, #27
 80023a6:	f000 ffd2 	bl	800334e <HAL_NVIC_SetPriority>
    HAL_NVIC_EnableIRQ(TIM1_CC_IRQn);
 80023aa:	201b      	movs	r0, #27
 80023ac:	f000 ffeb 	bl	8003386 <HAL_NVIC_EnableIRQ>

  /* USER CODE END TIM1_MspInit 1 */

  }

}
 80023b0:	bf00      	nop
 80023b2:	3728      	adds	r7, #40	@ 0x28
 80023b4:	46bd      	mov	sp, r7
 80023b6:	bd80      	pop	{r7, pc}
 80023b8:	40010000 	.word	0x40010000
 80023bc:	40023800 	.word	0x40023800
 80023c0:	40020000 	.word	0x40020000

080023c4 <HAL_TIM_Base_MspInit>:
* This function configures the hardware resources used in this example
* @param htim_base: TIM_Base handle pointer
* @retval None
*/
void HAL_TIM_Base_MspInit(TIM_HandleTypeDef* htim_base)
{
 80023c4:	b480      	push	{r7}
 80023c6:	b085      	sub	sp, #20
 80023c8:	af00      	add	r7, sp, #0
 80023ca:	6078      	str	r0, [r7, #4]
  if(htim_base->Instance==TIM4)
 80023cc:	687b      	ldr	r3, [r7, #4]
 80023ce:	681b      	ldr	r3, [r3, #0]
 80023d0:	4a0b      	ldr	r2, [pc, #44]	@ (8002400 <HAL_TIM_Base_MspInit+0x3c>)
 80023d2:	4293      	cmp	r3, r2
 80023d4:	d10d      	bne.n	80023f2 <HAL_TIM_Base_MspInit+0x2e>
  {
  /* USER CODE BEGIN TIM4_MspInit 0 */

  /* USER CODE END TIM4_MspInit 0 */
    /* Peripheral clock enable */
    __HAL_RCC_TIM4_CLK_ENABLE();
 80023d6:	2300      	movs	r3, #0
 80023d8:	60fb      	str	r3, [r7, #12]
 80023da:	4b0a      	ldr	r3, [pc, #40]	@ (8002404 <HAL_TIM_Base_MspInit+0x40>)
 80023dc:	6c1b      	ldr	r3, [r3, #64]	@ 0x40
 80023de:	4a09      	ldr	r2, [pc, #36]	@ (8002404 <HAL_TIM_Base_MspInit+0x40>)
 80023e0:	f043 0304 	orr.w	r3, r3, #4
 80023e4:	6413      	str	r3, [r2, #64]	@ 0x40
 80023e6:	4b07      	ldr	r3, [pc, #28]	@ (8002404 <HAL_TIM_Base_MspInit+0x40>)
 80023e8:	6c1b      	ldr	r3, [r3, #64]	@ 0x40
 80023ea:	f003 0304 	and.w	r3, r3, #4
 80023ee:	60fb      	str	r3, [r7, #12]
 80023f0:	68fb      	ldr	r3, [r7, #12]

  /* USER CODE END TIM4_MspInit 1 */

  }

}
 80023f2:	bf00      	nop
 80023f4:	3714      	adds	r7, #20
 80023f6:	46bd      	mov	sp, r7
 80023f8:	f85d 7b04 	ldr.w	r7, [sp], #4
 80023fc:	4770      	bx	lr
 80023fe:	bf00      	nop
 8002400:	40000800 	.word	0x40000800
 8002404:	40023800 	.word	0x40023800

08002408 <HAL_UART_MspInit>:
* This function configures the hardware resources used in this example
* @param huart: UART handle pointer
* @retval None
*/
void HAL_UART_MspInit(UART_HandleTypeDef* huart)
{
 8002408:	b580      	push	{r7, lr}
 800240a:	b08a      	sub	sp, #40	@ 0x28
 800240c:	af00      	add	r7, sp, #0
 800240e:	6078      	str	r0, [r7, #4]
  GPIO_InitTypeDef GPIO_InitStruct = {0};
 8002410:	f107 0314 	add.w	r3, r7, #20
 8002414:	2200      	movs	r2, #0
 8002416:	601a      	str	r2, [r3, #0]
 8002418:	605a      	str	r2, [r3, #4]
 800241a:	609a      	str	r2, [r3, #8]
 800241c:	60da      	str	r2, [r3, #12]
 800241e:	611a      	str	r2, [r3, #16]
  if(huart->Instance==USART3)
 8002420:	687b      	ldr	r3, [r7, #4]
 8002422:	681b      	ldr	r3, [r3, #0]
 8002424:	4a19      	ldr	r2, [pc, #100]	@ (800248c <HAL_UART_MspInit+0x84>)
 8002426:	4293      	cmp	r3, r2
 8002428:	d12c      	bne.n	8002484 <HAL_UART_MspInit+0x7c>
  {
  /* USER CODE BEGIN USART3_MspInit 0 */

  /* USER CODE END USART3_MspInit 0 */
    /* Peripheral clock enable */
    __HAL_RCC_USART3_CLK_ENABLE();
 800242a:	2300      	movs	r3, #0
 800242c:	613b      	str	r3, [r7, #16]
 800242e:	4b18      	ldr	r3, [pc, #96]	@ (8002490 <HAL_UART_MspInit+0x88>)
 8002430:	6c1b      	ldr	r3, [r3, #64]	@ 0x40
 8002432:	4a17      	ldr	r2, [pc, #92]	@ (8002490 <HAL_UART_MspInit+0x88>)
 8002434:	f443 2380 	orr.w	r3, r3, #262144	@ 0x40000
 8002438:	6413      	str	r3, [r2, #64]	@ 0x40
 800243a:	4b15      	ldr	r3, [pc, #84]	@ (8002490 <HAL_UART_MspInit+0x88>)
 800243c:	6c1b      	ldr	r3, [r3, #64]	@ 0x40
 800243e:	f403 2380 	and.w	r3, r3, #262144	@ 0x40000
 8002442:	613b      	str	r3, [r7, #16]
 8002444:	693b      	ldr	r3, [r7, #16]

    __HAL_RCC_GPIOD_CLK_ENABLE();
 8002446:	2300      	movs	r3, #0
 8002448:	60fb      	str	r3, [r7, #12]
 800244a:	4b11      	ldr	r3, [pc, #68]	@ (8002490 <HAL_UART_MspInit+0x88>)
 800244c:	6b1b      	ldr	r3, [r3, #48]	@ 0x30
 800244e:	4a10      	ldr	r2, [pc, #64]	@ (8002490 <HAL_UART_MspInit+0x88>)
 8002450:	f043 0308 	orr.w	r3, r3, #8
 8002454:	6313      	str	r3, [r2, #48]	@ 0x30
 8002456:	4b0e      	ldr	r3, [pc, #56]	@ (8002490 <HAL_UART_MspInit+0x88>)
 8002458:	6b1b      	ldr	r3, [r3, #48]	@ 0x30
 800245a:	f003 0308 	and.w	r3, r3, #8
 800245e:	60fb      	str	r3, [r7, #12]
 8002460:	68fb      	ldr	r3, [r7, #12]
    /**USART3 GPIO Configuration
    PD8     ------> USART3_TX
    PD9     ------> USART3_RX
    */
    GPIO_InitStruct.Pin = GPIO_PIN_8|GPIO_PIN_9;
 8002462:	f44f 7340 	mov.w	r3, #768	@ 0x300
 8002466:	617b      	str	r3, [r7, #20]
    GPIO_InitStruct.Mode = GPIO_MODE_AF_PP;
 8002468:	2302      	movs	r3, #2
 800246a:	61bb      	str	r3, [r7, #24]
    GPIO_InitStruct.Pull = GPIO_NOPULL;
 800246c:	2300      	movs	r3, #0
 800246e:	61fb      	str	r3, [r7, #28]
    GPIO_InitStruct.Speed = GPIO_SPEED_FREQ_VERY_HIGH;
 8002470:	2303      	movs	r3, #3
 8002472:	623b      	str	r3, [r7, #32]
    GPIO_InitStruct.Alternate = GPIO_AF7_USART3;
 8002474:	2307      	movs	r3, #7
 8002476:	627b      	str	r3, [r7, #36]	@ 0x24
    HAL_GPIO_Init(GPIOD, &GPIO_InitStruct);
 8002478:	f107 0314 	add.w	r3, r7, #20
 800247c:	4619      	mov	r1, r3
 800247e:	4805      	ldr	r0, [pc, #20]	@ (8002494 <HAL_UART_MspInit+0x8c>)
 8002480:	f000 ff9c 	bl	80033bc <HAL_GPIO_Init>

  /* USER CODE END USART3_MspInit 1 */

  }

}
 8002484:	bf00      	nop
 8002486:	3728      	adds	r7, #40	@ 0x28
 8002488:	46bd      	mov	sp, r7
 800248a:	bd80      	pop	{r7, pc}
 800248c:	40004800 	.word	0x40004800
 8002490:	40023800 	.word	0x40023800
 8002494:	40020c00 	.word	0x40020c00

08002498 <NMI_Handler>:
/******************************************************************************/
/**
  * @brief This function handles Non maskable interrupt.
  */
void NMI_Handler(void)
{
 8002498:	b480      	push	{r7}
 800249a:	af00      	add	r7, sp, #0
  /* USER CODE BEGIN NonMaskableInt_IRQn 0 */

  /* USER CODE END NonMaskableInt_IRQn 0 */
  /* USER CODE BEGIN NonMaskableInt_IRQn 1 */
   while (1)
 800249c:	bf00      	nop
 800249e:	e7fd      	b.n	800249c <NMI_Handler+0x4>

080024a0 <HardFault_Handler>:

/**
  * @brief This function handles Hard fault interrupt.
  */
void HardFault_Handler(void)
{
 80024a0:	b480      	push	{r7}
 80024a2:	af00      	add	r7, sp, #0
  /* USER CODE BEGIN HardFault_IRQn 0 */

  /* USER CODE END HardFault_IRQn 0 */
  while (1)
 80024a4:	bf00      	nop
 80024a6:	e7fd      	b.n	80024a4 <HardFault_Handler+0x4>

080024a8 <MemManage_Handler>:

/**
  * @brief This function handles Memory management fault.
  */
void MemManage_Handler(void)
{
 80024a8:	b480      	push	{r7}
 80024aa:	af00      	add	r7, sp, #0
  /* USER CODE BEGIN MemoryManagement_IRQn 0 */

  /* USER CODE END MemoryManagement_IRQn 0 */
  while (1)
 80024ac:	bf00      	nop
 80024ae:	e7fd      	b.n	80024ac <MemManage_Handler+0x4>

080024b0 <BusFault_Handler>:

/**
  * @brief This function handles Pre-fetch fault, memory access fault.
  */
void BusFault_Handler(void)
{
 80024b0:	b480      	push	{r7}
 80024b2:	af00      	add	r7, sp, #0
  /* USER CODE BEGIN BusFault_IRQn 0 */

  /* USER CODE END BusFault_IRQn 0 */
  while (1)
 80024b4:	bf00      	nop
 80024b6:	e7fd      	b.n	80024b4 <BusFault_Handler+0x4>

080024b8 <UsageFault_Handler>:

/**
  * @brief This function handles Undefined instruction or illegal state.
  */
void UsageFault_Handler(void)
{
 80024b8:	b480      	push	{r7}
 80024ba:	af00      	add	r7, sp, #0
  /* USER CODE BEGIN UsageFault_IRQn 0 */

  /* USER CODE END UsageFault_IRQn 0 */
  while (1)
 80024bc:	bf00      	nop
 80024be:	e7fd      	b.n	80024bc <UsageFault_Handler+0x4>

080024c0 <SVC_Handler>:

/**
  * @brief This function handles System service call via SWI instruction.
  */
void SVC_Handler(void)
{
 80024c0:	b480      	push	{r7}
 80024c2:	af00      	add	r7, sp, #0

  /* USER CODE END SVCall_IRQn 0 */
  /* USER CODE BEGIN SVCall_IRQn 1 */

  /* USER CODE END SVCall_IRQn 1 */
}
 80024c4:	bf00      	nop
 80024c6:	46bd      	mov	sp, r7
 80024c8:	f85d 7b04 	ldr.w	r7, [sp], #4
 80024cc:	4770      	bx	lr

080024ce <DebugMon_Handler>:

/**
  * @brief This function handles Debug monitor.
  */
void DebugMon_Handler(void)
{
 80024ce:	b480      	push	{r7}
 80024d0:	af00      	add	r7, sp, #0

  /* USER CODE END DebugMonitor_IRQn 0 */
  /* USER CODE BEGIN DebugMonitor_IRQn 1 */

  /* USER CODE END DebugMonitor_IRQn 1 */
}
 80024d2:	bf00      	nop
 80024d4:	46bd      	mov	sp, r7
 80024d6:	f85d 7b04 	ldr.w	r7, [sp], #4
 80024da:	4770      	bx	lr

080024dc <PendSV_Handler>:

/**
  * @brief This function handles Pendable request for system service.
  */
void PendSV_Handler(void)
{
 80024dc:	b480      	push	{r7}
 80024de:	af00      	add	r7, sp, #0

  /* USER CODE END PendSV_IRQn 0 */
  /* USER CODE BEGIN PendSV_IRQn 1 */

  /* USER CODE END PendSV_IRQn 1 */
}
 80024e0:	bf00      	nop
 80024e2:	46bd      	mov	sp, r7
 80024e4:	f85d 7b04 	ldr.w	r7, [sp], #4
 80024e8:	4770      	bx	lr

080024ea <SysTick_Handler>:

/**
  * @brief This function handles System tick timer.
  */
void SysTick_Handler(void)
{
 80024ea:	b580      	push	{r7, lr}
 80024ec:	af00      	add	r7, sp, #0
  /* USER CODE BEGIN SysTick_IRQn 0 */

  /* USER CODE END SysTick_IRQn 0 */
  HAL_IncTick();
 80024ee:	f000 f993 	bl	8002818 <HAL_IncTick>
  /* USER CODE BEGIN SysTick_IRQn 1 */

  /* USER CODE END SysTick_IRQn 1 */
}
 80024f2:	bf00      	nop
 80024f4:	bd80      	pop	{r7, pc}
	...

080024f8 <ADC_IRQHandler>:

/**
  * @brief This function handles ADC1, ADC2 and ADC3 global interrupts.
  */
void ADC_IRQHandler(void)
{
 80024f8:	b580      	push	{r7, lr}
 80024fa:	af00      	add	r7, sp, #0
  /* USER CODE BEGIN ADC_IRQn 0 */

  /* USER CODE END ADC_IRQn 0 */
  HAL_ADC_IRQHandler(&hadc1);
 80024fc:	4803      	ldr	r0, [pc, #12]	@ (800250c <ADC_IRQHandler+0x14>)
 80024fe:	f000 faf1 	bl	8002ae4 <HAL_ADC_IRQHandler>
  HAL_ADC_IRQHandler(&hadc2);
 8002502:	4803      	ldr	r0, [pc, #12]	@ (8002510 <ADC_IRQHandler+0x18>)
 8002504:	f000 faee 	bl	8002ae4 <HAL_ADC_IRQHandler>
  /* USER CODE BEGIN ADC_IRQn 1 */

  /* USER CODE END ADC_IRQn 1 */
}
 8002508:	bf00      	nop
 800250a:	bd80      	pop	{r7, pc}
 800250c:	200001f8 	.word	0x200001f8
 8002510:	20000240 	.word	0x20000240

08002514 <TIM1_CC_IRQHandler>:

/**
  * @brief This function handles TIM1 capture compare interrupt.
  */
void TIM1_CC_IRQHandler(void)
{
 8002514:	b580      	push	{r7, lr}
 8002516:	af00      	add	r7, sp, #0
  /* USER CODE BEGIN TIM1_CC_IRQn 0 */

  /* USER CODE END TIM1_CC_IRQn 0 */
  HAL_TIM_IRQHandler(&htim1);
 8002518:	4802      	ldr	r0, [pc, #8]	@ (8002524 <TIM1_CC_IRQHandler+0x10>)
 800251a:	f002 fee2 	bl	80052e2 <HAL_TIM_IRQHandler>
  /* USER CODE BEGIN TIM1_CC_IRQn 1 */

  /* USER CODE END TIM1_CC_IRQn 1 */
}
 800251e:	bf00      	nop
 8002520:	bd80      	pop	{r7, pc}
 8002522:	bf00      	nop
 8002524:	200002dc 	.word	0x200002dc

08002528 <EXTI15_10_IRQHandler>:

/**
  * @brief This function handles EXTI line[15:10] interrupts.
  */
void EXTI15_10_IRQHandler(void)
{
 8002528:	b580      	push	{r7, lr}
 800252a:	b082      	sub	sp, #8
 800252c:	af00      	add	r7, sp, #0
  /* USER CODE BEGIN EXTI15_10_IRQn 0 */
	 task++;
 800252e:	4b0e      	ldr	r3, [pc, #56]	@ (8002568 <EXTI15_10_IRQHandler+0x40>)
 8002530:	681b      	ldr	r3, [r3, #0]
 8002532:	3301      	adds	r3, #1
 8002534:	4a0c      	ldr	r2, [pc, #48]	@ (8002568 <EXTI15_10_IRQHandler+0x40>)
 8002536:	6013      	str	r3, [r2, #0]

	    if (task > 2)
 8002538:	4b0b      	ldr	r3, [pc, #44]	@ (8002568 <EXTI15_10_IRQHandler+0x40>)
 800253a:	681b      	ldr	r3, [r3, #0]
 800253c:	2b02      	cmp	r3, #2
 800253e:	dd02      	ble.n	8002546 <EXTI15_10_IRQHandler+0x1e>
	    {
	      task = 0;
 8002540:	4b09      	ldr	r3, [pc, #36]	@ (8002568 <EXTI15_10_IRQHandler+0x40>)
 8002542:	2200      	movs	r2, #0
 8002544:	601a      	str	r2, [r3, #0]
		// Busy loop delay
		//
		// ~ 50ms
		unsigned int cnt;

		cnt = 500000;
 8002546:	4b09      	ldr	r3, [pc, #36]	@ (800256c <EXTI15_10_IRQHandler+0x44>)
 8002548:	607b      	str	r3, [r7, #4]
		while (cnt--)
 800254a:	e000      	b.n	800254e <EXTI15_10_IRQHandler+0x26>
			asm("nop");
 800254c:	bf00      	nop
		while (cnt--)
 800254e:	687b      	ldr	r3, [r7, #4]
 8002550:	1e5a      	subs	r2, r3, #1
 8002552:	607a      	str	r2, [r7, #4]
 8002554:	2b00      	cmp	r3, #0
 8002556:	d1f9      	bne.n	800254c <EXTI15_10_IRQHandler+0x24>

  /* USER CODE END EXTI15_10_IRQn 0 */
  HAL_GPIO_EXTI_IRQHandler(Task1_Pin);
 8002558:	f44f 4000 	mov.w	r0, #32768	@ 0x8000
 800255c:	f001 f8e4 	bl	8003728 <HAL_GPIO_EXTI_IRQHandler>
  /* USER CODE BEGIN EXTI15_10_IRQn 1 */

  /* USER CODE END EXTI15_10_IRQn 1 */
}
 8002560:	bf00      	nop
 8002562:	3708      	adds	r7, #8
 8002564:	46bd      	mov	sp, r7
 8002566:	bd80      	pop	{r7, pc}
 8002568:	200003bc 	.word	0x200003bc
 800256c:	0007a120 	.word	0x0007a120

08002570 <_getpid>:
void initialise_monitor_handles()
{
}

int _getpid(void)
{
 8002570:	b480      	push	{r7}
 8002572:	af00      	add	r7, sp, #0
  return 1;
 8002574:	2301      	movs	r3, #1
}
 8002576:	4618      	mov	r0, r3
 8002578:	46bd      	mov	sp, r7
 800257a:	f85d 7b04 	ldr.w	r7, [sp], #4
 800257e:	4770      	bx	lr

08002580 <_kill>:

int _kill(int pid, int sig)
{
 8002580:	b580      	push	{r7, lr}
 8002582:	b082      	sub	sp, #8
 8002584:	af00      	add	r7, sp, #0
 8002586:	6078      	str	r0, [r7, #4]
 8002588:	6039      	str	r1, [r7, #0]
  (void)pid;
  (void)sig;
  errno = EINVAL;
 800258a:	f004 fe65 	bl	8007258 <__errno>
 800258e:	4603      	mov	r3, r0
 8002590:	2216      	movs	r2, #22
 8002592:	601a      	str	r2, [r3, #0]
  return -1;
 8002594:	f04f 33ff 	mov.w	r3, #4294967295
}
 8002598:	4618      	mov	r0, r3
 800259a:	3708      	adds	r7, #8
 800259c:	46bd      	mov	sp, r7
 800259e:	bd80      	pop	{r7, pc}

080025a0 <_exit>:

void _exit (int status)
{
 80025a0:	b580      	push	{r7, lr}
 80025a2:	b082      	sub	sp, #8
 80025a4:	af00      	add	r7, sp, #0
 80025a6:	6078      	str	r0, [r7, #4]
  _kill(status, -1);
 80025a8:	f04f 31ff 	mov.w	r1, #4294967295
 80025ac:	6878      	ldr	r0, [r7, #4]
 80025ae:	f7ff ffe7 	bl	8002580 <_kill>
  while (1) {}    /* Make sure we hang here */
 80025b2:	bf00      	nop
 80025b4:	e7fd      	b.n	80025b2 <_exit+0x12>

080025b6 <_read>:
}

__attribute__((weak)) int _read(int file, char *ptr, int len)
{
 80025b6:	b580      	push	{r7, lr}
 80025b8:	b086      	sub	sp, #24
 80025ba:	af00      	add	r7, sp, #0
 80025bc:	60f8      	str	r0, [r7, #12]
 80025be:	60b9      	str	r1, [r7, #8]
 80025c0:	607a      	str	r2, [r7, #4]
  (void)file;
  int DataIdx;

  for (DataIdx = 0; DataIdx < len; DataIdx++)
 80025c2:	2300      	movs	r3, #0
 80025c4:	617b      	str	r3, [r7, #20]
 80025c6:	e00a      	b.n	80025de <_read+0x28>
  {
    *ptr++ = __io_getchar();
 80025c8:	f3af 8000 	nop.w
 80025cc:	4601      	mov	r1, r0
 80025ce:	68bb      	ldr	r3, [r7, #8]
 80025d0:	1c5a      	adds	r2, r3, #1
 80025d2:	60ba      	str	r2, [r7, #8]
 80025d4:	b2ca      	uxtb	r2, r1
 80025d6:	701a      	strb	r2, [r3, #0]
  for (DataIdx = 0; DataIdx < len; DataIdx++)
 80025d8:	697b      	ldr	r3, [r7, #20]
 80025da:	3301      	adds	r3, #1
 80025dc:	617b      	str	r3, [r7, #20]
 80025de:	697a      	ldr	r2, [r7, #20]
 80025e0:	687b      	ldr	r3, [r7, #4]
 80025e2:	429a      	cmp	r2, r3
 80025e4:	dbf0      	blt.n	80025c8 <_read+0x12>
  }

  return len;
 80025e6:	687b      	ldr	r3, [r7, #4]
}
 80025e8:	4618      	mov	r0, r3
 80025ea:	3718      	adds	r7, #24
 80025ec:	46bd      	mov	sp, r7
 80025ee:	bd80      	pop	{r7, pc}

080025f0 <_write>:

__attribute__((weak)) int _write(int file, char *ptr, int len)
{
 80025f0:	b580      	push	{r7, lr}
 80025f2:	b086      	sub	sp, #24
 80025f4:	af00      	add	r7, sp, #0
 80025f6:	60f8      	str	r0, [r7, #12]
 80025f8:	60b9      	str	r1, [r7, #8]
 80025fa:	607a      	str	r2, [r7, #4]
  (void)file;
  int DataIdx;

  for (DataIdx = 0; DataIdx < len; DataIdx++)
 80025fc:	2300      	movs	r3, #0
 80025fe:	617b      	str	r3, [r7, #20]
 8002600:	e009      	b.n	8002616 <_write+0x26>
  {
    __io_putchar(*ptr++);
 8002602:	68bb      	ldr	r3, [r7, #8]
 8002604:	1c5a      	adds	r2, r3, #1
 8002606:	60ba      	str	r2, [r7, #8]
 8002608:	781b      	ldrb	r3, [r3, #0]
 800260a:	4618      	mov	r0, r3
 800260c:	f3af 8000 	nop.w
  for (DataIdx = 0; DataIdx < len; DataIdx++)
 8002610:	697b      	ldr	r3, [r7, #20]
 8002612:	3301      	adds	r3, #1
 8002614:	617b      	str	r3, [r7, #20]
 8002616:	697a      	ldr	r2, [r7, #20]
 8002618:	687b      	ldr	r3, [r7, #4]
 800261a:	429a      	cmp	r2, r3
 800261c:	dbf1      	blt.n	8002602 <_write+0x12>
  }
  return len;
 800261e:	687b      	ldr	r3, [r7, #4]
}
 8002620:	4618      	mov	r0, r3
 8002622:	3718      	adds	r7, #24
 8002624:	46bd      	mov	sp, r7
 8002626:	bd80      	pop	{r7, pc}

08002628 <_close>:

int _close(int file)
{
 8002628:	b480      	push	{r7}
 800262a:	b083      	sub	sp, #12
 800262c:	af00      	add	r7, sp, #0
 800262e:	6078      	str	r0, [r7, #4]
  (void)file;
  return -1;
 8002630:	f04f 33ff 	mov.w	r3, #4294967295
}
 8002634:	4618      	mov	r0, r3
 8002636:	370c      	adds	r7, #12
 8002638:	46bd      	mov	sp, r7
 800263a:	f85d 7b04 	ldr.w	r7, [sp], #4
 800263e:	4770      	bx	lr

08002640 <_fstat>:


int _fstat(int file, struct stat *st)
{
 8002640:	b480      	push	{r7}
 8002642:	b083      	sub	sp, #12
 8002644:	af00      	add	r7, sp, #0
 8002646:	6078      	str	r0, [r7, #4]
 8002648:	6039      	str	r1, [r7, #0]
  (void)file;
  st->st_mode = S_IFCHR;
 800264a:	683b      	ldr	r3, [r7, #0]
 800264c:	f44f 5200 	mov.w	r2, #8192	@ 0x2000
 8002650:	605a      	str	r2, [r3, #4]
  return 0;
 8002652:	2300      	movs	r3, #0
}
 8002654:	4618      	mov	r0, r3
 8002656:	370c      	adds	r7, #12
 8002658:	46bd      	mov	sp, r7
 800265a:	f85d 7b04 	ldr.w	r7, [sp], #4
 800265e:	4770      	bx	lr

08002660 <_isatty>:

int _isatty(int file)
{
 8002660:	b480      	push	{r7}
 8002662:	b083      	sub	sp, #12
 8002664:	af00      	add	r7, sp, #0
 8002666:	6078      	str	r0, [r7, #4]
  (void)file;
  return 1;
 8002668:	2301      	movs	r3, #1
}
 800266a:	4618      	mov	r0, r3
 800266c:	370c      	adds	r7, #12
 800266e:	46bd      	mov	sp, r7
 8002670:	f85d 7b04 	ldr.w	r7, [sp], #4
 8002674:	4770      	bx	lr

08002676 <_lseek>:

int _lseek(int file, int ptr, int dir)
{
 8002676:	b480      	push	{r7}
 8002678:	b085      	sub	sp, #20
 800267a:	af00      	add	r7, sp, #0
 800267c:	60f8      	str	r0, [r7, #12]
 800267e:	60b9      	str	r1, [r7, #8]
 8002680:	607a      	str	r2, [r7, #4]
  (void)file;
  (void)ptr;
  (void)dir;
  return 0;
 8002682:	2300      	movs	r3, #0
}
 8002684:	4618      	mov	r0, r3
 8002686:	3714      	adds	r7, #20
 8002688:	46bd      	mov	sp, r7
 800268a:	f85d 7b04 	ldr.w	r7, [sp], #4
 800268e:	4770      	bx	lr

08002690 <_sbrk>:
 *
 * @param incr Memory size
 * @return Pointer to allocated memory
 */
void *_sbrk(ptrdiff_t incr)
{
 8002690:	b580      	push	{r7, lr}
 8002692:	b086      	sub	sp, #24
 8002694:	af00      	add	r7, sp, #0
 8002696:	6078      	str	r0, [r7, #4]
  extern uint8_t _end; /* Symbol defined in the linker script */
  extern uint8_t _estack; /* Symbol defined in the linker script */
  extern uint32_t _Min_Stack_Size; /* Symbol defined in the linker script */
  const uint32_t stack_limit = (uint32_t)&_estack - (uint32_t)&_Min_Stack_Size;
 8002698:	4a14      	ldr	r2, [pc, #80]	@ (80026ec <_sbrk+0x5c>)
 800269a:	4b15      	ldr	r3, [pc, #84]	@ (80026f0 <_sbrk+0x60>)
 800269c:	1ad3      	subs	r3, r2, r3
 800269e:	617b      	str	r3, [r7, #20]
  const uint8_t *max_heap = (uint8_t *)stack_limit;
 80026a0:	697b      	ldr	r3, [r7, #20]
 80026a2:	613b      	str	r3, [r7, #16]
  uint8_t *prev_heap_end;

  /* Initialize heap end at first call */
  if (NULL == __sbrk_heap_end)
 80026a4:	4b13      	ldr	r3, [pc, #76]	@ (80026f4 <_sbrk+0x64>)
 80026a6:	681b      	ldr	r3, [r3, #0]
 80026a8:	2b00      	cmp	r3, #0
 80026aa:	d102      	bne.n	80026b2 <_sbrk+0x22>
  {
    __sbrk_heap_end = &_end;
 80026ac:	4b11      	ldr	r3, [pc, #68]	@ (80026f4 <_sbrk+0x64>)
 80026ae:	4a12      	ldr	r2, [pc, #72]	@ (80026f8 <_sbrk+0x68>)
 80026b0:	601a      	str	r2, [r3, #0]
  }

  /* Protect heap from growing into the reserved MSP stack */
  if (__sbrk_heap_end + incr > max_heap)
 80026b2:	4b10      	ldr	r3, [pc, #64]	@ (80026f4 <_sbrk+0x64>)
 80026b4:	681a      	ldr	r2, [r3, #0]
 80026b6:	687b      	ldr	r3, [r7, #4]
 80026b8:	4413      	add	r3, r2
 80026ba:	693a      	ldr	r2, [r7, #16]
 80026bc:	429a      	cmp	r2, r3
 80026be:	d207      	bcs.n	80026d0 <_sbrk+0x40>
  {
    errno = ENOMEM;
 80026c0:	f004 fdca 	bl	8007258 <__errno>
 80026c4:	4603      	mov	r3, r0
 80026c6:	220c      	movs	r2, #12
 80026c8:	601a      	str	r2, [r3, #0]
    return (void *)-1;
 80026ca:	f04f 33ff 	mov.w	r3, #4294967295
 80026ce:	e009      	b.n	80026e4 <_sbrk+0x54>
  }

  prev_heap_end = __sbrk_heap_end;
 80026d0:	4b08      	ldr	r3, [pc, #32]	@ (80026f4 <_sbrk+0x64>)
 80026d2:	681b      	ldr	r3, [r3, #0]
 80026d4:	60fb      	str	r3, [r7, #12]
  __sbrk_heap_end += incr;
 80026d6:	4b07      	ldr	r3, [pc, #28]	@ (80026f4 <_sbrk+0x64>)
 80026d8:	681a      	ldr	r2, [r3, #0]
 80026da:	687b      	ldr	r3, [r7, #4]
 80026dc:	4413      	add	r3, r2
 80026de:	4a05      	ldr	r2, [pc, #20]	@ (80026f4 <_sbrk+0x64>)
 80026e0:	6013      	str	r3, [r2, #0]

  return (void *)prev_heap_end;
 80026e2:	68fb      	ldr	r3, [r7, #12]
}
 80026e4:	4618      	mov	r0, r3
 80026e6:	3718      	adds	r7, #24
 80026e8:	46bd      	mov	sp, r7
 80026ea:	bd80      	pop	{r7, pc}
 80026ec:	20020000 	.word	0x20020000
 80026f0:	00000400 	.word	0x00000400
 80026f4:	200003c4 	.word	0x200003c4
 80026f8:	20000518 	.word	0x20000518

080026fc <SystemInit>:
  *         configuration.
  * @param  None
  * @retval None
  */
void SystemInit(void)
{
 80026fc:	b480      	push	{r7}
 80026fe:	af00      	add	r7, sp, #0
  /* FPU settings ------------------------------------------------------------*/
  #if (__FPU_PRESENT == 1) && (__FPU_USED == 1)
    SCB->CPACR |= ((3UL << 10*2)|(3UL << 11*2));  /* set CP10 and CP11 Full Access */
 8002700:	4b06      	ldr	r3, [pc, #24]	@ (800271c <SystemInit+0x20>)
 8002702:	f8d3 3088 	ldr.w	r3, [r3, #136]	@ 0x88
 8002706:	4a05      	ldr	r2, [pc, #20]	@ (800271c <SystemInit+0x20>)
 8002708:	f443 0370 	orr.w	r3, r3, #15728640	@ 0xf00000
 800270c:	f8c2 3088 	str.w	r3, [r2, #136]	@ 0x88

  /* Configure the Vector Table location -------------------------------------*/
#if defined(USER_VECT_TAB_ADDRESS)
  SCB->VTOR = VECT_TAB_BASE_ADDRESS | VECT_TAB_OFFSET; /* Vector Table Relocation in Internal SRAM */
#endif /* USER_VECT_TAB_ADDRESS */
}
 8002710:	bf00      	nop
 8002712:	46bd      	mov	sp, r7
 8002714:	f85d 7b04 	ldr.w	r7, [sp], #4
 8002718:	4770      	bx	lr
 800271a:	bf00      	nop
 800271c:	e000ed00 	.word	0xe000ed00

08002720 <Reset_Handler>:

    .section  .text.Reset_Handler
  .weak  Reset_Handler
  .type  Reset_Handler, %function
Reset_Handler:  
  ldr   sp, =_estack     /* set stack pointer */
 8002720:	f8df d034 	ldr.w	sp, [pc, #52]	@ 8002758 <LoopFillZerobss+0xe>
  
/* Call the clock system initialization function.*/
  bl  SystemInit  
 8002724:	f7ff ffea 	bl	80026fc <SystemInit>

/* Copy the data segment initializers from flash to SRAM */  
  ldr r0, =_sdata
 8002728:	480c      	ldr	r0, [pc, #48]	@ (800275c <LoopFillZerobss+0x12>)
  ldr r1, =_edata
 800272a:	490d      	ldr	r1, [pc, #52]	@ (8002760 <LoopFillZerobss+0x16>)
  ldr r2, =_sidata
 800272c:	4a0d      	ldr	r2, [pc, #52]	@ (8002764 <LoopFillZerobss+0x1a>)
  movs r3, #0
 800272e:	2300      	movs	r3, #0
  b LoopCopyDataInit
 8002730:	e002      	b.n	8002738 <LoopCopyDataInit>

08002732 <CopyDataInit>:

CopyDataInit:
  ldr r4, [r2, r3]
 8002732:	58d4      	ldr	r4, [r2, r3]
  str r4, [r0, r3]
 8002734:	50c4      	str	r4, [r0, r3]
  adds r3, r3, #4
 8002736:	3304      	adds	r3, #4

08002738 <LoopCopyDataInit>:

LoopCopyDataInit:
  adds r4, r0, r3
 8002738:	18c4      	adds	r4, r0, r3
  cmp r4, r1
 800273a:	428c      	cmp	r4, r1
  bcc CopyDataInit
 800273c:	d3f9      	bcc.n	8002732 <CopyDataInit>
  
/* Zero fill the bss segment. */
  ldr r2, =_sbss
 800273e:	4a0a      	ldr	r2, [pc, #40]	@ (8002768 <LoopFillZerobss+0x1e>)
  ldr r4, =_ebss
 8002740:	4c0a      	ldr	r4, [pc, #40]	@ (800276c <LoopFillZerobss+0x22>)
  movs r3, #0
 8002742:	2300      	movs	r3, #0
  b LoopFillZerobss
 8002744:	e001      	b.n	800274a <LoopFillZerobss>

08002746 <FillZerobss>:

FillZerobss:
  str  r3, [r2]
 8002746:	6013      	str	r3, [r2, #0]
  adds r2, r2, #4
 8002748:	3204      	adds	r2, #4

0800274a <LoopFillZerobss>:

LoopFillZerobss:
  cmp r2, r4
 800274a:	42a2      	cmp	r2, r4
  bcc FillZerobss
 800274c:	d3fb      	bcc.n	8002746 <FillZerobss>

/* Call static constructors */
    bl __libc_init_array
 800274e:	f004 fd89 	bl	8007264 <__libc_init_array>
/* Call the application's entry point.*/
  bl  main
 8002752:	f7fe ff3b 	bl	80015cc <main>
  bx  lr    
 8002756:	4770      	bx	lr
  ldr   sp, =_estack     /* set stack pointer */
 8002758:	20020000 	.word	0x20020000
  ldr r0, =_sdata
 800275c:	20000000 	.word	0x20000000
  ldr r1, =_edata
 8002760:	200001dc 	.word	0x200001dc
  ldr r2, =_sidata
 8002764:	08009748 	.word	0x08009748
  ldr r2, =_sbss
 8002768:	200001dc 	.word	0x200001dc
  ldr r4, =_ebss
 800276c:	20000518 	.word	0x20000518

08002770 <CAN1_RX0_IRQHandler>:
 * @retval None       
*/
    .section  .text.Default_Handler,"ax",%progbits
Default_Handler:
Infinite_Loop:
  b  Infinite_Loop
 8002770:	e7fe      	b.n	8002770 <CAN1_RX0_IRQHandler>
	...

08002774 <HAL_Init>:
  *         need to ensure that the SysTick time base is always set to 1 millisecond
  *         to have correct HAL operation.
  * @retval HAL status
  */
HAL_StatusTypeDef HAL_Init(void)
{
 8002774:	b580      	push	{r7, lr}
 8002776:	af00      	add	r7, sp, #0
  /* Configure Flash prefetch, Instruction cache, Data cache */ 
#if (INSTRUCTION_CACHE_ENABLE != 0U)
  __HAL_FLASH_INSTRUCTION_CACHE_ENABLE();
 8002778:	4b0e      	ldr	r3, [pc, #56]	@ (80027b4 <HAL_Init+0x40>)
 800277a:	681b      	ldr	r3, [r3, #0]
 800277c:	4a0d      	ldr	r2, [pc, #52]	@ (80027b4 <HAL_Init+0x40>)
 800277e:	f443 7300 	orr.w	r3, r3, #512	@ 0x200
 8002782:	6013      	str	r3, [r2, #0]
#endif /* INSTRUCTION_CACHE_ENABLE */

#if (DATA_CACHE_ENABLE != 0U)
  __HAL_FLASH_DATA_CACHE_ENABLE();
 8002784:	4b0b      	ldr	r3, [pc, #44]	@ (80027b4 <HAL_Init+0x40>)
 8002786:	681b      	ldr	r3, [r3, #0]
 8002788:	4a0a      	ldr	r2, [pc, #40]	@ (80027b4 <HAL_Init+0x40>)
 800278a:	f443 6380 	orr.w	r3, r3, #1024	@ 0x400
 800278e:	6013      	str	r3, [r2, #0]
#endif /* DATA_CACHE_ENABLE */

#if (PREFETCH_ENABLE != 0U)
  __HAL_FLASH_PREFETCH_BUFFER_ENABLE();
 8002790:	4b08      	ldr	r3, [pc, #32]	@ (80027b4 <HAL_Init+0x40>)
 8002792:	681b      	ldr	r3, [r3, #0]
 8002794:	4a07      	ldr	r2, [pc, #28]	@ (80027b4 <HAL_Init+0x40>)
 8002796:	f443 7380 	orr.w	r3, r3, #256	@ 0x100
 800279a:	6013      	str	r3, [r2, #0]
#endif /* PREFETCH_ENABLE */

  /* Set Interrupt Group Priority */
  HAL_NVIC_SetPriorityGrouping(NVIC_PRIORITYGROUP_4);
 800279c:	2003      	movs	r0, #3
 800279e:	f000 fdcb 	bl	8003338 <HAL_NVIC_SetPriorityGrouping>

  /* Use systick as time base source and configure 1ms tick (default clock after Reset is HSI) */
  HAL_InitTick(TICK_INT_PRIORITY);
 80027a2:	200f      	movs	r0, #15
 80027a4:	f000 f808 	bl	80027b8 <HAL_InitTick>

  /* Init the low level hardware */
  HAL_MspInit();
 80027a8:	f7ff fcc8 	bl	800213c <HAL_MspInit>

  /* Return function status */
  return HAL_OK;
 80027ac:	2300      	movs	r3, #0
}
 80027ae:	4618      	mov	r0, r3
 80027b0:	bd80      	pop	{r7, pc}
 80027b2:	bf00      	nop
 80027b4:	40023c00 	.word	0x40023c00

080027b8 <HAL_InitTick>:
  *       implementation  in user file.
  * @param TickPriority Tick interrupt priority.
  * @retval HAL status
  */
__weak HAL_StatusTypeDef HAL_InitTick(uint32_t TickPriority)
{
 80027b8:	b580      	push	{r7, lr}
 80027ba:	b082      	sub	sp, #8
 80027bc:	af00      	add	r7, sp, #0
 80027be:	6078      	str	r0, [r7, #4]
  /* Configure the SysTick to have interrupt in 1ms time basis*/
  if (HAL_SYSTICK_Config(SystemCoreClock / (1000U / uwTickFreq)) > 0U)
 80027c0:	4b12      	ldr	r3, [pc, #72]	@ (800280c <HAL_InitTick+0x54>)
 80027c2:	681a      	ldr	r2, [r3, #0]
 80027c4:	4b12      	ldr	r3, [pc, #72]	@ (8002810 <HAL_InitTick+0x58>)
 80027c6:	781b      	ldrb	r3, [r3, #0]
 80027c8:	4619      	mov	r1, r3
 80027ca:	f44f 737a 	mov.w	r3, #1000	@ 0x3e8
 80027ce:	fbb3 f3f1 	udiv	r3, r3, r1
 80027d2:	fbb2 f3f3 	udiv	r3, r2, r3
 80027d6:	4618      	mov	r0, r3
 80027d8:	f000 fde3 	bl	80033a2 <HAL_SYSTICK_Config>
 80027dc:	4603      	mov	r3, r0
 80027de:	2b00      	cmp	r3, #0
 80027e0:	d001      	beq.n	80027e6 <HAL_InitTick+0x2e>
  {
    return HAL_ERROR;
 80027e2:	2301      	movs	r3, #1
 80027e4:	e00e      	b.n	8002804 <HAL_InitTick+0x4c>
  }

  /* Configure the SysTick IRQ priority */
  if (TickPriority < (1UL << __NVIC_PRIO_BITS))
 80027e6:	687b      	ldr	r3, [r7, #4]
 80027e8:	2b0f      	cmp	r3, #15
 80027ea:	d80a      	bhi.n	8002802 <HAL_InitTick+0x4a>
  {
    HAL_NVIC_SetPriority(SysTick_IRQn, TickPriority, 0U);
 80027ec:	2200      	movs	r2, #0
 80027ee:	6879      	ldr	r1, [r7, #4]
 80027f0:	f04f 30ff 	mov.w	r0, #4294967295
 80027f4:	f000 fdab 	bl	800334e <HAL_NVIC_SetPriority>
    uwTickPrio = TickPriority;
 80027f8:	4a06      	ldr	r2, [pc, #24]	@ (8002814 <HAL_InitTick+0x5c>)
 80027fa:	687b      	ldr	r3, [r7, #4]
 80027fc:	6013      	str	r3, [r2, #0]
  {
    return HAL_ERROR;
  }

  /* Return function status */
  return HAL_OK;
 80027fe:	2300      	movs	r3, #0
 8002800:	e000      	b.n	8002804 <HAL_InitTick+0x4c>
    return HAL_ERROR;
 8002802:	2301      	movs	r3, #1
}
 8002804:	4618      	mov	r0, r3
 8002806:	3708      	adds	r7, #8
 8002808:	46bd      	mov	sp, r7
 800280a:	bd80      	pop	{r7, pc}
 800280c:	20000008 	.word	0x20000008
 8002810:	20000010 	.word	0x20000010
 8002814:	2000000c 	.word	0x2000000c

08002818 <HAL_IncTick>:
 * @note This function is declared as __weak to be overwritten in case of other 
  *      implementations in user file.
  * @retval None
  */
__weak void HAL_IncTick(void)
{
 8002818:	b480      	push	{r7}
 800281a:	af00      	add	r7, sp, #0
  uwTick += uwTickFreq;
 800281c:	4b06      	ldr	r3, [pc, #24]	@ (8002838 <HAL_IncTick+0x20>)
 800281e:	781b      	ldrb	r3, [r3, #0]
 8002820:	461a      	mov	r2, r3
 8002822:	4b06      	ldr	r3, [pc, #24]	@ (800283c <HAL_IncTick+0x24>)
 8002824:	681b      	ldr	r3, [r3, #0]
 8002826:	4413      	add	r3, r2
 8002828:	4a04      	ldr	r2, [pc, #16]	@ (800283c <HAL_IncTick+0x24>)
 800282a:	6013      	str	r3, [r2, #0]
}
 800282c:	bf00      	nop
 800282e:	46bd      	mov	sp, r7
 8002830:	f85d 7b04 	ldr.w	r7, [sp], #4
 8002834:	4770      	bx	lr
 8002836:	bf00      	nop
 8002838:	20000010 	.word	0x20000010
 800283c:	200003c8 	.word	0x200003c8

08002840 <HAL_GetTick>:
  * @note This function is declared as __weak to be overwritten in case of other 
  *       implementations in user file.
  * @retval tick value
  */
__weak uint32_t HAL_GetTick(void)
{
 8002840:	b480      	push	{r7}
 8002842:	af00      	add	r7, sp, #0
  return uwTick;
 8002844:	4b03      	ldr	r3, [pc, #12]	@ (8002854 <HAL_GetTick+0x14>)
 8002846:	681b      	ldr	r3, [r3, #0]
}
 8002848:	4618      	mov	r0, r3
 800284a:	46bd      	mov	sp, r7
 800284c:	f85d 7b04 	ldr.w	r7, [sp], #4
 8002850:	4770      	bx	lr
 8002852:	bf00      	nop
 8002854:	200003c8 	.word	0x200003c8

08002858 <HAL_Delay>:
  *       implementations in user file.
  * @param Delay specifies the delay time length, in milliseconds.
  * @retval None
  */
__weak void HAL_Delay(uint32_t Delay)
{
 8002858:	b580      	push	{r7, lr}
 800285a:	b084      	sub	sp, #16
 800285c:	af00      	add	r7, sp, #0
 800285e:	6078      	str	r0, [r7, #4]
  uint32_t tickstart = HAL_GetTick();
 8002860:	f7ff ffee 	bl	8002840 <HAL_GetTick>
 8002864:	60b8      	str	r0, [r7, #8]
  uint32_t wait = Delay;
 8002866:	687b      	ldr	r3, [r7, #4]
 8002868:	60fb      	str	r3, [r7, #12]

  /* Add a freq to guarantee minimum wait */
  if (wait < HAL_MAX_DELAY)
 800286a:	68fb      	ldr	r3, [r7, #12]
 800286c:	f1b3 3fff 	cmp.w	r3, #4294967295
 8002870:	d005      	beq.n	800287e <HAL_Delay+0x26>
  {
    wait += (uint32_t)(uwTickFreq);
 8002872:	4b0a      	ldr	r3, [pc, #40]	@ (800289c <HAL_Delay+0x44>)
 8002874:	781b      	ldrb	r3, [r3, #0]
 8002876:	461a      	mov	r2, r3
 8002878:	68fb      	ldr	r3, [r7, #12]
 800287a:	4413      	add	r3, r2
 800287c:	60fb      	str	r3, [r7, #12]
  }

  while((HAL_GetTick() - tickstart) < wait)
 800287e:	bf00      	nop
 8002880:	f7ff ffde 	bl	8002840 <HAL_GetTick>
 8002884:	4602      	mov	r2, r0
 8002886:	68bb      	ldr	r3, [r7, #8]
 8002888:	1ad3      	subs	r3, r2, r3
 800288a:	68fa      	ldr	r2, [r7, #12]
 800288c:	429a      	cmp	r2, r3
 800288e:	d8f7      	bhi.n	8002880 <HAL_Delay+0x28>
  {
  }
}
 8002890:	bf00      	nop
 8002892:	bf00      	nop
 8002894:	3710      	adds	r7, #16
 8002896:	46bd      	mov	sp, r7
 8002898:	bd80      	pop	{r7, pc}
 800289a:	bf00      	nop
 800289c:	20000010 	.word	0x20000010

080028a0 <HAL_ADC_Init>:
  * @param  hadc pointer to a ADC_HandleTypeDef structure that contains
  *         the configuration information for the specified ADC.
  * @retval HAL status
  */
HAL_StatusTypeDef HAL_ADC_Init(ADC_HandleTypeDef *hadc)
{
 80028a0:	b580      	push	{r7, lr}
 80028a2:	b084      	sub	sp, #16
 80028a4:	af00      	add	r7, sp, #0
 80028a6:	6078      	str	r0, [r7, #4]
  HAL_StatusTypeDef tmp_hal_status = HAL_OK;
 80028a8:	2300      	movs	r3, #0
 80028aa:	73fb      	strb	r3, [r7, #15]

  /* Check ADC handle */
  if (hadc == NULL)
 80028ac:	687b      	ldr	r3, [r7, #4]
 80028ae:	2b00      	cmp	r3, #0
 80028b0:	d101      	bne.n	80028b6 <HAL_ADC_Init+0x16>
  {
    return HAL_ERROR;
 80028b2:	2301      	movs	r3, #1
 80028b4:	e033      	b.n	800291e <HAL_ADC_Init+0x7e>
  if (hadc->Init.ExternalTrigConv != ADC_SOFTWARE_START)
  {
    assert_param(IS_ADC_EXT_TRIG_EDGE(hadc->Init.ExternalTrigConvEdge));
  }

  if (hadc->State == HAL_ADC_STATE_RESET)
 80028b6:	687b      	ldr	r3, [r7, #4]
 80028b8:	6c1b      	ldr	r3, [r3, #64]	@ 0x40
 80028ba:	2b00      	cmp	r3, #0
 80028bc:	d109      	bne.n	80028d2 <HAL_ADC_Init+0x32>

    /* Init the low level hardware */
    hadc->MspInitCallback(hadc);
#else
    /* Init the low level hardware */
    HAL_ADC_MspInit(hadc);
 80028be:	6878      	ldr	r0, [r7, #4]
 80028c0:	f7ff fc64 	bl	800218c <HAL_ADC_MspInit>
#endif /* USE_HAL_ADC_REGISTER_CALLBACKS */

    /* Initialize ADC error code */
    ADC_CLEAR_ERRORCODE(hadc);
 80028c4:	687b      	ldr	r3, [r7, #4]
 80028c6:	2200      	movs	r2, #0
 80028c8:	645a      	str	r2, [r3, #68]	@ 0x44

    /* Allocate lock resource and initialize it */
    hadc->Lock = HAL_UNLOCKED;
 80028ca:	687b      	ldr	r3, [r7, #4]
 80028cc:	2200      	movs	r2, #0
 80028ce:	f883 203c 	strb.w	r2, [r3, #60]	@ 0x3c
  }

  /* Configuration of ADC parameters if previous preliminary actions are      */
  /* correctly completed.                                                     */
  if (HAL_IS_BIT_CLR(hadc->State, HAL_ADC_STATE_ERROR_INTERNAL))
 80028d2:	687b      	ldr	r3, [r7, #4]
 80028d4:	6c1b      	ldr	r3, [r3, #64]	@ 0x40
 80028d6:	f003 0310 	and.w	r3, r3, #16
 80028da:	2b00      	cmp	r3, #0
 80028dc:	d118      	bne.n	8002910 <HAL_ADC_Init+0x70>
  {
    /* Set ADC state */
    ADC_STATE_CLR_SET(hadc->State,
 80028de:	687b      	ldr	r3, [r7, #4]
 80028e0:	6c1b      	ldr	r3, [r3, #64]	@ 0x40
 80028e2:	f423 5388 	bic.w	r3, r3, #4352	@ 0x1100
 80028e6:	f023 0302 	bic.w	r3, r3, #2
 80028ea:	f043 0202 	orr.w	r2, r3, #2
 80028ee:	687b      	ldr	r3, [r7, #4]
 80028f0:	641a      	str	r2, [r3, #64]	@ 0x40
                      HAL_ADC_STATE_REG_BUSY | HAL_ADC_STATE_INJ_BUSY,
                      HAL_ADC_STATE_BUSY_INTERNAL);

    /* Set ADC parameters */
    ADC_Init(hadc);
 80028f2:	6878      	ldr	r0, [r7, #4]
 80028f4:	f000 fb4a 	bl	8002f8c <ADC_Init>

    /* Set ADC error code to none */
    ADC_CLEAR_ERRORCODE(hadc);
 80028f8:	687b      	ldr	r3, [r7, #4]
 80028fa:	2200      	movs	r2, #0
 80028fc:	645a      	str	r2, [r3, #68]	@ 0x44

    /* Set the ADC state */
    ADC_STATE_CLR_SET(hadc->State,
 80028fe:	687b      	ldr	r3, [r7, #4]
 8002900:	6c1b      	ldr	r3, [r3, #64]	@ 0x40
 8002902:	f023 0303 	bic.w	r3, r3, #3
 8002906:	f043 0201 	orr.w	r2, r3, #1
 800290a:	687b      	ldr	r3, [r7, #4]
 800290c:	641a      	str	r2, [r3, #64]	@ 0x40
 800290e:	e001      	b.n	8002914 <HAL_ADC_Init+0x74>
                      HAL_ADC_STATE_BUSY_INTERNAL,
                      HAL_ADC_STATE_READY);
  }
  else
  {
    tmp_hal_status = HAL_ERROR;
 8002910:	2301      	movs	r3, #1
 8002912:	73fb      	strb	r3, [r7, #15]
  }

  /* Release Lock */
  __HAL_UNLOCK(hadc);
 8002914:	687b      	ldr	r3, [r7, #4]
 8002916:	2200      	movs	r2, #0
 8002918:	f883 203c 	strb.w	r2, [r3, #60]	@ 0x3c

  /* Return function status */
  return tmp_hal_status;
 800291c:	7bfb      	ldrb	r3, [r7, #15]
}
 800291e:	4618      	mov	r0, r3
 8002920:	3710      	adds	r7, #16
 8002922:	46bd      	mov	sp, r7
 8002924:	bd80      	pop	{r7, pc}
	...

08002928 <HAL_ADC_Start_IT>:
  * @param  hadc pointer to a ADC_HandleTypeDef structure that contains
  *         the configuration information for the specified ADC.
  * @retval HAL status.
  */
HAL_StatusTypeDef HAL_ADC_Start_IT(ADC_HandleTypeDef *hadc)
{
 8002928:	b480      	push	{r7}
 800292a:	b085      	sub	sp, #20
 800292c:	af00      	add	r7, sp, #0
 800292e:	6078      	str	r0, [r7, #4]
  __IO uint32_t counter = 0U;
 8002930:	2300      	movs	r3, #0
 8002932:	60bb      	str	r3, [r7, #8]
  /* Check the parameters */
  assert_param(IS_FUNCTIONAL_STATE(hadc->Init.ContinuousConvMode));
  assert_param(IS_ADC_EXT_TRIG_EDGE(hadc->Init.ExternalTrigConvEdge));

  /* Process locked */
  __HAL_LOCK(hadc);
 8002934:	687b      	ldr	r3, [r7, #4]
 8002936:	f893 303c 	ldrb.w	r3, [r3, #60]	@ 0x3c
 800293a:	2b01      	cmp	r3, #1
 800293c:	d101      	bne.n	8002942 <HAL_ADC_Start_IT+0x1a>
 800293e:	2302      	movs	r3, #2
 8002940:	e0bd      	b.n	8002abe <HAL_ADC_Start_IT+0x196>
 8002942:	687b      	ldr	r3, [r7, #4]
 8002944:	2201      	movs	r2, #1
 8002946:	f883 203c 	strb.w	r2, [r3, #60]	@ 0x3c

  /* Enable the ADC peripheral */
  /* Check if ADC peripheral is disabled in order to enable it and wait during
  Tstab time the ADC's stabilization */
  if ((hadc->Instance->CR2 & ADC_CR2_ADON) != ADC_CR2_ADON)
 800294a:	687b      	ldr	r3, [r7, #4]
 800294c:	681b      	ldr	r3, [r3, #0]
 800294e:	689b      	ldr	r3, [r3, #8]
 8002950:	f003 0301 	and.w	r3, r3, #1
 8002954:	2b01      	cmp	r3, #1
 8002956:	d018      	beq.n	800298a <HAL_ADC_Start_IT+0x62>
  {
    /* Enable the Peripheral */
    __HAL_ADC_ENABLE(hadc);
 8002958:	687b      	ldr	r3, [r7, #4]
 800295a:	681b      	ldr	r3, [r3, #0]
 800295c:	689a      	ldr	r2, [r3, #8]
 800295e:	687b      	ldr	r3, [r7, #4]
 8002960:	681b      	ldr	r3, [r3, #0]
 8002962:	f042 0201 	orr.w	r2, r2, #1
 8002966:	609a      	str	r2, [r3, #8]

    /* Delay for ADC stabilization time */
    /* Compute number of CPU cycles to wait for */
    counter = (ADC_STAB_DELAY_US * (SystemCoreClock / 1000000U));
 8002968:	4b58      	ldr	r3, [pc, #352]	@ (8002acc <HAL_ADC_Start_IT+0x1a4>)
 800296a:	681b      	ldr	r3, [r3, #0]
 800296c:	4a58      	ldr	r2, [pc, #352]	@ (8002ad0 <HAL_ADC_Start_IT+0x1a8>)
 800296e:	fba2 2303 	umull	r2, r3, r2, r3
 8002972:	0c9a      	lsrs	r2, r3, #18
 8002974:	4613      	mov	r3, r2
 8002976:	005b      	lsls	r3, r3, #1
 8002978:	4413      	add	r3, r2
 800297a:	60bb      	str	r3, [r7, #8]
    while (counter != 0U)
 800297c:	e002      	b.n	8002984 <HAL_ADC_Start_IT+0x5c>
    {
      counter--;
 800297e:	68bb      	ldr	r3, [r7, #8]
 8002980:	3b01      	subs	r3, #1
 8002982:	60bb      	str	r3, [r7, #8]
    while (counter != 0U)
 8002984:	68bb      	ldr	r3, [r7, #8]
 8002986:	2b00      	cmp	r3, #0
 8002988:	d1f9      	bne.n	800297e <HAL_ADC_Start_IT+0x56>
    }
  }

  /* Start conversion if ADC is effectively enabled */
  if (HAL_IS_BIT_SET(hadc->Instance->CR2, ADC_CR2_ADON))
 800298a:	687b      	ldr	r3, [r7, #4]
 800298c:	681b      	ldr	r3, [r3, #0]
 800298e:	689b      	ldr	r3, [r3, #8]
 8002990:	f003 0301 	and.w	r3, r3, #1
 8002994:	2b01      	cmp	r3, #1
 8002996:	f040 8085 	bne.w	8002aa4 <HAL_ADC_Start_IT+0x17c>
  {
    /* Set ADC state                                                          */
    /* - Clear state bitfield related to regular group conversion results     */
    /* - Set state bitfield related to regular group operation                */
    ADC_STATE_CLR_SET(hadc->State,
 800299a:	687b      	ldr	r3, [r7, #4]
 800299c:	6c1b      	ldr	r3, [r3, #64]	@ 0x40
 800299e:	f423 63e0 	bic.w	r3, r3, #1792	@ 0x700
 80029a2:	f023 0301 	bic.w	r3, r3, #1
 80029a6:	f443 7280 	orr.w	r2, r3, #256	@ 0x100
 80029aa:	687b      	ldr	r3, [r7, #4]
 80029ac:	641a      	str	r2, [r3, #64]	@ 0x40
                      HAL_ADC_STATE_READY | HAL_ADC_STATE_REG_EOC | HAL_ADC_STATE_REG_OVR,
                      HAL_ADC_STATE_REG_BUSY);

    /* If conversions on group regular are also triggering group injected,    */
    /* update ADC state.                                                      */
    if (READ_BIT(hadc->Instance->CR1, ADC_CR1_JAUTO) != RESET)
 80029ae:	687b      	ldr	r3, [r7, #4]
 80029b0:	681b      	ldr	r3, [r3, #0]
 80029b2:	685b      	ldr	r3, [r3, #4]
 80029b4:	f403 6380 	and.w	r3, r3, #1024	@ 0x400
 80029b8:	2b00      	cmp	r3, #0
 80029ba:	d007      	beq.n	80029cc <HAL_ADC_Start_IT+0xa4>
    {
      ADC_STATE_CLR_SET(hadc->State, HAL_ADC_STATE_INJ_EOC, HAL_ADC_STATE_INJ_BUSY);
 80029bc:	687b      	ldr	r3, [r7, #4]
 80029be:	6c1b      	ldr	r3, [r3, #64]	@ 0x40
 80029c0:	f423 5340 	bic.w	r3, r3, #12288	@ 0x3000
 80029c4:	f443 5280 	orr.w	r2, r3, #4096	@ 0x1000
 80029c8:	687b      	ldr	r3, [r7, #4]
 80029ca:	641a      	str	r2, [r3, #64]	@ 0x40
    }

    /* State machine update: Check if an injected conversion is ongoing */
    if (HAL_IS_BIT_SET(hadc->State, HAL_ADC_STATE_INJ_BUSY))
 80029cc:	687b      	ldr	r3, [r7, #4]
 80029ce:	6c1b      	ldr	r3, [r3, #64]	@ 0x40
 80029d0:	f403 5380 	and.w	r3, r3, #4096	@ 0x1000
 80029d4:	f5b3 5f80 	cmp.w	r3, #4096	@ 0x1000
 80029d8:	d106      	bne.n	80029e8 <HAL_ADC_Start_IT+0xc0>
    {
      /* Reset ADC error code fields related to conversions on group regular */
      CLEAR_BIT(hadc->ErrorCode, (HAL_ADC_ERROR_OVR | HAL_ADC_ERROR_DMA));
 80029da:	687b      	ldr	r3, [r7, #4]
 80029dc:	6c5b      	ldr	r3, [r3, #68]	@ 0x44
 80029de:	f023 0206 	bic.w	r2, r3, #6
 80029e2:	687b      	ldr	r3, [r7, #4]
 80029e4:	645a      	str	r2, [r3, #68]	@ 0x44
 80029e6:	e002      	b.n	80029ee <HAL_ADC_Start_IT+0xc6>
    }
    else
    {
      /* Reset ADC all error code fields */
      ADC_CLEAR_ERRORCODE(hadc);
 80029e8:	687b      	ldr	r3, [r7, #4]
 80029ea:	2200      	movs	r2, #0
 80029ec:	645a      	str	r2, [r3, #68]	@ 0x44
    }

    /* Process unlocked */
    /* Unlock before starting ADC conversions: in case of potential           */
    /* interruption, to let the process to ADC IRQ Handler.                   */
    __HAL_UNLOCK(hadc);
 80029ee:	687b      	ldr	r3, [r7, #4]
 80029f0:	2200      	movs	r2, #0
 80029f2:	f883 203c 	strb.w	r2, [r3, #60]	@ 0x3c

    /* Pointer to the common control register to which is belonging hadc    */
    /* (Depending on STM32F4 product, there may be up to 3 ADCs and 1 common */
    /* control register)                                                    */
    tmpADC_Common = ADC_COMMON_REGISTER(hadc);
 80029f6:	4b37      	ldr	r3, [pc, #220]	@ (8002ad4 <HAL_ADC_Start_IT+0x1ac>)
 80029f8:	60fb      	str	r3, [r7, #12]

    /* Clear regular group conversion flag and overrun flag */
    /* (To ensure of no unknown state from potential previous ADC operations) */
    __HAL_ADC_CLEAR_FLAG(hadc, ADC_FLAG_EOC | ADC_FLAG_OVR);
 80029fa:	687b      	ldr	r3, [r7, #4]
 80029fc:	681b      	ldr	r3, [r3, #0]
 80029fe:	f06f 0222 	mvn.w	r2, #34	@ 0x22
 8002a02:	601a      	str	r2, [r3, #0]

    /* Enable end of conversion interrupt for regular group */
    __HAL_ADC_ENABLE_IT(hadc, (ADC_IT_EOC | ADC_IT_OVR));
 8002a04:	687b      	ldr	r3, [r7, #4]
 8002a06:	681b      	ldr	r3, [r3, #0]
 8002a08:	685b      	ldr	r3, [r3, #4]
 8002a0a:	687a      	ldr	r2, [r7, #4]
 8002a0c:	6812      	ldr	r2, [r2, #0]
 8002a0e:	f043 6380 	orr.w	r3, r3, #67108864	@ 0x4000000
 8002a12:	f043 0320 	orr.w	r3, r3, #32
 8002a16:	6053      	str	r3, [r2, #4]

    /* Check if Multimode enabled */
    if (HAL_IS_BIT_CLR(tmpADC_Common->CCR, ADC_CCR_MULTI))
 8002a18:	68fb      	ldr	r3, [r7, #12]
 8002a1a:	685b      	ldr	r3, [r3, #4]
 8002a1c:	f003 031f 	and.w	r3, r3, #31
 8002a20:	2b00      	cmp	r3, #0
 8002a22:	d12a      	bne.n	8002a7a <HAL_ADC_Start_IT+0x152>
    {
#if defined(ADC2) && defined(ADC3)
      if ((hadc->Instance == ADC1) || ((hadc->Instance == ADC2) && ((ADC->CCR & ADC_CCR_MULTI_Msk) < ADC_CCR_MULTI_0)) \
 8002a24:	687b      	ldr	r3, [r7, #4]
 8002a26:	681b      	ldr	r3, [r3, #0]
 8002a28:	4a2b      	ldr	r2, [pc, #172]	@ (8002ad8 <HAL_ADC_Start_IT+0x1b0>)
 8002a2a:	4293      	cmp	r3, r2
 8002a2c:	d015      	beq.n	8002a5a <HAL_ADC_Start_IT+0x132>
 8002a2e:	687b      	ldr	r3, [r7, #4]
 8002a30:	681b      	ldr	r3, [r3, #0]
 8002a32:	4a2a      	ldr	r2, [pc, #168]	@ (8002adc <HAL_ADC_Start_IT+0x1b4>)
 8002a34:	4293      	cmp	r3, r2
 8002a36:	d105      	bne.n	8002a44 <HAL_ADC_Start_IT+0x11c>
 8002a38:	4b26      	ldr	r3, [pc, #152]	@ (8002ad4 <HAL_ADC_Start_IT+0x1ac>)
 8002a3a:	685b      	ldr	r3, [r3, #4]
 8002a3c:	f003 031f 	and.w	r3, r3, #31
 8002a40:	2b00      	cmp	r3, #0
 8002a42:	d00a      	beq.n	8002a5a <HAL_ADC_Start_IT+0x132>
          || ((hadc->Instance == ADC3) && ((ADC->CCR & ADC_CCR_MULTI_Msk) < ADC_CCR_MULTI_4)))
 8002a44:	687b      	ldr	r3, [r7, #4]
 8002a46:	681b      	ldr	r3, [r3, #0]
 8002a48:	4a25      	ldr	r2, [pc, #148]	@ (8002ae0 <HAL_ADC_Start_IT+0x1b8>)
 8002a4a:	4293      	cmp	r3, r2
 8002a4c:	d136      	bne.n	8002abc <HAL_ADC_Start_IT+0x194>
 8002a4e:	4b21      	ldr	r3, [pc, #132]	@ (8002ad4 <HAL_ADC_Start_IT+0x1ac>)
 8002a50:	685b      	ldr	r3, [r3, #4]
 8002a52:	f003 0310 	and.w	r3, r3, #16
 8002a56:	2b00      	cmp	r3, #0
 8002a58:	d130      	bne.n	8002abc <HAL_ADC_Start_IT+0x194>
      {
#endif /* ADC2 || ADC3 */
        /* if no external trigger present enable software conversion of regular channels */
        if ((hadc->Instance->CR2 & ADC_CR2_EXTEN) == RESET)
 8002a5a:	687b      	ldr	r3, [r7, #4]
 8002a5c:	681b      	ldr	r3, [r3, #0]
 8002a5e:	689b      	ldr	r3, [r3, #8]
 8002a60:	f003 5340 	and.w	r3, r3, #805306368	@ 0x30000000
 8002a64:	2b00      	cmp	r3, #0
 8002a66:	d129      	bne.n	8002abc <HAL_ADC_Start_IT+0x194>
        {
          /* Enable the selected ADC software conversion for regular group */
          hadc->Instance->CR2 |= (uint32_t)ADC_CR2_SWSTART;
 8002a68:	687b      	ldr	r3, [r7, #4]
 8002a6a:	681b      	ldr	r3, [r3, #0]
 8002a6c:	689a      	ldr	r2, [r3, #8]
 8002a6e:	687b      	ldr	r3, [r7, #4]
 8002a70:	681b      	ldr	r3, [r3, #0]
 8002a72:	f042 4280 	orr.w	r2, r2, #1073741824	@ 0x40000000
 8002a76:	609a      	str	r2, [r3, #8]
 8002a78:	e020      	b.n	8002abc <HAL_ADC_Start_IT+0x194>
#endif /* ADC2 || ADC3 */
    }
    else
    {
      /* if instance of handle correspond to ADC1 and  no external trigger present enable software conversion of regular channels */
      if ((hadc->Instance == ADC1) && ((hadc->Instance->CR2 & ADC_CR2_EXTEN) == RESET))
 8002a7a:	687b      	ldr	r3, [r7, #4]
 8002a7c:	681b      	ldr	r3, [r3, #0]
 8002a7e:	4a16      	ldr	r2, [pc, #88]	@ (8002ad8 <HAL_ADC_Start_IT+0x1b0>)
 8002a80:	4293      	cmp	r3, r2
 8002a82:	d11b      	bne.n	8002abc <HAL_ADC_Start_IT+0x194>
 8002a84:	687b      	ldr	r3, [r7, #4]
 8002a86:	681b      	ldr	r3, [r3, #0]
 8002a88:	689b      	ldr	r3, [r3, #8]
 8002a8a:	f003 5340 	and.w	r3, r3, #805306368	@ 0x30000000
 8002a8e:	2b00      	cmp	r3, #0
 8002a90:	d114      	bne.n	8002abc <HAL_ADC_Start_IT+0x194>
      {
        /* Enable the selected ADC software conversion for regular group */
        hadc->Instance->CR2 |= (uint32_t)ADC_CR2_SWSTART;
 8002a92:	687b      	ldr	r3, [r7, #4]
 8002a94:	681b      	ldr	r3, [r3, #0]
 8002a96:	689a      	ldr	r2, [r3, #8]
 8002a98:	687b      	ldr	r3, [r7, #4]
 8002a9a:	681b      	ldr	r3, [r3, #0]
 8002a9c:	f042 4280 	orr.w	r2, r2, #1073741824	@ 0x40000000
 8002aa0:	609a      	str	r2, [r3, #8]
 8002aa2:	e00b      	b.n	8002abc <HAL_ADC_Start_IT+0x194>
    }
  }
  else
  {
    /* Update ADC state machine to error */
    SET_BIT(hadc->State, HAL_ADC_STATE_ERROR_INTERNAL);
 8002aa4:	687b      	ldr	r3, [r7, #4]
 8002aa6:	6c1b      	ldr	r3, [r3, #64]	@ 0x40
 8002aa8:	f043 0210 	orr.w	r2, r3, #16
 8002aac:	687b      	ldr	r3, [r7, #4]
 8002aae:	641a      	str	r2, [r3, #64]	@ 0x40

    /* Set ADC error code to ADC IP internal error */
    SET_BIT(hadc->ErrorCode, HAL_ADC_ERROR_INTERNAL);
 8002ab0:	687b      	ldr	r3, [r7, #4]
 8002ab2:	6c5b      	ldr	r3, [r3, #68]	@ 0x44
 8002ab4:	f043 0201 	orr.w	r2, r3, #1
 8002ab8:	687b      	ldr	r3, [r7, #4]
 8002aba:	645a      	str	r2, [r3, #68]	@ 0x44
  }

  /* Return function status */
  return HAL_OK;
 8002abc:	2300      	movs	r3, #0
}
 8002abe:	4618      	mov	r0, r3
 8002ac0:	3714      	adds	r7, #20
 8002ac2:	46bd      	mov	sp, r7
 8002ac4:	f85d 7b04 	ldr.w	r7, [sp], #4
 8002ac8:	4770      	bx	lr
 8002aca:	bf00      	nop
 8002acc:	20000008 	.word	0x20000008
 8002ad0:	431bde83 	.word	0x431bde83
 8002ad4:	40012300 	.word	0x40012300
 8002ad8:	40012000 	.word	0x40012000
 8002adc:	40012100 	.word	0x40012100
 8002ae0:	40012200 	.word	0x40012200

08002ae4 <HAL_ADC_IRQHandler>:
  * @param  hadc pointer to a ADC_HandleTypeDef structure that contains
  *         the configuration information for the specified ADC.
  * @retval None
  */
void HAL_ADC_IRQHandler(ADC_HandleTypeDef *hadc)
{
 8002ae4:	b580      	push	{r7, lr}
 8002ae6:	b086      	sub	sp, #24
 8002ae8:	af00      	add	r7, sp, #0
 8002aea:	6078      	str	r0, [r7, #4]
  uint32_t tmp1 = 0U, tmp2 = 0U;
 8002aec:	2300      	movs	r3, #0
 8002aee:	617b      	str	r3, [r7, #20]
 8002af0:	2300      	movs	r3, #0
 8002af2:	613b      	str	r3, [r7, #16]

  uint32_t tmp_sr = hadc->Instance->SR;
 8002af4:	687b      	ldr	r3, [r7, #4]
 8002af6:	681b      	ldr	r3, [r3, #0]
 8002af8:	681b      	ldr	r3, [r3, #0]
 8002afa:	60fb      	str	r3, [r7, #12]
  uint32_t tmp_cr1 = hadc->Instance->CR1;
 8002afc:	687b      	ldr	r3, [r7, #4]
 8002afe:	681b      	ldr	r3, [r3, #0]
 8002b00:	685b      	ldr	r3, [r3, #4]
 8002b02:	60bb      	str	r3, [r7, #8]
  /* Check the parameters */
  assert_param(IS_FUNCTIONAL_STATE(hadc->Init.ContinuousConvMode));
  assert_param(IS_ADC_REGULAR_LENGTH(hadc->Init.NbrOfConversion));
  assert_param(IS_ADC_EOCSelection(hadc->Init.EOCSelection));

  tmp1 = tmp_sr & ADC_FLAG_EOC;
 8002b04:	68fb      	ldr	r3, [r7, #12]
 8002b06:	f003 0302 	and.w	r3, r3, #2
 8002b0a:	617b      	str	r3, [r7, #20]
  tmp2 = tmp_cr1 & ADC_IT_EOC;
 8002b0c:	68bb      	ldr	r3, [r7, #8]
 8002b0e:	f003 0320 	and.w	r3, r3, #32
 8002b12:	613b      	str	r3, [r7, #16]
  /* Check End of conversion flag for regular channels */
  if (tmp1 && tmp2)
 8002b14:	697b      	ldr	r3, [r7, #20]
 8002b16:	2b00      	cmp	r3, #0
 8002b18:	d049      	beq.n	8002bae <HAL_ADC_IRQHandler+0xca>
 8002b1a:	693b      	ldr	r3, [r7, #16]
 8002b1c:	2b00      	cmp	r3, #0
 8002b1e:	d046      	beq.n	8002bae <HAL_ADC_IRQHandler+0xca>
  {
    /* Update state machine on conversion status if not in error state */
    if (HAL_IS_BIT_CLR(hadc->State, HAL_ADC_STATE_ERROR_INTERNAL))
 8002b20:	687b      	ldr	r3, [r7, #4]
 8002b22:	6c1b      	ldr	r3, [r3, #64]	@ 0x40
 8002b24:	f003 0310 	and.w	r3, r3, #16
 8002b28:	2b00      	cmp	r3, #0
 8002b2a:	d105      	bne.n	8002b38 <HAL_ADC_IRQHandler+0x54>
    {
      /* Set ADC state */
      SET_BIT(hadc->State, HAL_ADC_STATE_REG_EOC);
 8002b2c:	687b      	ldr	r3, [r7, #4]
 8002b2e:	6c1b      	ldr	r3, [r3, #64]	@ 0x40
 8002b30:	f443 7200 	orr.w	r2, r3, #512	@ 0x200
 8002b34:	687b      	ldr	r3, [r7, #4]
 8002b36:	641a      	str	r2, [r3, #64]	@ 0x40
    /* by external trigger, continuous mode or scan sequence on going.      */
    /* Note: On STM32F4, there is no independent flag of end of sequence.   */
    /*       The test of scan sequence on going is done either with scan    */
    /*       sequence disabled or with end of conversion flag set to        */
    /*       of end of sequence.                                            */
    if (ADC_IS_SOFTWARE_START_REGULAR(hadc)                   &&
 8002b38:	687b      	ldr	r3, [r7, #4]
 8002b3a:	681b      	ldr	r3, [r3, #0]
 8002b3c:	689b      	ldr	r3, [r3, #8]
 8002b3e:	f003 5340 	and.w	r3, r3, #805306368	@ 0x30000000
 8002b42:	2b00      	cmp	r3, #0
 8002b44:	d12b      	bne.n	8002b9e <HAL_ADC_IRQHandler+0xba>
        (hadc->Init.ContinuousConvMode == DISABLE)            &&
 8002b46:	687b      	ldr	r3, [r7, #4]
 8002b48:	7e1b      	ldrb	r3, [r3, #24]
    if (ADC_IS_SOFTWARE_START_REGULAR(hadc)                   &&
 8002b4a:	2b00      	cmp	r3, #0
 8002b4c:	d127      	bne.n	8002b9e <HAL_ADC_IRQHandler+0xba>
        (HAL_IS_BIT_CLR(hadc->Instance->SQR1, ADC_SQR1_L) ||
 8002b4e:	687b      	ldr	r3, [r7, #4]
 8002b50:	681b      	ldr	r3, [r3, #0]
 8002b52:	6adb      	ldr	r3, [r3, #44]	@ 0x2c
 8002b54:	f403 0370 	and.w	r3, r3, #15728640	@ 0xf00000
        (hadc->Init.ContinuousConvMode == DISABLE)            &&
 8002b58:	2b00      	cmp	r3, #0
 8002b5a:	d006      	beq.n	8002b6a <HAL_ADC_IRQHandler+0x86>
         HAL_IS_BIT_CLR(hadc->Instance->CR2, ADC_CR2_EOCS)))
 8002b5c:	687b      	ldr	r3, [r7, #4]
 8002b5e:	681b      	ldr	r3, [r3, #0]
 8002b60:	689b      	ldr	r3, [r3, #8]
 8002b62:	f403 6380 	and.w	r3, r3, #1024	@ 0x400
        (HAL_IS_BIT_CLR(hadc->Instance->SQR1, ADC_SQR1_L) ||
 8002b66:	2b00      	cmp	r3, #0
 8002b68:	d119      	bne.n	8002b9e <HAL_ADC_IRQHandler+0xba>
    {
      /* Disable ADC end of single conversion interrupt on group regular */
      /* Note: Overrun interrupt was enabled with EOC interrupt in          */
      /* HAL_ADC_Start_IT(), but is not disabled here because can be used   */
      /* by overrun IRQ process below.                                      */
      __HAL_ADC_DISABLE_IT(hadc, ADC_IT_EOC);
 8002b6a:	687b      	ldr	r3, [r7, #4]
 8002b6c:	681b      	ldr	r3, [r3, #0]
 8002b6e:	685a      	ldr	r2, [r3, #4]
 8002b70:	687b      	ldr	r3, [r7, #4]
 8002b72:	681b      	ldr	r3, [r3, #0]
 8002b74:	f022 0220 	bic.w	r2, r2, #32
 8002b78:	605a      	str	r2, [r3, #4]

      /* Set ADC state */
      CLEAR_BIT(hadc->State, HAL_ADC_STATE_REG_BUSY);
 8002b7a:	687b      	ldr	r3, [r7, #4]
 8002b7c:	6c1b      	ldr	r3, [r3, #64]	@ 0x40
 8002b7e:	f423 7280 	bic.w	r2, r3, #256	@ 0x100
 8002b82:	687b      	ldr	r3, [r7, #4]
 8002b84:	641a      	str	r2, [r3, #64]	@ 0x40

      if (HAL_IS_BIT_CLR(hadc->State, HAL_ADC_STATE_INJ_BUSY))
 8002b86:	687b      	ldr	r3, [r7, #4]
 8002b88:	6c1b      	ldr	r3, [r3, #64]	@ 0x40
 8002b8a:	f403 5380 	and.w	r3, r3, #4096	@ 0x1000
 8002b8e:	2b00      	cmp	r3, #0
 8002b90:	d105      	bne.n	8002b9e <HAL_ADC_IRQHandler+0xba>
      {
        SET_BIT(hadc->State, HAL_ADC_STATE_READY);
 8002b92:	687b      	ldr	r3, [r7, #4]
 8002b94:	6c1b      	ldr	r3, [r3, #64]	@ 0x40
 8002b96:	f043 0201 	orr.w	r2, r3, #1
 8002b9a:	687b      	ldr	r3, [r7, #4]
 8002b9c:	641a      	str	r2, [r3, #64]	@ 0x40

    /* Conversion complete callback */
#if (USE_HAL_ADC_REGISTER_CALLBACKS == 1)
    hadc->ConvCpltCallback(hadc);
#else
    HAL_ADC_ConvCpltCallback(hadc);
 8002b9e:	6878      	ldr	r0, [r7, #4]
 8002ba0:	f7ff f97c 	bl	8001e9c <HAL_ADC_ConvCpltCallback>
#endif /* USE_HAL_ADC_REGISTER_CALLBACKS */

    /* Clear regular group conversion flag */
    __HAL_ADC_CLEAR_FLAG(hadc, ADC_FLAG_STRT | ADC_FLAG_EOC);
 8002ba4:	687b      	ldr	r3, [r7, #4]
 8002ba6:	681b      	ldr	r3, [r3, #0]
 8002ba8:	f06f 0212 	mvn.w	r2, #18
 8002bac:	601a      	str	r2, [r3, #0]
  }

  tmp1 = tmp_sr & ADC_FLAG_JEOC;
 8002bae:	68fb      	ldr	r3, [r7, #12]
 8002bb0:	f003 0304 	and.w	r3, r3, #4
 8002bb4:	617b      	str	r3, [r7, #20]
  tmp2 = tmp_cr1 & ADC_IT_JEOC;
 8002bb6:	68bb      	ldr	r3, [r7, #8]
 8002bb8:	f003 0380 	and.w	r3, r3, #128	@ 0x80
 8002bbc:	613b      	str	r3, [r7, #16]
  /* Check End of conversion flag for injected channels */
  if (tmp1 && tmp2)
 8002bbe:	697b      	ldr	r3, [r7, #20]
 8002bc0:	2b00      	cmp	r3, #0
 8002bc2:	d057      	beq.n	8002c74 <HAL_ADC_IRQHandler+0x190>
 8002bc4:	693b      	ldr	r3, [r7, #16]
 8002bc6:	2b00      	cmp	r3, #0
 8002bc8:	d054      	beq.n	8002c74 <HAL_ADC_IRQHandler+0x190>
  {
    /* Update state machine on conversion status if not in error state */
    if (HAL_IS_BIT_CLR(hadc->State, HAL_ADC_STATE_ERROR_INTERNAL))
 8002bca:	687b      	ldr	r3, [r7, #4]
 8002bcc:	6c1b      	ldr	r3, [r3, #64]	@ 0x40
 8002bce:	f003 0310 	and.w	r3, r3, #16
 8002bd2:	2b00      	cmp	r3, #0
 8002bd4:	d105      	bne.n	8002be2 <HAL_ADC_IRQHandler+0xfe>
    {
      /* Set ADC state */
      SET_BIT(hadc->State, HAL_ADC_STATE_INJ_EOC);
 8002bd6:	687b      	ldr	r3, [r7, #4]
 8002bd8:	6c1b      	ldr	r3, [r3, #64]	@ 0x40
 8002bda:	f443 5200 	orr.w	r2, r3, #8192	@ 0x2000
 8002bde:	687b      	ldr	r3, [r7, #4]
 8002be0:	641a      	str	r2, [r3, #64]	@ 0x40

    /* Determine whether any further conversion upcoming on group injected  */
    /* by external trigger, scan sequence on going or by automatic injected */
    /* conversion from group regular (same conditions as group regular      */
    /* interruption disabling above).                                       */
    if (ADC_IS_SOFTWARE_START_INJECTED(hadc)                    &&
 8002be2:	687b      	ldr	r3, [r7, #4]
 8002be4:	681b      	ldr	r3, [r3, #0]
 8002be6:	689b      	ldr	r3, [r3, #8]
 8002be8:	f403 1340 	and.w	r3, r3, #3145728	@ 0x300000
 8002bec:	2b00      	cmp	r3, #0
 8002bee:	d139      	bne.n	8002c64 <HAL_ADC_IRQHandler+0x180>
        (HAL_IS_BIT_CLR(hadc->Instance->JSQR, ADC_JSQR_JL)  ||
 8002bf0:	687b      	ldr	r3, [r7, #4]
 8002bf2:	681b      	ldr	r3, [r3, #0]
 8002bf4:	6b9b      	ldr	r3, [r3, #56]	@ 0x38
 8002bf6:	f403 1340 	and.w	r3, r3, #3145728	@ 0x300000
    if (ADC_IS_SOFTWARE_START_INJECTED(hadc)                    &&
 8002bfa:	2b00      	cmp	r3, #0
 8002bfc:	d006      	beq.n	8002c0c <HAL_ADC_IRQHandler+0x128>
         HAL_IS_BIT_CLR(hadc->Instance->CR2, ADC_CR2_EOCS)) &&
 8002bfe:	687b      	ldr	r3, [r7, #4]
 8002c00:	681b      	ldr	r3, [r3, #0]
 8002c02:	689b      	ldr	r3, [r3, #8]
 8002c04:	f403 6380 	and.w	r3, r3, #1024	@ 0x400
        (HAL_IS_BIT_CLR(hadc->Instance->JSQR, ADC_JSQR_JL)  ||
 8002c08:	2b00      	cmp	r3, #0
 8002c0a:	d12b      	bne.n	8002c64 <HAL_ADC_IRQHandler+0x180>
        (HAL_IS_BIT_CLR(hadc->Instance->CR1, ADC_CR1_JAUTO) &&
 8002c0c:	687b      	ldr	r3, [r7, #4]
 8002c0e:	681b      	ldr	r3, [r3, #0]
 8002c10:	685b      	ldr	r3, [r3, #4]
 8002c12:	f403 6380 	and.w	r3, r3, #1024	@ 0x400
         HAL_IS_BIT_CLR(hadc->Instance->CR2, ADC_CR2_EOCS)) &&
 8002c16:	2b00      	cmp	r3, #0
 8002c18:	d124      	bne.n	8002c64 <HAL_ADC_IRQHandler+0x180>
         (ADC_IS_SOFTWARE_START_REGULAR(hadc)       &&
 8002c1a:	687b      	ldr	r3, [r7, #4]
 8002c1c:	681b      	ldr	r3, [r3, #0]
 8002c1e:	689b      	ldr	r3, [r3, #8]
 8002c20:	f003 5340 	and.w	r3, r3, #805306368	@ 0x30000000
        (HAL_IS_BIT_CLR(hadc->Instance->CR1, ADC_CR1_JAUTO) &&
 8002c24:	2b00      	cmp	r3, #0
 8002c26:	d11d      	bne.n	8002c64 <HAL_ADC_IRQHandler+0x180>
          (hadc->Init.ContinuousConvMode == DISABLE))))
 8002c28:	687b      	ldr	r3, [r7, #4]
 8002c2a:	7e1b      	ldrb	r3, [r3, #24]
         (ADC_IS_SOFTWARE_START_REGULAR(hadc)       &&
 8002c2c:	2b00      	cmp	r3, #0
 8002c2e:	d119      	bne.n	8002c64 <HAL_ADC_IRQHandler+0x180>
    {
      /* Disable ADC end of single conversion interrupt on group injected */
      __HAL_ADC_DISABLE_IT(hadc, ADC_IT_JEOC);
 8002c30:	687b      	ldr	r3, [r7, #4]
 8002c32:	681b      	ldr	r3, [r3, #0]
 8002c34:	685a      	ldr	r2, [r3, #4]
 8002c36:	687b      	ldr	r3, [r7, #4]
 8002c38:	681b      	ldr	r3, [r3, #0]
 8002c3a:	f022 0280 	bic.w	r2, r2, #128	@ 0x80
 8002c3e:	605a      	str	r2, [r3, #4]

      /* Set ADC state */
      CLEAR_BIT(hadc->State, HAL_ADC_STATE_INJ_BUSY);
 8002c40:	687b      	ldr	r3, [r7, #4]
 8002c42:	6c1b      	ldr	r3, [r3, #64]	@ 0x40
 8002c44:	f423 5280 	bic.w	r2, r3, #4096	@ 0x1000
 8002c48:	687b      	ldr	r3, [r7, #4]
 8002c4a:	641a      	str	r2, [r3, #64]	@ 0x40

      if (HAL_IS_BIT_CLR(hadc->State, HAL_ADC_STATE_REG_BUSY))
 8002c4c:	687b      	ldr	r3, [r7, #4]
 8002c4e:	6c1b      	ldr	r3, [r3, #64]	@ 0x40
 8002c50:	f403 7380 	and.w	r3, r3, #256	@ 0x100
 8002c54:	2b00      	cmp	r3, #0
 8002c56:	d105      	bne.n	8002c64 <HAL_ADC_IRQHandler+0x180>
      {
        SET_BIT(hadc->State, HAL_ADC_STATE_READY);
 8002c58:	687b      	ldr	r3, [r7, #4]
 8002c5a:	6c1b      	ldr	r3, [r3, #64]	@ 0x40
 8002c5c:	f043 0201 	orr.w	r2, r3, #1
 8002c60:	687b      	ldr	r3, [r7, #4]
 8002c62:	641a      	str	r2, [r3, #64]	@ 0x40
    /* Conversion complete callback */
    /* Conversion complete callback */
#if (USE_HAL_ADC_REGISTER_CALLBACKS == 1)
    hadc->InjectedConvCpltCallback(hadc);
#else
    HAL_ADCEx_InjectedConvCpltCallback(hadc);
 8002c64:	6878      	ldr	r0, [r7, #4]
 8002c66:	f000 fa8d 	bl	8003184 <HAL_ADCEx_InjectedConvCpltCallback>
#endif /* USE_HAL_ADC_REGISTER_CALLBACKS */

    /* Clear injected group conversion flag */
    __HAL_ADC_CLEAR_FLAG(hadc, (ADC_FLAG_JSTRT | ADC_FLAG_JEOC));
 8002c6a:	687b      	ldr	r3, [r7, #4]
 8002c6c:	681b      	ldr	r3, [r3, #0]
 8002c6e:	f06f 020c 	mvn.w	r2, #12
 8002c72:	601a      	str	r2, [r3, #0]
  }

  tmp1 = tmp_sr & ADC_FLAG_AWD;
 8002c74:	68fb      	ldr	r3, [r7, #12]
 8002c76:	f003 0301 	and.w	r3, r3, #1
 8002c7a:	617b      	str	r3, [r7, #20]
  tmp2 = tmp_cr1 & ADC_IT_AWD;
 8002c7c:	68bb      	ldr	r3, [r7, #8]
 8002c7e:	f003 0340 	and.w	r3, r3, #64	@ 0x40
 8002c82:	613b      	str	r3, [r7, #16]
  /* Check Analog watchdog flag */
  if (tmp1 && tmp2)
 8002c84:	697b      	ldr	r3, [r7, #20]
 8002c86:	2b00      	cmp	r3, #0
 8002c88:	d017      	beq.n	8002cba <HAL_ADC_IRQHandler+0x1d6>
 8002c8a:	693b      	ldr	r3, [r7, #16]
 8002c8c:	2b00      	cmp	r3, #0
 8002c8e:	d014      	beq.n	8002cba <HAL_ADC_IRQHandler+0x1d6>
  {
    if (__HAL_ADC_GET_FLAG(hadc, ADC_FLAG_AWD))
 8002c90:	687b      	ldr	r3, [r7, #4]
 8002c92:	681b      	ldr	r3, [r3, #0]
 8002c94:	681b      	ldr	r3, [r3, #0]
 8002c96:	f003 0301 	and.w	r3, r3, #1
 8002c9a:	2b01      	cmp	r3, #1
 8002c9c:	d10d      	bne.n	8002cba <HAL_ADC_IRQHandler+0x1d6>
    {
      /* Set ADC state */
      SET_BIT(hadc->State, HAL_ADC_STATE_AWD1);
 8002c9e:	687b      	ldr	r3, [r7, #4]
 8002ca0:	6c1b      	ldr	r3, [r3, #64]	@ 0x40
 8002ca2:	f443 3280 	orr.w	r2, r3, #65536	@ 0x10000
 8002ca6:	687b      	ldr	r3, [r7, #4]
 8002ca8:	641a      	str	r2, [r3, #64]	@ 0x40

      /* Level out of window callback */
#if (USE_HAL_ADC_REGISTER_CALLBACKS == 1)
      hadc->LevelOutOfWindowCallback(hadc);
#else
      HAL_ADC_LevelOutOfWindowCallback(hadc);
 8002caa:	6878      	ldr	r0, [r7, #4]
 8002cac:	f000 f837 	bl	8002d1e <HAL_ADC_LevelOutOfWindowCallback>
#endif /* USE_HAL_ADC_REGISTER_CALLBACKS */

      /* Clear the ADC analog watchdog flag */
      __HAL_ADC_CLEAR_FLAG(hadc, ADC_FLAG_AWD);
 8002cb0:	687b      	ldr	r3, [r7, #4]
 8002cb2:	681b      	ldr	r3, [r3, #0]
 8002cb4:	f06f 0201 	mvn.w	r2, #1
 8002cb8:	601a      	str	r2, [r3, #0]
    }
  }

  tmp1 = tmp_sr & ADC_FLAG_OVR;
 8002cba:	68fb      	ldr	r3, [r7, #12]
 8002cbc:	f003 0320 	and.w	r3, r3, #32
 8002cc0:	617b      	str	r3, [r7, #20]
  tmp2 = tmp_cr1 & ADC_IT_OVR;
 8002cc2:	68bb      	ldr	r3, [r7, #8]
 8002cc4:	f003 6380 	and.w	r3, r3, #67108864	@ 0x4000000
 8002cc8:	613b      	str	r3, [r7, #16]
  /* Check Overrun flag */
  if (tmp1 && tmp2)
 8002cca:	697b      	ldr	r3, [r7, #20]
 8002ccc:	2b00      	cmp	r3, #0
 8002cce:	d015      	beq.n	8002cfc <HAL_ADC_IRQHandler+0x218>
 8002cd0:	693b      	ldr	r3, [r7, #16]
 8002cd2:	2b00      	cmp	r3, #0
 8002cd4:	d012      	beq.n	8002cfc <HAL_ADC_IRQHandler+0x218>
    /* Note: On STM32F4, ADC overrun can be set through other parameters    */
    /*       refer to description of parameter "EOCSelection" for more      */
    /*       details.                                                       */

    /* Set ADC error code to overrun */
    SET_BIT(hadc->ErrorCode, HAL_ADC_ERROR_OVR);
 8002cd6:	687b      	ldr	r3, [r7, #4]
 8002cd8:	6c5b      	ldr	r3, [r3, #68]	@ 0x44
 8002cda:	f043 0202 	orr.w	r2, r3, #2
 8002cde:	687b      	ldr	r3, [r7, #4]
 8002ce0:	645a      	str	r2, [r3, #68]	@ 0x44

    /* Clear ADC overrun flag */
    __HAL_ADC_CLEAR_FLAG(hadc, ADC_FLAG_OVR);
 8002ce2:	687b      	ldr	r3, [r7, #4]
 8002ce4:	681b      	ldr	r3, [r3, #0]
 8002ce6:	f06f 0220 	mvn.w	r2, #32
 8002cea:	601a      	str	r2, [r3, #0]

    /* Error callback */
#if (USE_HAL_ADC_REGISTER_CALLBACKS == 1)
    hadc->ErrorCallback(hadc);
#else
    HAL_ADC_ErrorCallback(hadc);
 8002cec:	6878      	ldr	r0, [r7, #4]
 8002cee:	f000 f820 	bl	8002d32 <HAL_ADC_ErrorCallback>
#endif /* USE_HAL_ADC_REGISTER_CALLBACKS */

    /* Clear the Overrun flag */
    __HAL_ADC_CLEAR_FLAG(hadc, ADC_FLAG_OVR);
 8002cf2:	687b      	ldr	r3, [r7, #4]
 8002cf4:	681b      	ldr	r3, [r3, #0]
 8002cf6:	f06f 0220 	mvn.w	r2, #32
 8002cfa:	601a      	str	r2, [r3, #0]
  }
}
 8002cfc:	bf00      	nop
 8002cfe:	3718      	adds	r7, #24
 8002d00:	46bd      	mov	sp, r7
 8002d02:	bd80      	pop	{r7, pc}

08002d04 <HAL_ADC_GetValue>:
  * @param  hadc pointer to a ADC_HandleTypeDef structure that contains
  *         the configuration information for the specified ADC.
  * @retval Converted value
  */
uint32_t HAL_ADC_GetValue(ADC_HandleTypeDef *hadc)
{
 8002d04:	b480      	push	{r7}
 8002d06:	b083      	sub	sp, #12
 8002d08:	af00      	add	r7, sp, #0
 8002d0a:	6078      	str	r0, [r7, #4]
  /* Return the selected ADC converted value */
  return hadc->Instance->DR;
 8002d0c:	687b      	ldr	r3, [r7, #4]
 8002d0e:	681b      	ldr	r3, [r3, #0]
 8002d10:	6cdb      	ldr	r3, [r3, #76]	@ 0x4c
}
 8002d12:	4618      	mov	r0, r3
 8002d14:	370c      	adds	r7, #12
 8002d16:	46bd      	mov	sp, r7
 8002d18:	f85d 7b04 	ldr.w	r7, [sp], #4
 8002d1c:	4770      	bx	lr

08002d1e <HAL_ADC_LevelOutOfWindowCallback>:
  * @param  hadc pointer to a ADC_HandleTypeDef structure that contains
  *         the configuration information for the specified ADC.
  * @retval None
  */
__weak void HAL_ADC_LevelOutOfWindowCallback(ADC_HandleTypeDef *hadc)
{
 8002d1e:	b480      	push	{r7}
 8002d20:	b083      	sub	sp, #12
 8002d22:	af00      	add	r7, sp, #0
 8002d24:	6078      	str	r0, [r7, #4]
  /* Prevent unused argument(s) compilation warning */
  UNUSED(hadc);
  /* NOTE : This function Should not be modified, when the callback is needed,
            the HAL_ADC_LevelOoutOfWindowCallback could be implemented in the user file
   */
}
 8002d26:	bf00      	nop
 8002d28:	370c      	adds	r7, #12
 8002d2a:	46bd      	mov	sp, r7
 8002d2c:	f85d 7b04 	ldr.w	r7, [sp], #4
 8002d30:	4770      	bx	lr

08002d32 <HAL_ADC_ErrorCallback>:
  * @param  hadc pointer to a ADC_HandleTypeDef structure that contains
  *         the configuration information for the specified ADC.
  * @retval None
  */
__weak void HAL_ADC_ErrorCallback(ADC_HandleTypeDef *hadc)
{
 8002d32:	b480      	push	{r7}
 8002d34:	b083      	sub	sp, #12
 8002d36:	af00      	add	r7, sp, #0
 8002d38:	6078      	str	r0, [r7, #4]
  /* Prevent unused argument(s) compilation warning */
  UNUSED(hadc);
  /* NOTE : This function Should not be modified, when the callback is needed,
            the HAL_ADC_ErrorCallback could be implemented in the user file
   */
}
 8002d3a:	bf00      	nop
 8002d3c:	370c      	adds	r7, #12
 8002d3e:	46bd      	mov	sp, r7
 8002d40:	f85d 7b04 	ldr.w	r7, [sp], #4
 8002d44:	4770      	bx	lr
	...

08002d48 <HAL_ADC_ConfigChannel>:
*         the configuration information for the specified ADC.
* @param  sConfig ADC configuration structure.
* @retval HAL status
*/
HAL_StatusTypeDef HAL_ADC_ConfigChannel(ADC_HandleTypeDef *hadc, ADC_ChannelConfTypeDef *sConfig)
{
 8002d48:	b480      	push	{r7}
 8002d4a:	b085      	sub	sp, #20
 8002d4c:	af00      	add	r7, sp, #0
 8002d4e:	6078      	str	r0, [r7, #4]
 8002d50:	6039      	str	r1, [r7, #0]
  __IO uint32_t counter = 0U;
 8002d52:	2300      	movs	r3, #0
 8002d54:	60bb      	str	r3, [r7, #8]
  assert_param(IS_ADC_CHANNEL(sConfig->Channel));
  assert_param(IS_ADC_REGULAR_RANK(sConfig->Rank));
  assert_param(IS_ADC_SAMPLE_TIME(sConfig->SamplingTime));

  /* Process locked */
  __HAL_LOCK(hadc);
 8002d56:	687b      	ldr	r3, [r7, #4]
 8002d58:	f893 303c 	ldrb.w	r3, [r3, #60]	@ 0x3c
 8002d5c:	2b01      	cmp	r3, #1
 8002d5e:	d101      	bne.n	8002d64 <HAL_ADC_ConfigChannel+0x1c>
 8002d60:	2302      	movs	r3, #2
 8002d62:	e105      	b.n	8002f70 <HAL_ADC_ConfigChannel+0x228>
 8002d64:	687b      	ldr	r3, [r7, #4]
 8002d66:	2201      	movs	r2, #1
 8002d68:	f883 203c 	strb.w	r2, [r3, #60]	@ 0x3c

  /* if ADC_Channel_10 ... ADC_Channel_18 is selected */
  if (sConfig->Channel > ADC_CHANNEL_9)
 8002d6c:	683b      	ldr	r3, [r7, #0]
 8002d6e:	681b      	ldr	r3, [r3, #0]
 8002d70:	2b09      	cmp	r3, #9
 8002d72:	d925      	bls.n	8002dc0 <HAL_ADC_ConfigChannel+0x78>
  {
    /* Clear the old sample time */
    hadc->Instance->SMPR1 &= ~ADC_SMPR1(ADC_SMPR1_SMP10, sConfig->Channel);
 8002d74:	687b      	ldr	r3, [r7, #4]
 8002d76:	681b      	ldr	r3, [r3, #0]
 8002d78:	68d9      	ldr	r1, [r3, #12]
 8002d7a:	683b      	ldr	r3, [r7, #0]
 8002d7c:	681b      	ldr	r3, [r3, #0]
 8002d7e:	b29b      	uxth	r3, r3
 8002d80:	461a      	mov	r2, r3
 8002d82:	4613      	mov	r3, r2
 8002d84:	005b      	lsls	r3, r3, #1
 8002d86:	4413      	add	r3, r2
 8002d88:	3b1e      	subs	r3, #30
 8002d8a:	2207      	movs	r2, #7
 8002d8c:	fa02 f303 	lsl.w	r3, r2, r3
 8002d90:	43da      	mvns	r2, r3
 8002d92:	687b      	ldr	r3, [r7, #4]
 8002d94:	681b      	ldr	r3, [r3, #0]
 8002d96:	400a      	ands	r2, r1
 8002d98:	60da      	str	r2, [r3, #12]

    /* Set the new sample time */
    hadc->Instance->SMPR1 |= ADC_SMPR1(sConfig->SamplingTime, sConfig->Channel);
 8002d9a:	687b      	ldr	r3, [r7, #4]
 8002d9c:	681b      	ldr	r3, [r3, #0]
 8002d9e:	68d9      	ldr	r1, [r3, #12]
 8002da0:	683b      	ldr	r3, [r7, #0]
 8002da2:	689a      	ldr	r2, [r3, #8]
 8002da4:	683b      	ldr	r3, [r7, #0]
 8002da6:	681b      	ldr	r3, [r3, #0]
 8002da8:	b29b      	uxth	r3, r3
 8002daa:	4618      	mov	r0, r3
 8002dac:	4603      	mov	r3, r0
 8002dae:	005b      	lsls	r3, r3, #1
 8002db0:	4403      	add	r3, r0
 8002db2:	3b1e      	subs	r3, #30
 8002db4:	409a      	lsls	r2, r3
 8002db6:	687b      	ldr	r3, [r7, #4]
 8002db8:	681b      	ldr	r3, [r3, #0]
 8002dba:	430a      	orrs	r2, r1
 8002dbc:	60da      	str	r2, [r3, #12]
 8002dbe:	e022      	b.n	8002e06 <HAL_ADC_ConfigChannel+0xbe>
  }
  else /* ADC_Channel include in ADC_Channel_[0..9] */
  {
    /* Clear the old sample time */
    hadc->Instance->SMPR2 &= ~ADC_SMPR2(ADC_SMPR2_SMP0, sConfig->Channel);
 8002dc0:	687b      	ldr	r3, [r7, #4]
 8002dc2:	681b      	ldr	r3, [r3, #0]
 8002dc4:	6919      	ldr	r1, [r3, #16]
 8002dc6:	683b      	ldr	r3, [r7, #0]
 8002dc8:	681b      	ldr	r3, [r3, #0]
 8002dca:	b29b      	uxth	r3, r3
 8002dcc:	461a      	mov	r2, r3
 8002dce:	4613      	mov	r3, r2
 8002dd0:	005b      	lsls	r3, r3, #1
 8002dd2:	4413      	add	r3, r2
 8002dd4:	2207      	movs	r2, #7
 8002dd6:	fa02 f303 	lsl.w	r3, r2, r3
 8002dda:	43da      	mvns	r2, r3
 8002ddc:	687b      	ldr	r3, [r7, #4]
 8002dde:	681b      	ldr	r3, [r3, #0]
 8002de0:	400a      	ands	r2, r1
 8002de2:	611a      	str	r2, [r3, #16]

    /* Set the new sample time */
    hadc->Instance->SMPR2 |= ADC_SMPR2(sConfig->SamplingTime, sConfig->Channel);
 8002de4:	687b      	ldr	r3, [r7, #4]
 8002de6:	681b      	ldr	r3, [r3, #0]
 8002de8:	6919      	ldr	r1, [r3, #16]
 8002dea:	683b      	ldr	r3, [r7, #0]
 8002dec:	689a      	ldr	r2, [r3, #8]
 8002dee:	683b      	ldr	r3, [r7, #0]
 8002df0:	681b      	ldr	r3, [r3, #0]
 8002df2:	b29b      	uxth	r3, r3
 8002df4:	4618      	mov	r0, r3
 8002df6:	4603      	mov	r3, r0
 8002df8:	005b      	lsls	r3, r3, #1
 8002dfa:	4403      	add	r3, r0
 8002dfc:	409a      	lsls	r2, r3
 8002dfe:	687b      	ldr	r3, [r7, #4]
 8002e00:	681b      	ldr	r3, [r3, #0]
 8002e02:	430a      	orrs	r2, r1
 8002e04:	611a      	str	r2, [r3, #16]
  }

  /* For Rank 1 to 6 */
  if (sConfig->Rank < 7U)
 8002e06:	683b      	ldr	r3, [r7, #0]
 8002e08:	685b      	ldr	r3, [r3, #4]
 8002e0a:	2b06      	cmp	r3, #6
 8002e0c:	d824      	bhi.n	8002e58 <HAL_ADC_ConfigChannel+0x110>
  {
    /* Clear the old SQx bits for the selected rank */
    hadc->Instance->SQR3 &= ~ADC_SQR3_RK(ADC_SQR3_SQ1, sConfig->Rank);
 8002e0e:	687b      	ldr	r3, [r7, #4]
 8002e10:	681b      	ldr	r3, [r3, #0]
 8002e12:	6b59      	ldr	r1, [r3, #52]	@ 0x34
 8002e14:	683b      	ldr	r3, [r7, #0]
 8002e16:	685a      	ldr	r2, [r3, #4]
 8002e18:	4613      	mov	r3, r2
 8002e1a:	009b      	lsls	r3, r3, #2
 8002e1c:	4413      	add	r3, r2
 8002e1e:	3b05      	subs	r3, #5
 8002e20:	221f      	movs	r2, #31
 8002e22:	fa02 f303 	lsl.w	r3, r2, r3
 8002e26:	43da      	mvns	r2, r3
 8002e28:	687b      	ldr	r3, [r7, #4]
 8002e2a:	681b      	ldr	r3, [r3, #0]
 8002e2c:	400a      	ands	r2, r1
 8002e2e:	635a      	str	r2, [r3, #52]	@ 0x34

    /* Set the SQx bits for the selected rank */
    hadc->Instance->SQR3 |= ADC_SQR3_RK(sConfig->Channel, sConfig->Rank);
 8002e30:	687b      	ldr	r3, [r7, #4]
 8002e32:	681b      	ldr	r3, [r3, #0]
 8002e34:	6b59      	ldr	r1, [r3, #52]	@ 0x34
 8002e36:	683b      	ldr	r3, [r7, #0]
 8002e38:	681b      	ldr	r3, [r3, #0]
 8002e3a:	b29b      	uxth	r3, r3
 8002e3c:	4618      	mov	r0, r3
 8002e3e:	683b      	ldr	r3, [r7, #0]
 8002e40:	685a      	ldr	r2, [r3, #4]
 8002e42:	4613      	mov	r3, r2
 8002e44:	009b      	lsls	r3, r3, #2
 8002e46:	4413      	add	r3, r2
 8002e48:	3b05      	subs	r3, #5
 8002e4a:	fa00 f203 	lsl.w	r2, r0, r3
 8002e4e:	687b      	ldr	r3, [r7, #4]
 8002e50:	681b      	ldr	r3, [r3, #0]
 8002e52:	430a      	orrs	r2, r1
 8002e54:	635a      	str	r2, [r3, #52]	@ 0x34
 8002e56:	e04c      	b.n	8002ef2 <HAL_ADC_ConfigChannel+0x1aa>
  }
  /* For Rank 7 to 12 */
  else if (sConfig->Rank < 13U)
 8002e58:	683b      	ldr	r3, [r7, #0]
 8002e5a:	685b      	ldr	r3, [r3, #4]
 8002e5c:	2b0c      	cmp	r3, #12
 8002e5e:	d824      	bhi.n	8002eaa <HAL_ADC_ConfigChannel+0x162>
  {
    /* Clear the old SQx bits for the selected rank */
    hadc->Instance->SQR2 &= ~ADC_SQR2_RK(ADC_SQR2_SQ7, sConfig->Rank);
 8002e60:	687b      	ldr	r3, [r7, #4]
 8002e62:	681b      	ldr	r3, [r3, #0]
 8002e64:	6b19      	ldr	r1, [r3, #48]	@ 0x30
 8002e66:	683b      	ldr	r3, [r7, #0]
 8002e68:	685a      	ldr	r2, [r3, #4]
 8002e6a:	4613      	mov	r3, r2
 8002e6c:	009b      	lsls	r3, r3, #2
 8002e6e:	4413      	add	r3, r2
 8002e70:	3b23      	subs	r3, #35	@ 0x23
 8002e72:	221f      	movs	r2, #31
 8002e74:	fa02 f303 	lsl.w	r3, r2, r3
 8002e78:	43da      	mvns	r2, r3
 8002e7a:	687b      	ldr	r3, [r7, #4]
 8002e7c:	681b      	ldr	r3, [r3, #0]
 8002e7e:	400a      	ands	r2, r1
 8002e80:	631a      	str	r2, [r3, #48]	@ 0x30

    /* Set the SQx bits for the selected rank */
    hadc->Instance->SQR2 |= ADC_SQR2_RK(sConfig->Channel, sConfig->Rank);
 8002e82:	687b      	ldr	r3, [r7, #4]
 8002e84:	681b      	ldr	r3, [r3, #0]
 8002e86:	6b19      	ldr	r1, [r3, #48]	@ 0x30
 8002e88:	683b      	ldr	r3, [r7, #0]
 8002e8a:	681b      	ldr	r3, [r3, #0]
 8002e8c:	b29b      	uxth	r3, r3
 8002e8e:	4618      	mov	r0, r3
 8002e90:	683b      	ldr	r3, [r7, #0]
 8002e92:	685a      	ldr	r2, [r3, #4]
 8002e94:	4613      	mov	r3, r2
 8002e96:	009b      	lsls	r3, r3, #2
 8002e98:	4413      	add	r3, r2
 8002e9a:	3b23      	subs	r3, #35	@ 0x23
 8002e9c:	fa00 f203 	lsl.w	r2, r0, r3
 8002ea0:	687b      	ldr	r3, [r7, #4]
 8002ea2:	681b      	ldr	r3, [r3, #0]
 8002ea4:	430a      	orrs	r2, r1
 8002ea6:	631a      	str	r2, [r3, #48]	@ 0x30
 8002ea8:	e023      	b.n	8002ef2 <HAL_ADC_ConfigChannel+0x1aa>
  }
  /* For Rank 13 to 16 */
  else
  {
    /* Clear the old SQx bits for the selected rank */
    hadc->Instance->SQR1 &= ~ADC_SQR1_RK(ADC_SQR1_SQ13, sConfig->Rank);
 8002eaa:	687b      	ldr	r3, [r7, #4]
 8002eac:	681b      	ldr	r3, [r3, #0]
 8002eae:	6ad9      	ldr	r1, [r3, #44]	@ 0x2c
 8002eb0:	683b      	ldr	r3, [r7, #0]
 8002eb2:	685a      	ldr	r2, [r3, #4]
 8002eb4:	4613      	mov	r3, r2
 8002eb6:	009b      	lsls	r3, r3, #2
 8002eb8:	4413      	add	r3, r2
 8002eba:	3b41      	subs	r3, #65	@ 0x41
 8002ebc:	221f      	movs	r2, #31
 8002ebe:	fa02 f303 	lsl.w	r3, r2, r3
 8002ec2:	43da      	mvns	r2, r3
 8002ec4:	687b      	ldr	r3, [r7, #4]
 8002ec6:	681b      	ldr	r3, [r3, #0]
 8002ec8:	400a      	ands	r2, r1
 8002eca:	62da      	str	r2, [r3, #44]	@ 0x2c

    /* Set the SQx bits for the selected rank */
    hadc->Instance->SQR1 |= ADC_SQR1_RK(sConfig->Channel, sConfig->Rank);
 8002ecc:	687b      	ldr	r3, [r7, #4]
 8002ece:	681b      	ldr	r3, [r3, #0]
 8002ed0:	6ad9      	ldr	r1, [r3, #44]	@ 0x2c
 8002ed2:	683b      	ldr	r3, [r7, #0]
 8002ed4:	681b      	ldr	r3, [r3, #0]
 8002ed6:	b29b      	uxth	r3, r3
 8002ed8:	4618      	mov	r0, r3
 8002eda:	683b      	ldr	r3, [r7, #0]
 8002edc:	685a      	ldr	r2, [r3, #4]
 8002ede:	4613      	mov	r3, r2
 8002ee0:	009b      	lsls	r3, r3, #2
 8002ee2:	4413      	add	r3, r2
 8002ee4:	3b41      	subs	r3, #65	@ 0x41
 8002ee6:	fa00 f203 	lsl.w	r2, r0, r3
 8002eea:	687b      	ldr	r3, [r7, #4]
 8002eec:	681b      	ldr	r3, [r3, #0]
 8002eee:	430a      	orrs	r2, r1
 8002ef0:	62da      	str	r2, [r3, #44]	@ 0x2c
  }

  /* Pointer to the common control register to which is belonging hadc    */
  /* (Depending on STM32F4 product, there may be up to 3 ADCs and 1 common */
  /* control register)                                                    */
  tmpADC_Common = ADC_COMMON_REGISTER(hadc);
 8002ef2:	4b22      	ldr	r3, [pc, #136]	@ (8002f7c <HAL_ADC_ConfigChannel+0x234>)
 8002ef4:	60fb      	str	r3, [r7, #12]

  /* if ADC1 Channel_18 is selected for VBAT Channel ennable VBATE */
  if ((hadc->Instance == ADC1) && (sConfig->Channel == ADC_CHANNEL_VBAT))
 8002ef6:	687b      	ldr	r3, [r7, #4]
 8002ef8:	681b      	ldr	r3, [r3, #0]
 8002efa:	4a21      	ldr	r2, [pc, #132]	@ (8002f80 <HAL_ADC_ConfigChannel+0x238>)
 8002efc:	4293      	cmp	r3, r2
 8002efe:	d109      	bne.n	8002f14 <HAL_ADC_ConfigChannel+0x1cc>
 8002f00:	683b      	ldr	r3, [r7, #0]
 8002f02:	681b      	ldr	r3, [r3, #0]
 8002f04:	2b12      	cmp	r3, #18
 8002f06:	d105      	bne.n	8002f14 <HAL_ADC_ConfigChannel+0x1cc>
    if ((uint16_t)ADC_CHANNEL_TEMPSENSOR == (uint16_t)ADC_CHANNEL_VBAT)
    {
      tmpADC_Common->CCR &= ~ADC_CCR_TSVREFE;
    }
    /* Enable the VBAT channel*/
    tmpADC_Common->CCR |= ADC_CCR_VBATE;
 8002f08:	68fb      	ldr	r3, [r7, #12]
 8002f0a:	685b      	ldr	r3, [r3, #4]
 8002f0c:	f443 0280 	orr.w	r2, r3, #4194304	@ 0x400000
 8002f10:	68fb      	ldr	r3, [r7, #12]
 8002f12:	605a      	str	r2, [r3, #4]
  }

  /* if ADC1 Channel_16 or Channel_18 is selected for Temperature sensor or
     Channel_17 is selected for VREFINT enable TSVREFE */
  if ((hadc->Instance == ADC1) && ((sConfig->Channel == ADC_CHANNEL_TEMPSENSOR) || (sConfig->Channel == ADC_CHANNEL_VREFINT)))
 8002f14:	687b      	ldr	r3, [r7, #4]
 8002f16:	681b      	ldr	r3, [r3, #0]
 8002f18:	4a19      	ldr	r2, [pc, #100]	@ (8002f80 <HAL_ADC_ConfigChannel+0x238>)
 8002f1a:	4293      	cmp	r3, r2
 8002f1c:	d123      	bne.n	8002f66 <HAL_ADC_ConfigChannel+0x21e>
 8002f1e:	683b      	ldr	r3, [r7, #0]
 8002f20:	681b      	ldr	r3, [r3, #0]
 8002f22:	2b10      	cmp	r3, #16
 8002f24:	d003      	beq.n	8002f2e <HAL_ADC_ConfigChannel+0x1e6>
 8002f26:	683b      	ldr	r3, [r7, #0]
 8002f28:	681b      	ldr	r3, [r3, #0]
 8002f2a:	2b11      	cmp	r3, #17
 8002f2c:	d11b      	bne.n	8002f66 <HAL_ADC_ConfigChannel+0x21e>
    if ((uint16_t)ADC_CHANNEL_TEMPSENSOR == (uint16_t)ADC_CHANNEL_VBAT)
    {
      tmpADC_Common->CCR &= ~ADC_CCR_VBATE;
    }
    /* Enable the Temperature sensor and VREFINT channel*/
    tmpADC_Common->CCR |= ADC_CCR_TSVREFE;
 8002f2e:	68fb      	ldr	r3, [r7, #12]
 8002f30:	685b      	ldr	r3, [r3, #4]
 8002f32:	f443 0200 	orr.w	r2, r3, #8388608	@ 0x800000
 8002f36:	68fb      	ldr	r3, [r7, #12]
 8002f38:	605a      	str	r2, [r3, #4]

    if (sConfig->Channel == ADC_CHANNEL_TEMPSENSOR)
 8002f3a:	683b      	ldr	r3, [r7, #0]
 8002f3c:	681b      	ldr	r3, [r3, #0]
 8002f3e:	2b10      	cmp	r3, #16
 8002f40:	d111      	bne.n	8002f66 <HAL_ADC_ConfigChannel+0x21e>
    {
      /* Delay for temperature sensor stabilization time */
      /* Compute number of CPU cycles to wait for */
      counter = (ADC_TEMPSENSOR_DELAY_US * (SystemCoreClock / 1000000U));
 8002f42:	4b10      	ldr	r3, [pc, #64]	@ (8002f84 <HAL_ADC_ConfigChannel+0x23c>)
 8002f44:	681b      	ldr	r3, [r3, #0]
 8002f46:	4a10      	ldr	r2, [pc, #64]	@ (8002f88 <HAL_ADC_ConfigChannel+0x240>)
 8002f48:	fba2 2303 	umull	r2, r3, r2, r3
 8002f4c:	0c9a      	lsrs	r2, r3, #18
 8002f4e:	4613      	mov	r3, r2
 8002f50:	009b      	lsls	r3, r3, #2
 8002f52:	4413      	add	r3, r2
 8002f54:	005b      	lsls	r3, r3, #1
 8002f56:	60bb      	str	r3, [r7, #8]
      while (counter != 0U)
 8002f58:	e002      	b.n	8002f60 <HAL_ADC_ConfigChannel+0x218>
      {
        counter--;
 8002f5a:	68bb      	ldr	r3, [r7, #8]
 8002f5c:	3b01      	subs	r3, #1
 8002f5e:	60bb      	str	r3, [r7, #8]
      while (counter != 0U)
 8002f60:	68bb      	ldr	r3, [r7, #8]
 8002f62:	2b00      	cmp	r3, #0
 8002f64:	d1f9      	bne.n	8002f5a <HAL_ADC_ConfigChannel+0x212>
      }
    }
  }

  /* Process unlocked */
  __HAL_UNLOCK(hadc);
 8002f66:	687b      	ldr	r3, [r7, #4]
 8002f68:	2200      	movs	r2, #0
 8002f6a:	f883 203c 	strb.w	r2, [r3, #60]	@ 0x3c

  /* Return function status */
  return HAL_OK;
 8002f6e:	2300      	movs	r3, #0
}
 8002f70:	4618      	mov	r0, r3
 8002f72:	3714      	adds	r7, #20
 8002f74:	46bd      	mov	sp, r7
 8002f76:	f85d 7b04 	ldr.w	r7, [sp], #4
 8002f7a:	4770      	bx	lr
 8002f7c:	40012300 	.word	0x40012300
 8002f80:	40012000 	.word	0x40012000
 8002f84:	20000008 	.word	0x20000008
 8002f88:	431bde83 	.word	0x431bde83

08002f8c <ADC_Init>:
  * @param  hadc pointer to a ADC_HandleTypeDef structure that contains
  *         the configuration information for the specified ADC.
  * @retval None
  */
static void ADC_Init(ADC_HandleTypeDef *hadc)
{
 8002f8c:	b480      	push	{r7}
 8002f8e:	b085      	sub	sp, #20
 8002f90:	af00      	add	r7, sp, #0
 8002f92:	6078      	str	r0, [r7, #4]

  /* Set ADC parameters */
  /* Pointer to the common control register to which is belonging hadc    */
  /* (Depending on STM32F4 product, there may be up to 3 ADCs and 1 common */
  /* control register)                                                    */
  tmpADC_Common = ADC_COMMON_REGISTER(hadc);
 8002f94:	4b79      	ldr	r3, [pc, #484]	@ (800317c <ADC_Init+0x1f0>)
 8002f96:	60fb      	str	r3, [r7, #12]

  /* Set the ADC clock prescaler */
  tmpADC_Common->CCR &= ~(ADC_CCR_ADCPRE);
 8002f98:	68fb      	ldr	r3, [r7, #12]
 8002f9a:	685b      	ldr	r3, [r3, #4]
 8002f9c:	f423 3240 	bic.w	r2, r3, #196608	@ 0x30000
 8002fa0:	68fb      	ldr	r3, [r7, #12]
 8002fa2:	605a      	str	r2, [r3, #4]
  tmpADC_Common->CCR |=  hadc->Init.ClockPrescaler;
 8002fa4:	68fb      	ldr	r3, [r7, #12]
 8002fa6:	685a      	ldr	r2, [r3, #4]
 8002fa8:	687b      	ldr	r3, [r7, #4]
 8002faa:	685b      	ldr	r3, [r3, #4]
 8002fac:	431a      	orrs	r2, r3
 8002fae:	68fb      	ldr	r3, [r7, #12]
 8002fb0:	605a      	str	r2, [r3, #4]

  /* Set ADC scan mode */
  hadc->Instance->CR1 &= ~(ADC_CR1_SCAN);
 8002fb2:	687b      	ldr	r3, [r7, #4]
 8002fb4:	681b      	ldr	r3, [r3, #0]
 8002fb6:	685a      	ldr	r2, [r3, #4]
 8002fb8:	687b      	ldr	r3, [r7, #4]
 8002fba:	681b      	ldr	r3, [r3, #0]
 8002fbc:	f422 7280 	bic.w	r2, r2, #256	@ 0x100
 8002fc0:	605a      	str	r2, [r3, #4]
  hadc->Instance->CR1 |=  ADC_CR1_SCANCONV(hadc->Init.ScanConvMode);
 8002fc2:	687b      	ldr	r3, [r7, #4]
 8002fc4:	681b      	ldr	r3, [r3, #0]
 8002fc6:	6859      	ldr	r1, [r3, #4]
 8002fc8:	687b      	ldr	r3, [r7, #4]
 8002fca:	691b      	ldr	r3, [r3, #16]
 8002fcc:	021a      	lsls	r2, r3, #8
 8002fce:	687b      	ldr	r3, [r7, #4]
 8002fd0:	681b      	ldr	r3, [r3, #0]
 8002fd2:	430a      	orrs	r2, r1
 8002fd4:	605a      	str	r2, [r3, #4]

  /* Set ADC resolution */
  hadc->Instance->CR1 &= ~(ADC_CR1_RES);
 8002fd6:	687b      	ldr	r3, [r7, #4]
 8002fd8:	681b      	ldr	r3, [r3, #0]
 8002fda:	685a      	ldr	r2, [r3, #4]
 8002fdc:	687b      	ldr	r3, [r7, #4]
 8002fde:	681b      	ldr	r3, [r3, #0]
 8002fe0:	f022 7240 	bic.w	r2, r2, #50331648	@ 0x3000000
 8002fe4:	605a      	str	r2, [r3, #4]
  hadc->Instance->CR1 |=  hadc->Init.Resolution;
 8002fe6:	687b      	ldr	r3, [r7, #4]
 8002fe8:	681b      	ldr	r3, [r3, #0]
 8002fea:	6859      	ldr	r1, [r3, #4]
 8002fec:	687b      	ldr	r3, [r7, #4]
 8002fee:	689a      	ldr	r2, [r3, #8]
 8002ff0:	687b      	ldr	r3, [r7, #4]
 8002ff2:	681b      	ldr	r3, [r3, #0]
 8002ff4:	430a      	orrs	r2, r1
 8002ff6:	605a      	str	r2, [r3, #4]

  /* Set ADC data alignment */
  hadc->Instance->CR2 &= ~(ADC_CR2_ALIGN);
 8002ff8:	687b      	ldr	r3, [r7, #4]
 8002ffa:	681b      	ldr	r3, [r3, #0]
 8002ffc:	689a      	ldr	r2, [r3, #8]
 8002ffe:	687b      	ldr	r3, [r7, #4]
 8003000:	681b      	ldr	r3, [r3, #0]
 8003002:	f422 6200 	bic.w	r2, r2, #2048	@ 0x800
 8003006:	609a      	str	r2, [r3, #8]
  hadc->Instance->CR2 |= hadc->Init.DataAlign;
 8003008:	687b      	ldr	r3, [r7, #4]
 800300a:	681b      	ldr	r3, [r3, #0]
 800300c:	6899      	ldr	r1, [r3, #8]
 800300e:	687b      	ldr	r3, [r7, #4]
 8003010:	68da      	ldr	r2, [r3, #12]
 8003012:	687b      	ldr	r3, [r7, #4]
 8003014:	681b      	ldr	r3, [r3, #0]
 8003016:	430a      	orrs	r2, r1
 8003018:	609a      	str	r2, [r3, #8]
  /* Enable external trigger if trigger selection is different of software  */
  /* start.                                                                 */
  /* Note: This configuration keeps the hardware feature of parameter       */
  /*       ExternalTrigConvEdge "trigger edge none" equivalent to           */
  /*       software start.                                                  */
  if (hadc->Init.ExternalTrigConv != ADC_SOFTWARE_START)
 800301a:	687b      	ldr	r3, [r7, #4]
 800301c:	6a9b      	ldr	r3, [r3, #40]	@ 0x28
 800301e:	4a58      	ldr	r2, [pc, #352]	@ (8003180 <ADC_Init+0x1f4>)
 8003020:	4293      	cmp	r3, r2
 8003022:	d022      	beq.n	800306a <ADC_Init+0xde>
  {
    /* Select external trigger to start conversion */
    hadc->Instance->CR2 &= ~(ADC_CR2_EXTSEL);
 8003024:	687b      	ldr	r3, [r7, #4]
 8003026:	681b      	ldr	r3, [r3, #0]
 8003028:	689a      	ldr	r2, [r3, #8]
 800302a:	687b      	ldr	r3, [r7, #4]
 800302c:	681b      	ldr	r3, [r3, #0]
 800302e:	f022 6270 	bic.w	r2, r2, #251658240	@ 0xf000000
 8003032:	609a      	str	r2, [r3, #8]
    hadc->Instance->CR2 |= hadc->Init.ExternalTrigConv;
 8003034:	687b      	ldr	r3, [r7, #4]
 8003036:	681b      	ldr	r3, [r3, #0]
 8003038:	6899      	ldr	r1, [r3, #8]
 800303a:	687b      	ldr	r3, [r7, #4]
 800303c:	6a9a      	ldr	r2, [r3, #40]	@ 0x28
 800303e:	687b      	ldr	r3, [r7, #4]
 8003040:	681b      	ldr	r3, [r3, #0]
 8003042:	430a      	orrs	r2, r1
 8003044:	609a      	str	r2, [r3, #8]

    /* Select external trigger polarity */
    hadc->Instance->CR2 &= ~(ADC_CR2_EXTEN);
 8003046:	687b      	ldr	r3, [r7, #4]
 8003048:	681b      	ldr	r3, [r3, #0]
 800304a:	689a      	ldr	r2, [r3, #8]
 800304c:	687b      	ldr	r3, [r7, #4]
 800304e:	681b      	ldr	r3, [r3, #0]
 8003050:	f022 5240 	bic.w	r2, r2, #805306368	@ 0x30000000
 8003054:	609a      	str	r2, [r3, #8]
    hadc->Instance->CR2 |= hadc->Init.ExternalTrigConvEdge;
 8003056:	687b      	ldr	r3, [r7, #4]
 8003058:	681b      	ldr	r3, [r3, #0]
 800305a:	6899      	ldr	r1, [r3, #8]
 800305c:	687b      	ldr	r3, [r7, #4]
 800305e:	6ada      	ldr	r2, [r3, #44]	@ 0x2c
 8003060:	687b      	ldr	r3, [r7, #4]
 8003062:	681b      	ldr	r3, [r3, #0]
 8003064:	430a      	orrs	r2, r1
 8003066:	609a      	str	r2, [r3, #8]
 8003068:	e00f      	b.n	800308a <ADC_Init+0xfe>
  }
  else
  {
    /* Reset the external trigger */
    hadc->Instance->CR2 &= ~(ADC_CR2_EXTSEL);
 800306a:	687b      	ldr	r3, [r7, #4]
 800306c:	681b      	ldr	r3, [r3, #0]
 800306e:	689a      	ldr	r2, [r3, #8]
 8003070:	687b      	ldr	r3, [r7, #4]
 8003072:	681b      	ldr	r3, [r3, #0]
 8003074:	f022 6270 	bic.w	r2, r2, #251658240	@ 0xf000000
 8003078:	609a      	str	r2, [r3, #8]
    hadc->Instance->CR2 &= ~(ADC_CR2_EXTEN);
 800307a:	687b      	ldr	r3, [r7, #4]
 800307c:	681b      	ldr	r3, [r3, #0]
 800307e:	689a      	ldr	r2, [r3, #8]
 8003080:	687b      	ldr	r3, [r7, #4]
 8003082:	681b      	ldr	r3, [r3, #0]
 8003084:	f022 5240 	bic.w	r2, r2, #805306368	@ 0x30000000
 8003088:	609a      	str	r2, [r3, #8]
  }

  /* Enable or disable ADC continuous conversion mode */
  hadc->Instance->CR2 &= ~(ADC_CR2_CONT);
 800308a:	687b      	ldr	r3, [r7, #4]
 800308c:	681b      	ldr	r3, [r3, #0]
 800308e:	689a      	ldr	r2, [r3, #8]
 8003090:	687b      	ldr	r3, [r7, #4]
 8003092:	681b      	ldr	r3, [r3, #0]
 8003094:	f022 0202 	bic.w	r2, r2, #2
 8003098:	609a      	str	r2, [r3, #8]
  hadc->Instance->CR2 |= ADC_CR2_CONTINUOUS((uint32_t)hadc->Init.ContinuousConvMode);
 800309a:	687b      	ldr	r3, [r7, #4]
 800309c:	681b      	ldr	r3, [r3, #0]
 800309e:	6899      	ldr	r1, [r3, #8]
 80030a0:	687b      	ldr	r3, [r7, #4]
 80030a2:	7e1b      	ldrb	r3, [r3, #24]
 80030a4:	005a      	lsls	r2, r3, #1
 80030a6:	687b      	ldr	r3, [r7, #4]
 80030a8:	681b      	ldr	r3, [r3, #0]
 80030aa:	430a      	orrs	r2, r1
 80030ac:	609a      	str	r2, [r3, #8]

  if (hadc->Init.DiscontinuousConvMode != DISABLE)
 80030ae:	687b      	ldr	r3, [r7, #4]
 80030b0:	f893 3020 	ldrb.w	r3, [r3, #32]
 80030b4:	2b00      	cmp	r3, #0
 80030b6:	d01b      	beq.n	80030f0 <ADC_Init+0x164>
  {
    assert_param(IS_ADC_REGULAR_DISC_NUMBER(hadc->Init.NbrOfDiscConversion));

    /* Enable the selected ADC regular discontinuous mode */
    hadc->Instance->CR1 |= (uint32_t)ADC_CR1_DISCEN;
 80030b8:	687b      	ldr	r3, [r7, #4]
 80030ba:	681b      	ldr	r3, [r3, #0]
 80030bc:	685a      	ldr	r2, [r3, #4]
 80030be:	687b      	ldr	r3, [r7, #4]
 80030c0:	681b      	ldr	r3, [r3, #0]
 80030c2:	f442 6200 	orr.w	r2, r2, #2048	@ 0x800
 80030c6:	605a      	str	r2, [r3, #4]

    /* Set the number of channels to be converted in discontinuous mode */
    hadc->Instance->CR1 &= ~(ADC_CR1_DISCNUM);
 80030c8:	687b      	ldr	r3, [r7, #4]
 80030ca:	681b      	ldr	r3, [r3, #0]
 80030cc:	685a      	ldr	r2, [r3, #4]
 80030ce:	687b      	ldr	r3, [r7, #4]
 80030d0:	681b      	ldr	r3, [r3, #0]
 80030d2:	f422 4260 	bic.w	r2, r2, #57344	@ 0xe000
 80030d6:	605a      	str	r2, [r3, #4]
    hadc->Instance->CR1 |=  ADC_CR1_DISCONTINUOUS(hadc->Init.NbrOfDiscConversion);
 80030d8:	687b      	ldr	r3, [r7, #4]
 80030da:	681b      	ldr	r3, [r3, #0]
 80030dc:	6859      	ldr	r1, [r3, #4]
 80030de:	687b      	ldr	r3, [r7, #4]
 80030e0:	6a5b      	ldr	r3, [r3, #36]	@ 0x24
 80030e2:	3b01      	subs	r3, #1
 80030e4:	035a      	lsls	r2, r3, #13
 80030e6:	687b      	ldr	r3, [r7, #4]
 80030e8:	681b      	ldr	r3, [r3, #0]
 80030ea:	430a      	orrs	r2, r1
 80030ec:	605a      	str	r2, [r3, #4]
 80030ee:	e007      	b.n	8003100 <ADC_Init+0x174>
  }
  else
  {
    /* Disable the selected ADC regular discontinuous mode */
    hadc->Instance->CR1 &= ~(ADC_CR1_DISCEN);
 80030f0:	687b      	ldr	r3, [r7, #4]
 80030f2:	681b      	ldr	r3, [r3, #0]
 80030f4:	685a      	ldr	r2, [r3, #4]
 80030f6:	687b      	ldr	r3, [r7, #4]
 80030f8:	681b      	ldr	r3, [r3, #0]
 80030fa:	f422 6200 	bic.w	r2, r2, #2048	@ 0x800
 80030fe:	605a      	str	r2, [r3, #4]
  }

  /* Set ADC number of conversion */
  hadc->Instance->SQR1 &= ~(ADC_SQR1_L);
 8003100:	687b      	ldr	r3, [r7, #4]
 8003102:	681b      	ldr	r3, [r3, #0]
 8003104:	6ada      	ldr	r2, [r3, #44]	@ 0x2c
 8003106:	687b      	ldr	r3, [r7, #4]
 8003108:	681b      	ldr	r3, [r3, #0]
 800310a:	f422 0270 	bic.w	r2, r2, #15728640	@ 0xf00000
 800310e:	62da      	str	r2, [r3, #44]	@ 0x2c
  hadc->Instance->SQR1 |=  ADC_SQR1(hadc->Init.NbrOfConversion);
 8003110:	687b      	ldr	r3, [r7, #4]
 8003112:	681b      	ldr	r3, [r3, #0]
 8003114:	6ad9      	ldr	r1, [r3, #44]	@ 0x2c
 8003116:	687b      	ldr	r3, [r7, #4]
 8003118:	69db      	ldr	r3, [r3, #28]
 800311a:	3b01      	subs	r3, #1
 800311c:	051a      	lsls	r2, r3, #20
 800311e:	687b      	ldr	r3, [r7, #4]
 8003120:	681b      	ldr	r3, [r3, #0]
 8003122:	430a      	orrs	r2, r1
 8003124:	62da      	str	r2, [r3, #44]	@ 0x2c

  /* Enable or disable ADC DMA continuous request */
  hadc->Instance->CR2 &= ~(ADC_CR2_DDS);
 8003126:	687b      	ldr	r3, [r7, #4]
 8003128:	681b      	ldr	r3, [r3, #0]
 800312a:	689a      	ldr	r2, [r3, #8]
 800312c:	687b      	ldr	r3, [r7, #4]
 800312e:	681b      	ldr	r3, [r3, #0]
 8003130:	f422 7200 	bic.w	r2, r2, #512	@ 0x200
 8003134:	609a      	str	r2, [r3, #8]
  hadc->Instance->CR2 |= ADC_CR2_DMAContReq((uint32_t)hadc->Init.DMAContinuousRequests);
 8003136:	687b      	ldr	r3, [r7, #4]
 8003138:	681b      	ldr	r3, [r3, #0]
 800313a:	6899      	ldr	r1, [r3, #8]
 800313c:	687b      	ldr	r3, [r7, #4]
 800313e:	f893 3030 	ldrb.w	r3, [r3, #48]	@ 0x30
 8003142:	025a      	lsls	r2, r3, #9
 8003144:	687b      	ldr	r3, [r7, #4]
 8003146:	681b      	ldr	r3, [r3, #0]
 8003148:	430a      	orrs	r2, r1
 800314a:	609a      	str	r2, [r3, #8]

  /* Enable or disable ADC end of conversion selection */
  hadc->Instance->CR2 &= ~(ADC_CR2_EOCS);
 800314c:	687b      	ldr	r3, [r7, #4]
 800314e:	681b      	ldr	r3, [r3, #0]
 8003150:	689a      	ldr	r2, [r3, #8]
 8003152:	687b      	ldr	r3, [r7, #4]
 8003154:	681b      	ldr	r3, [r3, #0]
 8003156:	f422 6280 	bic.w	r2, r2, #1024	@ 0x400
 800315a:	609a      	str	r2, [r3, #8]
  hadc->Instance->CR2 |= ADC_CR2_EOCSelection(hadc->Init.EOCSelection);
 800315c:	687b      	ldr	r3, [r7, #4]
 800315e:	681b      	ldr	r3, [r3, #0]
 8003160:	6899      	ldr	r1, [r3, #8]
 8003162:	687b      	ldr	r3, [r7, #4]
 8003164:	695b      	ldr	r3, [r3, #20]
 8003166:	029a      	lsls	r2, r3, #10
 8003168:	687b      	ldr	r3, [r7, #4]
 800316a:	681b      	ldr	r3, [r3, #0]
 800316c:	430a      	orrs	r2, r1
 800316e:	609a      	str	r2, [r3, #8]
}
 8003170:	bf00      	nop
 8003172:	3714      	adds	r7, #20
 8003174:	46bd      	mov	sp, r7
 8003176:	f85d 7b04 	ldr.w	r7, [sp], #4
 800317a:	4770      	bx	lr
 800317c:	40012300 	.word	0x40012300
 8003180:	0f000001 	.word	0x0f000001

08003184 <HAL_ADCEx_InjectedConvCpltCallback>:
  * @param  hadc pointer to a ADC_HandleTypeDef structure that contains
  *         the configuration information for the specified ADC.
  * @retval None
  */
__weak void HAL_ADCEx_InjectedConvCpltCallback(ADC_HandleTypeDef *hadc)
{
 8003184:	b480      	push	{r7}
 8003186:	b083      	sub	sp, #12
 8003188:	af00      	add	r7, sp, #0
 800318a:	6078      	str	r0, [r7, #4]
  /* Prevent unused argument(s) compilation warning */
  UNUSED(hadc);
  /* NOTE : This function Should not be modified, when the callback is needed,
            the HAL_ADC_InjectedConvCpltCallback could be implemented in the user file
   */
}
 800318c:	bf00      	nop
 800318e:	370c      	adds	r7, #12
 8003190:	46bd      	mov	sp, r7
 8003192:	f85d 7b04 	ldr.w	r7, [sp], #4
 8003196:	4770      	bx	lr

08003198 <__NVIC_SetPriorityGrouping>:
           In case of a conflict between priority grouping and available
           priority bits (__NVIC_PRIO_BITS), the smallest possible priority group is set.
  \param [in]      PriorityGroup  Priority grouping field.
 */
__STATIC_INLINE void __NVIC_SetPriorityGrouping(uint32_t PriorityGroup)
{
 8003198:	b480      	push	{r7}
 800319a:	b085      	sub	sp, #20
 800319c:	af00      	add	r7, sp, #0
 800319e:	6078      	str	r0, [r7, #4]
  uint32_t reg_value;
  uint32_t PriorityGroupTmp = (PriorityGroup & (uint32_t)0x07UL);             /* only values 0..7 are used          */
 80031a0:	687b      	ldr	r3, [r7, #4]
 80031a2:	f003 0307 	and.w	r3, r3, #7
 80031a6:	60fb      	str	r3, [r7, #12]

  reg_value  =  SCB->AIRCR;                                                   /* read old register configuration    */
 80031a8:	4b0c      	ldr	r3, [pc, #48]	@ (80031dc <__NVIC_SetPriorityGrouping+0x44>)
 80031aa:	68db      	ldr	r3, [r3, #12]
 80031ac:	60bb      	str	r3, [r7, #8]
  reg_value &= ~((uint32_t)(SCB_AIRCR_VECTKEY_Msk | SCB_AIRCR_PRIGROUP_Msk)); /* clear bits to change               */
 80031ae:	68ba      	ldr	r2, [r7, #8]
 80031b0:	f64f 03ff 	movw	r3, #63743	@ 0xf8ff
 80031b4:	4013      	ands	r3, r2
 80031b6:	60bb      	str	r3, [r7, #8]
  reg_value  =  (reg_value                                   |
                ((uint32_t)0x5FAUL << SCB_AIRCR_VECTKEY_Pos) |
                (PriorityGroupTmp << SCB_AIRCR_PRIGROUP_Pos)  );              /* Insert write key and priority group */
 80031b8:	68fb      	ldr	r3, [r7, #12]
 80031ba:	021a      	lsls	r2, r3, #8
                ((uint32_t)0x5FAUL << SCB_AIRCR_VECTKEY_Pos) |
 80031bc:	68bb      	ldr	r3, [r7, #8]
 80031be:	4313      	orrs	r3, r2
  reg_value  =  (reg_value                                   |
 80031c0:	f043 63bf 	orr.w	r3, r3, #100139008	@ 0x5f80000
 80031c4:	f443 3300 	orr.w	r3, r3, #131072	@ 0x20000
 80031c8:	60bb      	str	r3, [r7, #8]
  SCB->AIRCR =  reg_value;
 80031ca:	4a04      	ldr	r2, [pc, #16]	@ (80031dc <__NVIC_SetPriorityGrouping+0x44>)
 80031cc:	68bb      	ldr	r3, [r7, #8]
 80031ce:	60d3      	str	r3, [r2, #12]
}
 80031d0:	bf00      	nop
 80031d2:	3714      	adds	r7, #20
 80031d4:	46bd      	mov	sp, r7
 80031d6:	f85d 7b04 	ldr.w	r7, [sp], #4
 80031da:	4770      	bx	lr
 80031dc:	e000ed00 	.word	0xe000ed00

080031e0 <__NVIC_GetPriorityGrouping>:
  \brief   Get Priority Grouping
  \details Reads the priority grouping field from the NVIC Interrupt Controller.
  \return                Priority grouping field (SCB->AIRCR [10:8] PRIGROUP field).
 */
__STATIC_INLINE uint32_t __NVIC_GetPriorityGrouping(void)
{
 80031e0:	b480      	push	{r7}
 80031e2:	af00      	add	r7, sp, #0
  return ((uint32_t)((SCB->AIRCR & SCB_AIRCR_PRIGROUP_Msk) >> SCB_AIRCR_PRIGROUP_Pos));
 80031e4:	4b04      	ldr	r3, [pc, #16]	@ (80031f8 <__NVIC_GetPriorityGrouping+0x18>)
 80031e6:	68db      	ldr	r3, [r3, #12]
 80031e8:	0a1b      	lsrs	r3, r3, #8
 80031ea:	f003 0307 	and.w	r3, r3, #7
}
 80031ee:	4618      	mov	r0, r3
 80031f0:	46bd      	mov	sp, r7
 80031f2:	f85d 7b04 	ldr.w	r7, [sp], #4
 80031f6:	4770      	bx	lr
 80031f8:	e000ed00 	.word	0xe000ed00

080031fc <__NVIC_EnableIRQ>:
  \details Enables a device specific interrupt in the NVIC interrupt controller.
  \param [in]      IRQn  Device specific interrupt number.
  \note    IRQn must not be negative.
 */
__STATIC_INLINE void __NVIC_EnableIRQ(IRQn_Type IRQn)
{
 80031fc:	b480      	push	{r7}
 80031fe:	b083      	sub	sp, #12
 8003200:	af00      	add	r7, sp, #0
 8003202:	4603      	mov	r3, r0
 8003204:	71fb      	strb	r3, [r7, #7]
  if ((int32_t)(IRQn) >= 0)
 8003206:	f997 3007 	ldrsb.w	r3, [r7, #7]
 800320a:	2b00      	cmp	r3, #0
 800320c:	db0b      	blt.n	8003226 <__NVIC_EnableIRQ+0x2a>
  {
    __COMPILER_BARRIER();
    NVIC->ISER[(((uint32_t)IRQn) >> 5UL)] = (uint32_t)(1UL << (((uint32_t)IRQn) & 0x1FUL));
 800320e:	79fb      	ldrb	r3, [r7, #7]
 8003210:	f003 021f 	and.w	r2, r3, #31
 8003214:	4907      	ldr	r1, [pc, #28]	@ (8003234 <__NVIC_EnableIRQ+0x38>)
 8003216:	f997 3007 	ldrsb.w	r3, [r7, #7]
 800321a:	095b      	lsrs	r3, r3, #5
 800321c:	2001      	movs	r0, #1
 800321e:	fa00 f202 	lsl.w	r2, r0, r2
 8003222:	f841 2023 	str.w	r2, [r1, r3, lsl #2]
    __COMPILER_BARRIER();
  }
}
 8003226:	bf00      	nop
 8003228:	370c      	adds	r7, #12
 800322a:	46bd      	mov	sp, r7
 800322c:	f85d 7b04 	ldr.w	r7, [sp], #4
 8003230:	4770      	bx	lr
 8003232:	bf00      	nop
 8003234:	e000e100 	.word	0xe000e100

08003238 <__NVIC_SetPriority>:
  \param [in]      IRQn  Interrupt number.
  \param [in]  priority  Priority to set.
  \note    The priority cannot be set for every processor exception.
 */
__STATIC_INLINE void __NVIC_SetPriority(IRQn_Type IRQn, uint32_t priority)
{
 8003238:	b480      	push	{r7}
 800323a:	b083      	sub	sp, #12
 800323c:	af00      	add	r7, sp, #0
 800323e:	4603      	mov	r3, r0
 8003240:	6039      	str	r1, [r7, #0]
 8003242:	71fb      	strb	r3, [r7, #7]
  if ((int32_t)(IRQn) >= 0)
 8003244:	f997 3007 	ldrsb.w	r3, [r7, #7]
 8003248:	2b00      	cmp	r3, #0
 800324a:	db0a      	blt.n	8003262 <__NVIC_SetPriority+0x2a>
  {
    NVIC->IP[((uint32_t)IRQn)]               = (uint8_t)((priority << (8U - __NVIC_PRIO_BITS)) & (uint32_t)0xFFUL);
 800324c:	683b      	ldr	r3, [r7, #0]
 800324e:	b2da      	uxtb	r2, r3
 8003250:	490c      	ldr	r1, [pc, #48]	@ (8003284 <__NVIC_SetPriority+0x4c>)
 8003252:	f997 3007 	ldrsb.w	r3, [r7, #7]
 8003256:	0112      	lsls	r2, r2, #4
 8003258:	b2d2      	uxtb	r2, r2
 800325a:	440b      	add	r3, r1
 800325c:	f883 2300 	strb.w	r2, [r3, #768]	@ 0x300
  }
  else
  {
    SCB->SHP[(((uint32_t)IRQn) & 0xFUL)-4UL] = (uint8_t)((priority << (8U - __NVIC_PRIO_BITS)) & (uint32_t)0xFFUL);
  }
}
 8003260:	e00a      	b.n	8003278 <__NVIC_SetPriority+0x40>
    SCB->SHP[(((uint32_t)IRQn) & 0xFUL)-4UL] = (uint8_t)((priority << (8U - __NVIC_PRIO_BITS)) & (uint32_t)0xFFUL);
 8003262:	683b      	ldr	r3, [r7, #0]
 8003264:	b2da      	uxtb	r2, r3
 8003266:	4908      	ldr	r1, [pc, #32]	@ (8003288 <__NVIC_SetPriority+0x50>)
 8003268:	79fb      	ldrb	r3, [r7, #7]
 800326a:	f003 030f 	and.w	r3, r3, #15
 800326e:	3b04      	subs	r3, #4
 8003270:	0112      	lsls	r2, r2, #4
 8003272:	b2d2      	uxtb	r2, r2
 8003274:	440b      	add	r3, r1
 8003276:	761a      	strb	r2, [r3, #24]
}
 8003278:	bf00      	nop
 800327a:	370c      	adds	r7, #12
 800327c:	46bd      	mov	sp, r7
 800327e:	f85d 7b04 	ldr.w	r7, [sp], #4
 8003282:	4770      	bx	lr
 8003284:	e000e100 	.word	0xe000e100
 8003288:	e000ed00 	.word	0xe000ed00

0800328c <NVIC_EncodePriority>:
  \param [in]   PreemptPriority  Preemptive priority value (starting from 0).
  \param [in]       SubPriority  Subpriority value (starting from 0).
  \return                        Encoded priority. Value can be used in the function \ref NVIC_SetPriority().
 */
__STATIC_INLINE uint32_t NVIC_EncodePriority (uint32_t PriorityGroup, uint32_t PreemptPriority, uint32_t SubPriority)
{
 800328c:	b480      	push	{r7}
 800328e:	b089      	sub	sp, #36	@ 0x24
 8003290:	af00      	add	r7, sp, #0
 8003292:	60f8      	str	r0, [r7, #12]
 8003294:	60b9      	str	r1, [r7, #8]
 8003296:	607a      	str	r2, [r7, #4]
  uint32_t PriorityGroupTmp = (PriorityGroup & (uint32_t)0x07UL);   /* only values 0..7 are used          */
 8003298:	68fb      	ldr	r3, [r7, #12]
 800329a:	f003 0307 	and.w	r3, r3, #7
 800329e:	61fb      	str	r3, [r7, #28]
  uint32_t PreemptPriorityBits;
  uint32_t SubPriorityBits;

  PreemptPriorityBits = ((7UL - PriorityGroupTmp) > (uint32_t)(__NVIC_PRIO_BITS)) ? (uint32_t)(__NVIC_PRIO_BITS) : (uint32_t)(7UL - PriorityGroupTmp);
 80032a0:	69fb      	ldr	r3, [r7, #28]
 80032a2:	f1c3 0307 	rsb	r3, r3, #7
 80032a6:	2b04      	cmp	r3, #4
 80032a8:	bf28      	it	cs
 80032aa:	2304      	movcs	r3, #4
 80032ac:	61bb      	str	r3, [r7, #24]
  SubPriorityBits     = ((PriorityGroupTmp + (uint32_t)(__NVIC_PRIO_BITS)) < (uint32_t)7UL) ? (uint32_t)0UL : (uint32_t)((PriorityGroupTmp - 7UL) + (uint32_t)(__NVIC_PRIO_BITS));
 80032ae:	69fb      	ldr	r3, [r7, #28]
 80032b0:	3304      	adds	r3, #4
 80032b2:	2b06      	cmp	r3, #6
 80032b4:	d902      	bls.n	80032bc <NVIC_EncodePriority+0x30>
 80032b6:	69fb      	ldr	r3, [r7, #28]
 80032b8:	3b03      	subs	r3, #3
 80032ba:	e000      	b.n	80032be <NVIC_EncodePriority+0x32>
 80032bc:	2300      	movs	r3, #0
 80032be:	617b      	str	r3, [r7, #20]

  return (
           ((PreemptPriority & (uint32_t)((1UL << (PreemptPriorityBits)) - 1UL)) << SubPriorityBits) |
 80032c0:	f04f 32ff 	mov.w	r2, #4294967295
 80032c4:	69bb      	ldr	r3, [r7, #24]
 80032c6:	fa02 f303 	lsl.w	r3, r2, r3
 80032ca:	43da      	mvns	r2, r3
 80032cc:	68bb      	ldr	r3, [r7, #8]
 80032ce:	401a      	ands	r2, r3
 80032d0:	697b      	ldr	r3, [r7, #20]
 80032d2:	409a      	lsls	r2, r3
           ((SubPriority     & (uint32_t)((1UL << (SubPriorityBits    )) - 1UL)))
 80032d4:	f04f 31ff 	mov.w	r1, #4294967295
 80032d8:	697b      	ldr	r3, [r7, #20]
 80032da:	fa01 f303 	lsl.w	r3, r1, r3
 80032de:	43d9      	mvns	r1, r3
 80032e0:	687b      	ldr	r3, [r7, #4]
 80032e2:	400b      	ands	r3, r1
           ((PreemptPriority & (uint32_t)((1UL << (PreemptPriorityBits)) - 1UL)) << SubPriorityBits) |
 80032e4:	4313      	orrs	r3, r2
         );
}
 80032e6:	4618      	mov	r0, r3
 80032e8:	3724      	adds	r7, #36	@ 0x24
 80032ea:	46bd      	mov	sp, r7
 80032ec:	f85d 7b04 	ldr.w	r7, [sp], #4
 80032f0:	4770      	bx	lr
	...

080032f4 <SysTick_Config>:
  \note    When the variable <b>__Vendor_SysTickConfig</b> is set to 1, then the
           function <b>SysTick_Config</b> is not included. In this case, the file <b><i>device</i>.h</b>
           must contain a vendor-specific implementation of this function.
 */
__STATIC_INLINE uint32_t SysTick_Config(uint32_t ticks)
{
 80032f4:	b580      	push	{r7, lr}
 80032f6:	b082      	sub	sp, #8
 80032f8:	af00      	add	r7, sp, #0
 80032fa:	6078      	str	r0, [r7, #4]
  if ((ticks - 1UL) > SysTick_LOAD_RELOAD_Msk)
 80032fc:	687b      	ldr	r3, [r7, #4]
 80032fe:	3b01      	subs	r3, #1
 8003300:	f1b3 7f80 	cmp.w	r3, #16777216	@ 0x1000000
 8003304:	d301      	bcc.n	800330a <SysTick_Config+0x16>
  {
    return (1UL);                                                   /* Reload value impossible */
 8003306:	2301      	movs	r3, #1
 8003308:	e00f      	b.n	800332a <SysTick_Config+0x36>
  }

  SysTick->LOAD  = (uint32_t)(ticks - 1UL);                         /* set reload register */
 800330a:	4a0a      	ldr	r2, [pc, #40]	@ (8003334 <SysTick_Config+0x40>)
 800330c:	687b      	ldr	r3, [r7, #4]
 800330e:	3b01      	subs	r3, #1
 8003310:	6053      	str	r3, [r2, #4]
  NVIC_SetPriority (SysTick_IRQn, (1UL << __NVIC_PRIO_BITS) - 1UL); /* set Priority for Systick Interrupt */
 8003312:	210f      	movs	r1, #15
 8003314:	f04f 30ff 	mov.w	r0, #4294967295
 8003318:	f7ff ff8e 	bl	8003238 <__NVIC_SetPriority>
  SysTick->VAL   = 0UL;                                             /* Load the SysTick Counter Value */
 800331c:	4b05      	ldr	r3, [pc, #20]	@ (8003334 <SysTick_Config+0x40>)
 800331e:	2200      	movs	r2, #0
 8003320:	609a      	str	r2, [r3, #8]
  SysTick->CTRL  = SysTick_CTRL_CLKSOURCE_Msk |
 8003322:	4b04      	ldr	r3, [pc, #16]	@ (8003334 <SysTick_Config+0x40>)
 8003324:	2207      	movs	r2, #7
 8003326:	601a      	str	r2, [r3, #0]
                   SysTick_CTRL_TICKINT_Msk   |
                   SysTick_CTRL_ENABLE_Msk;                         /* Enable SysTick IRQ and SysTick Timer */
  return (0UL);                                                     /* Function successful */
 8003328:	2300      	movs	r3, #0
}
 800332a:	4618      	mov	r0, r3
 800332c:	3708      	adds	r7, #8
 800332e:	46bd      	mov	sp, r7
 8003330:	bd80      	pop	{r7, pc}
 8003332:	bf00      	nop
 8003334:	e000e010 	.word	0xe000e010

08003338 <HAL_NVIC_SetPriorityGrouping>:
  * @note   When the NVIC_PriorityGroup_0 is selected, IRQ preemption is no more possible. 
  *         The pending IRQ priority will be managed only by the subpriority. 
  * @retval None
  */
void HAL_NVIC_SetPriorityGrouping(uint32_t PriorityGroup)
{
 8003338:	b580      	push	{r7, lr}
 800333a:	b082      	sub	sp, #8
 800333c:	af00      	add	r7, sp, #0
 800333e:	6078      	str	r0, [r7, #4]
  /* Check the parameters */
  assert_param(IS_NVIC_PRIORITY_GROUP(PriorityGroup));
  
  /* Set the PRIGROUP[10:8] bits according to the PriorityGroup parameter value */
  NVIC_SetPriorityGrouping(PriorityGroup);
 8003340:	6878      	ldr	r0, [r7, #4]
 8003342:	f7ff ff29 	bl	8003198 <__NVIC_SetPriorityGrouping>
}
 8003346:	bf00      	nop
 8003348:	3708      	adds	r7, #8
 800334a:	46bd      	mov	sp, r7
 800334c:	bd80      	pop	{r7, pc}

0800334e <HAL_NVIC_SetPriority>:
  *         This parameter can be a value between 0 and 15
  *         A lower priority value indicates a higher priority.          
  * @retval None
  */
void HAL_NVIC_SetPriority(IRQn_Type IRQn, uint32_t PreemptPriority, uint32_t SubPriority)
{ 
 800334e:	b580      	push	{r7, lr}
 8003350:	b086      	sub	sp, #24
 8003352:	af00      	add	r7, sp, #0
 8003354:	4603      	mov	r3, r0
 8003356:	60b9      	str	r1, [r7, #8]
 8003358:	607a      	str	r2, [r7, #4]
 800335a:	73fb      	strb	r3, [r7, #15]
  uint32_t prioritygroup = 0x00U;
 800335c:	2300      	movs	r3, #0
 800335e:	617b      	str	r3, [r7, #20]
  
  /* Check the parameters */
  assert_param(IS_NVIC_SUB_PRIORITY(SubPriority));
  assert_param(IS_NVIC_PREEMPTION_PRIORITY(PreemptPriority));
  
  prioritygroup = NVIC_GetPriorityGrouping();
 8003360:	f7ff ff3e 	bl	80031e0 <__NVIC_GetPriorityGrouping>
 8003364:	6178      	str	r0, [r7, #20]
  
  NVIC_SetPriority(IRQn, NVIC_EncodePriority(prioritygroup, PreemptPriority, SubPriority));
 8003366:	687a      	ldr	r2, [r7, #4]
 8003368:	68b9      	ldr	r1, [r7, #8]
 800336a:	6978      	ldr	r0, [r7, #20]
 800336c:	f7ff ff8e 	bl	800328c <NVIC_EncodePriority>
 8003370:	4602      	mov	r2, r0
 8003372:	f997 300f 	ldrsb.w	r3, [r7, #15]
 8003376:	4611      	mov	r1, r2
 8003378:	4618      	mov	r0, r3
 800337a:	f7ff ff5d 	bl	8003238 <__NVIC_SetPriority>
}
 800337e:	bf00      	nop
 8003380:	3718      	adds	r7, #24
 8003382:	46bd      	mov	sp, r7
 8003384:	bd80      	pop	{r7, pc}

08003386 <HAL_NVIC_EnableIRQ>:
  *         This parameter can be an enumerator of IRQn_Type enumeration
  *         (For the complete STM32 Devices IRQ Channels list, please refer to the appropriate CMSIS device file (stm32f4xxxx.h))
  * @retval None
  */
void HAL_NVIC_EnableIRQ(IRQn_Type IRQn)
{
 8003386:	b580      	push	{r7, lr}
 8003388:	b082      	sub	sp, #8
 800338a:	af00      	add	r7, sp, #0
 800338c:	4603      	mov	r3, r0
 800338e:	71fb      	strb	r3, [r7, #7]
  /* Check the parameters */
  assert_param(IS_NVIC_DEVICE_IRQ(IRQn));
  
  /* Enable interrupt */
  NVIC_EnableIRQ(IRQn);
 8003390:	f997 3007 	ldrsb.w	r3, [r7, #7]
 8003394:	4618      	mov	r0, r3
 8003396:	f7ff ff31 	bl	80031fc <__NVIC_EnableIRQ>
}
 800339a:	bf00      	nop
 800339c:	3708      	adds	r7, #8
 800339e:	46bd      	mov	sp, r7
 80033a0:	bd80      	pop	{r7, pc}

080033a2 <HAL_SYSTICK_Config>:
  * @param  TicksNumb Specifies the ticks Number of ticks between two interrupts.
  * @retval status:  - 0  Function succeeded.
  *                  - 1  Function failed.
  */
uint32_t HAL_SYSTICK_Config(uint32_t TicksNumb)
{
 80033a2:	b580      	push	{r7, lr}
 80033a4:	b082      	sub	sp, #8
 80033a6:	af00      	add	r7, sp, #0
 80033a8:	6078      	str	r0, [r7, #4]
   return SysTick_Config(TicksNumb);
 80033aa:	6878      	ldr	r0, [r7, #4]
 80033ac:	f7ff ffa2 	bl	80032f4 <SysTick_Config>
 80033b0:	4603      	mov	r3, r0
}
 80033b2:	4618      	mov	r0, r3
 80033b4:	3708      	adds	r7, #8
 80033b6:	46bd      	mov	sp, r7
 80033b8:	bd80      	pop	{r7, pc}
	...

080033bc <HAL_GPIO_Init>:
  * @param  GPIO_Init pointer to a GPIO_InitTypeDef structure that contains
  *         the configuration information for the specified GPIO peripheral.
  * @retval None
  */
void HAL_GPIO_Init(GPIO_TypeDef  *GPIOx, GPIO_InitTypeDef *GPIO_Init)
{
 80033bc:	b480      	push	{r7}
 80033be:	b089      	sub	sp, #36	@ 0x24
 80033c0:	af00      	add	r7, sp, #0
 80033c2:	6078      	str	r0, [r7, #4]
 80033c4:	6039      	str	r1, [r7, #0]
  uint32_t position;
  uint32_t ioposition = 0x00U;
 80033c6:	2300      	movs	r3, #0
 80033c8:	617b      	str	r3, [r7, #20]
  uint32_t iocurrent = 0x00U;
 80033ca:	2300      	movs	r3, #0
 80033cc:	613b      	str	r3, [r7, #16]
  uint32_t temp = 0x00U;
 80033ce:	2300      	movs	r3, #0
 80033d0:	61bb      	str	r3, [r7, #24]
  assert_param(IS_GPIO_ALL_INSTANCE(GPIOx));
  assert_param(IS_GPIO_PIN(GPIO_Init->Pin));
  assert_param(IS_GPIO_MODE(GPIO_Init->Mode));

  /* Configure the port pins */
  for(position = 0U; position < GPIO_NUMBER; position++)
 80033d2:	2300      	movs	r3, #0
 80033d4:	61fb      	str	r3, [r7, #28]
 80033d6:	e16b      	b.n	80036b0 <HAL_GPIO_Init+0x2f4>
  {
    /* Get the IO position */
    ioposition = 0x01U << position;
 80033d8:	2201      	movs	r2, #1
 80033da:	69fb      	ldr	r3, [r7, #28]
 80033dc:	fa02 f303 	lsl.w	r3, r2, r3
 80033e0:	617b      	str	r3, [r7, #20]
    /* Get the current IO position */
    iocurrent = (uint32_t)(GPIO_Init->Pin) & ioposition;
 80033e2:	683b      	ldr	r3, [r7, #0]
 80033e4:	681b      	ldr	r3, [r3, #0]
 80033e6:	697a      	ldr	r2, [r7, #20]
 80033e8:	4013      	ands	r3, r2
 80033ea:	613b      	str	r3, [r7, #16]

    if(iocurrent == ioposition)
 80033ec:	693a      	ldr	r2, [r7, #16]
 80033ee:	697b      	ldr	r3, [r7, #20]
 80033f0:	429a      	cmp	r2, r3
 80033f2:	f040 815a 	bne.w	80036aa <HAL_GPIO_Init+0x2ee>
    {
      /*--------------------- GPIO Mode Configuration ------------------------*/
      /* In case of Output or Alternate function mode selection */
      if(((GPIO_Init->Mode & GPIO_MODE) == MODE_OUTPUT) || \
 80033f6:	683b      	ldr	r3, [r7, #0]
 80033f8:	685b      	ldr	r3, [r3, #4]
 80033fa:	f003 0303 	and.w	r3, r3, #3
 80033fe:	2b01      	cmp	r3, #1
 8003400:	d005      	beq.n	800340e <HAL_GPIO_Init+0x52>
          (GPIO_Init->Mode & GPIO_MODE) == MODE_AF)
 8003402:	683b      	ldr	r3, [r7, #0]
 8003404:	685b      	ldr	r3, [r3, #4]
 8003406:	f003 0303 	and.w	r3, r3, #3
      if(((GPIO_Init->Mode & GPIO_MODE) == MODE_OUTPUT) || \
 800340a:	2b02      	cmp	r3, #2
 800340c:	d130      	bne.n	8003470 <HAL_GPIO_Init+0xb4>
      {
        /* Check the Speed parameter */
        assert_param(IS_GPIO_SPEED(GPIO_Init->Speed));
        /* Configure the IO Speed */
        temp = GPIOx->OSPEEDR; 
 800340e:	687b      	ldr	r3, [r7, #4]
 8003410:	689b      	ldr	r3, [r3, #8]
 8003412:	61bb      	str	r3, [r7, #24]
        temp &= ~(GPIO_OSPEEDER_OSPEEDR0 << (position * 2U));
 8003414:	69fb      	ldr	r3, [r7, #28]
 8003416:	005b      	lsls	r3, r3, #1
 8003418:	2203      	movs	r2, #3
 800341a:	fa02 f303 	lsl.w	r3, r2, r3
 800341e:	43db      	mvns	r3, r3
 8003420:	69ba      	ldr	r2, [r7, #24]
 8003422:	4013      	ands	r3, r2
 8003424:	61bb      	str	r3, [r7, #24]
        temp |= (GPIO_Init->Speed << (position * 2U));
 8003426:	683b      	ldr	r3, [r7, #0]
 8003428:	68da      	ldr	r2, [r3, #12]
 800342a:	69fb      	ldr	r3, [r7, #28]
 800342c:	005b      	lsls	r3, r3, #1
 800342e:	fa02 f303 	lsl.w	r3, r2, r3
 8003432:	69ba      	ldr	r2, [r7, #24]
 8003434:	4313      	orrs	r3, r2
 8003436:	61bb      	str	r3, [r7, #24]
        GPIOx->OSPEEDR = temp;
 8003438:	687b      	ldr	r3, [r7, #4]
 800343a:	69ba      	ldr	r2, [r7, #24]
 800343c:	609a      	str	r2, [r3, #8]

        /* Configure the IO Output Type */
        temp = GPIOx->OTYPER;
 800343e:	687b      	ldr	r3, [r7, #4]
 8003440:	685b      	ldr	r3, [r3, #4]
 8003442:	61bb      	str	r3, [r7, #24]
        temp &= ~(GPIO_OTYPER_OT_0 << position) ;
 8003444:	2201      	movs	r2, #1
 8003446:	69fb      	ldr	r3, [r7, #28]
 8003448:	fa02 f303 	lsl.w	r3, r2, r3
 800344c:	43db      	mvns	r3, r3
 800344e:	69ba      	ldr	r2, [r7, #24]
 8003450:	4013      	ands	r3, r2
 8003452:	61bb      	str	r3, [r7, #24]
        temp |= (((GPIO_Init->Mode & OUTPUT_TYPE) >> OUTPUT_TYPE_Pos) << position);
 8003454:	683b      	ldr	r3, [r7, #0]
 8003456:	685b      	ldr	r3, [r3, #4]
 8003458:	091b      	lsrs	r3, r3, #4
 800345a:	f003 0201 	and.w	r2, r3, #1
 800345e:	69fb      	ldr	r3, [r7, #28]
 8003460:	fa02 f303 	lsl.w	r3, r2, r3
 8003464:	69ba      	ldr	r2, [r7, #24]
 8003466:	4313      	orrs	r3, r2
 8003468:	61bb      	str	r3, [r7, #24]
        GPIOx->OTYPER = temp;
 800346a:	687b      	ldr	r3, [r7, #4]
 800346c:	69ba      	ldr	r2, [r7, #24]
 800346e:	605a      	str	r2, [r3, #4]
       }

      if((GPIO_Init->Mode & GPIO_MODE) != MODE_ANALOG)
 8003470:	683b      	ldr	r3, [r7, #0]
 8003472:	685b      	ldr	r3, [r3, #4]
 8003474:	f003 0303 	and.w	r3, r3, #3
 8003478:	2b03      	cmp	r3, #3
 800347a:	d017      	beq.n	80034ac <HAL_GPIO_Init+0xf0>
      {
        /* Check the parameters */
        assert_param(IS_GPIO_PULL(GPIO_Init->Pull));
        
        /* Activate the Pull-up or Pull down resistor for the current IO */
        temp = GPIOx->PUPDR;
 800347c:	687b      	ldr	r3, [r7, #4]
 800347e:	68db      	ldr	r3, [r3, #12]
 8003480:	61bb      	str	r3, [r7, #24]
        temp &= ~(GPIO_PUPDR_PUPDR0 << (position * 2U));
 8003482:	69fb      	ldr	r3, [r7, #28]
 8003484:	005b      	lsls	r3, r3, #1
 8003486:	2203      	movs	r2, #3
 8003488:	fa02 f303 	lsl.w	r3, r2, r3
 800348c:	43db      	mvns	r3, r3
 800348e:	69ba      	ldr	r2, [r7, #24]
 8003490:	4013      	ands	r3, r2
 8003492:	61bb      	str	r3, [r7, #24]
        temp |= ((GPIO_Init->Pull) << (position * 2U));
 8003494:	683b      	ldr	r3, [r7, #0]
 8003496:	689a      	ldr	r2, [r3, #8]
 8003498:	69fb      	ldr	r3, [r7, #28]
 800349a:	005b      	lsls	r3, r3, #1
 800349c:	fa02 f303 	lsl.w	r3, r2, r3
 80034a0:	69ba      	ldr	r2, [r7, #24]
 80034a2:	4313      	orrs	r3, r2
 80034a4:	61bb      	str	r3, [r7, #24]
        GPIOx->PUPDR = temp;
 80034a6:	687b      	ldr	r3, [r7, #4]
 80034a8:	69ba      	ldr	r2, [r7, #24]
 80034aa:	60da      	str	r2, [r3, #12]
      }

      /* In case of Alternate function mode selection */
      if((GPIO_Init->Mode & GPIO_MODE) == MODE_AF)
 80034ac:	683b      	ldr	r3, [r7, #0]
 80034ae:	685b      	ldr	r3, [r3, #4]
 80034b0:	f003 0303 	and.w	r3, r3, #3
 80034b4:	2b02      	cmp	r3, #2
 80034b6:	d123      	bne.n	8003500 <HAL_GPIO_Init+0x144>
      {
        /* Check the Alternate function parameter */
        assert_param(IS_GPIO_AF(GPIO_Init->Alternate));
        /* Configure Alternate function mapped with the current IO */
        temp = GPIOx->AFR[position >> 3U];
 80034b8:	69fb      	ldr	r3, [r7, #28]
 80034ba:	08da      	lsrs	r2, r3, #3
 80034bc:	687b      	ldr	r3, [r7, #4]
 80034be:	3208      	adds	r2, #8
 80034c0:	f853 3022 	ldr.w	r3, [r3, r2, lsl #2]
 80034c4:	61bb      	str	r3, [r7, #24]
        temp &= ~(0xFU << ((uint32_t)(position & 0x07U) * 4U)) ;
 80034c6:	69fb      	ldr	r3, [r7, #28]
 80034c8:	f003 0307 	and.w	r3, r3, #7
 80034cc:	009b      	lsls	r3, r3, #2
 80034ce:	220f      	movs	r2, #15
 80034d0:	fa02 f303 	lsl.w	r3, r2, r3
 80034d4:	43db      	mvns	r3, r3
 80034d6:	69ba      	ldr	r2, [r7, #24]
 80034d8:	4013      	ands	r3, r2
 80034da:	61bb      	str	r3, [r7, #24]
        temp |= ((uint32_t)(GPIO_Init->Alternate) << (((uint32_t)position & 0x07U) * 4U));
 80034dc:	683b      	ldr	r3, [r7, #0]
 80034de:	691a      	ldr	r2, [r3, #16]
 80034e0:	69fb      	ldr	r3, [r7, #28]
 80034e2:	f003 0307 	and.w	r3, r3, #7
 80034e6:	009b      	lsls	r3, r3, #2
 80034e8:	fa02 f303 	lsl.w	r3, r2, r3
 80034ec:	69ba      	ldr	r2, [r7, #24]
 80034ee:	4313      	orrs	r3, r2
 80034f0:	61bb      	str	r3, [r7, #24]
        GPIOx->AFR[position >> 3U] = temp;
 80034f2:	69fb      	ldr	r3, [r7, #28]
 80034f4:	08da      	lsrs	r2, r3, #3
 80034f6:	687b      	ldr	r3, [r7, #4]
 80034f8:	3208      	adds	r2, #8
 80034fa:	69b9      	ldr	r1, [r7, #24]
 80034fc:	f843 1022 	str.w	r1, [r3, r2, lsl #2]
      }

      /* Configure IO Direction mode (Input, Output, Alternate or Analog) */
      temp = GPIOx->MODER;
 8003500:	687b      	ldr	r3, [r7, #4]
 8003502:	681b      	ldr	r3, [r3, #0]
 8003504:	61bb      	str	r3, [r7, #24]
      temp &= ~(GPIO_MODER_MODER0 << (position * 2U));
 8003506:	69fb      	ldr	r3, [r7, #28]
 8003508:	005b      	lsls	r3, r3, #1
 800350a:	2203      	movs	r2, #3
 800350c:	fa02 f303 	lsl.w	r3, r2, r3
 8003510:	43db      	mvns	r3, r3
 8003512:	69ba      	ldr	r2, [r7, #24]
 8003514:	4013      	ands	r3, r2
 8003516:	61bb      	str	r3, [r7, #24]
      temp |= ((GPIO_Init->Mode & GPIO_MODE) << (position * 2U));
 8003518:	683b      	ldr	r3, [r7, #0]
 800351a:	685b      	ldr	r3, [r3, #4]
 800351c:	f003 0203 	and.w	r2, r3, #3
 8003520:	69fb      	ldr	r3, [r7, #28]
 8003522:	005b      	lsls	r3, r3, #1
 8003524:	fa02 f303 	lsl.w	r3, r2, r3
 8003528:	69ba      	ldr	r2, [r7, #24]
 800352a:	4313      	orrs	r3, r2
 800352c:	61bb      	str	r3, [r7, #24]
      GPIOx->MODER = temp;
 800352e:	687b      	ldr	r3, [r7, #4]
 8003530:	69ba      	ldr	r2, [r7, #24]
 8003532:	601a      	str	r2, [r3, #0]

      /*--------------------- EXTI Mode Configuration ------------------------*/
      /* Configure the External Interrupt or event for the current IO */
      if((GPIO_Init->Mode & EXTI_MODE) != 0x00U)
 8003534:	683b      	ldr	r3, [r7, #0]
 8003536:	685b      	ldr	r3, [r3, #4]
 8003538:	f403 3340 	and.w	r3, r3, #196608	@ 0x30000
 800353c:	2b00      	cmp	r3, #0
 800353e:	f000 80b4 	beq.w	80036aa <HAL_GPIO_Init+0x2ee>
      {
        /* Enable SYSCFG Clock */
        __HAL_RCC_SYSCFG_CLK_ENABLE();
 8003542:	2300      	movs	r3, #0
 8003544:	60fb      	str	r3, [r7, #12]
 8003546:	4b60      	ldr	r3, [pc, #384]	@ (80036c8 <HAL_GPIO_Init+0x30c>)
 8003548:	6c5b      	ldr	r3, [r3, #68]	@ 0x44
 800354a:	4a5f      	ldr	r2, [pc, #380]	@ (80036c8 <HAL_GPIO_Init+0x30c>)
 800354c:	f443 4380 	orr.w	r3, r3, #16384	@ 0x4000
 8003550:	6453      	str	r3, [r2, #68]	@ 0x44
 8003552:	4b5d      	ldr	r3, [pc, #372]	@ (80036c8 <HAL_GPIO_Init+0x30c>)
 8003554:	6c5b      	ldr	r3, [r3, #68]	@ 0x44
 8003556:	f403 4380 	and.w	r3, r3, #16384	@ 0x4000
 800355a:	60fb      	str	r3, [r7, #12]
 800355c:	68fb      	ldr	r3, [r7, #12]

        temp = SYSCFG->EXTICR[position >> 2U];
 800355e:	4a5b      	ldr	r2, [pc, #364]	@ (80036cc <HAL_GPIO_Init+0x310>)
 8003560:	69fb      	ldr	r3, [r7, #28]
 8003562:	089b      	lsrs	r3, r3, #2
 8003564:	3302      	adds	r3, #2
 8003566:	f852 3023 	ldr.w	r3, [r2, r3, lsl #2]
 800356a:	61bb      	str	r3, [r7, #24]
        temp &= ~(0x0FU << (4U * (position & 0x03U)));
 800356c:	69fb      	ldr	r3, [r7, #28]
 800356e:	f003 0303 	and.w	r3, r3, #3
 8003572:	009b      	lsls	r3, r3, #2
 8003574:	220f      	movs	r2, #15
 8003576:	fa02 f303 	lsl.w	r3, r2, r3
 800357a:	43db      	mvns	r3, r3
 800357c:	69ba      	ldr	r2, [r7, #24]
 800357e:	4013      	ands	r3, r2
 8003580:	61bb      	str	r3, [r7, #24]
        temp |= ((uint32_t)(GPIO_GET_INDEX(GPIOx)) << (4U * (position & 0x03U)));
 8003582:	687b      	ldr	r3, [r7, #4]
 8003584:	4a52      	ldr	r2, [pc, #328]	@ (80036d0 <HAL_GPIO_Init+0x314>)
 8003586:	4293      	cmp	r3, r2
 8003588:	d02b      	beq.n	80035e2 <HAL_GPIO_Init+0x226>
 800358a:	687b      	ldr	r3, [r7, #4]
 800358c:	4a51      	ldr	r2, [pc, #324]	@ (80036d4 <HAL_GPIO_Init+0x318>)
 800358e:	4293      	cmp	r3, r2
 8003590:	d025      	beq.n	80035de <HAL_GPIO_Init+0x222>
 8003592:	687b      	ldr	r3, [r7, #4]
 8003594:	4a50      	ldr	r2, [pc, #320]	@ (80036d8 <HAL_GPIO_Init+0x31c>)
 8003596:	4293      	cmp	r3, r2
 8003598:	d01f      	beq.n	80035da <HAL_GPIO_Init+0x21e>
 800359a:	687b      	ldr	r3, [r7, #4]
 800359c:	4a4f      	ldr	r2, [pc, #316]	@ (80036dc <HAL_GPIO_Init+0x320>)
 800359e:	4293      	cmp	r3, r2
 80035a0:	d019      	beq.n	80035d6 <HAL_GPIO_Init+0x21a>
 80035a2:	687b      	ldr	r3, [r7, #4]
 80035a4:	4a4e      	ldr	r2, [pc, #312]	@ (80036e0 <HAL_GPIO_Init+0x324>)
 80035a6:	4293      	cmp	r3, r2
 80035a8:	d013      	beq.n	80035d2 <HAL_GPIO_Init+0x216>
 80035aa:	687b      	ldr	r3, [r7, #4]
 80035ac:	4a4d      	ldr	r2, [pc, #308]	@ (80036e4 <HAL_GPIO_Init+0x328>)
 80035ae:	4293      	cmp	r3, r2
 80035b0:	d00d      	beq.n	80035ce <HAL_GPIO_Init+0x212>
 80035b2:	687b      	ldr	r3, [r7, #4]
 80035b4:	4a4c      	ldr	r2, [pc, #304]	@ (80036e8 <HAL_GPIO_Init+0x32c>)
 80035b6:	4293      	cmp	r3, r2
 80035b8:	d007      	beq.n	80035ca <HAL_GPIO_Init+0x20e>
 80035ba:	687b      	ldr	r3, [r7, #4]
 80035bc:	4a4b      	ldr	r2, [pc, #300]	@ (80036ec <HAL_GPIO_Init+0x330>)
 80035be:	4293      	cmp	r3, r2
 80035c0:	d101      	bne.n	80035c6 <HAL_GPIO_Init+0x20a>
 80035c2:	2307      	movs	r3, #7
 80035c4:	e00e      	b.n	80035e4 <HAL_GPIO_Init+0x228>
 80035c6:	2308      	movs	r3, #8
 80035c8:	e00c      	b.n	80035e4 <HAL_GPIO_Init+0x228>
 80035ca:	2306      	movs	r3, #6
 80035cc:	e00a      	b.n	80035e4 <HAL_GPIO_Init+0x228>
 80035ce:	2305      	movs	r3, #5
 80035d0:	e008      	b.n	80035e4 <HAL_GPIO_Init+0x228>
 80035d2:	2304      	movs	r3, #4
 80035d4:	e006      	b.n	80035e4 <HAL_GPIO_Init+0x228>
 80035d6:	2303      	movs	r3, #3
 80035d8:	e004      	b.n	80035e4 <HAL_GPIO_Init+0x228>
 80035da:	2302      	movs	r3, #2
 80035dc:	e002      	b.n	80035e4 <HAL_GPIO_Init+0x228>
 80035de:	2301      	movs	r3, #1
 80035e0:	e000      	b.n	80035e4 <HAL_GPIO_Init+0x228>
 80035e2:	2300      	movs	r3, #0
 80035e4:	69fa      	ldr	r2, [r7, #28]
 80035e6:	f002 0203 	and.w	r2, r2, #3
 80035ea:	0092      	lsls	r2, r2, #2
 80035ec:	4093      	lsls	r3, r2
 80035ee:	69ba      	ldr	r2, [r7, #24]
 80035f0:	4313      	orrs	r3, r2
 80035f2:	61bb      	str	r3, [r7, #24]
        SYSCFG->EXTICR[position >> 2U] = temp;
 80035f4:	4935      	ldr	r1, [pc, #212]	@ (80036cc <HAL_GPIO_Init+0x310>)
 80035f6:	69fb      	ldr	r3, [r7, #28]
 80035f8:	089b      	lsrs	r3, r3, #2
 80035fa:	3302      	adds	r3, #2
 80035fc:	69ba      	ldr	r2, [r7, #24]
 80035fe:	f841 2023 	str.w	r2, [r1, r3, lsl #2]

        /* Clear Rising Falling edge configuration */
        temp = EXTI->RTSR;
 8003602:	4b3b      	ldr	r3, [pc, #236]	@ (80036f0 <HAL_GPIO_Init+0x334>)
 8003604:	689b      	ldr	r3, [r3, #8]
 8003606:	61bb      	str	r3, [r7, #24]
        temp &= ~((uint32_t)iocurrent);
 8003608:	693b      	ldr	r3, [r7, #16]
 800360a:	43db      	mvns	r3, r3
 800360c:	69ba      	ldr	r2, [r7, #24]
 800360e:	4013      	ands	r3, r2
 8003610:	61bb      	str	r3, [r7, #24]
        if((GPIO_Init->Mode & TRIGGER_RISING) != 0x00U)
 8003612:	683b      	ldr	r3, [r7, #0]
 8003614:	685b      	ldr	r3, [r3, #4]
 8003616:	f403 1380 	and.w	r3, r3, #1048576	@ 0x100000
 800361a:	2b00      	cmp	r3, #0
 800361c:	d003      	beq.n	8003626 <HAL_GPIO_Init+0x26a>
        {
          temp |= iocurrent;
 800361e:	69ba      	ldr	r2, [r7, #24]
 8003620:	693b      	ldr	r3, [r7, #16]
 8003622:	4313      	orrs	r3, r2
 8003624:	61bb      	str	r3, [r7, #24]
        }
        EXTI->RTSR = temp;
 8003626:	4a32      	ldr	r2, [pc, #200]	@ (80036f0 <HAL_GPIO_Init+0x334>)
 8003628:	69bb      	ldr	r3, [r7, #24]
 800362a:	6093      	str	r3, [r2, #8]

        temp = EXTI->FTSR;
 800362c:	4b30      	ldr	r3, [pc, #192]	@ (80036f0 <HAL_GPIO_Init+0x334>)
 800362e:	68db      	ldr	r3, [r3, #12]
 8003630:	61bb      	str	r3, [r7, #24]
        temp &= ~((uint32_t)iocurrent);
 8003632:	693b      	ldr	r3, [r7, #16]
 8003634:	43db      	mvns	r3, r3
 8003636:	69ba      	ldr	r2, [r7, #24]
 8003638:	4013      	ands	r3, r2
 800363a:	61bb      	str	r3, [r7, #24]
        if((GPIO_Init->Mode & TRIGGER_FALLING) != 0x00U)
 800363c:	683b      	ldr	r3, [r7, #0]
 800363e:	685b      	ldr	r3, [r3, #4]
 8003640:	f403 1300 	and.w	r3, r3, #2097152	@ 0x200000
 8003644:	2b00      	cmp	r3, #0
 8003646:	d003      	beq.n	8003650 <HAL_GPIO_Init+0x294>
        {
          temp |= iocurrent;
 8003648:	69ba      	ldr	r2, [r7, #24]
 800364a:	693b      	ldr	r3, [r7, #16]
 800364c:	4313      	orrs	r3, r2
 800364e:	61bb      	str	r3, [r7, #24]
        }
        EXTI->FTSR = temp;
 8003650:	4a27      	ldr	r2, [pc, #156]	@ (80036f0 <HAL_GPIO_Init+0x334>)
 8003652:	69bb      	ldr	r3, [r7, #24]
 8003654:	60d3      	str	r3, [r2, #12]

        temp = EXTI->EMR;
 8003656:	4b26      	ldr	r3, [pc, #152]	@ (80036f0 <HAL_GPIO_Init+0x334>)
 8003658:	685b      	ldr	r3, [r3, #4]
 800365a:	61bb      	str	r3, [r7, #24]
        temp &= ~((uint32_t)iocurrent);
 800365c:	693b      	ldr	r3, [r7, #16]
 800365e:	43db      	mvns	r3, r3
 8003660:	69ba      	ldr	r2, [r7, #24]
 8003662:	4013      	ands	r3, r2
 8003664:	61bb      	str	r3, [r7, #24]
        if((GPIO_Init->Mode & EXTI_EVT) != 0x00U)
 8003666:	683b      	ldr	r3, [r7, #0]
 8003668:	685b      	ldr	r3, [r3, #4]
 800366a:	f403 3300 	and.w	r3, r3, #131072	@ 0x20000
 800366e:	2b00      	cmp	r3, #0
 8003670:	d003      	beq.n	800367a <HAL_GPIO_Init+0x2be>
        {
          temp |= iocurrent;
 8003672:	69ba      	ldr	r2, [r7, #24]
 8003674:	693b      	ldr	r3, [r7, #16]
 8003676:	4313      	orrs	r3, r2
 8003678:	61bb      	str	r3, [r7, #24]
        }
        EXTI->EMR = temp;
 800367a:	4a1d      	ldr	r2, [pc, #116]	@ (80036f0 <HAL_GPIO_Init+0x334>)
 800367c:	69bb      	ldr	r3, [r7, #24]
 800367e:	6053      	str	r3, [r2, #4]

        /* Clear EXTI line configuration */
        temp = EXTI->IMR;
 8003680:	4b1b      	ldr	r3, [pc, #108]	@ (80036f0 <HAL_GPIO_Init+0x334>)
 8003682:	681b      	ldr	r3, [r3, #0]
 8003684:	61bb      	str	r3, [r7, #24]
        temp &= ~((uint32_t)iocurrent);
 8003686:	693b      	ldr	r3, [r7, #16]
 8003688:	43db      	mvns	r3, r3
 800368a:	69ba      	ldr	r2, [r7, #24]
 800368c:	4013      	ands	r3, r2
 800368e:	61bb      	str	r3, [r7, #24]
        if((GPIO_Init->Mode & EXTI_IT) != 0x00U)
 8003690:	683b      	ldr	r3, [r7, #0]
 8003692:	685b      	ldr	r3, [r3, #4]
 8003694:	f403 3380 	and.w	r3, r3, #65536	@ 0x10000
 8003698:	2b00      	cmp	r3, #0
 800369a:	d003      	beq.n	80036a4 <HAL_GPIO_Init+0x2e8>
        {
          temp |= iocurrent;
 800369c:	69ba      	ldr	r2, [r7, #24]
 800369e:	693b      	ldr	r3, [r7, #16]
 80036a0:	4313      	orrs	r3, r2
 80036a2:	61bb      	str	r3, [r7, #24]
        }
        EXTI->IMR = temp;
 80036a4:	4a12      	ldr	r2, [pc, #72]	@ (80036f0 <HAL_GPIO_Init+0x334>)
 80036a6:	69bb      	ldr	r3, [r7, #24]
 80036a8:	6013      	str	r3, [r2, #0]
  for(position = 0U; position < GPIO_NUMBER; position++)
 80036aa:	69fb      	ldr	r3, [r7, #28]
 80036ac:	3301      	adds	r3, #1
 80036ae:	61fb      	str	r3, [r7, #28]
 80036b0:	69fb      	ldr	r3, [r7, #28]
 80036b2:	2b0f      	cmp	r3, #15
 80036b4:	f67f ae90 	bls.w	80033d8 <HAL_GPIO_Init+0x1c>
      }
    }
  }
}
 80036b8:	bf00      	nop
 80036ba:	bf00      	nop
 80036bc:	3724      	adds	r7, #36	@ 0x24
 80036be:	46bd      	mov	sp, r7
 80036c0:	f85d 7b04 	ldr.w	r7, [sp], #4
 80036c4:	4770      	bx	lr
 80036c6:	bf00      	nop
 80036c8:	40023800 	.word	0x40023800
 80036cc:	40013800 	.word	0x40013800
 80036d0:	40020000 	.word	0x40020000
 80036d4:	40020400 	.word	0x40020400
 80036d8:	40020800 	.word	0x40020800
 80036dc:	40020c00 	.word	0x40020c00
 80036e0:	40021000 	.word	0x40021000
 80036e4:	40021400 	.word	0x40021400
 80036e8:	40021800 	.word	0x40021800
 80036ec:	40021c00 	.word	0x40021c00
 80036f0:	40013c00 	.word	0x40013c00

080036f4 <HAL_GPIO_WritePin>:
  *            @arg GPIO_PIN_RESET: to clear the port pin
  *            @arg GPIO_PIN_SET: to set the port pin
  * @retval None
  */
void HAL_GPIO_WritePin(GPIO_TypeDef* GPIOx, uint16_t GPIO_Pin, GPIO_PinState PinState)
{
 80036f4:	b480      	push	{r7}
 80036f6:	b083      	sub	sp, #12
 80036f8:	af00      	add	r7, sp, #0
 80036fa:	6078      	str	r0, [r7, #4]
 80036fc:	460b      	mov	r3, r1
 80036fe:	807b      	strh	r3, [r7, #2]
 8003700:	4613      	mov	r3, r2
 8003702:	707b      	strb	r3, [r7, #1]
  /* Check the parameters */
  assert_param(IS_GPIO_PIN(GPIO_Pin));
  assert_param(IS_GPIO_PIN_ACTION(PinState));

  if(PinState != GPIO_PIN_RESET)
 8003704:	787b      	ldrb	r3, [r7, #1]
 8003706:	2b00      	cmp	r3, #0
 8003708:	d003      	beq.n	8003712 <HAL_GPIO_WritePin+0x1e>
  {
    GPIOx->BSRR = GPIO_Pin;
 800370a:	887a      	ldrh	r2, [r7, #2]
 800370c:	687b      	ldr	r3, [r7, #4]
 800370e:	619a      	str	r2, [r3, #24]
  }
  else
  {
    GPIOx->BSRR = (uint32_t)GPIO_Pin << 16U;
  }
}
 8003710:	e003      	b.n	800371a <HAL_GPIO_WritePin+0x26>
    GPIOx->BSRR = (uint32_t)GPIO_Pin << 16U;
 8003712:	887b      	ldrh	r3, [r7, #2]
 8003714:	041a      	lsls	r2, r3, #16
 8003716:	687b      	ldr	r3, [r7, #4]
 8003718:	619a      	str	r2, [r3, #24]
}
 800371a:	bf00      	nop
 800371c:	370c      	adds	r7, #12
 800371e:	46bd      	mov	sp, r7
 8003720:	f85d 7b04 	ldr.w	r7, [sp], #4
 8003724:	4770      	bx	lr
	...

08003728 <HAL_GPIO_EXTI_IRQHandler>:
  * @brief  This function handles EXTI interrupt request.
  * @param  GPIO_Pin Specifies the pins connected EXTI line
  * @retval None
  */
void HAL_GPIO_EXTI_IRQHandler(uint16_t GPIO_Pin)
{
 8003728:	b580      	push	{r7, lr}
 800372a:	b082      	sub	sp, #8
 800372c:	af00      	add	r7, sp, #0
 800372e:	4603      	mov	r3, r0
 8003730:	80fb      	strh	r3, [r7, #6]
  /* EXTI line interrupt detected */
  if(__HAL_GPIO_EXTI_GET_IT(GPIO_Pin) != RESET)
 8003732:	4b08      	ldr	r3, [pc, #32]	@ (8003754 <HAL_GPIO_EXTI_IRQHandler+0x2c>)
 8003734:	695a      	ldr	r2, [r3, #20]
 8003736:	88fb      	ldrh	r3, [r7, #6]
 8003738:	4013      	ands	r3, r2
 800373a:	2b00      	cmp	r3, #0
 800373c:	d006      	beq.n	800374c <HAL_GPIO_EXTI_IRQHandler+0x24>
  {
    __HAL_GPIO_EXTI_CLEAR_IT(GPIO_Pin);
 800373e:	4a05      	ldr	r2, [pc, #20]	@ (8003754 <HAL_GPIO_EXTI_IRQHandler+0x2c>)
 8003740:	88fb      	ldrh	r3, [r7, #6]
 8003742:	6153      	str	r3, [r2, #20]
    HAL_GPIO_EXTI_Callback(GPIO_Pin);
 8003744:	88fb      	ldrh	r3, [r7, #6]
 8003746:	4618      	mov	r0, r3
 8003748:	f000 f806 	bl	8003758 <HAL_GPIO_EXTI_Callback>
  }
}
 800374c:	bf00      	nop
 800374e:	3708      	adds	r7, #8
 8003750:	46bd      	mov	sp, r7
 8003752:	bd80      	pop	{r7, pc}
 8003754:	40013c00 	.word	0x40013c00

08003758 <HAL_GPIO_EXTI_Callback>:
  * @brief  EXTI line detection callbacks.
  * @param  GPIO_Pin Specifies the pins connected EXTI line
  * @retval None
  */
__weak void HAL_GPIO_EXTI_Callback(uint16_t GPIO_Pin)
{
 8003758:	b480      	push	{r7}
 800375a:	b083      	sub	sp, #12
 800375c:	af00      	add	r7, sp, #0
 800375e:	4603      	mov	r3, r0
 8003760:	80fb      	strh	r3, [r7, #6]
  /* Prevent unused argument(s) compilation warning */
  UNUSED(GPIO_Pin);
  /* NOTE: This function Should not be modified, when the callback is needed,
           the HAL_GPIO_EXTI_Callback could be implemented in the user file
   */
}
 8003762:	bf00      	nop
 8003764:	370c      	adds	r7, #12
 8003766:	46bd      	mov	sp, r7
 8003768:	f85d 7b04 	ldr.w	r7, [sp], #4
 800376c:	4770      	bx	lr
	...

08003770 <HAL_I2C_Init>:
  * @param  hi2c Pointer to a I2C_HandleTypeDef structure that contains
  *                the configuration information for the specified I2C.
  * @retval HAL status
  */
HAL_StatusTypeDef HAL_I2C_Init(I2C_HandleTypeDef *hi2c)
{
 8003770:	b580      	push	{r7, lr}
 8003772:	b084      	sub	sp, #16
 8003774:	af00      	add	r7, sp, #0
 8003776:	6078      	str	r0, [r7, #4]
  uint32_t freqrange;
  uint32_t pclk1;

  /* Check the I2C handle allocation */
  if (hi2c == NULL)
 8003778:	687b      	ldr	r3, [r7, #4]
 800377a:	2b00      	cmp	r3, #0
 800377c:	d101      	bne.n	8003782 <HAL_I2C_Init+0x12>
  {
    return HAL_ERROR;
 800377e:	2301      	movs	r3, #1
 8003780:	e12b      	b.n	80039da <HAL_I2C_Init+0x26a>
  assert_param(IS_I2C_DUAL_ADDRESS(hi2c->Init.DualAddressMode));
  assert_param(IS_I2C_OWN_ADDRESS2(hi2c->Init.OwnAddress2));
  assert_param(IS_I2C_GENERAL_CALL(hi2c->Init.GeneralCallMode));
  assert_param(IS_I2C_NO_STRETCH(hi2c->Init.NoStretchMode));

  if (hi2c->State == HAL_I2C_STATE_RESET)
 8003782:	687b      	ldr	r3, [r7, #4]
 8003784:	f893 303d 	ldrb.w	r3, [r3, #61]	@ 0x3d
 8003788:	b2db      	uxtb	r3, r3
 800378a:	2b00      	cmp	r3, #0
 800378c:	d106      	bne.n	800379c <HAL_I2C_Init+0x2c>
  {
    /* Allocate lock resource and initialize it */
    hi2c->Lock = HAL_UNLOCKED;
 800378e:	687b      	ldr	r3, [r7, #4]
 8003790:	2200      	movs	r2, #0
 8003792:	f883 203c 	strb.w	r2, [r3, #60]	@ 0x3c

    /* Init the low level hardware : GPIO, CLOCK, NVIC */
    hi2c->MspInitCallback(hi2c);
#else
    /* Init the low level hardware : GPIO, CLOCK, NVIC */
    HAL_I2C_MspInit(hi2c);
 8003796:	6878      	ldr	r0, [r7, #4]
 8003798:	f7fe fd7c 	bl	8002294 <HAL_I2C_MspInit>
#endif /* USE_HAL_I2C_REGISTER_CALLBACKS */
  }

  hi2c->State = HAL_I2C_STATE_BUSY;
 800379c:	687b      	ldr	r3, [r7, #4]
 800379e:	2224      	movs	r2, #36	@ 0x24
 80037a0:	f883 203d 	strb.w	r2, [r3, #61]	@ 0x3d

  /* Disable the selected I2C peripheral */
  __HAL_I2C_DISABLE(hi2c);
 80037a4:	687b      	ldr	r3, [r7, #4]
 80037a6:	681b      	ldr	r3, [r3, #0]
 80037a8:	681a      	ldr	r2, [r3, #0]
 80037aa:	687b      	ldr	r3, [r7, #4]
 80037ac:	681b      	ldr	r3, [r3, #0]
 80037ae:	f022 0201 	bic.w	r2, r2, #1
 80037b2:	601a      	str	r2, [r3, #0]

  /*Reset I2C*/
  hi2c->Instance->CR1 |= I2C_CR1_SWRST;
 80037b4:	687b      	ldr	r3, [r7, #4]
 80037b6:	681b      	ldr	r3, [r3, #0]
 80037b8:	681a      	ldr	r2, [r3, #0]
 80037ba:	687b      	ldr	r3, [r7, #4]
 80037bc:	681b      	ldr	r3, [r3, #0]
 80037be:	f442 4200 	orr.w	r2, r2, #32768	@ 0x8000
 80037c2:	601a      	str	r2, [r3, #0]
  hi2c->Instance->CR1 &= ~I2C_CR1_SWRST;
 80037c4:	687b      	ldr	r3, [r7, #4]
 80037c6:	681b      	ldr	r3, [r3, #0]
 80037c8:	681a      	ldr	r2, [r3, #0]
 80037ca:	687b      	ldr	r3, [r7, #4]
 80037cc:	681b      	ldr	r3, [r3, #0]
 80037ce:	f422 4200 	bic.w	r2, r2, #32768	@ 0x8000
 80037d2:	601a      	str	r2, [r3, #0]

  /* Get PCLK1 frequency */
  pclk1 = HAL_RCC_GetPCLK1Freq();
 80037d4:	f001 fbf6 	bl	8004fc4 <HAL_RCC_GetPCLK1Freq>
 80037d8:	60f8      	str	r0, [r7, #12]

  /* Check the minimum allowed PCLK1 frequency */
  if (I2C_MIN_PCLK_FREQ(pclk1, hi2c->Init.ClockSpeed) == 1U)
 80037da:	687b      	ldr	r3, [r7, #4]
 80037dc:	685b      	ldr	r3, [r3, #4]
 80037de:	4a81      	ldr	r2, [pc, #516]	@ (80039e4 <HAL_I2C_Init+0x274>)
 80037e0:	4293      	cmp	r3, r2
 80037e2:	d807      	bhi.n	80037f4 <HAL_I2C_Init+0x84>
 80037e4:	68fb      	ldr	r3, [r7, #12]
 80037e6:	4a80      	ldr	r2, [pc, #512]	@ (80039e8 <HAL_I2C_Init+0x278>)
 80037e8:	4293      	cmp	r3, r2
 80037ea:	bf94      	ite	ls
 80037ec:	2301      	movls	r3, #1
 80037ee:	2300      	movhi	r3, #0
 80037f0:	b2db      	uxtb	r3, r3
 80037f2:	e006      	b.n	8003802 <HAL_I2C_Init+0x92>
 80037f4:	68fb      	ldr	r3, [r7, #12]
 80037f6:	4a7d      	ldr	r2, [pc, #500]	@ (80039ec <HAL_I2C_Init+0x27c>)
 80037f8:	4293      	cmp	r3, r2
 80037fa:	bf94      	ite	ls
 80037fc:	2301      	movls	r3, #1
 80037fe:	2300      	movhi	r3, #0
 8003800:	b2db      	uxtb	r3, r3
 8003802:	2b00      	cmp	r3, #0
 8003804:	d001      	beq.n	800380a <HAL_I2C_Init+0x9a>
  {
    return HAL_ERROR;
 8003806:	2301      	movs	r3, #1
 8003808:	e0e7      	b.n	80039da <HAL_I2C_Init+0x26a>
  }

  /* Calculate frequency range */
  freqrange = I2C_FREQRANGE(pclk1);
 800380a:	68fb      	ldr	r3, [r7, #12]
 800380c:	4a78      	ldr	r2, [pc, #480]	@ (80039f0 <HAL_I2C_Init+0x280>)
 800380e:	fba2 2303 	umull	r2, r3, r2, r3
 8003812:	0c9b      	lsrs	r3, r3, #18
 8003814:	60bb      	str	r3, [r7, #8]

  /*---------------------------- I2Cx CR2 Configuration ----------------------*/
  /* Configure I2Cx: Frequency range */
  MODIFY_REG(hi2c->Instance->CR2, I2C_CR2_FREQ, freqrange);
 8003816:	687b      	ldr	r3, [r7, #4]
 8003818:	681b      	ldr	r3, [r3, #0]
 800381a:	685b      	ldr	r3, [r3, #4]
 800381c:	f023 013f 	bic.w	r1, r3, #63	@ 0x3f
 8003820:	687b      	ldr	r3, [r7, #4]
 8003822:	681b      	ldr	r3, [r3, #0]
 8003824:	68ba      	ldr	r2, [r7, #8]
 8003826:	430a      	orrs	r2, r1
 8003828:	605a      	str	r2, [r3, #4]

  /*---------------------------- I2Cx TRISE Configuration --------------------*/
  /* Configure I2Cx: Rise Time */
  MODIFY_REG(hi2c->Instance->TRISE, I2C_TRISE_TRISE, I2C_RISE_TIME(freqrange, hi2c->Init.ClockSpeed));
 800382a:	687b      	ldr	r3, [r7, #4]
 800382c:	681b      	ldr	r3, [r3, #0]
 800382e:	6a1b      	ldr	r3, [r3, #32]
 8003830:	f023 013f 	bic.w	r1, r3, #63	@ 0x3f
 8003834:	687b      	ldr	r3, [r7, #4]
 8003836:	685b      	ldr	r3, [r3, #4]
 8003838:	4a6a      	ldr	r2, [pc, #424]	@ (80039e4 <HAL_I2C_Init+0x274>)
 800383a:	4293      	cmp	r3, r2
 800383c:	d802      	bhi.n	8003844 <HAL_I2C_Init+0xd4>
 800383e:	68bb      	ldr	r3, [r7, #8]
 8003840:	3301      	adds	r3, #1
 8003842:	e009      	b.n	8003858 <HAL_I2C_Init+0xe8>
 8003844:	68bb      	ldr	r3, [r7, #8]
 8003846:	f44f 7296 	mov.w	r2, #300	@ 0x12c
 800384a:	fb02 f303 	mul.w	r3, r2, r3
 800384e:	4a69      	ldr	r2, [pc, #420]	@ (80039f4 <HAL_I2C_Init+0x284>)
 8003850:	fba2 2303 	umull	r2, r3, r2, r3
 8003854:	099b      	lsrs	r3, r3, #6
 8003856:	3301      	adds	r3, #1
 8003858:	687a      	ldr	r2, [r7, #4]
 800385a:	6812      	ldr	r2, [r2, #0]
 800385c:	430b      	orrs	r3, r1
 800385e:	6213      	str	r3, [r2, #32]

  /*---------------------------- I2Cx CCR Configuration ----------------------*/
  /* Configure I2Cx: Speed */
  MODIFY_REG(hi2c->Instance->CCR, (I2C_CCR_FS | I2C_CCR_DUTY | I2C_CCR_CCR), I2C_SPEED(pclk1, hi2c->Init.ClockSpeed, hi2c->Init.DutyCycle));
 8003860:	687b      	ldr	r3, [r7, #4]
 8003862:	681b      	ldr	r3, [r3, #0]
 8003864:	69db      	ldr	r3, [r3, #28]
 8003866:	f423 424f 	bic.w	r2, r3, #52992	@ 0xcf00
 800386a:	f022 02ff 	bic.w	r2, r2, #255	@ 0xff
 800386e:	687b      	ldr	r3, [r7, #4]
 8003870:	685b      	ldr	r3, [r3, #4]
 8003872:	495c      	ldr	r1, [pc, #368]	@ (80039e4 <HAL_I2C_Init+0x274>)
 8003874:	428b      	cmp	r3, r1
 8003876:	d819      	bhi.n	80038ac <HAL_I2C_Init+0x13c>
 8003878:	68fb      	ldr	r3, [r7, #12]
 800387a:	1e59      	subs	r1, r3, #1
 800387c:	687b      	ldr	r3, [r7, #4]
 800387e:	685b      	ldr	r3, [r3, #4]
 8003880:	005b      	lsls	r3, r3, #1
 8003882:	fbb1 f3f3 	udiv	r3, r1, r3
 8003886:	1c59      	adds	r1, r3, #1
 8003888:	f640 73fc 	movw	r3, #4092	@ 0xffc
 800388c:	400b      	ands	r3, r1
 800388e:	2b00      	cmp	r3, #0
 8003890:	d00a      	beq.n	80038a8 <HAL_I2C_Init+0x138>
 8003892:	68fb      	ldr	r3, [r7, #12]
 8003894:	1e59      	subs	r1, r3, #1
 8003896:	687b      	ldr	r3, [r7, #4]
 8003898:	685b      	ldr	r3, [r3, #4]
 800389a:	005b      	lsls	r3, r3, #1
 800389c:	fbb1 f3f3 	udiv	r3, r1, r3
 80038a0:	3301      	adds	r3, #1
 80038a2:	f3c3 030b 	ubfx	r3, r3, #0, #12
 80038a6:	e051      	b.n	800394c <HAL_I2C_Init+0x1dc>
 80038a8:	2304      	movs	r3, #4
 80038aa:	e04f      	b.n	800394c <HAL_I2C_Init+0x1dc>
 80038ac:	687b      	ldr	r3, [r7, #4]
 80038ae:	689b      	ldr	r3, [r3, #8]
 80038b0:	2b00      	cmp	r3, #0
 80038b2:	d111      	bne.n	80038d8 <HAL_I2C_Init+0x168>
 80038b4:	68fb      	ldr	r3, [r7, #12]
 80038b6:	1e58      	subs	r0, r3, #1
 80038b8:	687b      	ldr	r3, [r7, #4]
 80038ba:	6859      	ldr	r1, [r3, #4]
 80038bc:	460b      	mov	r3, r1
 80038be:	005b      	lsls	r3, r3, #1
 80038c0:	440b      	add	r3, r1
 80038c2:	fbb0 f3f3 	udiv	r3, r0, r3
 80038c6:	3301      	adds	r3, #1
 80038c8:	f3c3 030b 	ubfx	r3, r3, #0, #12
 80038cc:	2b00      	cmp	r3, #0
 80038ce:	bf0c      	ite	eq
 80038d0:	2301      	moveq	r3, #1
 80038d2:	2300      	movne	r3, #0
 80038d4:	b2db      	uxtb	r3, r3
 80038d6:	e012      	b.n	80038fe <HAL_I2C_Init+0x18e>
 80038d8:	68fb      	ldr	r3, [r7, #12]
 80038da:	1e58      	subs	r0, r3, #1
 80038dc:	687b      	ldr	r3, [r7, #4]
 80038de:	6859      	ldr	r1, [r3, #4]
 80038e0:	460b      	mov	r3, r1
 80038e2:	009b      	lsls	r3, r3, #2
 80038e4:	440b      	add	r3, r1
 80038e6:	0099      	lsls	r1, r3, #2
 80038e8:	440b      	add	r3, r1
 80038ea:	fbb0 f3f3 	udiv	r3, r0, r3
 80038ee:	3301      	adds	r3, #1
 80038f0:	f3c3 030b 	ubfx	r3, r3, #0, #12
 80038f4:	2b00      	cmp	r3, #0
 80038f6:	bf0c      	ite	eq
 80038f8:	2301      	moveq	r3, #1
 80038fa:	2300      	movne	r3, #0
 80038fc:	b2db      	uxtb	r3, r3
 80038fe:	2b00      	cmp	r3, #0
 8003900:	d001      	beq.n	8003906 <HAL_I2C_Init+0x196>
 8003902:	2301      	movs	r3, #1
 8003904:	e022      	b.n	800394c <HAL_I2C_Init+0x1dc>
 8003906:	687b      	ldr	r3, [r7, #4]
 8003908:	689b      	ldr	r3, [r3, #8]
 800390a:	2b00      	cmp	r3, #0
 800390c:	d10e      	bne.n	800392c <HAL_I2C_Init+0x1bc>
 800390e:	68fb      	ldr	r3, [r7, #12]
 8003910:	1e58      	subs	r0, r3, #1
 8003912:	687b      	ldr	r3, [r7, #4]
 8003914:	6859      	ldr	r1, [r3, #4]
 8003916:	460b      	mov	r3, r1
 8003918:	005b      	lsls	r3, r3, #1
 800391a:	440b      	add	r3, r1
 800391c:	fbb0 f3f3 	udiv	r3, r0, r3
 8003920:	3301      	adds	r3, #1
 8003922:	f3c3 030b 	ubfx	r3, r3, #0, #12
 8003926:	f443 4300 	orr.w	r3, r3, #32768	@ 0x8000
 800392a:	e00f      	b.n	800394c <HAL_I2C_Init+0x1dc>
 800392c:	68fb      	ldr	r3, [r7, #12]
 800392e:	1e58      	subs	r0, r3, #1
 8003930:	687b      	ldr	r3, [r7, #4]
 8003932:	6859      	ldr	r1, [r3, #4]
 8003934:	460b      	mov	r3, r1
 8003936:	009b      	lsls	r3, r3, #2
 8003938:	440b      	add	r3, r1
 800393a:	0099      	lsls	r1, r3, #2
 800393c:	440b      	add	r3, r1
 800393e:	fbb0 f3f3 	udiv	r3, r0, r3
 8003942:	3301      	adds	r3, #1
 8003944:	f3c3 030b 	ubfx	r3, r3, #0, #12
 8003948:	f443 4340 	orr.w	r3, r3, #49152	@ 0xc000
 800394c:	6879      	ldr	r1, [r7, #4]
 800394e:	6809      	ldr	r1, [r1, #0]
 8003950:	4313      	orrs	r3, r2
 8003952:	61cb      	str	r3, [r1, #28]

  /*---------------------------- I2Cx CR1 Configuration ----------------------*/
  /* Configure I2Cx: Generalcall and NoStretch mode */
  MODIFY_REG(hi2c->Instance->CR1, (I2C_CR1_ENGC | I2C_CR1_NOSTRETCH), (hi2c->Init.GeneralCallMode | hi2c->Init.NoStretchMode));
 8003954:	687b      	ldr	r3, [r7, #4]
 8003956:	681b      	ldr	r3, [r3, #0]
 8003958:	681b      	ldr	r3, [r3, #0]
 800395a:	f023 01c0 	bic.w	r1, r3, #192	@ 0xc0
 800395e:	687b      	ldr	r3, [r7, #4]
 8003960:	69da      	ldr	r2, [r3, #28]
 8003962:	687b      	ldr	r3, [r7, #4]
 8003964:	6a1b      	ldr	r3, [r3, #32]
 8003966:	431a      	orrs	r2, r3
 8003968:	687b      	ldr	r3, [r7, #4]
 800396a:	681b      	ldr	r3, [r3, #0]
 800396c:	430a      	orrs	r2, r1
 800396e:	601a      	str	r2, [r3, #0]

  /*---------------------------- I2Cx OAR1 Configuration ---------------------*/
  /* Configure I2Cx: Own Address1 and addressing mode */
  MODIFY_REG(hi2c->Instance->OAR1, (I2C_OAR1_ADDMODE | I2C_OAR1_ADD8_9 | I2C_OAR1_ADD1_7 | I2C_OAR1_ADD0), (hi2c->Init.AddressingMode | hi2c->Init.OwnAddress1));
 8003970:	687b      	ldr	r3, [r7, #4]
 8003972:	681b      	ldr	r3, [r3, #0]
 8003974:	689b      	ldr	r3, [r3, #8]
 8003976:	f423 4303 	bic.w	r3, r3, #33536	@ 0x8300
 800397a:	f023 03ff 	bic.w	r3, r3, #255	@ 0xff
 800397e:	687a      	ldr	r2, [r7, #4]
 8003980:	6911      	ldr	r1, [r2, #16]
 8003982:	687a      	ldr	r2, [r7, #4]
 8003984:	68d2      	ldr	r2, [r2, #12]
 8003986:	4311      	orrs	r1, r2
 8003988:	687a      	ldr	r2, [r7, #4]
 800398a:	6812      	ldr	r2, [r2, #0]
 800398c:	430b      	orrs	r3, r1
 800398e:	6093      	str	r3, [r2, #8]

  /*---------------------------- I2Cx OAR2 Configuration ---------------------*/
  /* Configure I2Cx: Dual mode and Own Address2 */
  MODIFY_REG(hi2c->Instance->OAR2, (I2C_OAR2_ENDUAL | I2C_OAR2_ADD2), (hi2c->Init.DualAddressMode | hi2c->Init.OwnAddress2));
 8003990:	687b      	ldr	r3, [r7, #4]
 8003992:	681b      	ldr	r3, [r3, #0]
 8003994:	68db      	ldr	r3, [r3, #12]
 8003996:	f023 01ff 	bic.w	r1, r3, #255	@ 0xff
 800399a:	687b      	ldr	r3, [r7, #4]
 800399c:	695a      	ldr	r2, [r3, #20]
 800399e:	687b      	ldr	r3, [r7, #4]
 80039a0:	699b      	ldr	r3, [r3, #24]
 80039a2:	431a      	orrs	r2, r3
 80039a4:	687b      	ldr	r3, [r7, #4]
 80039a6:	681b      	ldr	r3, [r3, #0]
 80039a8:	430a      	orrs	r2, r1
 80039aa:	60da      	str	r2, [r3, #12]

  /* Enable the selected I2C peripheral */
  __HAL_I2C_ENABLE(hi2c);
 80039ac:	687b      	ldr	r3, [r7, #4]
 80039ae:	681b      	ldr	r3, [r3, #0]
 80039b0:	681a      	ldr	r2, [r3, #0]
 80039b2:	687b      	ldr	r3, [r7, #4]
 80039b4:	681b      	ldr	r3, [r3, #0]
 80039b6:	f042 0201 	orr.w	r2, r2, #1
 80039ba:	601a      	str	r2, [r3, #0]

  hi2c->ErrorCode = HAL_I2C_ERROR_NONE;
 80039bc:	687b      	ldr	r3, [r7, #4]
 80039be:	2200      	movs	r2, #0
 80039c0:	641a      	str	r2, [r3, #64]	@ 0x40
  hi2c->State = HAL_I2C_STATE_READY;
 80039c2:	687b      	ldr	r3, [r7, #4]
 80039c4:	2220      	movs	r2, #32
 80039c6:	f883 203d 	strb.w	r2, [r3, #61]	@ 0x3d
  hi2c->PreviousState = I2C_STATE_NONE;
 80039ca:	687b      	ldr	r3, [r7, #4]
 80039cc:	2200      	movs	r2, #0
 80039ce:	631a      	str	r2, [r3, #48]	@ 0x30
  hi2c->Mode = HAL_I2C_MODE_NONE;
 80039d0:	687b      	ldr	r3, [r7, #4]
 80039d2:	2200      	movs	r2, #0
 80039d4:	f883 203e 	strb.w	r2, [r3, #62]	@ 0x3e

  return HAL_OK;
 80039d8:	2300      	movs	r3, #0
}
 80039da:	4618      	mov	r0, r3
 80039dc:	3710      	adds	r7, #16
 80039de:	46bd      	mov	sp, r7
 80039e0:	bd80      	pop	{r7, pc}
 80039e2:	bf00      	nop
 80039e4:	000186a0 	.word	0x000186a0
 80039e8:	001e847f 	.word	0x001e847f
 80039ec:	003d08ff 	.word	0x003d08ff
 80039f0:	431bde83 	.word	0x431bde83
 80039f4:	10624dd3 	.word	0x10624dd3

080039f8 <HAL_I2C_Master_Transmit>:
  * @param  Size Amount of data to be sent
  * @param  Timeout Timeout duration
  * @retval HAL status
  */
HAL_StatusTypeDef HAL_I2C_Master_Transmit(I2C_HandleTypeDef *hi2c, uint16_t DevAddress, uint8_t *pData, uint16_t Size, uint32_t Timeout)
{
 80039f8:	b580      	push	{r7, lr}
 80039fa:	b088      	sub	sp, #32
 80039fc:	af02      	add	r7, sp, #8
 80039fe:	60f8      	str	r0, [r7, #12]
 8003a00:	607a      	str	r2, [r7, #4]
 8003a02:	461a      	mov	r2, r3
 8003a04:	460b      	mov	r3, r1
 8003a06:	817b      	strh	r3, [r7, #10]
 8003a08:	4613      	mov	r3, r2
 8003a0a:	813b      	strh	r3, [r7, #8]
  /* Init tickstart for timeout management*/
  uint32_t tickstart = HAL_GetTick();
 8003a0c:	f7fe ff18 	bl	8002840 <HAL_GetTick>
 8003a10:	6178      	str	r0, [r7, #20]

  if (hi2c->State == HAL_I2C_STATE_READY)
 8003a12:	68fb      	ldr	r3, [r7, #12]
 8003a14:	f893 303d 	ldrb.w	r3, [r3, #61]	@ 0x3d
 8003a18:	b2db      	uxtb	r3, r3
 8003a1a:	2b20      	cmp	r3, #32
 8003a1c:	f040 80e0 	bne.w	8003be0 <HAL_I2C_Master_Transmit+0x1e8>
  {
    /* Wait until BUSY flag is reset */
    if (I2C_WaitOnFlagUntilTimeout(hi2c, I2C_FLAG_BUSY, SET, I2C_TIMEOUT_BUSY_FLAG, tickstart) != HAL_OK)
 8003a20:	697b      	ldr	r3, [r7, #20]
 8003a22:	9300      	str	r3, [sp, #0]
 8003a24:	2319      	movs	r3, #25
 8003a26:	2201      	movs	r2, #1
 8003a28:	4970      	ldr	r1, [pc, #448]	@ (8003bec <HAL_I2C_Master_Transmit+0x1f4>)
 8003a2a:	68f8      	ldr	r0, [r7, #12]
 8003a2c:	f000 fc64 	bl	80042f8 <I2C_WaitOnFlagUntilTimeout>
 8003a30:	4603      	mov	r3, r0
 8003a32:	2b00      	cmp	r3, #0
 8003a34:	d001      	beq.n	8003a3a <HAL_I2C_Master_Transmit+0x42>
    {
      return HAL_BUSY;
 8003a36:	2302      	movs	r3, #2
 8003a38:	e0d3      	b.n	8003be2 <HAL_I2C_Master_Transmit+0x1ea>
    }

    /* Process Locked */
    __HAL_LOCK(hi2c);
 8003a3a:	68fb      	ldr	r3, [r7, #12]
 8003a3c:	f893 303c 	ldrb.w	r3, [r3, #60]	@ 0x3c
 8003a40:	2b01      	cmp	r3, #1
 8003a42:	d101      	bne.n	8003a48 <HAL_I2C_Master_Transmit+0x50>
 8003a44:	2302      	movs	r3, #2
 8003a46:	e0cc      	b.n	8003be2 <HAL_I2C_Master_Transmit+0x1ea>
 8003a48:	68fb      	ldr	r3, [r7, #12]
 8003a4a:	2201      	movs	r2, #1
 8003a4c:	f883 203c 	strb.w	r2, [r3, #60]	@ 0x3c

    /* Check if the I2C is already enabled */
    if ((hi2c->Instance->CR1 & I2C_CR1_PE) != I2C_CR1_PE)
 8003a50:	68fb      	ldr	r3, [r7, #12]
 8003a52:	681b      	ldr	r3, [r3, #0]
 8003a54:	681b      	ldr	r3, [r3, #0]
 8003a56:	f003 0301 	and.w	r3, r3, #1
 8003a5a:	2b01      	cmp	r3, #1
 8003a5c:	d007      	beq.n	8003a6e <HAL_I2C_Master_Transmit+0x76>
    {
      /* Enable I2C peripheral */
      __HAL_I2C_ENABLE(hi2c);
 8003a5e:	68fb      	ldr	r3, [r7, #12]
 8003a60:	681b      	ldr	r3, [r3, #0]
 8003a62:	681a      	ldr	r2, [r3, #0]
 8003a64:	68fb      	ldr	r3, [r7, #12]
 8003a66:	681b      	ldr	r3, [r3, #0]
 8003a68:	f042 0201 	orr.w	r2, r2, #1
 8003a6c:	601a      	str	r2, [r3, #0]
    }

    /* Disable Pos */
    CLEAR_BIT(hi2c->Instance->CR1, I2C_CR1_POS);
 8003a6e:	68fb      	ldr	r3, [r7, #12]
 8003a70:	681b      	ldr	r3, [r3, #0]
 8003a72:	681a      	ldr	r2, [r3, #0]
 8003a74:	68fb      	ldr	r3, [r7, #12]
 8003a76:	681b      	ldr	r3, [r3, #0]
 8003a78:	f422 6200 	bic.w	r2, r2, #2048	@ 0x800
 8003a7c:	601a      	str	r2, [r3, #0]

    hi2c->State       = HAL_I2C_STATE_BUSY_TX;
 8003a7e:	68fb      	ldr	r3, [r7, #12]
 8003a80:	2221      	movs	r2, #33	@ 0x21
 8003a82:	f883 203d 	strb.w	r2, [r3, #61]	@ 0x3d
    hi2c->Mode        = HAL_I2C_MODE_MASTER;
 8003a86:	68fb      	ldr	r3, [r7, #12]
 8003a88:	2210      	movs	r2, #16
 8003a8a:	f883 203e 	strb.w	r2, [r3, #62]	@ 0x3e
    hi2c->ErrorCode   = HAL_I2C_ERROR_NONE;
 8003a8e:	68fb      	ldr	r3, [r7, #12]
 8003a90:	2200      	movs	r2, #0
 8003a92:	641a      	str	r2, [r3, #64]	@ 0x40

    /* Prepare transfer parameters */
    hi2c->pBuffPtr    = pData;
 8003a94:	68fb      	ldr	r3, [r7, #12]
 8003a96:	687a      	ldr	r2, [r7, #4]
 8003a98:	625a      	str	r2, [r3, #36]	@ 0x24
    hi2c->XferCount   = Size;
 8003a9a:	68fb      	ldr	r3, [r7, #12]
 8003a9c:	893a      	ldrh	r2, [r7, #8]
 8003a9e:	855a      	strh	r2, [r3, #42]	@ 0x2a
    hi2c->XferSize    = hi2c->XferCount;
 8003aa0:	68fb      	ldr	r3, [r7, #12]
 8003aa2:	8d5b      	ldrh	r3, [r3, #42]	@ 0x2a
 8003aa4:	b29a      	uxth	r2, r3
 8003aa6:	68fb      	ldr	r3, [r7, #12]
 8003aa8:	851a      	strh	r2, [r3, #40]	@ 0x28
    hi2c->XferOptions = I2C_NO_OPTION_FRAME;
 8003aaa:	68fb      	ldr	r3, [r7, #12]
 8003aac:	4a50      	ldr	r2, [pc, #320]	@ (8003bf0 <HAL_I2C_Master_Transmit+0x1f8>)
 8003aae:	62da      	str	r2, [r3, #44]	@ 0x2c

    /* Send Slave Address */
    if (I2C_MasterRequestWrite(hi2c, DevAddress, Timeout, tickstart) != HAL_OK)
 8003ab0:	8979      	ldrh	r1, [r7, #10]
 8003ab2:	697b      	ldr	r3, [r7, #20]
 8003ab4:	6a3a      	ldr	r2, [r7, #32]
 8003ab6:	68f8      	ldr	r0, [r7, #12]
 8003ab8:	f000 face 	bl	8004058 <I2C_MasterRequestWrite>
 8003abc:	4603      	mov	r3, r0
 8003abe:	2b00      	cmp	r3, #0
 8003ac0:	d001      	beq.n	8003ac6 <HAL_I2C_Master_Transmit+0xce>
    {
      return HAL_ERROR;
 8003ac2:	2301      	movs	r3, #1
 8003ac4:	e08d      	b.n	8003be2 <HAL_I2C_Master_Transmit+0x1ea>
    }

    /* Clear ADDR flag */
    __HAL_I2C_CLEAR_ADDRFLAG(hi2c);
 8003ac6:	2300      	movs	r3, #0
 8003ac8:	613b      	str	r3, [r7, #16]
 8003aca:	68fb      	ldr	r3, [r7, #12]
 8003acc:	681b      	ldr	r3, [r3, #0]
 8003ace:	695b      	ldr	r3, [r3, #20]
 8003ad0:	613b      	str	r3, [r7, #16]
 8003ad2:	68fb      	ldr	r3, [r7, #12]
 8003ad4:	681b      	ldr	r3, [r3, #0]
 8003ad6:	699b      	ldr	r3, [r3, #24]
 8003ad8:	613b      	str	r3, [r7, #16]
 8003ada:	693b      	ldr	r3, [r7, #16]

    while (hi2c->XferSize > 0U)
 8003adc:	e066      	b.n	8003bac <HAL_I2C_Master_Transmit+0x1b4>
    {
      /* Wait until TXE flag is set */
      if (I2C_WaitOnTXEFlagUntilTimeout(hi2c, Timeout, tickstart) != HAL_OK)
 8003ade:	697a      	ldr	r2, [r7, #20]
 8003ae0:	6a39      	ldr	r1, [r7, #32]
 8003ae2:	68f8      	ldr	r0, [r7, #12]
 8003ae4:	f000 fd22 	bl	800452c <I2C_WaitOnTXEFlagUntilTimeout>
 8003ae8:	4603      	mov	r3, r0
 8003aea:	2b00      	cmp	r3, #0
 8003aec:	d00d      	beq.n	8003b0a <HAL_I2C_Master_Transmit+0x112>
      {
        if (hi2c->ErrorCode == HAL_I2C_ERROR_AF)
 8003aee:	68fb      	ldr	r3, [r7, #12]
 8003af0:	6c1b      	ldr	r3, [r3, #64]	@ 0x40
 8003af2:	2b04      	cmp	r3, #4
 8003af4:	d107      	bne.n	8003b06 <HAL_I2C_Master_Transmit+0x10e>
        {
          /* Generate Stop */
          SET_BIT(hi2c->Instance->CR1, I2C_CR1_STOP);
 8003af6:	68fb      	ldr	r3, [r7, #12]
 8003af8:	681b      	ldr	r3, [r3, #0]
 8003afa:	681a      	ldr	r2, [r3, #0]
 8003afc:	68fb      	ldr	r3, [r7, #12]
 8003afe:	681b      	ldr	r3, [r3, #0]
 8003b00:	f442 7200 	orr.w	r2, r2, #512	@ 0x200
 8003b04:	601a      	str	r2, [r3, #0]
        }
        return HAL_ERROR;
 8003b06:	2301      	movs	r3, #1
 8003b08:	e06b      	b.n	8003be2 <HAL_I2C_Master_Transmit+0x1ea>
      }

      /* Write data to DR */
      hi2c->Instance->DR = *hi2c->pBuffPtr;
 8003b0a:	68fb      	ldr	r3, [r7, #12]
 8003b0c:	6a5b      	ldr	r3, [r3, #36]	@ 0x24
 8003b0e:	781a      	ldrb	r2, [r3, #0]
 8003b10:	68fb      	ldr	r3, [r7, #12]
 8003b12:	681b      	ldr	r3, [r3, #0]
 8003b14:	611a      	str	r2, [r3, #16]

      /* Increment Buffer pointer */
      hi2c->pBuffPtr++;
 8003b16:	68fb      	ldr	r3, [r7, #12]
 8003b18:	6a5b      	ldr	r3, [r3, #36]	@ 0x24
 8003b1a:	1c5a      	adds	r2, r3, #1
 8003b1c:	68fb      	ldr	r3, [r7, #12]
 8003b1e:	625a      	str	r2, [r3, #36]	@ 0x24

      /* Update counter */
      hi2c->XferCount--;
 8003b20:	68fb      	ldr	r3, [r7, #12]
 8003b22:	8d5b      	ldrh	r3, [r3, #42]	@ 0x2a
 8003b24:	b29b      	uxth	r3, r3
 8003b26:	3b01      	subs	r3, #1
 8003b28:	b29a      	uxth	r2, r3
 8003b2a:	68fb      	ldr	r3, [r7, #12]
 8003b2c:	855a      	strh	r2, [r3, #42]	@ 0x2a
      hi2c->XferSize--;
 8003b2e:	68fb      	ldr	r3, [r7, #12]
 8003b30:	8d1b      	ldrh	r3, [r3, #40]	@ 0x28
 8003b32:	3b01      	subs	r3, #1
 8003b34:	b29a      	uxth	r2, r3
 8003b36:	68fb      	ldr	r3, [r7, #12]
 8003b38:	851a      	strh	r2, [r3, #40]	@ 0x28

      if ((__HAL_I2C_GET_FLAG(hi2c, I2C_FLAG_BTF) == SET) && (hi2c->XferSize != 0U))
 8003b3a:	68fb      	ldr	r3, [r7, #12]
 8003b3c:	681b      	ldr	r3, [r3, #0]
 8003b3e:	695b      	ldr	r3, [r3, #20]
 8003b40:	f003 0304 	and.w	r3, r3, #4
 8003b44:	2b04      	cmp	r3, #4
 8003b46:	d11b      	bne.n	8003b80 <HAL_I2C_Master_Transmit+0x188>
 8003b48:	68fb      	ldr	r3, [r7, #12]
 8003b4a:	8d1b      	ldrh	r3, [r3, #40]	@ 0x28
 8003b4c:	2b00      	cmp	r3, #0
 8003b4e:	d017      	beq.n	8003b80 <HAL_I2C_Master_Transmit+0x188>
      {
        /* Write data to DR */
        hi2c->Instance->DR = *hi2c->pBuffPtr;
 8003b50:	68fb      	ldr	r3, [r7, #12]
 8003b52:	6a5b      	ldr	r3, [r3, #36]	@ 0x24
 8003b54:	781a      	ldrb	r2, [r3, #0]
 8003b56:	68fb      	ldr	r3, [r7, #12]
 8003b58:	681b      	ldr	r3, [r3, #0]
 8003b5a:	611a      	str	r2, [r3, #16]

        /* Increment Buffer pointer */
        hi2c->pBuffPtr++;
 8003b5c:	68fb      	ldr	r3, [r7, #12]
 8003b5e:	6a5b      	ldr	r3, [r3, #36]	@ 0x24
 8003b60:	1c5a      	adds	r2, r3, #1
 8003b62:	68fb      	ldr	r3, [r7, #12]
 8003b64:	625a      	str	r2, [r3, #36]	@ 0x24

        /* Update counter */
        hi2c->XferCount--;
 8003b66:	68fb      	ldr	r3, [r7, #12]
 8003b68:	8d5b      	ldrh	r3, [r3, #42]	@ 0x2a
 8003b6a:	b29b      	uxth	r3, r3
 8003b6c:	3b01      	subs	r3, #1
 8003b6e:	b29a      	uxth	r2, r3
 8003b70:	68fb      	ldr	r3, [r7, #12]
 8003b72:	855a      	strh	r2, [r3, #42]	@ 0x2a
        hi2c->XferSize--;
 8003b74:	68fb      	ldr	r3, [r7, #12]
 8003b76:	8d1b      	ldrh	r3, [r3, #40]	@ 0x28
 8003b78:	3b01      	subs	r3, #1
 8003b7a:	b29a      	uxth	r2, r3
 8003b7c:	68fb      	ldr	r3, [r7, #12]
 8003b7e:	851a      	strh	r2, [r3, #40]	@ 0x28
      }

      /* Wait until BTF flag is set */
      if (I2C_WaitOnBTFFlagUntilTimeout(hi2c, Timeout, tickstart) != HAL_OK)
 8003b80:	697a      	ldr	r2, [r7, #20]
 8003b82:	6a39      	ldr	r1, [r7, #32]
 8003b84:	68f8      	ldr	r0, [r7, #12]
 8003b86:	f000 fd19 	bl	80045bc <I2C_WaitOnBTFFlagUntilTimeout>
 8003b8a:	4603      	mov	r3, r0
 8003b8c:	2b00      	cmp	r3, #0
 8003b8e:	d00d      	beq.n	8003bac <HAL_I2C_Master_Transmit+0x1b4>
      {
        if (hi2c->ErrorCode == HAL_I2C_ERROR_AF)
 8003b90:	68fb      	ldr	r3, [r7, #12]
 8003b92:	6c1b      	ldr	r3, [r3, #64]	@ 0x40
 8003b94:	2b04      	cmp	r3, #4
 8003b96:	d107      	bne.n	8003ba8 <HAL_I2C_Master_Transmit+0x1b0>
        {
          /* Generate Stop */
          SET_BIT(hi2c->Instance->CR1, I2C_CR1_STOP);
 8003b98:	68fb      	ldr	r3, [r7, #12]
 8003b9a:	681b      	ldr	r3, [r3, #0]
 8003b9c:	681a      	ldr	r2, [r3, #0]
 8003b9e:	68fb      	ldr	r3, [r7, #12]
 8003ba0:	681b      	ldr	r3, [r3, #0]
 8003ba2:	f442 7200 	orr.w	r2, r2, #512	@ 0x200
 8003ba6:	601a      	str	r2, [r3, #0]
        }
        return HAL_ERROR;
 8003ba8:	2301      	movs	r3, #1
 8003baa:	e01a      	b.n	8003be2 <HAL_I2C_Master_Transmit+0x1ea>
    while (hi2c->XferSize > 0U)
 8003bac:	68fb      	ldr	r3, [r7, #12]
 8003bae:	8d1b      	ldrh	r3, [r3, #40]	@ 0x28
 8003bb0:	2b00      	cmp	r3, #0
 8003bb2:	d194      	bne.n	8003ade <HAL_I2C_Master_Transmit+0xe6>
      }
    }

    /* Generate Stop */
    SET_BIT(hi2c->Instance->CR1, I2C_CR1_STOP);
 8003bb4:	68fb      	ldr	r3, [r7, #12]
 8003bb6:	681b      	ldr	r3, [r3, #0]
 8003bb8:	681a      	ldr	r2, [r3, #0]
 8003bba:	68fb      	ldr	r3, [r7, #12]
 8003bbc:	681b      	ldr	r3, [r3, #0]
 8003bbe:	f442 7200 	orr.w	r2, r2, #512	@ 0x200
 8003bc2:	601a      	str	r2, [r3, #0]

    hi2c->State = HAL_I2C_STATE_READY;
 8003bc4:	68fb      	ldr	r3, [r7, #12]
 8003bc6:	2220      	movs	r2, #32
 8003bc8:	f883 203d 	strb.w	r2, [r3, #61]	@ 0x3d
    hi2c->Mode = HAL_I2C_MODE_NONE;
 8003bcc:	68fb      	ldr	r3, [r7, #12]
 8003bce:	2200      	movs	r2, #0
 8003bd0:	f883 203e 	strb.w	r2, [r3, #62]	@ 0x3e

    /* Process Unlocked */
    __HAL_UNLOCK(hi2c);
 8003bd4:	68fb      	ldr	r3, [r7, #12]
 8003bd6:	2200      	movs	r2, #0
 8003bd8:	f883 203c 	strb.w	r2, [r3, #60]	@ 0x3c

    return HAL_OK;
 8003bdc:	2300      	movs	r3, #0
 8003bde:	e000      	b.n	8003be2 <HAL_I2C_Master_Transmit+0x1ea>
  }
  else
  {
    return HAL_BUSY;
 8003be0:	2302      	movs	r3, #2
  }
}
 8003be2:	4618      	mov	r0, r3
 8003be4:	3718      	adds	r7, #24
 8003be6:	46bd      	mov	sp, r7
 8003be8:	bd80      	pop	{r7, pc}
 8003bea:	bf00      	nop
 8003bec:	00100002 	.word	0x00100002
 8003bf0:	ffff0000 	.word	0xffff0000

08003bf4 <HAL_I2C_Master_Receive>:
  * @param  Size Amount of data to be sent
  * @param  Timeout Timeout duration
  * @retval HAL status
  */
HAL_StatusTypeDef HAL_I2C_Master_Receive(I2C_HandleTypeDef *hi2c, uint16_t DevAddress, uint8_t *pData, uint16_t Size, uint32_t Timeout)
{
 8003bf4:	b580      	push	{r7, lr}
 8003bf6:	b08c      	sub	sp, #48	@ 0x30
 8003bf8:	af02      	add	r7, sp, #8
 8003bfa:	60f8      	str	r0, [r7, #12]
 8003bfc:	607a      	str	r2, [r7, #4]
 8003bfe:	461a      	mov	r2, r3
 8003c00:	460b      	mov	r3, r1
 8003c02:	817b      	strh	r3, [r7, #10]
 8003c04:	4613      	mov	r3, r2
 8003c06:	813b      	strh	r3, [r7, #8]
  /* Init tickstart for timeout management*/
  uint32_t tickstart = HAL_GetTick();
 8003c08:	f7fe fe1a 	bl	8002840 <HAL_GetTick>
 8003c0c:	6278      	str	r0, [r7, #36]	@ 0x24

  if (hi2c->State == HAL_I2C_STATE_READY)
 8003c0e:	68fb      	ldr	r3, [r7, #12]
 8003c10:	f893 303d 	ldrb.w	r3, [r3, #61]	@ 0x3d
 8003c14:	b2db      	uxtb	r3, r3
 8003c16:	2b20      	cmp	r3, #32
 8003c18:	f040 8217 	bne.w	800404a <HAL_I2C_Master_Receive+0x456>
  {
    /* Wait until BUSY flag is reset */
    if (I2C_WaitOnFlagUntilTimeout(hi2c, I2C_FLAG_BUSY, SET, I2C_TIMEOUT_BUSY_FLAG, tickstart) != HAL_OK)
 8003c1c:	6a7b      	ldr	r3, [r7, #36]	@ 0x24
 8003c1e:	9300      	str	r3, [sp, #0]
 8003c20:	2319      	movs	r3, #25
 8003c22:	2201      	movs	r2, #1
 8003c24:	497c      	ldr	r1, [pc, #496]	@ (8003e18 <HAL_I2C_Master_Receive+0x224>)
 8003c26:	68f8      	ldr	r0, [r7, #12]
 8003c28:	f000 fb66 	bl	80042f8 <I2C_WaitOnFlagUntilTimeout>
 8003c2c:	4603      	mov	r3, r0
 8003c2e:	2b00      	cmp	r3, #0
 8003c30:	d001      	beq.n	8003c36 <HAL_I2C_Master_Receive+0x42>
    {
      return HAL_BUSY;
 8003c32:	2302      	movs	r3, #2
 8003c34:	e20a      	b.n	800404c <HAL_I2C_Master_Receive+0x458>
    }

    /* Process Locked */
    __HAL_LOCK(hi2c);
 8003c36:	68fb      	ldr	r3, [r7, #12]
 8003c38:	f893 303c 	ldrb.w	r3, [r3, #60]	@ 0x3c
 8003c3c:	2b01      	cmp	r3, #1
 8003c3e:	d101      	bne.n	8003c44 <HAL_I2C_Master_Receive+0x50>
 8003c40:	2302      	movs	r3, #2
 8003c42:	e203      	b.n	800404c <HAL_I2C_Master_Receive+0x458>
 8003c44:	68fb      	ldr	r3, [r7, #12]
 8003c46:	2201      	movs	r2, #1
 8003c48:	f883 203c 	strb.w	r2, [r3, #60]	@ 0x3c

    /* Check if the I2C is already enabled */
    if ((hi2c->Instance->CR1 & I2C_CR1_PE) != I2C_CR1_PE)
 8003c4c:	68fb      	ldr	r3, [r7, #12]
 8003c4e:	681b      	ldr	r3, [r3, #0]
 8003c50:	681b      	ldr	r3, [r3, #0]
 8003c52:	f003 0301 	and.w	r3, r3, #1
 8003c56:	2b01      	cmp	r3, #1
 8003c58:	d007      	beq.n	8003c6a <HAL_I2C_Master_Receive+0x76>
    {
      /* Enable I2C peripheral */
      __HAL_I2C_ENABLE(hi2c);
 8003c5a:	68fb      	ldr	r3, [r7, #12]
 8003c5c:	681b      	ldr	r3, [r3, #0]
 8003c5e:	681a      	ldr	r2, [r3, #0]
 8003c60:	68fb      	ldr	r3, [r7, #12]
 8003c62:	681b      	ldr	r3, [r3, #0]
 8003c64:	f042 0201 	orr.w	r2, r2, #1
 8003c68:	601a      	str	r2, [r3, #0]
    }

    /* Disable Pos */
    CLEAR_BIT(hi2c->Instance->CR1, I2C_CR1_POS);
 8003c6a:	68fb      	ldr	r3, [r7, #12]
 8003c6c:	681b      	ldr	r3, [r3, #0]
 8003c6e:	681a      	ldr	r2, [r3, #0]
 8003c70:	68fb      	ldr	r3, [r7, #12]
 8003c72:	681b      	ldr	r3, [r3, #0]
 8003c74:	f422 6200 	bic.w	r2, r2, #2048	@ 0x800
 8003c78:	601a      	str	r2, [r3, #0]

    hi2c->State       = HAL_I2C_STATE_BUSY_RX;
 8003c7a:	68fb      	ldr	r3, [r7, #12]
 8003c7c:	2222      	movs	r2, #34	@ 0x22
 8003c7e:	f883 203d 	strb.w	r2, [r3, #61]	@ 0x3d
    hi2c->Mode        = HAL_I2C_MODE_MASTER;
 8003c82:	68fb      	ldr	r3, [r7, #12]
 8003c84:	2210      	movs	r2, #16
 8003c86:	f883 203e 	strb.w	r2, [r3, #62]	@ 0x3e
    hi2c->ErrorCode   = HAL_I2C_ERROR_NONE;
 8003c8a:	68fb      	ldr	r3, [r7, #12]
 8003c8c:	2200      	movs	r2, #0
 8003c8e:	641a      	str	r2, [r3, #64]	@ 0x40

    /* Prepare transfer parameters */
    hi2c->pBuffPtr    = pData;
 8003c90:	68fb      	ldr	r3, [r7, #12]
 8003c92:	687a      	ldr	r2, [r7, #4]
 8003c94:	625a      	str	r2, [r3, #36]	@ 0x24
    hi2c->XferCount   = Size;
 8003c96:	68fb      	ldr	r3, [r7, #12]
 8003c98:	893a      	ldrh	r2, [r7, #8]
 8003c9a:	855a      	strh	r2, [r3, #42]	@ 0x2a
    hi2c->XferSize    = hi2c->XferCount;
 8003c9c:	68fb      	ldr	r3, [r7, #12]
 8003c9e:	8d5b      	ldrh	r3, [r3, #42]	@ 0x2a
 8003ca0:	b29a      	uxth	r2, r3
 8003ca2:	68fb      	ldr	r3, [r7, #12]
 8003ca4:	851a      	strh	r2, [r3, #40]	@ 0x28
    hi2c->XferOptions = I2C_NO_OPTION_FRAME;
 8003ca6:	68fb      	ldr	r3, [r7, #12]
 8003ca8:	4a5c      	ldr	r2, [pc, #368]	@ (8003e1c <HAL_I2C_Master_Receive+0x228>)
 8003caa:	62da      	str	r2, [r3, #44]	@ 0x2c

    /* Send Slave Address */
    if (I2C_MasterRequestRead(hi2c, DevAddress, Timeout, tickstart) != HAL_OK)
 8003cac:	8979      	ldrh	r1, [r7, #10]
 8003cae:	6a7b      	ldr	r3, [r7, #36]	@ 0x24
 8003cb0:	6b3a      	ldr	r2, [r7, #48]	@ 0x30
 8003cb2:	68f8      	ldr	r0, [r7, #12]
 8003cb4:	f000 fa52 	bl	800415c <I2C_MasterRequestRead>
 8003cb8:	4603      	mov	r3, r0
 8003cba:	2b00      	cmp	r3, #0
 8003cbc:	d001      	beq.n	8003cc2 <HAL_I2C_Master_Receive+0xce>
    {
      return HAL_ERROR;
 8003cbe:	2301      	movs	r3, #1
 8003cc0:	e1c4      	b.n	800404c <HAL_I2C_Master_Receive+0x458>
    }

    if (hi2c->XferSize == 0U)
 8003cc2:	68fb      	ldr	r3, [r7, #12]
 8003cc4:	8d1b      	ldrh	r3, [r3, #40]	@ 0x28
 8003cc6:	2b00      	cmp	r3, #0
 8003cc8:	d113      	bne.n	8003cf2 <HAL_I2C_Master_Receive+0xfe>
    {
      /* Clear ADDR flag */
      __HAL_I2C_CLEAR_ADDRFLAG(hi2c);
 8003cca:	2300      	movs	r3, #0
 8003ccc:	623b      	str	r3, [r7, #32]
 8003cce:	68fb      	ldr	r3, [r7, #12]
 8003cd0:	681b      	ldr	r3, [r3, #0]
 8003cd2:	695b      	ldr	r3, [r3, #20]
 8003cd4:	623b      	str	r3, [r7, #32]
 8003cd6:	68fb      	ldr	r3, [r7, #12]
 8003cd8:	681b      	ldr	r3, [r3, #0]
 8003cda:	699b      	ldr	r3, [r3, #24]
 8003cdc:	623b      	str	r3, [r7, #32]
 8003cde:	6a3b      	ldr	r3, [r7, #32]

      /* Generate Stop */
      SET_BIT(hi2c->Instance->CR1, I2C_CR1_STOP);
 8003ce0:	68fb      	ldr	r3, [r7, #12]
 8003ce2:	681b      	ldr	r3, [r3, #0]
 8003ce4:	681a      	ldr	r2, [r3, #0]
 8003ce6:	68fb      	ldr	r3, [r7, #12]
 8003ce8:	681b      	ldr	r3, [r3, #0]
 8003cea:	f442 7200 	orr.w	r2, r2, #512	@ 0x200
 8003cee:	601a      	str	r2, [r3, #0]
 8003cf0:	e198      	b.n	8004024 <HAL_I2C_Master_Receive+0x430>
    }
    else if (hi2c->XferSize == 1U)
 8003cf2:	68fb      	ldr	r3, [r7, #12]
 8003cf4:	8d1b      	ldrh	r3, [r3, #40]	@ 0x28
 8003cf6:	2b01      	cmp	r3, #1
 8003cf8:	d11b      	bne.n	8003d32 <HAL_I2C_Master_Receive+0x13e>
    {
      /* Disable Acknowledge */
      CLEAR_BIT(hi2c->Instance->CR1, I2C_CR1_ACK);
 8003cfa:	68fb      	ldr	r3, [r7, #12]
 8003cfc:	681b      	ldr	r3, [r3, #0]
 8003cfe:	681a      	ldr	r2, [r3, #0]
 8003d00:	68fb      	ldr	r3, [r7, #12]
 8003d02:	681b      	ldr	r3, [r3, #0]
 8003d04:	f422 6280 	bic.w	r2, r2, #1024	@ 0x400
 8003d08:	601a      	str	r2, [r3, #0]

      /* Clear ADDR flag */
      __HAL_I2C_CLEAR_ADDRFLAG(hi2c);
 8003d0a:	2300      	movs	r3, #0
 8003d0c:	61fb      	str	r3, [r7, #28]
 8003d0e:	68fb      	ldr	r3, [r7, #12]
 8003d10:	681b      	ldr	r3, [r3, #0]
 8003d12:	695b      	ldr	r3, [r3, #20]
 8003d14:	61fb      	str	r3, [r7, #28]
 8003d16:	68fb      	ldr	r3, [r7, #12]
 8003d18:	681b      	ldr	r3, [r3, #0]
 8003d1a:	699b      	ldr	r3, [r3, #24]
 8003d1c:	61fb      	str	r3, [r7, #28]
 8003d1e:	69fb      	ldr	r3, [r7, #28]

      /* Generate Stop */
      SET_BIT(hi2c->Instance->CR1, I2C_CR1_STOP);
 8003d20:	68fb      	ldr	r3, [r7, #12]
 8003d22:	681b      	ldr	r3, [r3, #0]
 8003d24:	681a      	ldr	r2, [r3, #0]
 8003d26:	68fb      	ldr	r3, [r7, #12]
 8003d28:	681b      	ldr	r3, [r3, #0]
 8003d2a:	f442 7200 	orr.w	r2, r2, #512	@ 0x200
 8003d2e:	601a      	str	r2, [r3, #0]
 8003d30:	e178      	b.n	8004024 <HAL_I2C_Master_Receive+0x430>
    }
    else if (hi2c->XferSize == 2U)
 8003d32:	68fb      	ldr	r3, [r7, #12]
 8003d34:	8d1b      	ldrh	r3, [r3, #40]	@ 0x28
 8003d36:	2b02      	cmp	r3, #2
 8003d38:	d11b      	bne.n	8003d72 <HAL_I2C_Master_Receive+0x17e>
    {
      /* Disable Acknowledge */
      CLEAR_BIT(hi2c->Instance->CR1, I2C_CR1_ACK);
 8003d3a:	68fb      	ldr	r3, [r7, #12]
 8003d3c:	681b      	ldr	r3, [r3, #0]
 8003d3e:	681a      	ldr	r2, [r3, #0]
 8003d40:	68fb      	ldr	r3, [r7, #12]
 8003d42:	681b      	ldr	r3, [r3, #0]
 8003d44:	f422 6280 	bic.w	r2, r2, #1024	@ 0x400
 8003d48:	601a      	str	r2, [r3, #0]

      /* Enable Pos */
      SET_BIT(hi2c->Instance->CR1, I2C_CR1_POS);
 8003d4a:	68fb      	ldr	r3, [r7, #12]
 8003d4c:	681b      	ldr	r3, [r3, #0]
 8003d4e:	681a      	ldr	r2, [r3, #0]
 8003d50:	68fb      	ldr	r3, [r7, #12]
 8003d52:	681b      	ldr	r3, [r3, #0]
 8003d54:	f442 6200 	orr.w	r2, r2, #2048	@ 0x800
 8003d58:	601a      	str	r2, [r3, #0]

      /* Clear ADDR flag */
      __HAL_I2C_CLEAR_ADDRFLAG(hi2c);
 8003d5a:	2300      	movs	r3, #0
 8003d5c:	61bb      	str	r3, [r7, #24]
 8003d5e:	68fb      	ldr	r3, [r7, #12]
 8003d60:	681b      	ldr	r3, [r3, #0]
 8003d62:	695b      	ldr	r3, [r3, #20]
 8003d64:	61bb      	str	r3, [r7, #24]
 8003d66:	68fb      	ldr	r3, [r7, #12]
 8003d68:	681b      	ldr	r3, [r3, #0]
 8003d6a:	699b      	ldr	r3, [r3, #24]
 8003d6c:	61bb      	str	r3, [r7, #24]
 8003d6e:	69bb      	ldr	r3, [r7, #24]
 8003d70:	e158      	b.n	8004024 <HAL_I2C_Master_Receive+0x430>
    }
    else
    {
      /* Enable Acknowledge */
      SET_BIT(hi2c->Instance->CR1, I2C_CR1_ACK);
 8003d72:	68fb      	ldr	r3, [r7, #12]
 8003d74:	681b      	ldr	r3, [r3, #0]
 8003d76:	681a      	ldr	r2, [r3, #0]
 8003d78:	68fb      	ldr	r3, [r7, #12]
 8003d7a:	681b      	ldr	r3, [r3, #0]
 8003d7c:	f442 6280 	orr.w	r2, r2, #1024	@ 0x400
 8003d80:	601a      	str	r2, [r3, #0]

      /* Clear ADDR flag */
      __HAL_I2C_CLEAR_ADDRFLAG(hi2c);
 8003d82:	2300      	movs	r3, #0
 8003d84:	617b      	str	r3, [r7, #20]
 8003d86:	68fb      	ldr	r3, [r7, #12]
 8003d88:	681b      	ldr	r3, [r3, #0]
 8003d8a:	695b      	ldr	r3, [r3, #20]
 8003d8c:	617b      	str	r3, [r7, #20]
 8003d8e:	68fb      	ldr	r3, [r7, #12]
 8003d90:	681b      	ldr	r3, [r3, #0]
 8003d92:	699b      	ldr	r3, [r3, #24]
 8003d94:	617b      	str	r3, [r7, #20]
 8003d96:	697b      	ldr	r3, [r7, #20]
    }

    while (hi2c->XferSize > 0U)
 8003d98:	e144      	b.n	8004024 <HAL_I2C_Master_Receive+0x430>
    {
      if (hi2c->XferSize <= 3U)
 8003d9a:	68fb      	ldr	r3, [r7, #12]
 8003d9c:	8d1b      	ldrh	r3, [r3, #40]	@ 0x28
 8003d9e:	2b03      	cmp	r3, #3
 8003da0:	f200 80f1 	bhi.w	8003f86 <HAL_I2C_Master_Receive+0x392>
      {
        /* One byte */
        if (hi2c->XferSize == 1U)
 8003da4:	68fb      	ldr	r3, [r7, #12]
 8003da6:	8d1b      	ldrh	r3, [r3, #40]	@ 0x28
 8003da8:	2b01      	cmp	r3, #1
 8003daa:	d123      	bne.n	8003df4 <HAL_I2C_Master_Receive+0x200>
        {
          /* Wait until RXNE flag is set */
          if (I2C_WaitOnRXNEFlagUntilTimeout(hi2c, Timeout, tickstart) != HAL_OK)
 8003dac:	6a7a      	ldr	r2, [r7, #36]	@ 0x24
 8003dae:	6b39      	ldr	r1, [r7, #48]	@ 0x30
 8003db0:	68f8      	ldr	r0, [r7, #12]
 8003db2:	f000 fc4b 	bl	800464c <I2C_WaitOnRXNEFlagUntilTimeout>
 8003db6:	4603      	mov	r3, r0
 8003db8:	2b00      	cmp	r3, #0
 8003dba:	d001      	beq.n	8003dc0 <HAL_I2C_Master_Receive+0x1cc>
          {
            return HAL_ERROR;
 8003dbc:	2301      	movs	r3, #1
 8003dbe:	e145      	b.n	800404c <HAL_I2C_Master_Receive+0x458>
          }

          /* Read data from DR */
          *hi2c->pBuffPtr = (uint8_t)hi2c->Instance->DR;
 8003dc0:	68fb      	ldr	r3, [r7, #12]
 8003dc2:	681b      	ldr	r3, [r3, #0]
 8003dc4:	691a      	ldr	r2, [r3, #16]
 8003dc6:	68fb      	ldr	r3, [r7, #12]
 8003dc8:	6a5b      	ldr	r3, [r3, #36]	@ 0x24
 8003dca:	b2d2      	uxtb	r2, r2
 8003dcc:	701a      	strb	r2, [r3, #0]

          /* Increment Buffer pointer */
          hi2c->pBuffPtr++;
 8003dce:	68fb      	ldr	r3, [r7, #12]
 8003dd0:	6a5b      	ldr	r3, [r3, #36]	@ 0x24
 8003dd2:	1c5a      	adds	r2, r3, #1
 8003dd4:	68fb      	ldr	r3, [r7, #12]
 8003dd6:	625a      	str	r2, [r3, #36]	@ 0x24

          /* Update counter */
          hi2c->XferSize--;
 8003dd8:	68fb      	ldr	r3, [r7, #12]
 8003dda:	8d1b      	ldrh	r3, [r3, #40]	@ 0x28
 8003ddc:	3b01      	subs	r3, #1
 8003dde:	b29a      	uxth	r2, r3
 8003de0:	68fb      	ldr	r3, [r7, #12]
 8003de2:	851a      	strh	r2, [r3, #40]	@ 0x28
          hi2c->XferCount--;
 8003de4:	68fb      	ldr	r3, [r7, #12]
 8003de6:	8d5b      	ldrh	r3, [r3, #42]	@ 0x2a
 8003de8:	b29b      	uxth	r3, r3
 8003dea:	3b01      	subs	r3, #1
 8003dec:	b29a      	uxth	r2, r3
 8003dee:	68fb      	ldr	r3, [r7, #12]
 8003df0:	855a      	strh	r2, [r3, #42]	@ 0x2a
 8003df2:	e117      	b.n	8004024 <HAL_I2C_Master_Receive+0x430>
        }
        /* Two bytes */
        else if (hi2c->XferSize == 2U)
 8003df4:	68fb      	ldr	r3, [r7, #12]
 8003df6:	8d1b      	ldrh	r3, [r3, #40]	@ 0x28
 8003df8:	2b02      	cmp	r3, #2
 8003dfa:	d14e      	bne.n	8003e9a <HAL_I2C_Master_Receive+0x2a6>
        {
          /* Wait until BTF flag is set */
          if (I2C_WaitOnFlagUntilTimeout(hi2c, I2C_FLAG_BTF, RESET, Timeout, tickstart) != HAL_OK)
 8003dfc:	6a7b      	ldr	r3, [r7, #36]	@ 0x24
 8003dfe:	9300      	str	r3, [sp, #0]
 8003e00:	6b3b      	ldr	r3, [r7, #48]	@ 0x30
 8003e02:	2200      	movs	r2, #0
 8003e04:	4906      	ldr	r1, [pc, #24]	@ (8003e20 <HAL_I2C_Master_Receive+0x22c>)
 8003e06:	68f8      	ldr	r0, [r7, #12]
 8003e08:	f000 fa76 	bl	80042f8 <I2C_WaitOnFlagUntilTimeout>
 8003e0c:	4603      	mov	r3, r0
 8003e0e:	2b00      	cmp	r3, #0
 8003e10:	d008      	beq.n	8003e24 <HAL_I2C_Master_Receive+0x230>
          {
            return HAL_ERROR;
 8003e12:	2301      	movs	r3, #1
 8003e14:	e11a      	b.n	800404c <HAL_I2C_Master_Receive+0x458>
 8003e16:	bf00      	nop
 8003e18:	00100002 	.word	0x00100002
 8003e1c:	ffff0000 	.word	0xffff0000
 8003e20:	00010004 	.word	0x00010004
          }

          /* Generate Stop */
          SET_BIT(hi2c->Instance->CR1, I2C_CR1_STOP);
 8003e24:	68fb      	ldr	r3, [r7, #12]
 8003e26:	681b      	ldr	r3, [r3, #0]
 8003e28:	681a      	ldr	r2, [r3, #0]
 8003e2a:	68fb      	ldr	r3, [r7, #12]
 8003e2c:	681b      	ldr	r3, [r3, #0]
 8003e2e:	f442 7200 	orr.w	r2, r2, #512	@ 0x200
 8003e32:	601a      	str	r2, [r3, #0]

          /* Read data from DR */
          *hi2c->pBuffPtr = (uint8_t)hi2c->Instance->DR;
 8003e34:	68fb      	ldr	r3, [r7, #12]
 8003e36:	681b      	ldr	r3, [r3, #0]
 8003e38:	691a      	ldr	r2, [r3, #16]
 8003e3a:	68fb      	ldr	r3, [r7, #12]
 8003e3c:	6a5b      	ldr	r3, [r3, #36]	@ 0x24
 8003e3e:	b2d2      	uxtb	r2, r2
 8003e40:	701a      	strb	r2, [r3, #0]

          /* Increment Buffer pointer */
          hi2c->pBuffPtr++;
 8003e42:	68fb      	ldr	r3, [r7, #12]
 8003e44:	6a5b      	ldr	r3, [r3, #36]	@ 0x24
 8003e46:	1c5a      	adds	r2, r3, #1
 8003e48:	68fb      	ldr	r3, [r7, #12]
 8003e4a:	625a      	str	r2, [r3, #36]	@ 0x24

          /* Update counter */
          hi2c->XferSize--;
 8003e4c:	68fb      	ldr	r3, [r7, #12]
 8003e4e:	8d1b      	ldrh	r3, [r3, #40]	@ 0x28
 8003e50:	3b01      	subs	r3, #1
 8003e52:	b29a      	uxth	r2, r3
 8003e54:	68fb      	ldr	r3, [r7, #12]
 8003e56:	851a      	strh	r2, [r3, #40]	@ 0x28
          hi2c->XferCount--;
 8003e58:	68fb      	ldr	r3, [r7, #12]
 8003e5a:	8d5b      	ldrh	r3, [r3, #42]	@ 0x2a
 8003e5c:	b29b      	uxth	r3, r3
 8003e5e:	3b01      	subs	r3, #1
 8003e60:	b29a      	uxth	r2, r3
 8003e62:	68fb      	ldr	r3, [r7, #12]
 8003e64:	855a      	strh	r2, [r3, #42]	@ 0x2a

          /* Read data from DR */
          *hi2c->pBuffPtr = (uint8_t)hi2c->Instance->DR;
 8003e66:	68fb      	ldr	r3, [r7, #12]
 8003e68:	681b      	ldr	r3, [r3, #0]
 8003e6a:	691a      	ldr	r2, [r3, #16]
 8003e6c:	68fb      	ldr	r3, [r7, #12]
 8003e6e:	6a5b      	ldr	r3, [r3, #36]	@ 0x24
 8003e70:	b2d2      	uxtb	r2, r2
 8003e72:	701a      	strb	r2, [r3, #0]

          /* Increment Buffer pointer */
          hi2c->pBuffPtr++;
 8003e74:	68fb      	ldr	r3, [r7, #12]
 8003e76:	6a5b      	ldr	r3, [r3, #36]	@ 0x24
 8003e78:	1c5a      	adds	r2, r3, #1
 8003e7a:	68fb      	ldr	r3, [r7, #12]
 8003e7c:	625a      	str	r2, [r3, #36]	@ 0x24

          /* Update counter */
          hi2c->XferSize--;
 8003e7e:	68fb      	ldr	r3, [r7, #12]
 8003e80:	8d1b      	ldrh	r3, [r3, #40]	@ 0x28
 8003e82:	3b01      	subs	r3, #1
 8003e84:	b29a      	uxth	r2, r3
 8003e86:	68fb      	ldr	r3, [r7, #12]
 8003e88:	851a      	strh	r2, [r3, #40]	@ 0x28
          hi2c->XferCount--;
 8003e8a:	68fb      	ldr	r3, [r7, #12]
 8003e8c:	8d5b      	ldrh	r3, [r3, #42]	@ 0x2a
 8003e8e:	b29b      	uxth	r3, r3
 8003e90:	3b01      	subs	r3, #1
 8003e92:	b29a      	uxth	r2, r3
 8003e94:	68fb      	ldr	r3, [r7, #12]
 8003e96:	855a      	strh	r2, [r3, #42]	@ 0x2a
 8003e98:	e0c4      	b.n	8004024 <HAL_I2C_Master_Receive+0x430>
        }
        /* 3 Last bytes */
        else
        {
          /* Wait until BTF flag is set */
          if (I2C_WaitOnFlagUntilTimeout(hi2c, I2C_FLAG_BTF, RESET, Timeout, tickstart) != HAL_OK)
 8003e9a:	6a7b      	ldr	r3, [r7, #36]	@ 0x24
 8003e9c:	9300      	str	r3, [sp, #0]
 8003e9e:	6b3b      	ldr	r3, [r7, #48]	@ 0x30
 8003ea0:	2200      	movs	r2, #0
 8003ea2:	496c      	ldr	r1, [pc, #432]	@ (8004054 <HAL_I2C_Master_Receive+0x460>)
 8003ea4:	68f8      	ldr	r0, [r7, #12]
 8003ea6:	f000 fa27 	bl	80042f8 <I2C_WaitOnFlagUntilTimeout>
 8003eaa:	4603      	mov	r3, r0
 8003eac:	2b00      	cmp	r3, #0
 8003eae:	d001      	beq.n	8003eb4 <HAL_I2C_Master_Receive+0x2c0>
          {
            return HAL_ERROR;
 8003eb0:	2301      	movs	r3, #1
 8003eb2:	e0cb      	b.n	800404c <HAL_I2C_Master_Receive+0x458>
          }

          /* Disable Acknowledge */
          CLEAR_BIT(hi2c->Instance->CR1, I2C_CR1_ACK);
 8003eb4:	68fb      	ldr	r3, [r7, #12]
 8003eb6:	681b      	ldr	r3, [r3, #0]
 8003eb8:	681a      	ldr	r2, [r3, #0]
 8003eba:	68fb      	ldr	r3, [r7, #12]
 8003ebc:	681b      	ldr	r3, [r3, #0]
 8003ebe:	f422 6280 	bic.w	r2, r2, #1024	@ 0x400
 8003ec2:	601a      	str	r2, [r3, #0]

          /* Read data from DR */
          *hi2c->pBuffPtr = (uint8_t)hi2c->Instance->DR;
 8003ec4:	68fb      	ldr	r3, [r7, #12]
 8003ec6:	681b      	ldr	r3, [r3, #0]
 8003ec8:	691a      	ldr	r2, [r3, #16]
 8003eca:	68fb      	ldr	r3, [r7, #12]
 8003ecc:	6a5b      	ldr	r3, [r3, #36]	@ 0x24
 8003ece:	b2d2      	uxtb	r2, r2
 8003ed0:	701a      	strb	r2, [r3, #0]

          /* Increment Buffer pointer */
          hi2c->pBuffPtr++;
 8003ed2:	68fb      	ldr	r3, [r7, #12]
 8003ed4:	6a5b      	ldr	r3, [r3, #36]	@ 0x24
 8003ed6:	1c5a      	adds	r2, r3, #1
 8003ed8:	68fb      	ldr	r3, [r7, #12]
 8003eda:	625a      	str	r2, [r3, #36]	@ 0x24

          /* Update counter */
          hi2c->XferSize--;
 8003edc:	68fb      	ldr	r3, [r7, #12]
 8003ede:	8d1b      	ldrh	r3, [r3, #40]	@ 0x28
 8003ee0:	3b01      	subs	r3, #1
 8003ee2:	b29a      	uxth	r2, r3
 8003ee4:	68fb      	ldr	r3, [r7, #12]
 8003ee6:	851a      	strh	r2, [r3, #40]	@ 0x28
          hi2c->XferCount--;
 8003ee8:	68fb      	ldr	r3, [r7, #12]
 8003eea:	8d5b      	ldrh	r3, [r3, #42]	@ 0x2a
 8003eec:	b29b      	uxth	r3, r3
 8003eee:	3b01      	subs	r3, #1
 8003ef0:	b29a      	uxth	r2, r3
 8003ef2:	68fb      	ldr	r3, [r7, #12]
 8003ef4:	855a      	strh	r2, [r3, #42]	@ 0x2a

          /* Wait until BTF flag is set */
          if (I2C_WaitOnFlagUntilTimeout(hi2c, I2C_FLAG_BTF, RESET, Timeout, tickstart) != HAL_OK)
 8003ef6:	6a7b      	ldr	r3, [r7, #36]	@ 0x24
 8003ef8:	9300      	str	r3, [sp, #0]
 8003efa:	6b3b      	ldr	r3, [r7, #48]	@ 0x30
 8003efc:	2200      	movs	r2, #0
 8003efe:	4955      	ldr	r1, [pc, #340]	@ (8004054 <HAL_I2C_Master_Receive+0x460>)
 8003f00:	68f8      	ldr	r0, [r7, #12]
 8003f02:	f000 f9f9 	bl	80042f8 <I2C_WaitOnFlagUntilTimeout>
 8003f06:	4603      	mov	r3, r0
 8003f08:	2b00      	cmp	r3, #0
 8003f0a:	d001      	beq.n	8003f10 <HAL_I2C_Master_Receive+0x31c>
          {
            return HAL_ERROR;
 8003f0c:	2301      	movs	r3, #1
 8003f0e:	e09d      	b.n	800404c <HAL_I2C_Master_Receive+0x458>
          }

          /* Generate Stop */
          SET_BIT(hi2c->Instance->CR1, I2C_CR1_STOP);
 8003f10:	68fb      	ldr	r3, [r7, #12]
 8003f12:	681b      	ldr	r3, [r3, #0]
 8003f14:	681a      	ldr	r2, [r3, #0]
 8003f16:	68fb      	ldr	r3, [r7, #12]
 8003f18:	681b      	ldr	r3, [r3, #0]
 8003f1a:	f442 7200 	orr.w	r2, r2, #512	@ 0x200
 8003f1e:	601a      	str	r2, [r3, #0]

          /* Read data from DR */
          *hi2c->pBuffPtr = (uint8_t)hi2c->Instance->DR;
 8003f20:	68fb      	ldr	r3, [r7, #12]
 8003f22:	681b      	ldr	r3, [r3, #0]
 8003f24:	691a      	ldr	r2, [r3, #16]
 8003f26:	68fb      	ldr	r3, [r7, #12]
 8003f28:	6a5b      	ldr	r3, [r3, #36]	@ 0x24
 8003f2a:	b2d2      	uxtb	r2, r2
 8003f2c:	701a      	strb	r2, [r3, #0]

          /* Increment Buffer pointer */
          hi2c->pBuffPtr++;
 8003f2e:	68fb      	ldr	r3, [r7, #12]
 8003f30:	6a5b      	ldr	r3, [r3, #36]	@ 0x24
 8003f32:	1c5a      	adds	r2, r3, #1
 8003f34:	68fb      	ldr	r3, [r7, #12]
 8003f36:	625a      	str	r2, [r3, #36]	@ 0x24

          /* Update counter */
          hi2c->XferSize--;
 8003f38:	68fb      	ldr	r3, [r7, #12]
 8003f3a:	8d1b      	ldrh	r3, [r3, #40]	@ 0x28
 8003f3c:	3b01      	subs	r3, #1
 8003f3e:	b29a      	uxth	r2, r3
 8003f40:	68fb      	ldr	r3, [r7, #12]
 8003f42:	851a      	strh	r2, [r3, #40]	@ 0x28
          hi2c->XferCount--;
 8003f44:	68fb      	ldr	r3, [r7, #12]
 8003f46:	8d5b      	ldrh	r3, [r3, #42]	@ 0x2a
 8003f48:	b29b      	uxth	r3, r3
 8003f4a:	3b01      	subs	r3, #1
 8003f4c:	b29a      	uxth	r2, r3
 8003f4e:	68fb      	ldr	r3, [r7, #12]
 8003f50:	855a      	strh	r2, [r3, #42]	@ 0x2a

          /* Read data from DR */
          *hi2c->pBuffPtr = (uint8_t)hi2c->Instance->DR;
 8003f52:	68fb      	ldr	r3, [r7, #12]
 8003f54:	681b      	ldr	r3, [r3, #0]
 8003f56:	691a      	ldr	r2, [r3, #16]
 8003f58:	68fb      	ldr	r3, [r7, #12]
 8003f5a:	6a5b      	ldr	r3, [r3, #36]	@ 0x24
 8003f5c:	b2d2      	uxtb	r2, r2
 8003f5e:	701a      	strb	r2, [r3, #0]

          /* Increment Buffer pointer */
          hi2c->pBuffPtr++;
 8003f60:	68fb      	ldr	r3, [r7, #12]
 8003f62:	6a5b      	ldr	r3, [r3, #36]	@ 0x24
 8003f64:	1c5a      	adds	r2, r3, #1
 8003f66:	68fb      	ldr	r3, [r7, #12]
 8003f68:	625a      	str	r2, [r3, #36]	@ 0x24

          /* Update counter */
          hi2c->XferSize--;
 8003f6a:	68fb      	ldr	r3, [r7, #12]
 8003f6c:	8d1b      	ldrh	r3, [r3, #40]	@ 0x28
 8003f6e:	3b01      	subs	r3, #1
 8003f70:	b29a      	uxth	r2, r3
 8003f72:	68fb      	ldr	r3, [r7, #12]
 8003f74:	851a      	strh	r2, [r3, #40]	@ 0x28
          hi2c->XferCount--;
 8003f76:	68fb      	ldr	r3, [r7, #12]
 8003f78:	8d5b      	ldrh	r3, [r3, #42]	@ 0x2a
 8003f7a:	b29b      	uxth	r3, r3
 8003f7c:	3b01      	subs	r3, #1
 8003f7e:	b29a      	uxth	r2, r3
 8003f80:	68fb      	ldr	r3, [r7, #12]
 8003f82:	855a      	strh	r2, [r3, #42]	@ 0x2a
 8003f84:	e04e      	b.n	8004024 <HAL_I2C_Master_Receive+0x430>
        }
      }
      else
      {
        /* Wait until RXNE flag is set */
        if (I2C_WaitOnRXNEFlagUntilTimeout(hi2c, Timeout, tickstart) != HAL_OK)
 8003f86:	6a7a      	ldr	r2, [r7, #36]	@ 0x24
 8003f88:	6b39      	ldr	r1, [r7, #48]	@ 0x30
 8003f8a:	68f8      	ldr	r0, [r7, #12]
 8003f8c:	f000 fb5e 	bl	800464c <I2C_WaitOnRXNEFlagUntilTimeout>
 8003f90:	4603      	mov	r3, r0
 8003f92:	2b00      	cmp	r3, #0
 8003f94:	d001      	beq.n	8003f9a <HAL_I2C_Master_Receive+0x3a6>
        {
          return HAL_ERROR;
 8003f96:	2301      	movs	r3, #1
 8003f98:	e058      	b.n	800404c <HAL_I2C_Master_Receive+0x458>
        }

        /* Read data from DR */
        *hi2c->pBuffPtr = (uint8_t)hi2c->Instance->DR;
 8003f9a:	68fb      	ldr	r3, [r7, #12]
 8003f9c:	681b      	ldr	r3, [r3, #0]
 8003f9e:	691a      	ldr	r2, [r3, #16]
 8003fa0:	68fb      	ldr	r3, [r7, #12]
 8003fa2:	6a5b      	ldr	r3, [r3, #36]	@ 0x24
 8003fa4:	b2d2      	uxtb	r2, r2
 8003fa6:	701a      	strb	r2, [r3, #0]

        /* Increment Buffer pointer */
        hi2c->pBuffPtr++;
 8003fa8:	68fb      	ldr	r3, [r7, #12]
 8003faa:	6a5b      	ldr	r3, [r3, #36]	@ 0x24
 8003fac:	1c5a      	adds	r2, r3, #1
 8003fae:	68fb      	ldr	r3, [r7, #12]
 8003fb0:	625a      	str	r2, [r3, #36]	@ 0x24

        /* Update counter */
        hi2c->XferSize--;
 8003fb2:	68fb      	ldr	r3, [r7, #12]
 8003fb4:	8d1b      	ldrh	r3, [r3, #40]	@ 0x28
 8003fb6:	3b01      	subs	r3, #1
 8003fb8:	b29a      	uxth	r2, r3
 8003fba:	68fb      	ldr	r3, [r7, #12]
 8003fbc:	851a      	strh	r2, [r3, #40]	@ 0x28
        hi2c->XferCount--;
 8003fbe:	68fb      	ldr	r3, [r7, #12]
 8003fc0:	8d5b      	ldrh	r3, [r3, #42]	@ 0x2a
 8003fc2:	b29b      	uxth	r3, r3
 8003fc4:	3b01      	subs	r3, #1
 8003fc6:	b29a      	uxth	r2, r3
 8003fc8:	68fb      	ldr	r3, [r7, #12]
 8003fca:	855a      	strh	r2, [r3, #42]	@ 0x2a

        if (__HAL_I2C_GET_FLAG(hi2c, I2C_FLAG_BTF) == SET)
 8003fcc:	68fb      	ldr	r3, [r7, #12]
 8003fce:	681b      	ldr	r3, [r3, #0]
 8003fd0:	695b      	ldr	r3, [r3, #20]
 8003fd2:	f003 0304 	and.w	r3, r3, #4
 8003fd6:	2b04      	cmp	r3, #4
 8003fd8:	d124      	bne.n	8004024 <HAL_I2C_Master_Receive+0x430>
        {

          if (hi2c->XferSize == 3U)
 8003fda:	68fb      	ldr	r3, [r7, #12]
 8003fdc:	8d1b      	ldrh	r3, [r3, #40]	@ 0x28
 8003fde:	2b03      	cmp	r3, #3
 8003fe0:	d107      	bne.n	8003ff2 <HAL_I2C_Master_Receive+0x3fe>
          {
            /* Disable Acknowledge */
            CLEAR_BIT(hi2c->Instance->CR1, I2C_CR1_ACK);
 8003fe2:	68fb      	ldr	r3, [r7, #12]
 8003fe4:	681b      	ldr	r3, [r3, #0]
 8003fe6:	681a      	ldr	r2, [r3, #0]
 8003fe8:	68fb      	ldr	r3, [r7, #12]
 8003fea:	681b      	ldr	r3, [r3, #0]
 8003fec:	f422 6280 	bic.w	r2, r2, #1024	@ 0x400
 8003ff0:	601a      	str	r2, [r3, #0]
          }

          /* Read data from DR */
          *hi2c->pBuffPtr = (uint8_t)hi2c->Instance->DR;
 8003ff2:	68fb      	ldr	r3, [r7, #12]
 8003ff4:	681b      	ldr	r3, [r3, #0]
 8003ff6:	691a      	ldr	r2, [r3, #16]
 8003ff8:	68fb      	ldr	r3, [r7, #12]
 8003ffa:	6a5b      	ldr	r3, [r3, #36]	@ 0x24
 8003ffc:	b2d2      	uxtb	r2, r2
 8003ffe:	701a      	strb	r2, [r3, #0]

          /* Increment Buffer pointer */
          hi2c->pBuffPtr++;
 8004000:	68fb      	ldr	r3, [r7, #12]
 8004002:	6a5b      	ldr	r3, [r3, #36]	@ 0x24
 8004004:	1c5a      	adds	r2, r3, #1
 8004006:	68fb      	ldr	r3, [r7, #12]
 8004008:	625a      	str	r2, [r3, #36]	@ 0x24

          /* Update counter */
          hi2c->XferSize--;
 800400a:	68fb      	ldr	r3, [r7, #12]
 800400c:	8d1b      	ldrh	r3, [r3, #40]	@ 0x28
 800400e:	3b01      	subs	r3, #1
 8004010:	b29a      	uxth	r2, r3
 8004012:	68fb      	ldr	r3, [r7, #12]
 8004014:	851a      	strh	r2, [r3, #40]	@ 0x28
          hi2c->XferCount--;
 8004016:	68fb      	ldr	r3, [r7, #12]
 8004018:	8d5b      	ldrh	r3, [r3, #42]	@ 0x2a
 800401a:	b29b      	uxth	r3, r3
 800401c:	3b01      	subs	r3, #1
 800401e:	b29a      	uxth	r2, r3
 8004020:	68fb      	ldr	r3, [r7, #12]
 8004022:	855a      	strh	r2, [r3, #42]	@ 0x2a
    while (hi2c->XferSize > 0U)
 8004024:	68fb      	ldr	r3, [r7, #12]
 8004026:	8d1b      	ldrh	r3, [r3, #40]	@ 0x28
 8004028:	2b00      	cmp	r3, #0
 800402a:	f47f aeb6 	bne.w	8003d9a <HAL_I2C_Master_Receive+0x1a6>
        }
      }
    }

    hi2c->State = HAL_I2C_STATE_READY;
 800402e:	68fb      	ldr	r3, [r7, #12]
 8004030:	2220      	movs	r2, #32
 8004032:	f883 203d 	strb.w	r2, [r3, #61]	@ 0x3d
    hi2c->Mode = HAL_I2C_MODE_NONE;
 8004036:	68fb      	ldr	r3, [r7, #12]
 8004038:	2200      	movs	r2, #0
 800403a:	f883 203e 	strb.w	r2, [r3, #62]	@ 0x3e

    /* Process Unlocked */
    __HAL_UNLOCK(hi2c);
 800403e:	68fb      	ldr	r3, [r7, #12]
 8004040:	2200      	movs	r2, #0
 8004042:	f883 203c 	strb.w	r2, [r3, #60]	@ 0x3c

    return HAL_OK;
 8004046:	2300      	movs	r3, #0
 8004048:	e000      	b.n	800404c <HAL_I2C_Master_Receive+0x458>
  }
  else
  {
    return HAL_BUSY;
 800404a:	2302      	movs	r3, #2
  }
}
 800404c:	4618      	mov	r0, r3
 800404e:	3728      	adds	r7, #40	@ 0x28
 8004050:	46bd      	mov	sp, r7
 8004052:	bd80      	pop	{r7, pc}
 8004054:	00010004 	.word	0x00010004

08004058 <I2C_MasterRequestWrite>:
  * @param  Timeout Timeout duration
  * @param  Tickstart Tick start value
  * @retval HAL status
  */
static HAL_StatusTypeDef I2C_MasterRequestWrite(I2C_HandleTypeDef *hi2c, uint16_t DevAddress, uint32_t Timeout, uint32_t Tickstart)
{
 8004058:	b580      	push	{r7, lr}
 800405a:	b088      	sub	sp, #32
 800405c:	af02      	add	r7, sp, #8
 800405e:	60f8      	str	r0, [r7, #12]
 8004060:	607a      	str	r2, [r7, #4]
 8004062:	603b      	str	r3, [r7, #0]
 8004064:	460b      	mov	r3, r1
 8004066:	817b      	strh	r3, [r7, #10]
  /* Declaration of temporary variable to prevent undefined behavior of volatile usage */
  uint32_t CurrentXferOptions = hi2c->XferOptions;
 8004068:	68fb      	ldr	r3, [r7, #12]
 800406a:	6adb      	ldr	r3, [r3, #44]	@ 0x2c
 800406c:	617b      	str	r3, [r7, #20]

  /* Generate Start condition if first transfer */
  if ((CurrentXferOptions == I2C_FIRST_AND_LAST_FRAME) || (CurrentXferOptions == I2C_FIRST_FRAME) || (CurrentXferOptions == I2C_NO_OPTION_FRAME))
 800406e:	697b      	ldr	r3, [r7, #20]
 8004070:	2b08      	cmp	r3, #8
 8004072:	d006      	beq.n	8004082 <I2C_MasterRequestWrite+0x2a>
 8004074:	697b      	ldr	r3, [r7, #20]
 8004076:	2b01      	cmp	r3, #1
 8004078:	d003      	beq.n	8004082 <I2C_MasterRequestWrite+0x2a>
 800407a:	697b      	ldr	r3, [r7, #20]
 800407c:	f513 3f80 	cmn.w	r3, #65536	@ 0x10000
 8004080:	d108      	bne.n	8004094 <I2C_MasterRequestWrite+0x3c>
  {
    /* Generate Start */
    SET_BIT(hi2c->Instance->CR1, I2C_CR1_START);
 8004082:	68fb      	ldr	r3, [r7, #12]
 8004084:	681b      	ldr	r3, [r3, #0]
 8004086:	681a      	ldr	r2, [r3, #0]
 8004088:	68fb      	ldr	r3, [r7, #12]
 800408a:	681b      	ldr	r3, [r3, #0]
 800408c:	f442 7280 	orr.w	r2, r2, #256	@ 0x100
 8004090:	601a      	str	r2, [r3, #0]
 8004092:	e00b      	b.n	80040ac <I2C_MasterRequestWrite+0x54>
  }
  else if (hi2c->PreviousState == I2C_STATE_MASTER_BUSY_RX)
 8004094:	68fb      	ldr	r3, [r7, #12]
 8004096:	6b1b      	ldr	r3, [r3, #48]	@ 0x30
 8004098:	2b12      	cmp	r3, #18
 800409a:	d107      	bne.n	80040ac <I2C_MasterRequestWrite+0x54>
  {
    /* Generate ReStart */
    SET_BIT(hi2c->Instance->CR1, I2C_CR1_START);
 800409c:	68fb      	ldr	r3, [r7, #12]
 800409e:	681b      	ldr	r3, [r3, #0]
 80040a0:	681a      	ldr	r2, [r3, #0]
 80040a2:	68fb      	ldr	r3, [r7, #12]
 80040a4:	681b      	ldr	r3, [r3, #0]
 80040a6:	f442 7280 	orr.w	r2, r2, #256	@ 0x100
 80040aa:	601a      	str	r2, [r3, #0]
  {
    /* Do nothing */
  }

  /* Wait until SB flag is set */
  if (I2C_WaitOnFlagUntilTimeout(hi2c, I2C_FLAG_SB, RESET, Timeout, Tickstart) != HAL_OK)
 80040ac:	683b      	ldr	r3, [r7, #0]
 80040ae:	9300      	str	r3, [sp, #0]
 80040b0:	687b      	ldr	r3, [r7, #4]
 80040b2:	2200      	movs	r2, #0
 80040b4:	f04f 1101 	mov.w	r1, #65537	@ 0x10001
 80040b8:	68f8      	ldr	r0, [r7, #12]
 80040ba:	f000 f91d 	bl	80042f8 <I2C_WaitOnFlagUntilTimeout>
 80040be:	4603      	mov	r3, r0
 80040c0:	2b00      	cmp	r3, #0
 80040c2:	d00d      	beq.n	80040e0 <I2C_MasterRequestWrite+0x88>
  {
    if (READ_BIT(hi2c->Instance->CR1, I2C_CR1_START) == I2C_CR1_START)
 80040c4:	68fb      	ldr	r3, [r7, #12]
 80040c6:	681b      	ldr	r3, [r3, #0]
 80040c8:	681b      	ldr	r3, [r3, #0]
 80040ca:	f403 7380 	and.w	r3, r3, #256	@ 0x100
 80040ce:	f5b3 7f80 	cmp.w	r3, #256	@ 0x100
 80040d2:	d103      	bne.n	80040dc <I2C_MasterRequestWrite+0x84>
    {
      hi2c->ErrorCode = HAL_I2C_WRONG_START;
 80040d4:	68fb      	ldr	r3, [r7, #12]
 80040d6:	f44f 7200 	mov.w	r2, #512	@ 0x200
 80040da:	641a      	str	r2, [r3, #64]	@ 0x40
    }
    return HAL_TIMEOUT;
 80040dc:	2303      	movs	r3, #3
 80040de:	e035      	b.n	800414c <I2C_MasterRequestWrite+0xf4>
  }

  if (hi2c->Init.AddressingMode == I2C_ADDRESSINGMODE_7BIT)
 80040e0:	68fb      	ldr	r3, [r7, #12]
 80040e2:	691b      	ldr	r3, [r3, #16]
 80040e4:	f5b3 4f80 	cmp.w	r3, #16384	@ 0x4000
 80040e8:	d108      	bne.n	80040fc <I2C_MasterRequestWrite+0xa4>
  {
    /* Send slave address */
    hi2c->Instance->DR = I2C_7BIT_ADD_WRITE(DevAddress);
 80040ea:	897b      	ldrh	r3, [r7, #10]
 80040ec:	b2db      	uxtb	r3, r3
 80040ee:	461a      	mov	r2, r3
 80040f0:	68fb      	ldr	r3, [r7, #12]
 80040f2:	681b      	ldr	r3, [r3, #0]
 80040f4:	f002 02fe 	and.w	r2, r2, #254	@ 0xfe
 80040f8:	611a      	str	r2, [r3, #16]
 80040fa:	e01b      	b.n	8004134 <I2C_MasterRequestWrite+0xdc>
  }
  else
  {
    /* Send header of slave address */
    hi2c->Instance->DR = I2C_10BIT_HEADER_WRITE(DevAddress);
 80040fc:	897b      	ldrh	r3, [r7, #10]
 80040fe:	11db      	asrs	r3, r3, #7
 8004100:	b2db      	uxtb	r3, r3
 8004102:	f003 0306 	and.w	r3, r3, #6
 8004106:	b2db      	uxtb	r3, r3
 8004108:	f063 030f 	orn	r3, r3, #15
 800410c:	b2da      	uxtb	r2, r3
 800410e:	68fb      	ldr	r3, [r7, #12]
 8004110:	681b      	ldr	r3, [r3, #0]
 8004112:	611a      	str	r2, [r3, #16]

    /* Wait until ADD10 flag is set */
    if (I2C_WaitOnMasterAddressFlagUntilTimeout(hi2c, I2C_FLAG_ADD10, Timeout, Tickstart) != HAL_OK)
 8004114:	683b      	ldr	r3, [r7, #0]
 8004116:	687a      	ldr	r2, [r7, #4]
 8004118:	490e      	ldr	r1, [pc, #56]	@ (8004154 <I2C_MasterRequestWrite+0xfc>)
 800411a:	68f8      	ldr	r0, [r7, #12]
 800411c:	f000 f966 	bl	80043ec <I2C_WaitOnMasterAddressFlagUntilTimeout>
 8004120:	4603      	mov	r3, r0
 8004122:	2b00      	cmp	r3, #0
 8004124:	d001      	beq.n	800412a <I2C_MasterRequestWrite+0xd2>
    {
      return HAL_ERROR;
 8004126:	2301      	movs	r3, #1
 8004128:	e010      	b.n	800414c <I2C_MasterRequestWrite+0xf4>
    }

    /* Send slave address */
    hi2c->Instance->DR = I2C_10BIT_ADDRESS(DevAddress);
 800412a:	897b      	ldrh	r3, [r7, #10]
 800412c:	b2da      	uxtb	r2, r3
 800412e:	68fb      	ldr	r3, [r7, #12]
 8004130:	681b      	ldr	r3, [r3, #0]
 8004132:	611a      	str	r2, [r3, #16]
  }

  /* Wait until ADDR flag is set */
  if (I2C_WaitOnMasterAddressFlagUntilTimeout(hi2c, I2C_FLAG_ADDR, Timeout, Tickstart) != HAL_OK)
 8004134:	683b      	ldr	r3, [r7, #0]
 8004136:	687a      	ldr	r2, [r7, #4]
 8004138:	4907      	ldr	r1, [pc, #28]	@ (8004158 <I2C_MasterRequestWrite+0x100>)
 800413a:	68f8      	ldr	r0, [r7, #12]
 800413c:	f000 f956 	bl	80043ec <I2C_WaitOnMasterAddressFlagUntilTimeout>
 8004140:	4603      	mov	r3, r0
 8004142:	2b00      	cmp	r3, #0
 8004144:	d001      	beq.n	800414a <I2C_MasterRequestWrite+0xf2>
  {
    return HAL_ERROR;
 8004146:	2301      	movs	r3, #1
 8004148:	e000      	b.n	800414c <I2C_MasterRequestWrite+0xf4>
  }

  return HAL_OK;
 800414a:	2300      	movs	r3, #0
}
 800414c:	4618      	mov	r0, r3
 800414e:	3718      	adds	r7, #24
 8004150:	46bd      	mov	sp, r7
 8004152:	bd80      	pop	{r7, pc}
 8004154:	00010008 	.word	0x00010008
 8004158:	00010002 	.word	0x00010002

0800415c <I2C_MasterRequestRead>:
  * @param  Timeout Timeout duration
  * @param  Tickstart Tick start value
  * @retval HAL status
  */
static HAL_StatusTypeDef I2C_MasterRequestRead(I2C_HandleTypeDef *hi2c, uint16_t DevAddress, uint32_t Timeout, uint32_t Tickstart)
{
 800415c:	b580      	push	{r7, lr}
 800415e:	b088      	sub	sp, #32
 8004160:	af02      	add	r7, sp, #8
 8004162:	60f8      	str	r0, [r7, #12]
 8004164:	607a      	str	r2, [r7, #4]
 8004166:	603b      	str	r3, [r7, #0]
 8004168:	460b      	mov	r3, r1
 800416a:	817b      	strh	r3, [r7, #10]
  /* Declaration of temporary variable to prevent undefined behavior of volatile usage */
  uint32_t CurrentXferOptions = hi2c->XferOptions;
 800416c:	68fb      	ldr	r3, [r7, #12]
 800416e:	6adb      	ldr	r3, [r3, #44]	@ 0x2c
 8004170:	617b      	str	r3, [r7, #20]

  /* Enable Acknowledge */
  SET_BIT(hi2c->Instance->CR1, I2C_CR1_ACK);
 8004172:	68fb      	ldr	r3, [r7, #12]
 8004174:	681b      	ldr	r3, [r3, #0]
 8004176:	681a      	ldr	r2, [r3, #0]
 8004178:	68fb      	ldr	r3, [r7, #12]
 800417a:	681b      	ldr	r3, [r3, #0]
 800417c:	f442 6280 	orr.w	r2, r2, #1024	@ 0x400
 8004180:	601a      	str	r2, [r3, #0]

  /* Generate Start condition if first transfer */
  if ((CurrentXferOptions == I2C_FIRST_AND_LAST_FRAME) || (CurrentXferOptions == I2C_FIRST_FRAME)  || (CurrentXferOptions == I2C_NO_OPTION_FRAME))
 8004182:	697b      	ldr	r3, [r7, #20]
 8004184:	2b08      	cmp	r3, #8
 8004186:	d006      	beq.n	8004196 <I2C_MasterRequestRead+0x3a>
 8004188:	697b      	ldr	r3, [r7, #20]
 800418a:	2b01      	cmp	r3, #1
 800418c:	d003      	beq.n	8004196 <I2C_MasterRequestRead+0x3a>
 800418e:	697b      	ldr	r3, [r7, #20]
 8004190:	f513 3f80 	cmn.w	r3, #65536	@ 0x10000
 8004194:	d108      	bne.n	80041a8 <I2C_MasterRequestRead+0x4c>
  {
    /* Generate Start */
    SET_BIT(hi2c->Instance->CR1, I2C_CR1_START);
 8004196:	68fb      	ldr	r3, [r7, #12]
 8004198:	681b      	ldr	r3, [r3, #0]
 800419a:	681a      	ldr	r2, [r3, #0]
 800419c:	68fb      	ldr	r3, [r7, #12]
 800419e:	681b      	ldr	r3, [r3, #0]
 80041a0:	f442 7280 	orr.w	r2, r2, #256	@ 0x100
 80041a4:	601a      	str	r2, [r3, #0]
 80041a6:	e00b      	b.n	80041c0 <I2C_MasterRequestRead+0x64>
  }
  else if (hi2c->PreviousState == I2C_STATE_MASTER_BUSY_TX)
 80041a8:	68fb      	ldr	r3, [r7, #12]
 80041aa:	6b1b      	ldr	r3, [r3, #48]	@ 0x30
 80041ac:	2b11      	cmp	r3, #17
 80041ae:	d107      	bne.n	80041c0 <I2C_MasterRequestRead+0x64>
  {
    /* Generate ReStart */
    SET_BIT(hi2c->Instance->CR1, I2C_CR1_START);
 80041b0:	68fb      	ldr	r3, [r7, #12]
 80041b2:	681b      	ldr	r3, [r3, #0]
 80041b4:	681a      	ldr	r2, [r3, #0]
 80041b6:	68fb      	ldr	r3, [r7, #12]
 80041b8:	681b      	ldr	r3, [r3, #0]
 80041ba:	f442 7280 	orr.w	r2, r2, #256	@ 0x100
 80041be:	601a      	str	r2, [r3, #0]
  {
    /* Do nothing */
  }

  /* Wait until SB flag is set */
  if (I2C_WaitOnFlagUntilTimeout(hi2c, I2C_FLAG_SB, RESET, Timeout, Tickstart) != HAL_OK)
 80041c0:	683b      	ldr	r3, [r7, #0]
 80041c2:	9300      	str	r3, [sp, #0]
 80041c4:	687b      	ldr	r3, [r7, #4]
 80041c6:	2200      	movs	r2, #0
 80041c8:	f04f 1101 	mov.w	r1, #65537	@ 0x10001
 80041cc:	68f8      	ldr	r0, [r7, #12]
 80041ce:	f000 f893 	bl	80042f8 <I2C_WaitOnFlagUntilTimeout>
 80041d2:	4603      	mov	r3, r0
 80041d4:	2b00      	cmp	r3, #0
 80041d6:	d00d      	beq.n	80041f4 <I2C_MasterRequestRead+0x98>
  {
    if (READ_BIT(hi2c->Instance->CR1, I2C_CR1_START) == I2C_CR1_START)
 80041d8:	68fb      	ldr	r3, [r7, #12]
 80041da:	681b      	ldr	r3, [r3, #0]
 80041dc:	681b      	ldr	r3, [r3, #0]
 80041de:	f403 7380 	and.w	r3, r3, #256	@ 0x100
 80041e2:	f5b3 7f80 	cmp.w	r3, #256	@ 0x100
 80041e6:	d103      	bne.n	80041f0 <I2C_MasterRequestRead+0x94>
    {
      hi2c->ErrorCode = HAL_I2C_WRONG_START;
 80041e8:	68fb      	ldr	r3, [r7, #12]
 80041ea:	f44f 7200 	mov.w	r2, #512	@ 0x200
 80041ee:	641a      	str	r2, [r3, #64]	@ 0x40
    }
    return HAL_TIMEOUT;
 80041f0:	2303      	movs	r3, #3
 80041f2:	e079      	b.n	80042e8 <I2C_MasterRequestRead+0x18c>
  }

  if (hi2c->Init.AddressingMode == I2C_ADDRESSINGMODE_7BIT)
 80041f4:	68fb      	ldr	r3, [r7, #12]
 80041f6:	691b      	ldr	r3, [r3, #16]
 80041f8:	f5b3 4f80 	cmp.w	r3, #16384	@ 0x4000
 80041fc:	d108      	bne.n	8004210 <I2C_MasterRequestRead+0xb4>
  {
    /* Send slave address */
    hi2c->Instance->DR = I2C_7BIT_ADD_READ(DevAddress);
 80041fe:	897b      	ldrh	r3, [r7, #10]
 8004200:	b2db      	uxtb	r3, r3
 8004202:	f043 0301 	orr.w	r3, r3, #1
 8004206:	b2da      	uxtb	r2, r3
 8004208:	68fb      	ldr	r3, [r7, #12]
 800420a:	681b      	ldr	r3, [r3, #0]
 800420c:	611a      	str	r2, [r3, #16]
 800420e:	e05f      	b.n	80042d0 <I2C_MasterRequestRead+0x174>
  }
  else
  {
    /* Send header of slave address */
    hi2c->Instance->DR = I2C_10BIT_HEADER_WRITE(DevAddress);
 8004210:	897b      	ldrh	r3, [r7, #10]
 8004212:	11db      	asrs	r3, r3, #7
 8004214:	b2db      	uxtb	r3, r3
 8004216:	f003 0306 	and.w	r3, r3, #6
 800421a:	b2db      	uxtb	r3, r3
 800421c:	f063 030f 	orn	r3, r3, #15
 8004220:	b2da      	uxtb	r2, r3
 8004222:	68fb      	ldr	r3, [r7, #12]
 8004224:	681b      	ldr	r3, [r3, #0]
 8004226:	611a      	str	r2, [r3, #16]

    /* Wait until ADD10 flag is set */
    if (I2C_WaitOnMasterAddressFlagUntilTimeout(hi2c, I2C_FLAG_ADD10, Timeout, Tickstart) != HAL_OK)
 8004228:	683b      	ldr	r3, [r7, #0]
 800422a:	687a      	ldr	r2, [r7, #4]
 800422c:	4930      	ldr	r1, [pc, #192]	@ (80042f0 <I2C_MasterRequestRead+0x194>)
 800422e:	68f8      	ldr	r0, [r7, #12]
 8004230:	f000 f8dc 	bl	80043ec <I2C_WaitOnMasterAddressFlagUntilTimeout>
 8004234:	4603      	mov	r3, r0
 8004236:	2b00      	cmp	r3, #0
 8004238:	d001      	beq.n	800423e <I2C_MasterRequestRead+0xe2>
    {
      return HAL_ERROR;
 800423a:	2301      	movs	r3, #1
 800423c:	e054      	b.n	80042e8 <I2C_MasterRequestRead+0x18c>
    }

    /* Send slave address */
    hi2c->Instance->DR = I2C_10BIT_ADDRESS(DevAddress);
 800423e:	897b      	ldrh	r3, [r7, #10]
 8004240:	b2da      	uxtb	r2, r3
 8004242:	68fb      	ldr	r3, [r7, #12]
 8004244:	681b      	ldr	r3, [r3, #0]
 8004246:	611a      	str	r2, [r3, #16]

    /* Wait until ADDR flag is set */
    if (I2C_WaitOnMasterAddressFlagUntilTimeout(hi2c, I2C_FLAG_ADDR, Timeout, Tickstart) != HAL_OK)
 8004248:	683b      	ldr	r3, [r7, #0]
 800424a:	687a      	ldr	r2, [r7, #4]
 800424c:	4929      	ldr	r1, [pc, #164]	@ (80042f4 <I2C_MasterRequestRead+0x198>)
 800424e:	68f8      	ldr	r0, [r7, #12]
 8004250:	f000 f8cc 	bl	80043ec <I2C_WaitOnMasterAddressFlagUntilTimeout>
 8004254:	4603      	mov	r3, r0
 8004256:	2b00      	cmp	r3, #0
 8004258:	d001      	beq.n	800425e <I2C_MasterRequestRead+0x102>
    {
      return HAL_ERROR;
 800425a:	2301      	movs	r3, #1
 800425c:	e044      	b.n	80042e8 <I2C_MasterRequestRead+0x18c>
    }

    /* Clear ADDR flag */
    __HAL_I2C_CLEAR_ADDRFLAG(hi2c);
 800425e:	2300      	movs	r3, #0
 8004260:	613b      	str	r3, [r7, #16]
 8004262:	68fb      	ldr	r3, [r7, #12]
 8004264:	681b      	ldr	r3, [r3, #0]
 8004266:	695b      	ldr	r3, [r3, #20]
 8004268:	613b      	str	r3, [r7, #16]
 800426a:	68fb      	ldr	r3, [r7, #12]
 800426c:	681b      	ldr	r3, [r3, #0]
 800426e:	699b      	ldr	r3, [r3, #24]
 8004270:	613b      	str	r3, [r7, #16]
 8004272:	693b      	ldr	r3, [r7, #16]

    /* Generate Restart */
    SET_BIT(hi2c->Instance->CR1, I2C_CR1_START);
 8004274:	68fb      	ldr	r3, [r7, #12]
 8004276:	681b      	ldr	r3, [r3, #0]
 8004278:	681a      	ldr	r2, [r3, #0]
 800427a:	68fb      	ldr	r3, [r7, #12]
 800427c:	681b      	ldr	r3, [r3, #0]
 800427e:	f442 7280 	orr.w	r2, r2, #256	@ 0x100
 8004282:	601a      	str	r2, [r3, #0]

    /* Wait until SB flag is set */
    if (I2C_WaitOnFlagUntilTimeout(hi2c, I2C_FLAG_SB, RESET, Timeout, Tickstart) != HAL_OK)
 8004284:	683b      	ldr	r3, [r7, #0]
 8004286:	9300      	str	r3, [sp, #0]
 8004288:	687b      	ldr	r3, [r7, #4]
 800428a:	2200      	movs	r2, #0
 800428c:	f04f 1101 	mov.w	r1, #65537	@ 0x10001
 8004290:	68f8      	ldr	r0, [r7, #12]
 8004292:	f000 f831 	bl	80042f8 <I2C_WaitOnFlagUntilTimeout>
 8004296:	4603      	mov	r3, r0
 8004298:	2b00      	cmp	r3, #0
 800429a:	d00d      	beq.n	80042b8 <I2C_MasterRequestRead+0x15c>
    {
      if (READ_BIT(hi2c->Instance->CR1, I2C_CR1_START) == I2C_CR1_START)
 800429c:	68fb      	ldr	r3, [r7, #12]
 800429e:	681b      	ldr	r3, [r3, #0]
 80042a0:	681b      	ldr	r3, [r3, #0]
 80042a2:	f403 7380 	and.w	r3, r3, #256	@ 0x100
 80042a6:	f5b3 7f80 	cmp.w	r3, #256	@ 0x100
 80042aa:	d103      	bne.n	80042b4 <I2C_MasterRequestRead+0x158>
      {
        hi2c->ErrorCode = HAL_I2C_WRONG_START;
 80042ac:	68fb      	ldr	r3, [r7, #12]
 80042ae:	f44f 7200 	mov.w	r2, #512	@ 0x200
 80042b2:	641a      	str	r2, [r3, #64]	@ 0x40
      }
      return HAL_TIMEOUT;
 80042b4:	2303      	movs	r3, #3
 80042b6:	e017      	b.n	80042e8 <I2C_MasterRequestRead+0x18c>
    }

    /* Send header of slave address */
    hi2c->Instance->DR = I2C_10BIT_HEADER_READ(DevAddress);
 80042b8:	897b      	ldrh	r3, [r7, #10]
 80042ba:	11db      	asrs	r3, r3, #7
 80042bc:	b2db      	uxtb	r3, r3
 80042be:	f003 0306 	and.w	r3, r3, #6
 80042c2:	b2db      	uxtb	r3, r3
 80042c4:	f063 030e 	orn	r3, r3, #14
 80042c8:	b2da      	uxtb	r2, r3
 80042ca:	68fb      	ldr	r3, [r7, #12]
 80042cc:	681b      	ldr	r3, [r3, #0]
 80042ce:	611a      	str	r2, [r3, #16]
  }

  /* Wait until ADDR flag is set */
  if (I2C_WaitOnMasterAddressFlagUntilTimeout(hi2c, I2C_FLAG_ADDR, Timeout, Tickstart) != HAL_OK)
 80042d0:	683b      	ldr	r3, [r7, #0]
 80042d2:	687a      	ldr	r2, [r7, #4]
 80042d4:	4907      	ldr	r1, [pc, #28]	@ (80042f4 <I2C_MasterRequestRead+0x198>)
 80042d6:	68f8      	ldr	r0, [r7, #12]
 80042d8:	f000 f888 	bl	80043ec <I2C_WaitOnMasterAddressFlagUntilTimeout>
 80042dc:	4603      	mov	r3, r0
 80042de:	2b00      	cmp	r3, #0
 80042e0:	d001      	beq.n	80042e6 <I2C_MasterRequestRead+0x18a>
  {
    return HAL_ERROR;
 80042e2:	2301      	movs	r3, #1
 80042e4:	e000      	b.n	80042e8 <I2C_MasterRequestRead+0x18c>
  }

  return HAL_OK;
 80042e6:	2300      	movs	r3, #0
}
 80042e8:	4618      	mov	r0, r3
 80042ea:	3718      	adds	r7, #24
 80042ec:	46bd      	mov	sp, r7
 80042ee:	bd80      	pop	{r7, pc}
 80042f0:	00010008 	.word	0x00010008
 80042f4:	00010002 	.word	0x00010002

080042f8 <I2C_WaitOnFlagUntilTimeout>:
  * @param  Timeout Timeout duration
  * @param  Tickstart Tick start value
  * @retval HAL status
  */
static HAL_StatusTypeDef I2C_WaitOnFlagUntilTimeout(I2C_HandleTypeDef *hi2c, uint32_t Flag, FlagStatus Status, uint32_t Timeout, uint32_t Tickstart)
{
 80042f8:	b580      	push	{r7, lr}
 80042fa:	b084      	sub	sp, #16
 80042fc:	af00      	add	r7, sp, #0
 80042fe:	60f8      	str	r0, [r7, #12]
 8004300:	60b9      	str	r1, [r7, #8]
 8004302:	603b      	str	r3, [r7, #0]
 8004304:	4613      	mov	r3, r2
 8004306:	71fb      	strb	r3, [r7, #7]
  /* Wait until flag is set */
  while (__HAL_I2C_GET_FLAG(hi2c, Flag) == Status)
 8004308:	e048      	b.n	800439c <I2C_WaitOnFlagUntilTimeout+0xa4>
  {
    /* Check for the Timeout */
    if (Timeout != HAL_MAX_DELAY)
 800430a:	683b      	ldr	r3, [r7, #0]
 800430c:	f1b3 3fff 	cmp.w	r3, #4294967295
 8004310:	d044      	beq.n	800439c <I2C_WaitOnFlagUntilTimeout+0xa4>
    {
      if (((HAL_GetTick() - Tickstart) > Timeout) || (Timeout == 0U))
 8004312:	f7fe fa95 	bl	8002840 <HAL_GetTick>
 8004316:	4602      	mov	r2, r0
 8004318:	69bb      	ldr	r3, [r7, #24]
 800431a:	1ad3      	subs	r3, r2, r3
 800431c:	683a      	ldr	r2, [r7, #0]
 800431e:	429a      	cmp	r2, r3
 8004320:	d302      	bcc.n	8004328 <I2C_WaitOnFlagUntilTimeout+0x30>
 8004322:	683b      	ldr	r3, [r7, #0]
 8004324:	2b00      	cmp	r3, #0
 8004326:	d139      	bne.n	800439c <I2C_WaitOnFlagUntilTimeout+0xa4>
      {
        if ((__HAL_I2C_GET_FLAG(hi2c, Flag) == Status))
 8004328:	68bb      	ldr	r3, [r7, #8]
 800432a:	0c1b      	lsrs	r3, r3, #16
 800432c:	b2db      	uxtb	r3, r3
 800432e:	2b01      	cmp	r3, #1
 8004330:	d10d      	bne.n	800434e <I2C_WaitOnFlagUntilTimeout+0x56>
 8004332:	68fb      	ldr	r3, [r7, #12]
 8004334:	681b      	ldr	r3, [r3, #0]
 8004336:	695b      	ldr	r3, [r3, #20]
 8004338:	43da      	mvns	r2, r3
 800433a:	68bb      	ldr	r3, [r7, #8]
 800433c:	4013      	ands	r3, r2
 800433e:	b29b      	uxth	r3, r3
 8004340:	2b00      	cmp	r3, #0
 8004342:	bf0c      	ite	eq
 8004344:	2301      	moveq	r3, #1
 8004346:	2300      	movne	r3, #0
 8004348:	b2db      	uxtb	r3, r3
 800434a:	461a      	mov	r2, r3
 800434c:	e00c      	b.n	8004368 <I2C_WaitOnFlagUntilTimeout+0x70>
 800434e:	68fb      	ldr	r3, [r7, #12]
 8004350:	681b      	ldr	r3, [r3, #0]
 8004352:	699b      	ldr	r3, [r3, #24]
 8004354:	43da      	mvns	r2, r3
 8004356:	68bb      	ldr	r3, [r7, #8]
 8004358:	4013      	ands	r3, r2
 800435a:	b29b      	uxth	r3, r3
 800435c:	2b00      	cmp	r3, #0
 800435e:	bf0c      	ite	eq
 8004360:	2301      	moveq	r3, #1
 8004362:	2300      	movne	r3, #0
 8004364:	b2db      	uxtb	r3, r3
 8004366:	461a      	mov	r2, r3
 8004368:	79fb      	ldrb	r3, [r7, #7]
 800436a:	429a      	cmp	r2, r3
 800436c:	d116      	bne.n	800439c <I2C_WaitOnFlagUntilTimeout+0xa4>
        {
          hi2c->PreviousState     = I2C_STATE_NONE;
 800436e:	68fb      	ldr	r3, [r7, #12]
 8004370:	2200      	movs	r2, #0
 8004372:	631a      	str	r2, [r3, #48]	@ 0x30
          hi2c->State             = HAL_I2C_STATE_READY;
 8004374:	68fb      	ldr	r3, [r7, #12]
 8004376:	2220      	movs	r2, #32
 8004378:	f883 203d 	strb.w	r2, [r3, #61]	@ 0x3d
          hi2c->Mode              = HAL_I2C_MODE_NONE;
 800437c:	68fb      	ldr	r3, [r7, #12]
 800437e:	2200      	movs	r2, #0
 8004380:	f883 203e 	strb.w	r2, [r3, #62]	@ 0x3e
          hi2c->ErrorCode         |= HAL_I2C_ERROR_TIMEOUT;
 8004384:	68fb      	ldr	r3, [r7, #12]
 8004386:	6c1b      	ldr	r3, [r3, #64]	@ 0x40
 8004388:	f043 0220 	orr.w	r2, r3, #32
 800438c:	68fb      	ldr	r3, [r7, #12]
 800438e:	641a      	str	r2, [r3, #64]	@ 0x40

          /* Process Unlocked */
          __HAL_UNLOCK(hi2c);
 8004390:	68fb      	ldr	r3, [r7, #12]
 8004392:	2200      	movs	r2, #0
 8004394:	f883 203c 	strb.w	r2, [r3, #60]	@ 0x3c

          return HAL_ERROR;
 8004398:	2301      	movs	r3, #1
 800439a:	e023      	b.n	80043e4 <I2C_WaitOnFlagUntilTimeout+0xec>
  while (__HAL_I2C_GET_FLAG(hi2c, Flag) == Status)
 800439c:	68bb      	ldr	r3, [r7, #8]
 800439e:	0c1b      	lsrs	r3, r3, #16
 80043a0:	b2db      	uxtb	r3, r3
 80043a2:	2b01      	cmp	r3, #1
 80043a4:	d10d      	bne.n	80043c2 <I2C_WaitOnFlagUntilTimeout+0xca>
 80043a6:	68fb      	ldr	r3, [r7, #12]
 80043a8:	681b      	ldr	r3, [r3, #0]
 80043aa:	695b      	ldr	r3, [r3, #20]
 80043ac:	43da      	mvns	r2, r3
 80043ae:	68bb      	ldr	r3, [r7, #8]
 80043b0:	4013      	ands	r3, r2
 80043b2:	b29b      	uxth	r3, r3
 80043b4:	2b00      	cmp	r3, #0
 80043b6:	bf0c      	ite	eq
 80043b8:	2301      	moveq	r3, #1
 80043ba:	2300      	movne	r3, #0
 80043bc:	b2db      	uxtb	r3, r3
 80043be:	461a      	mov	r2, r3
 80043c0:	e00c      	b.n	80043dc <I2C_WaitOnFlagUntilTimeout+0xe4>
 80043c2:	68fb      	ldr	r3, [r7, #12]
 80043c4:	681b      	ldr	r3, [r3, #0]
 80043c6:	699b      	ldr	r3, [r3, #24]
 80043c8:	43da      	mvns	r2, r3
 80043ca:	68bb      	ldr	r3, [r7, #8]
 80043cc:	4013      	ands	r3, r2
 80043ce:	b29b      	uxth	r3, r3
 80043d0:	2b00      	cmp	r3, #0
 80043d2:	bf0c      	ite	eq
 80043d4:	2301      	moveq	r3, #1
 80043d6:	2300      	movne	r3, #0
 80043d8:	b2db      	uxtb	r3, r3
 80043da:	461a      	mov	r2, r3
 80043dc:	79fb      	ldrb	r3, [r7, #7]
 80043de:	429a      	cmp	r2, r3
 80043e0:	d093      	beq.n	800430a <I2C_WaitOnFlagUntilTimeout+0x12>
        }
      }
    }
  }
  return HAL_OK;
 80043e2:	2300      	movs	r3, #0
}
 80043e4:	4618      	mov	r0, r3
 80043e6:	3710      	adds	r7, #16
 80043e8:	46bd      	mov	sp, r7
 80043ea:	bd80      	pop	{r7, pc}

080043ec <I2C_WaitOnMasterAddressFlagUntilTimeout>:
  * @param  Timeout Timeout duration
  * @param  Tickstart Tick start value
  * @retval HAL status
  */
static HAL_StatusTypeDef I2C_WaitOnMasterAddressFlagUntilTimeout(I2C_HandleTypeDef *hi2c, uint32_t Flag, uint32_t Timeout, uint32_t Tickstart)
{
 80043ec:	b580      	push	{r7, lr}
 80043ee:	b084      	sub	sp, #16
 80043f0:	af00      	add	r7, sp, #0
 80043f2:	60f8      	str	r0, [r7, #12]
 80043f4:	60b9      	str	r1, [r7, #8]
 80043f6:	607a      	str	r2, [r7, #4]
 80043f8:	603b      	str	r3, [r7, #0]
  while (__HAL_I2C_GET_FLAG(hi2c, Flag) == RESET)
 80043fa:	e071      	b.n	80044e0 <I2C_WaitOnMasterAddressFlagUntilTimeout+0xf4>
  {
    if (__HAL_I2C_GET_FLAG(hi2c, I2C_FLAG_AF) == SET)
 80043fc:	68fb      	ldr	r3, [r7, #12]
 80043fe:	681b      	ldr	r3, [r3, #0]
 8004400:	695b      	ldr	r3, [r3, #20]
 8004402:	f403 6380 	and.w	r3, r3, #1024	@ 0x400
 8004406:	f5b3 6f80 	cmp.w	r3, #1024	@ 0x400
 800440a:	d123      	bne.n	8004454 <I2C_WaitOnMasterAddressFlagUntilTimeout+0x68>
    {
      /* Generate Stop */
      SET_BIT(hi2c->Instance->CR1, I2C_CR1_STOP);
 800440c:	68fb      	ldr	r3, [r7, #12]
 800440e:	681b      	ldr	r3, [r3, #0]
 8004410:	681a      	ldr	r2, [r3, #0]
 8004412:	68fb      	ldr	r3, [r7, #12]
 8004414:	681b      	ldr	r3, [r3, #0]
 8004416:	f442 7200 	orr.w	r2, r2, #512	@ 0x200
 800441a:	601a      	str	r2, [r3, #0]

      /* Clear AF Flag */
      __HAL_I2C_CLEAR_FLAG(hi2c, I2C_FLAG_AF);
 800441c:	68fb      	ldr	r3, [r7, #12]
 800441e:	681b      	ldr	r3, [r3, #0]
 8004420:	f46f 6280 	mvn.w	r2, #1024	@ 0x400
 8004424:	615a      	str	r2, [r3, #20]

      hi2c->PreviousState       = I2C_STATE_NONE;
 8004426:	68fb      	ldr	r3, [r7, #12]
 8004428:	2200      	movs	r2, #0
 800442a:	631a      	str	r2, [r3, #48]	@ 0x30
      hi2c->State               = HAL_I2C_STATE_READY;
 800442c:	68fb      	ldr	r3, [r7, #12]
 800442e:	2220      	movs	r2, #32
 8004430:	f883 203d 	strb.w	r2, [r3, #61]	@ 0x3d
      hi2c->Mode                = HAL_I2C_MODE_NONE;
 8004434:	68fb      	ldr	r3, [r7, #12]
 8004436:	2200      	movs	r2, #0
 8004438:	f883 203e 	strb.w	r2, [r3, #62]	@ 0x3e
      hi2c->ErrorCode           |= HAL_I2C_ERROR_AF;
 800443c:	68fb      	ldr	r3, [r7, #12]
 800443e:	6c1b      	ldr	r3, [r3, #64]	@ 0x40
 8004440:	f043 0204 	orr.w	r2, r3, #4
 8004444:	68fb      	ldr	r3, [r7, #12]
 8004446:	641a      	str	r2, [r3, #64]	@ 0x40

      /* Process Unlocked */
      __HAL_UNLOCK(hi2c);
 8004448:	68fb      	ldr	r3, [r7, #12]
 800444a:	2200      	movs	r2, #0
 800444c:	f883 203c 	strb.w	r2, [r3, #60]	@ 0x3c

      return HAL_ERROR;
 8004450:	2301      	movs	r3, #1
 8004452:	e067      	b.n	8004524 <I2C_WaitOnMasterAddressFlagUntilTimeout+0x138>
    }

    /* Check for the Timeout */
    if (Timeout != HAL_MAX_DELAY)
 8004454:	687b      	ldr	r3, [r7, #4]
 8004456:	f1b3 3fff 	cmp.w	r3, #4294967295
 800445a:	d041      	beq.n	80044e0 <I2C_WaitOnMasterAddressFlagUntilTimeout+0xf4>
    {
      if (((HAL_GetTick() - Tickstart) > Timeout) || (Timeout == 0U))
 800445c:	f7fe f9f0 	bl	8002840 <HAL_GetTick>
 8004460:	4602      	mov	r2, r0
 8004462:	683b      	ldr	r3, [r7, #0]
 8004464:	1ad3      	subs	r3, r2, r3
 8004466:	687a      	ldr	r2, [r7, #4]
 8004468:	429a      	cmp	r2, r3
 800446a:	d302      	bcc.n	8004472 <I2C_WaitOnMasterAddressFlagUntilTimeout+0x86>
 800446c:	687b      	ldr	r3, [r7, #4]
 800446e:	2b00      	cmp	r3, #0
 8004470:	d136      	bne.n	80044e0 <I2C_WaitOnMasterAddressFlagUntilTimeout+0xf4>
      {
        if ((__HAL_I2C_GET_FLAG(hi2c, Flag) == RESET))
 8004472:	68bb      	ldr	r3, [r7, #8]
 8004474:	0c1b      	lsrs	r3, r3, #16
 8004476:	b2db      	uxtb	r3, r3
 8004478:	2b01      	cmp	r3, #1
 800447a:	d10c      	bne.n	8004496 <I2C_WaitOnMasterAddressFlagUntilTimeout+0xaa>
 800447c:	68fb      	ldr	r3, [r7, #12]
 800447e:	681b      	ldr	r3, [r3, #0]
 8004480:	695b      	ldr	r3, [r3, #20]
 8004482:	43da      	mvns	r2, r3
 8004484:	68bb      	ldr	r3, [r7, #8]
 8004486:	4013      	ands	r3, r2
 8004488:	b29b      	uxth	r3, r3
 800448a:	2b00      	cmp	r3, #0
 800448c:	bf14      	ite	ne
 800448e:	2301      	movne	r3, #1
 8004490:	2300      	moveq	r3, #0
 8004492:	b2db      	uxtb	r3, r3
 8004494:	e00b      	b.n	80044ae <I2C_WaitOnMasterAddressFlagUntilTimeout+0xc2>
 8004496:	68fb      	ldr	r3, [r7, #12]
 8004498:	681b      	ldr	r3, [r3, #0]
 800449a:	699b      	ldr	r3, [r3, #24]
 800449c:	43da      	mvns	r2, r3
 800449e:	68bb      	ldr	r3, [r7, #8]
 80044a0:	4013      	ands	r3, r2
 80044a2:	b29b      	uxth	r3, r3
 80044a4:	2b00      	cmp	r3, #0
 80044a6:	bf14      	ite	ne
 80044a8:	2301      	movne	r3, #1
 80044aa:	2300      	moveq	r3, #0
 80044ac:	b2db      	uxtb	r3, r3
 80044ae:	2b00      	cmp	r3, #0
 80044b0:	d016      	beq.n	80044e0 <I2C_WaitOnMasterAddressFlagUntilTimeout+0xf4>
        {
          hi2c->PreviousState       = I2C_STATE_NONE;
 80044b2:	68fb      	ldr	r3, [r7, #12]
 80044b4:	2200      	movs	r2, #0
 80044b6:	631a      	str	r2, [r3, #48]	@ 0x30
          hi2c->State               = HAL_I2C_STATE_READY;
 80044b8:	68fb      	ldr	r3, [r7, #12]
 80044ba:	2220      	movs	r2, #32
 80044bc:	f883 203d 	strb.w	r2, [r3, #61]	@ 0x3d
          hi2c->Mode                = HAL_I2C_MODE_NONE;
 80044c0:	68fb      	ldr	r3, [r7, #12]
 80044c2:	2200      	movs	r2, #0
 80044c4:	f883 203e 	strb.w	r2, [r3, #62]	@ 0x3e
          hi2c->ErrorCode           |= HAL_I2C_ERROR_TIMEOUT;
 80044c8:	68fb      	ldr	r3, [r7, #12]
 80044ca:	6c1b      	ldr	r3, [r3, #64]	@ 0x40
 80044cc:	f043 0220 	orr.w	r2, r3, #32
 80044d0:	68fb      	ldr	r3, [r7, #12]
 80044d2:	641a      	str	r2, [r3, #64]	@ 0x40

          /* Process Unlocked */
          __HAL_UNLOCK(hi2c);
 80044d4:	68fb      	ldr	r3, [r7, #12]
 80044d6:	2200      	movs	r2, #0
 80044d8:	f883 203c 	strb.w	r2, [r3, #60]	@ 0x3c

          return HAL_ERROR;
 80044dc:	2301      	movs	r3, #1
 80044de:	e021      	b.n	8004524 <I2C_WaitOnMasterAddressFlagUntilTimeout+0x138>
  while (__HAL_I2C_GET_FLAG(hi2c, Flag) == RESET)
 80044e0:	68bb      	ldr	r3, [r7, #8]
 80044e2:	0c1b      	lsrs	r3, r3, #16
 80044e4:	b2db      	uxtb	r3, r3
 80044e6:	2b01      	cmp	r3, #1
 80044e8:	d10c      	bne.n	8004504 <I2C_WaitOnMasterAddressFlagUntilTimeout+0x118>
 80044ea:	68fb      	ldr	r3, [r7, #12]
 80044ec:	681b      	ldr	r3, [r3, #0]
 80044ee:	695b      	ldr	r3, [r3, #20]
 80044f0:	43da      	mvns	r2, r3
 80044f2:	68bb      	ldr	r3, [r7, #8]
 80044f4:	4013      	ands	r3, r2
 80044f6:	b29b      	uxth	r3, r3
 80044f8:	2b00      	cmp	r3, #0
 80044fa:	bf14      	ite	ne
 80044fc:	2301      	movne	r3, #1
 80044fe:	2300      	moveq	r3, #0
 8004500:	b2db      	uxtb	r3, r3
 8004502:	e00b      	b.n	800451c <I2C_WaitOnMasterAddressFlagUntilTimeout+0x130>
 8004504:	68fb      	ldr	r3, [r7, #12]
 8004506:	681b      	ldr	r3, [r3, #0]
 8004508:	699b      	ldr	r3, [r3, #24]
 800450a:	43da      	mvns	r2, r3
 800450c:	68bb      	ldr	r3, [r7, #8]
 800450e:	4013      	ands	r3, r2
 8004510:	b29b      	uxth	r3, r3
 8004512:	2b00      	cmp	r3, #0
 8004514:	bf14      	ite	ne
 8004516:	2301      	movne	r3, #1
 8004518:	2300      	moveq	r3, #0
 800451a:	b2db      	uxtb	r3, r3
 800451c:	2b00      	cmp	r3, #0
 800451e:	f47f af6d 	bne.w	80043fc <I2C_WaitOnMasterAddressFlagUntilTimeout+0x10>
        }
      }
    }
  }
  return HAL_OK;
 8004522:	2300      	movs	r3, #0
}
 8004524:	4618      	mov	r0, r3
 8004526:	3710      	adds	r7, #16
 8004528:	46bd      	mov	sp, r7
 800452a:	bd80      	pop	{r7, pc}

0800452c <I2C_WaitOnTXEFlagUntilTimeout>:
  * @param  Timeout Timeout duration
  * @param  Tickstart Tick start value
  * @retval HAL status
  */
static HAL_StatusTypeDef I2C_WaitOnTXEFlagUntilTimeout(I2C_HandleTypeDef *hi2c, uint32_t Timeout, uint32_t Tickstart)
{
 800452c:	b580      	push	{r7, lr}
 800452e:	b084      	sub	sp, #16
 8004530:	af00      	add	r7, sp, #0
 8004532:	60f8      	str	r0, [r7, #12]
 8004534:	60b9      	str	r1, [r7, #8]
 8004536:	607a      	str	r2, [r7, #4]
  while (__HAL_I2C_GET_FLAG(hi2c, I2C_FLAG_TXE) == RESET)
 8004538:	e034      	b.n	80045a4 <I2C_WaitOnTXEFlagUntilTimeout+0x78>
  {
    /* Check if a NACK is detected */
    if (I2C_IsAcknowledgeFailed(hi2c) != HAL_OK)
 800453a:	68f8      	ldr	r0, [r7, #12]
 800453c:	f000 f8e3 	bl	8004706 <I2C_IsAcknowledgeFailed>
 8004540:	4603      	mov	r3, r0
 8004542:	2b00      	cmp	r3, #0
 8004544:	d001      	beq.n	800454a <I2C_WaitOnTXEFlagUntilTimeout+0x1e>
    {
      return HAL_ERROR;
 8004546:	2301      	movs	r3, #1
 8004548:	e034      	b.n	80045b4 <I2C_WaitOnTXEFlagUntilTimeout+0x88>
    }

    /* Check for the Timeout */
    if (Timeout != HAL_MAX_DELAY)
 800454a:	68bb      	ldr	r3, [r7, #8]
 800454c:	f1b3 3fff 	cmp.w	r3, #4294967295
 8004550:	d028      	beq.n	80045a4 <I2C_WaitOnTXEFlagUntilTimeout+0x78>
    {
      if (((HAL_GetTick() - Tickstart) > Timeout) || (Timeout == 0U))
 8004552:	f7fe f975 	bl	8002840 <HAL_GetTick>
 8004556:	4602      	mov	r2, r0
 8004558:	687b      	ldr	r3, [r7, #4]
 800455a:	1ad3      	subs	r3, r2, r3
 800455c:	68ba      	ldr	r2, [r7, #8]
 800455e:	429a      	cmp	r2, r3
 8004560:	d302      	bcc.n	8004568 <I2C_WaitOnTXEFlagUntilTimeout+0x3c>
 8004562:	68bb      	ldr	r3, [r7, #8]
 8004564:	2b00      	cmp	r3, #0
 8004566:	d11d      	bne.n	80045a4 <I2C_WaitOnTXEFlagUntilTimeout+0x78>
      {
        if ((__HAL_I2C_GET_FLAG(hi2c, I2C_FLAG_TXE) == RESET))
 8004568:	68fb      	ldr	r3, [r7, #12]
 800456a:	681b      	ldr	r3, [r3, #0]
 800456c:	695b      	ldr	r3, [r3, #20]
 800456e:	f003 0380 	and.w	r3, r3, #128	@ 0x80
 8004572:	2b80      	cmp	r3, #128	@ 0x80
 8004574:	d016      	beq.n	80045a4 <I2C_WaitOnTXEFlagUntilTimeout+0x78>
        {
          hi2c->PreviousState       = I2C_STATE_NONE;
 8004576:	68fb      	ldr	r3, [r7, #12]
 8004578:	2200      	movs	r2, #0
 800457a:	631a      	str	r2, [r3, #48]	@ 0x30
          hi2c->State               = HAL_I2C_STATE_READY;
 800457c:	68fb      	ldr	r3, [r7, #12]
 800457e:	2220      	movs	r2, #32
 8004580:	f883 203d 	strb.w	r2, [r3, #61]	@ 0x3d
          hi2c->Mode                = HAL_I2C_MODE_NONE;
 8004584:	68fb      	ldr	r3, [r7, #12]
 8004586:	2200      	movs	r2, #0
 8004588:	f883 203e 	strb.w	r2, [r3, #62]	@ 0x3e
          hi2c->ErrorCode           |= HAL_I2C_ERROR_TIMEOUT;
 800458c:	68fb      	ldr	r3, [r7, #12]
 800458e:	6c1b      	ldr	r3, [r3, #64]	@ 0x40
 8004590:	f043 0220 	orr.w	r2, r3, #32
 8004594:	68fb      	ldr	r3, [r7, #12]
 8004596:	641a      	str	r2, [r3, #64]	@ 0x40

          /* Process Unlocked */
          __HAL_UNLOCK(hi2c);
 8004598:	68fb      	ldr	r3, [r7, #12]
 800459a:	2200      	movs	r2, #0
 800459c:	f883 203c 	strb.w	r2, [r3, #60]	@ 0x3c

          return HAL_ERROR;
 80045a0:	2301      	movs	r3, #1
 80045a2:	e007      	b.n	80045b4 <I2C_WaitOnTXEFlagUntilTimeout+0x88>
  while (__HAL_I2C_GET_FLAG(hi2c, I2C_FLAG_TXE) == RESET)
 80045a4:	68fb      	ldr	r3, [r7, #12]
 80045a6:	681b      	ldr	r3, [r3, #0]
 80045a8:	695b      	ldr	r3, [r3, #20]
 80045aa:	f003 0380 	and.w	r3, r3, #128	@ 0x80
 80045ae:	2b80      	cmp	r3, #128	@ 0x80
 80045b0:	d1c3      	bne.n	800453a <I2C_WaitOnTXEFlagUntilTimeout+0xe>
        }
      }
    }
  }
  return HAL_OK;
 80045b2:	2300      	movs	r3, #0
}
 80045b4:	4618      	mov	r0, r3
 80045b6:	3710      	adds	r7, #16
 80045b8:	46bd      	mov	sp, r7
 80045ba:	bd80      	pop	{r7, pc}

080045bc <I2C_WaitOnBTFFlagUntilTimeout>:
  * @param  Timeout Timeout duration
  * @param  Tickstart Tick start value
  * @retval HAL status
  */
static HAL_StatusTypeDef I2C_WaitOnBTFFlagUntilTimeout(I2C_HandleTypeDef *hi2c, uint32_t Timeout, uint32_t Tickstart)
{
 80045bc:	b580      	push	{r7, lr}
 80045be:	b084      	sub	sp, #16
 80045c0:	af00      	add	r7, sp, #0
 80045c2:	60f8      	str	r0, [r7, #12]
 80045c4:	60b9      	str	r1, [r7, #8]
 80045c6:	607a      	str	r2, [r7, #4]
  while (__HAL_I2C_GET_FLAG(hi2c, I2C_FLAG_BTF) == RESET)
 80045c8:	e034      	b.n	8004634 <I2C_WaitOnBTFFlagUntilTimeout+0x78>
  {
    /* Check if a NACK is detected */
    if (I2C_IsAcknowledgeFailed(hi2c) != HAL_OK)
 80045ca:	68f8      	ldr	r0, [r7, #12]
 80045cc:	f000 f89b 	bl	8004706 <I2C_IsAcknowledgeFailed>
 80045d0:	4603      	mov	r3, r0
 80045d2:	2b00      	cmp	r3, #0
 80045d4:	d001      	beq.n	80045da <I2C_WaitOnBTFFlagUntilTimeout+0x1e>
    {
      return HAL_ERROR;
 80045d6:	2301      	movs	r3, #1
 80045d8:	e034      	b.n	8004644 <I2C_WaitOnBTFFlagUntilTimeout+0x88>
    }

    /* Check for the Timeout */
    if (Timeout != HAL_MAX_DELAY)
 80045da:	68bb      	ldr	r3, [r7, #8]
 80045dc:	f1b3 3fff 	cmp.w	r3, #4294967295
 80045e0:	d028      	beq.n	8004634 <I2C_WaitOnBTFFlagUntilTimeout+0x78>
    {
      if (((HAL_GetTick() - Tickstart) > Timeout) || (Timeout == 0U))
 80045e2:	f7fe f92d 	bl	8002840 <HAL_GetTick>
 80045e6:	4602      	mov	r2, r0
 80045e8:	687b      	ldr	r3, [r7, #4]
 80045ea:	1ad3      	subs	r3, r2, r3
 80045ec:	68ba      	ldr	r2, [r7, #8]
 80045ee:	429a      	cmp	r2, r3
 80045f0:	d302      	bcc.n	80045f8 <I2C_WaitOnBTFFlagUntilTimeout+0x3c>
 80045f2:	68bb      	ldr	r3, [r7, #8]
 80045f4:	2b00      	cmp	r3, #0
 80045f6:	d11d      	bne.n	8004634 <I2C_WaitOnBTFFlagUntilTimeout+0x78>
      {
        if ((__HAL_I2C_GET_FLAG(hi2c, I2C_FLAG_BTF) == RESET))
 80045f8:	68fb      	ldr	r3, [r7, #12]
 80045fa:	681b      	ldr	r3, [r3, #0]
 80045fc:	695b      	ldr	r3, [r3, #20]
 80045fe:	f003 0304 	and.w	r3, r3, #4
 8004602:	2b04      	cmp	r3, #4
 8004604:	d016      	beq.n	8004634 <I2C_WaitOnBTFFlagUntilTimeout+0x78>
        {
          hi2c->PreviousState       = I2C_STATE_NONE;
 8004606:	68fb      	ldr	r3, [r7, #12]
 8004608:	2200      	movs	r2, #0
 800460a:	631a      	str	r2, [r3, #48]	@ 0x30
          hi2c->State               = HAL_I2C_STATE_READY;
 800460c:	68fb      	ldr	r3, [r7, #12]
 800460e:	2220      	movs	r2, #32
 8004610:	f883 203d 	strb.w	r2, [r3, #61]	@ 0x3d
          hi2c->Mode                = HAL_I2C_MODE_NONE;
 8004614:	68fb      	ldr	r3, [r7, #12]
 8004616:	2200      	movs	r2, #0
 8004618:	f883 203e 	strb.w	r2, [r3, #62]	@ 0x3e
          hi2c->ErrorCode           |= HAL_I2C_ERROR_TIMEOUT;
 800461c:	68fb      	ldr	r3, [r7, #12]
 800461e:	6c1b      	ldr	r3, [r3, #64]	@ 0x40
 8004620:	f043 0220 	orr.w	r2, r3, #32
 8004624:	68fb      	ldr	r3, [r7, #12]
 8004626:	641a      	str	r2, [r3, #64]	@ 0x40

          /* Process Unlocked */
          __HAL_UNLOCK(hi2c);
 8004628:	68fb      	ldr	r3, [r7, #12]
 800462a:	2200      	movs	r2, #0
 800462c:	f883 203c 	strb.w	r2, [r3, #60]	@ 0x3c

          return HAL_ERROR;
 8004630:	2301      	movs	r3, #1
 8004632:	e007      	b.n	8004644 <I2C_WaitOnBTFFlagUntilTimeout+0x88>
  while (__HAL_I2C_GET_FLAG(hi2c, I2C_FLAG_BTF) == RESET)
 8004634:	68fb      	ldr	r3, [r7, #12]
 8004636:	681b      	ldr	r3, [r3, #0]
 8004638:	695b      	ldr	r3, [r3, #20]
 800463a:	f003 0304 	and.w	r3, r3, #4
 800463e:	2b04      	cmp	r3, #4
 8004640:	d1c3      	bne.n	80045ca <I2C_WaitOnBTFFlagUntilTimeout+0xe>
        }
      }
    }
  }
  return HAL_OK;
 8004642:	2300      	movs	r3, #0
}
 8004644:	4618      	mov	r0, r3
 8004646:	3710      	adds	r7, #16
 8004648:	46bd      	mov	sp, r7
 800464a:	bd80      	pop	{r7, pc}

0800464c <I2C_WaitOnRXNEFlagUntilTimeout>:
  * @param  Timeout Timeout duration
  * @param  Tickstart Tick start value
  * @retval HAL status
  */
static HAL_StatusTypeDef I2C_WaitOnRXNEFlagUntilTimeout(I2C_HandleTypeDef *hi2c, uint32_t Timeout, uint32_t Tickstart)
{
 800464c:	b580      	push	{r7, lr}
 800464e:	b084      	sub	sp, #16
 8004650:	af00      	add	r7, sp, #0
 8004652:	60f8      	str	r0, [r7, #12]
 8004654:	60b9      	str	r1, [r7, #8]
 8004656:	607a      	str	r2, [r7, #4]

  while (__HAL_I2C_GET_FLAG(hi2c, I2C_FLAG_RXNE) == RESET)
 8004658:	e049      	b.n	80046ee <I2C_WaitOnRXNEFlagUntilTimeout+0xa2>
  {
    /* Check if a STOPF is detected */
    if (__HAL_I2C_GET_FLAG(hi2c, I2C_FLAG_STOPF) == SET)
 800465a:	68fb      	ldr	r3, [r7, #12]
 800465c:	681b      	ldr	r3, [r3, #0]
 800465e:	695b      	ldr	r3, [r3, #20]
 8004660:	f003 0310 	and.w	r3, r3, #16
 8004664:	2b10      	cmp	r3, #16
 8004666:	d119      	bne.n	800469c <I2C_WaitOnRXNEFlagUntilTimeout+0x50>
    {
      /* Clear STOP Flag */
      __HAL_I2C_CLEAR_FLAG(hi2c, I2C_FLAG_STOPF);
 8004668:	68fb      	ldr	r3, [r7, #12]
 800466a:	681b      	ldr	r3, [r3, #0]
 800466c:	f06f 0210 	mvn.w	r2, #16
 8004670:	615a      	str	r2, [r3, #20]

      hi2c->PreviousState       = I2C_STATE_NONE;
 8004672:	68fb      	ldr	r3, [r7, #12]
 8004674:	2200      	movs	r2, #0
 8004676:	631a      	str	r2, [r3, #48]	@ 0x30
      hi2c->State               = HAL_I2C_STATE_READY;
 8004678:	68fb      	ldr	r3, [r7, #12]
 800467a:	2220      	movs	r2, #32
 800467c:	f883 203d 	strb.w	r2, [r3, #61]	@ 0x3d
      hi2c->Mode                = HAL_I2C_MODE_NONE;
 8004680:	68fb      	ldr	r3, [r7, #12]
 8004682:	2200      	movs	r2, #0
 8004684:	f883 203e 	strb.w	r2, [r3, #62]	@ 0x3e
      hi2c->ErrorCode           |= HAL_I2C_ERROR_NONE;
 8004688:	68fb      	ldr	r3, [r7, #12]
 800468a:	6c1a      	ldr	r2, [r3, #64]	@ 0x40
 800468c:	68fb      	ldr	r3, [r7, #12]
 800468e:	641a      	str	r2, [r3, #64]	@ 0x40

      /* Process Unlocked */
      __HAL_UNLOCK(hi2c);
 8004690:	68fb      	ldr	r3, [r7, #12]
 8004692:	2200      	movs	r2, #0
 8004694:	f883 203c 	strb.w	r2, [r3, #60]	@ 0x3c

      return HAL_ERROR;
 8004698:	2301      	movs	r3, #1
 800469a:	e030      	b.n	80046fe <I2C_WaitOnRXNEFlagUntilTimeout+0xb2>
    }

    /* Check for the Timeout */
    if (((HAL_GetTick() - Tickstart) > Timeout) || (Timeout == 0U))
 800469c:	f7fe f8d0 	bl	8002840 <HAL_GetTick>
 80046a0:	4602      	mov	r2, r0
 80046a2:	687b      	ldr	r3, [r7, #4]
 80046a4:	1ad3      	subs	r3, r2, r3
 80046a6:	68ba      	ldr	r2, [r7, #8]
 80046a8:	429a      	cmp	r2, r3
 80046aa:	d302      	bcc.n	80046b2 <I2C_WaitOnRXNEFlagUntilTimeout+0x66>
 80046ac:	68bb      	ldr	r3, [r7, #8]
 80046ae:	2b00      	cmp	r3, #0
 80046b0:	d11d      	bne.n	80046ee <I2C_WaitOnRXNEFlagUntilTimeout+0xa2>
    {
      if ((__HAL_I2C_GET_FLAG(hi2c, I2C_FLAG_RXNE) == RESET))
 80046b2:	68fb      	ldr	r3, [r7, #12]
 80046b4:	681b      	ldr	r3, [r3, #0]
 80046b6:	695b      	ldr	r3, [r3, #20]
 80046b8:	f003 0340 	and.w	r3, r3, #64	@ 0x40
 80046bc:	2b40      	cmp	r3, #64	@ 0x40
 80046be:	d016      	beq.n	80046ee <I2C_WaitOnRXNEFlagUntilTimeout+0xa2>
      {
        hi2c->PreviousState       = I2C_STATE_NONE;
 80046c0:	68fb      	ldr	r3, [r7, #12]
 80046c2:	2200      	movs	r2, #0
 80046c4:	631a      	str	r2, [r3, #48]	@ 0x30
        hi2c->State               = HAL_I2C_STATE_READY;
 80046c6:	68fb      	ldr	r3, [r7, #12]
 80046c8:	2220      	movs	r2, #32
 80046ca:	f883 203d 	strb.w	r2, [r3, #61]	@ 0x3d
        hi2c->Mode                = HAL_I2C_MODE_NONE;
 80046ce:	68fb      	ldr	r3, [r7, #12]
 80046d0:	2200      	movs	r2, #0
 80046d2:	f883 203e 	strb.w	r2, [r3, #62]	@ 0x3e
        hi2c->ErrorCode           |= HAL_I2C_ERROR_TIMEOUT;
 80046d6:	68fb      	ldr	r3, [r7, #12]
 80046d8:	6c1b      	ldr	r3, [r3, #64]	@ 0x40
 80046da:	f043 0220 	orr.w	r2, r3, #32
 80046de:	68fb      	ldr	r3, [r7, #12]
 80046e0:	641a      	str	r2, [r3, #64]	@ 0x40

        /* Process Unlocked */
        __HAL_UNLOCK(hi2c);
 80046e2:	68fb      	ldr	r3, [r7, #12]
 80046e4:	2200      	movs	r2, #0
 80046e6:	f883 203c 	strb.w	r2, [r3, #60]	@ 0x3c

        return HAL_ERROR;
 80046ea:	2301      	movs	r3, #1
 80046ec:	e007      	b.n	80046fe <I2C_WaitOnRXNEFlagUntilTimeout+0xb2>
  while (__HAL_I2C_GET_FLAG(hi2c, I2C_FLAG_RXNE) == RESET)
 80046ee:	68fb      	ldr	r3, [r7, #12]
 80046f0:	681b      	ldr	r3, [r3, #0]
 80046f2:	695b      	ldr	r3, [r3, #20]
 80046f4:	f003 0340 	and.w	r3, r3, #64	@ 0x40
 80046f8:	2b40      	cmp	r3, #64	@ 0x40
 80046fa:	d1ae      	bne.n	800465a <I2C_WaitOnRXNEFlagUntilTimeout+0xe>
      }
    }
  }
  return HAL_OK;
 80046fc:	2300      	movs	r3, #0
}
 80046fe:	4618      	mov	r0, r3
 8004700:	3710      	adds	r7, #16
 8004702:	46bd      	mov	sp, r7
 8004704:	bd80      	pop	{r7, pc}

08004706 <I2C_IsAcknowledgeFailed>:
  * @param  hi2c Pointer to a I2C_HandleTypeDef structure that contains
  *                the configuration information for the specified I2C.
  * @retval HAL status
  */
static HAL_StatusTypeDef I2C_IsAcknowledgeFailed(I2C_HandleTypeDef *hi2c)
{
 8004706:	b480      	push	{r7}
 8004708:	b083      	sub	sp, #12
 800470a:	af00      	add	r7, sp, #0
 800470c:	6078      	str	r0, [r7, #4]
  if (__HAL_I2C_GET_FLAG(hi2c, I2C_FLAG_AF) == SET)
 800470e:	687b      	ldr	r3, [r7, #4]
 8004710:	681b      	ldr	r3, [r3, #0]
 8004712:	695b      	ldr	r3, [r3, #20]
 8004714:	f403 6380 	and.w	r3, r3, #1024	@ 0x400
 8004718:	f5b3 6f80 	cmp.w	r3, #1024	@ 0x400
 800471c:	d11b      	bne.n	8004756 <I2C_IsAcknowledgeFailed+0x50>
  {
    /* Clear NACKF Flag */
    __HAL_I2C_CLEAR_FLAG(hi2c, I2C_FLAG_AF);
 800471e:	687b      	ldr	r3, [r7, #4]
 8004720:	681b      	ldr	r3, [r3, #0]
 8004722:	f46f 6280 	mvn.w	r2, #1024	@ 0x400
 8004726:	615a      	str	r2, [r3, #20]

    hi2c->PreviousState       = I2C_STATE_NONE;
 8004728:	687b      	ldr	r3, [r7, #4]
 800472a:	2200      	movs	r2, #0
 800472c:	631a      	str	r2, [r3, #48]	@ 0x30
    hi2c->State               = HAL_I2C_STATE_READY;
 800472e:	687b      	ldr	r3, [r7, #4]
 8004730:	2220      	movs	r2, #32
 8004732:	f883 203d 	strb.w	r2, [r3, #61]	@ 0x3d
    hi2c->Mode                = HAL_I2C_MODE_NONE;
 8004736:	687b      	ldr	r3, [r7, #4]
 8004738:	2200      	movs	r2, #0
 800473a:	f883 203e 	strb.w	r2, [r3, #62]	@ 0x3e
    hi2c->ErrorCode           |= HAL_I2C_ERROR_AF;
 800473e:	687b      	ldr	r3, [r7, #4]
 8004740:	6c1b      	ldr	r3, [r3, #64]	@ 0x40
 8004742:	f043 0204 	orr.w	r2, r3, #4
 8004746:	687b      	ldr	r3, [r7, #4]
 8004748:	641a      	str	r2, [r3, #64]	@ 0x40

    /* Process Unlocked */
    __HAL_UNLOCK(hi2c);
 800474a:	687b      	ldr	r3, [r7, #4]
 800474c:	2200      	movs	r2, #0
 800474e:	f883 203c 	strb.w	r2, [r3, #60]	@ 0x3c

    return HAL_ERROR;
 8004752:	2301      	movs	r3, #1
 8004754:	e000      	b.n	8004758 <I2C_IsAcknowledgeFailed+0x52>
  }
  return HAL_OK;
 8004756:	2300      	movs	r3, #0
}
 8004758:	4618      	mov	r0, r3
 800475a:	370c      	adds	r7, #12
 800475c:	46bd      	mov	sp, r7
 800475e:	f85d 7b04 	ldr.w	r7, [sp], #4
 8004762:	4770      	bx	lr

08004764 <HAL_RCC_OscConfig>:
  *         supported by this API. User should request a transition to HSE Off
  *         first and then HSE On or HSE Bypass.
  * @retval HAL status
  */
__weak HAL_StatusTypeDef HAL_RCC_OscConfig(RCC_OscInitTypeDef  *RCC_OscInitStruct)
{
 8004764:	b580      	push	{r7, lr}
 8004766:	b086      	sub	sp, #24
 8004768:	af00      	add	r7, sp, #0
 800476a:	6078      	str	r0, [r7, #4]
  uint32_t tickstart;
  uint32_t pll_config;
  /* Check Null pointer */
  if (RCC_OscInitStruct == NULL)
 800476c:	687b      	ldr	r3, [r7, #4]
 800476e:	2b00      	cmp	r3, #0
 8004770:	d101      	bne.n	8004776 <HAL_RCC_OscConfig+0x12>
  {
    return HAL_ERROR;
 8004772:	2301      	movs	r3, #1
 8004774:	e267      	b.n	8004c46 <HAL_RCC_OscConfig+0x4e2>
  }

  /* Check the parameters */
  assert_param(IS_RCC_OSCILLATORTYPE(RCC_OscInitStruct->OscillatorType));
  /*------------------------------- HSE Configuration ------------------------*/
  if (((RCC_OscInitStruct->OscillatorType) & RCC_OSCILLATORTYPE_HSE) == RCC_OSCILLATORTYPE_HSE)
 8004776:	687b      	ldr	r3, [r7, #4]
 8004778:	681b      	ldr	r3, [r3, #0]
 800477a:	f003 0301 	and.w	r3, r3, #1
 800477e:	2b00      	cmp	r3, #0
 8004780:	d075      	beq.n	800486e <HAL_RCC_OscConfig+0x10a>
  {
    /* Check the parameters */
    assert_param(IS_RCC_HSE(RCC_OscInitStruct->HSEState));
    /* When the HSE is used as system clock or clock source for PLL in these cases HSE will not disabled */
    if ((__HAL_RCC_GET_SYSCLK_SOURCE() == RCC_CFGR_SWS_HSE) || \
 8004782:	4b88      	ldr	r3, [pc, #544]	@ (80049a4 <HAL_RCC_OscConfig+0x240>)
 8004784:	689b      	ldr	r3, [r3, #8]
 8004786:	f003 030c 	and.w	r3, r3, #12
 800478a:	2b04      	cmp	r3, #4
 800478c:	d00c      	beq.n	80047a8 <HAL_RCC_OscConfig+0x44>
        ((__HAL_RCC_GET_SYSCLK_SOURCE() == RCC_CFGR_SWS_PLL) && ((RCC->PLLCFGR & RCC_PLLCFGR_PLLSRC) == RCC_PLLCFGR_PLLSRC_HSE)))
 800478e:	4b85      	ldr	r3, [pc, #532]	@ (80049a4 <HAL_RCC_OscConfig+0x240>)
 8004790:	689b      	ldr	r3, [r3, #8]
 8004792:	f003 030c 	and.w	r3, r3, #12
    if ((__HAL_RCC_GET_SYSCLK_SOURCE() == RCC_CFGR_SWS_HSE) || \
 8004796:	2b08      	cmp	r3, #8
 8004798:	d112      	bne.n	80047c0 <HAL_RCC_OscConfig+0x5c>
        ((__HAL_RCC_GET_SYSCLK_SOURCE() == RCC_CFGR_SWS_PLL) && ((RCC->PLLCFGR & RCC_PLLCFGR_PLLSRC) == RCC_PLLCFGR_PLLSRC_HSE)))
 800479a:	4b82      	ldr	r3, [pc, #520]	@ (80049a4 <HAL_RCC_OscConfig+0x240>)
 800479c:	685b      	ldr	r3, [r3, #4]
 800479e:	f403 0380 	and.w	r3, r3, #4194304	@ 0x400000
 80047a2:	f5b3 0f80 	cmp.w	r3, #4194304	@ 0x400000
 80047a6:	d10b      	bne.n	80047c0 <HAL_RCC_OscConfig+0x5c>
    {
      if ((__HAL_RCC_GET_FLAG(RCC_FLAG_HSERDY) != RESET) && (RCC_OscInitStruct->HSEState == RCC_HSE_OFF))
 80047a8:	4b7e      	ldr	r3, [pc, #504]	@ (80049a4 <HAL_RCC_OscConfig+0x240>)
 80047aa:	681b      	ldr	r3, [r3, #0]
 80047ac:	f403 3300 	and.w	r3, r3, #131072	@ 0x20000
 80047b0:	2b00      	cmp	r3, #0
 80047b2:	d05b      	beq.n	800486c <HAL_RCC_OscConfig+0x108>
 80047b4:	687b      	ldr	r3, [r7, #4]
 80047b6:	685b      	ldr	r3, [r3, #4]
 80047b8:	2b00      	cmp	r3, #0
 80047ba:	d157      	bne.n	800486c <HAL_RCC_OscConfig+0x108>
      {
        return HAL_ERROR;
 80047bc:	2301      	movs	r3, #1
 80047be:	e242      	b.n	8004c46 <HAL_RCC_OscConfig+0x4e2>
      }
    }
    else
    {
      /* Set the new HSE configuration ---------------------------------------*/
      __HAL_RCC_HSE_CONFIG(RCC_OscInitStruct->HSEState);
 80047c0:	687b      	ldr	r3, [r7, #4]
 80047c2:	685b      	ldr	r3, [r3, #4]
 80047c4:	f5b3 3f80 	cmp.w	r3, #65536	@ 0x10000
 80047c8:	d106      	bne.n	80047d8 <HAL_RCC_OscConfig+0x74>
 80047ca:	4b76      	ldr	r3, [pc, #472]	@ (80049a4 <HAL_RCC_OscConfig+0x240>)
 80047cc:	681b      	ldr	r3, [r3, #0]
 80047ce:	4a75      	ldr	r2, [pc, #468]	@ (80049a4 <HAL_RCC_OscConfig+0x240>)
 80047d0:	f443 3380 	orr.w	r3, r3, #65536	@ 0x10000
 80047d4:	6013      	str	r3, [r2, #0]
 80047d6:	e01d      	b.n	8004814 <HAL_RCC_OscConfig+0xb0>
 80047d8:	687b      	ldr	r3, [r7, #4]
 80047da:	685b      	ldr	r3, [r3, #4]
 80047dc:	f5b3 2fa0 	cmp.w	r3, #327680	@ 0x50000
 80047e0:	d10c      	bne.n	80047fc <HAL_RCC_OscConfig+0x98>
 80047e2:	4b70      	ldr	r3, [pc, #448]	@ (80049a4 <HAL_RCC_OscConfig+0x240>)
 80047e4:	681b      	ldr	r3, [r3, #0]
 80047e6:	4a6f      	ldr	r2, [pc, #444]	@ (80049a4 <HAL_RCC_OscConfig+0x240>)
 80047e8:	f443 2380 	orr.w	r3, r3, #262144	@ 0x40000
 80047ec:	6013      	str	r3, [r2, #0]
 80047ee:	4b6d      	ldr	r3, [pc, #436]	@ (80049a4 <HAL_RCC_OscConfig+0x240>)
 80047f0:	681b      	ldr	r3, [r3, #0]
 80047f2:	4a6c      	ldr	r2, [pc, #432]	@ (80049a4 <HAL_RCC_OscConfig+0x240>)
 80047f4:	f443 3380 	orr.w	r3, r3, #65536	@ 0x10000
 80047f8:	6013      	str	r3, [r2, #0]
 80047fa:	e00b      	b.n	8004814 <HAL_RCC_OscConfig+0xb0>
 80047fc:	4b69      	ldr	r3, [pc, #420]	@ (80049a4 <HAL_RCC_OscConfig+0x240>)
 80047fe:	681b      	ldr	r3, [r3, #0]
 8004800:	4a68      	ldr	r2, [pc, #416]	@ (80049a4 <HAL_RCC_OscConfig+0x240>)
 8004802:	f423 3380 	bic.w	r3, r3, #65536	@ 0x10000
 8004806:	6013      	str	r3, [r2, #0]
 8004808:	4b66      	ldr	r3, [pc, #408]	@ (80049a4 <HAL_RCC_OscConfig+0x240>)
 800480a:	681b      	ldr	r3, [r3, #0]
 800480c:	4a65      	ldr	r2, [pc, #404]	@ (80049a4 <HAL_RCC_OscConfig+0x240>)
 800480e:	f423 2380 	bic.w	r3, r3, #262144	@ 0x40000
 8004812:	6013      	str	r3, [r2, #0]

      /* Check the HSE State */
      if ((RCC_OscInitStruct->HSEState) != RCC_HSE_OFF)
 8004814:	687b      	ldr	r3, [r7, #4]
 8004816:	685b      	ldr	r3, [r3, #4]
 8004818:	2b00      	cmp	r3, #0
 800481a:	d013      	beq.n	8004844 <HAL_RCC_OscConfig+0xe0>
      {
        /* Get Start Tick */
        tickstart = HAL_GetTick();
 800481c:	f7fe f810 	bl	8002840 <HAL_GetTick>
 8004820:	6138      	str	r0, [r7, #16]

        /* Wait till HSE is ready */
        while (__HAL_RCC_GET_FLAG(RCC_FLAG_HSERDY) == RESET)
 8004822:	e008      	b.n	8004836 <HAL_RCC_OscConfig+0xd2>
        {
          if ((HAL_GetTick() - tickstart) > HSE_TIMEOUT_VALUE)
 8004824:	f7fe f80c 	bl	8002840 <HAL_GetTick>
 8004828:	4602      	mov	r2, r0
 800482a:	693b      	ldr	r3, [r7, #16]
 800482c:	1ad3      	subs	r3, r2, r3
 800482e:	2b64      	cmp	r3, #100	@ 0x64
 8004830:	d901      	bls.n	8004836 <HAL_RCC_OscConfig+0xd2>
          {
            return HAL_TIMEOUT;
 8004832:	2303      	movs	r3, #3
 8004834:	e207      	b.n	8004c46 <HAL_RCC_OscConfig+0x4e2>
        while (__HAL_RCC_GET_FLAG(RCC_FLAG_HSERDY) == RESET)
 8004836:	4b5b      	ldr	r3, [pc, #364]	@ (80049a4 <HAL_RCC_OscConfig+0x240>)
 8004838:	681b      	ldr	r3, [r3, #0]
 800483a:	f403 3300 	and.w	r3, r3, #131072	@ 0x20000
 800483e:	2b00      	cmp	r3, #0
 8004840:	d0f0      	beq.n	8004824 <HAL_RCC_OscConfig+0xc0>
 8004842:	e014      	b.n	800486e <HAL_RCC_OscConfig+0x10a>
        }
      }
      else
      {
        /* Get Start Tick */
        tickstart = HAL_GetTick();
 8004844:	f7fd fffc 	bl	8002840 <HAL_GetTick>
 8004848:	6138      	str	r0, [r7, #16]

        /* Wait till HSE is bypassed or disabled */
        while (__HAL_RCC_GET_FLAG(RCC_FLAG_HSERDY) != RESET)
 800484a:	e008      	b.n	800485e <HAL_RCC_OscConfig+0xfa>
        {
          if ((HAL_GetTick() - tickstart) > HSE_TIMEOUT_VALUE)
 800484c:	f7fd fff8 	bl	8002840 <HAL_GetTick>
 8004850:	4602      	mov	r2, r0
 8004852:	693b      	ldr	r3, [r7, #16]
 8004854:	1ad3      	subs	r3, r2, r3
 8004856:	2b64      	cmp	r3, #100	@ 0x64
 8004858:	d901      	bls.n	800485e <HAL_RCC_OscConfig+0xfa>
          {
            return HAL_TIMEOUT;
 800485a:	2303      	movs	r3, #3
 800485c:	e1f3      	b.n	8004c46 <HAL_RCC_OscConfig+0x4e2>
        while (__HAL_RCC_GET_FLAG(RCC_FLAG_HSERDY) != RESET)
 800485e:	4b51      	ldr	r3, [pc, #324]	@ (80049a4 <HAL_RCC_OscConfig+0x240>)
 8004860:	681b      	ldr	r3, [r3, #0]
 8004862:	f403 3300 	and.w	r3, r3, #131072	@ 0x20000
 8004866:	2b00      	cmp	r3, #0
 8004868:	d1f0      	bne.n	800484c <HAL_RCC_OscConfig+0xe8>
 800486a:	e000      	b.n	800486e <HAL_RCC_OscConfig+0x10a>
      if ((__HAL_RCC_GET_FLAG(RCC_FLAG_HSERDY) != RESET) && (RCC_OscInitStruct->HSEState == RCC_HSE_OFF))
 800486c:	bf00      	nop
        }
      }
    }
  }
  /*----------------------------- HSI Configuration --------------------------*/
  if (((RCC_OscInitStruct->OscillatorType) & RCC_OSCILLATORTYPE_HSI) == RCC_OSCILLATORTYPE_HSI)
 800486e:	687b      	ldr	r3, [r7, #4]
 8004870:	681b      	ldr	r3, [r3, #0]
 8004872:	f003 0302 	and.w	r3, r3, #2
 8004876:	2b00      	cmp	r3, #0
 8004878:	d063      	beq.n	8004942 <HAL_RCC_OscConfig+0x1de>
    /* Check the parameters */
    assert_param(IS_RCC_HSI(RCC_OscInitStruct->HSIState));
    assert_param(IS_RCC_CALIBRATION_VALUE(RCC_OscInitStruct->HSICalibrationValue));

    /* Check if HSI is used as system clock or as PLL source when PLL is selected as system clock */
    if ((__HAL_RCC_GET_SYSCLK_SOURCE() == RCC_CFGR_SWS_HSI) || \
 800487a:	4b4a      	ldr	r3, [pc, #296]	@ (80049a4 <HAL_RCC_OscConfig+0x240>)
 800487c:	689b      	ldr	r3, [r3, #8]
 800487e:	f003 030c 	and.w	r3, r3, #12
 8004882:	2b00      	cmp	r3, #0
 8004884:	d00b      	beq.n	800489e <HAL_RCC_OscConfig+0x13a>
        ((__HAL_RCC_GET_SYSCLK_SOURCE() == RCC_CFGR_SWS_PLL) && ((RCC->PLLCFGR & RCC_PLLCFGR_PLLSRC) == RCC_PLLCFGR_PLLSRC_HSI)))
 8004886:	4b47      	ldr	r3, [pc, #284]	@ (80049a4 <HAL_RCC_OscConfig+0x240>)
 8004888:	689b      	ldr	r3, [r3, #8]
 800488a:	f003 030c 	and.w	r3, r3, #12
    if ((__HAL_RCC_GET_SYSCLK_SOURCE() == RCC_CFGR_SWS_HSI) || \
 800488e:	2b08      	cmp	r3, #8
 8004890:	d11c      	bne.n	80048cc <HAL_RCC_OscConfig+0x168>
        ((__HAL_RCC_GET_SYSCLK_SOURCE() == RCC_CFGR_SWS_PLL) && ((RCC->PLLCFGR & RCC_PLLCFGR_PLLSRC) == RCC_PLLCFGR_PLLSRC_HSI)))
 8004892:	4b44      	ldr	r3, [pc, #272]	@ (80049a4 <HAL_RCC_OscConfig+0x240>)
 8004894:	685b      	ldr	r3, [r3, #4]
 8004896:	f403 0380 	and.w	r3, r3, #4194304	@ 0x400000
 800489a:	2b00      	cmp	r3, #0
 800489c:	d116      	bne.n	80048cc <HAL_RCC_OscConfig+0x168>
    {
      /* When HSI is used as system clock it will not disabled */
      if ((__HAL_RCC_GET_FLAG(RCC_FLAG_HSIRDY) != RESET) && (RCC_OscInitStruct->HSIState != RCC_HSI_ON))
 800489e:	4b41      	ldr	r3, [pc, #260]	@ (80049a4 <HAL_RCC_OscConfig+0x240>)
 80048a0:	681b      	ldr	r3, [r3, #0]
 80048a2:	f003 0302 	and.w	r3, r3, #2
 80048a6:	2b00      	cmp	r3, #0
 80048a8:	d005      	beq.n	80048b6 <HAL_RCC_OscConfig+0x152>
 80048aa:	687b      	ldr	r3, [r7, #4]
 80048ac:	68db      	ldr	r3, [r3, #12]
 80048ae:	2b01      	cmp	r3, #1
 80048b0:	d001      	beq.n	80048b6 <HAL_RCC_OscConfig+0x152>
      {
        return HAL_ERROR;
 80048b2:	2301      	movs	r3, #1
 80048b4:	e1c7      	b.n	8004c46 <HAL_RCC_OscConfig+0x4e2>
      }
      /* Otherwise, just the calibration is allowed */
      else
      {
        /* Adjusts the Internal High Speed oscillator (HSI) calibration value.*/
        __HAL_RCC_HSI_CALIBRATIONVALUE_ADJUST(RCC_OscInitStruct->HSICalibrationValue);
 80048b6:	4b3b      	ldr	r3, [pc, #236]	@ (80049a4 <HAL_RCC_OscConfig+0x240>)
 80048b8:	681b      	ldr	r3, [r3, #0]
 80048ba:	f023 02f8 	bic.w	r2, r3, #248	@ 0xf8
 80048be:	687b      	ldr	r3, [r7, #4]
 80048c0:	691b      	ldr	r3, [r3, #16]
 80048c2:	00db      	lsls	r3, r3, #3
 80048c4:	4937      	ldr	r1, [pc, #220]	@ (80049a4 <HAL_RCC_OscConfig+0x240>)
 80048c6:	4313      	orrs	r3, r2
 80048c8:	600b      	str	r3, [r1, #0]
      if ((__HAL_RCC_GET_FLAG(RCC_FLAG_HSIRDY) != RESET) && (RCC_OscInitStruct->HSIState != RCC_HSI_ON))
 80048ca:	e03a      	b.n	8004942 <HAL_RCC_OscConfig+0x1de>
      }
    }
    else
    {
      /* Check the HSI State */
      if ((RCC_OscInitStruct->HSIState) != RCC_HSI_OFF)
 80048cc:	687b      	ldr	r3, [r7, #4]
 80048ce:	68db      	ldr	r3, [r3, #12]
 80048d0:	2b00      	cmp	r3, #0
 80048d2:	d020      	beq.n	8004916 <HAL_RCC_OscConfig+0x1b2>
      {
        /* Enable the Internal High Speed oscillator (HSI). */
        __HAL_RCC_HSI_ENABLE();
 80048d4:	4b34      	ldr	r3, [pc, #208]	@ (80049a8 <HAL_RCC_OscConfig+0x244>)
 80048d6:	2201      	movs	r2, #1
 80048d8:	601a      	str	r2, [r3, #0]

        /* Get Start Tick*/
        tickstart = HAL_GetTick();
 80048da:	f7fd ffb1 	bl	8002840 <HAL_GetTick>
 80048de:	6138      	str	r0, [r7, #16]

        /* Wait till HSI is ready */
        while (__HAL_RCC_GET_FLAG(RCC_FLAG_HSIRDY) == RESET)
 80048e0:	e008      	b.n	80048f4 <HAL_RCC_OscConfig+0x190>
        {
          if ((HAL_GetTick() - tickstart) > HSI_TIMEOUT_VALUE)
 80048e2:	f7fd ffad 	bl	8002840 <HAL_GetTick>
 80048e6:	4602      	mov	r2, r0
 80048e8:	693b      	ldr	r3, [r7, #16]
 80048ea:	1ad3      	subs	r3, r2, r3
 80048ec:	2b02      	cmp	r3, #2
 80048ee:	d901      	bls.n	80048f4 <HAL_RCC_OscConfig+0x190>
          {
            return HAL_TIMEOUT;
 80048f0:	2303      	movs	r3, #3
 80048f2:	e1a8      	b.n	8004c46 <HAL_RCC_OscConfig+0x4e2>
        while (__HAL_RCC_GET_FLAG(RCC_FLAG_HSIRDY) == RESET)
 80048f4:	4b2b      	ldr	r3, [pc, #172]	@ (80049a4 <HAL_RCC_OscConfig+0x240>)
 80048f6:	681b      	ldr	r3, [r3, #0]
 80048f8:	f003 0302 	and.w	r3, r3, #2
 80048fc:	2b00      	cmp	r3, #0
 80048fe:	d0f0      	beq.n	80048e2 <HAL_RCC_OscConfig+0x17e>
          }
        }

        /* Adjusts the Internal High Speed oscillator (HSI) calibration value. */
        __HAL_RCC_HSI_CALIBRATIONVALUE_ADJUST(RCC_OscInitStruct->HSICalibrationValue);
 8004900:	4b28      	ldr	r3, [pc, #160]	@ (80049a4 <HAL_RCC_OscConfig+0x240>)
 8004902:	681b      	ldr	r3, [r3, #0]
 8004904:	f023 02f8 	bic.w	r2, r3, #248	@ 0xf8
 8004908:	687b      	ldr	r3, [r7, #4]
 800490a:	691b      	ldr	r3, [r3, #16]
 800490c:	00db      	lsls	r3, r3, #3
 800490e:	4925      	ldr	r1, [pc, #148]	@ (80049a4 <HAL_RCC_OscConfig+0x240>)
 8004910:	4313      	orrs	r3, r2
 8004912:	600b      	str	r3, [r1, #0]
 8004914:	e015      	b.n	8004942 <HAL_RCC_OscConfig+0x1de>
      }
      else
      {
        /* Disable the Internal High Speed oscillator (HSI). */
        __HAL_RCC_HSI_DISABLE();
 8004916:	4b24      	ldr	r3, [pc, #144]	@ (80049a8 <HAL_RCC_OscConfig+0x244>)
 8004918:	2200      	movs	r2, #0
 800491a:	601a      	str	r2, [r3, #0]

        /* Get Start Tick*/
        tickstart = HAL_GetTick();
 800491c:	f7fd ff90 	bl	8002840 <HAL_GetTick>
 8004920:	6138      	str	r0, [r7, #16]

        /* Wait till HSI is ready */
        while (__HAL_RCC_GET_FLAG(RCC_FLAG_HSIRDY) != RESET)
 8004922:	e008      	b.n	8004936 <HAL_RCC_OscConfig+0x1d2>
        {
          if ((HAL_GetTick() - tickstart) > HSI_TIMEOUT_VALUE)
 8004924:	f7fd ff8c 	bl	8002840 <HAL_GetTick>
 8004928:	4602      	mov	r2, r0
 800492a:	693b      	ldr	r3, [r7, #16]
 800492c:	1ad3      	subs	r3, r2, r3
 800492e:	2b02      	cmp	r3, #2
 8004930:	d901      	bls.n	8004936 <HAL_RCC_OscConfig+0x1d2>
          {
            return HAL_TIMEOUT;
 8004932:	2303      	movs	r3, #3
 8004934:	e187      	b.n	8004c46 <HAL_RCC_OscConfig+0x4e2>
        while (__HAL_RCC_GET_FLAG(RCC_FLAG_HSIRDY) != RESET)
 8004936:	4b1b      	ldr	r3, [pc, #108]	@ (80049a4 <HAL_RCC_OscConfig+0x240>)
 8004938:	681b      	ldr	r3, [r3, #0]
 800493a:	f003 0302 	and.w	r3, r3, #2
 800493e:	2b00      	cmp	r3, #0
 8004940:	d1f0      	bne.n	8004924 <HAL_RCC_OscConfig+0x1c0>
        }
      }
    }
  }
  /*------------------------------ LSI Configuration -------------------------*/
  if (((RCC_OscInitStruct->OscillatorType) & RCC_OSCILLATORTYPE_LSI) == RCC_OSCILLATORTYPE_LSI)
 8004942:	687b      	ldr	r3, [r7, #4]
 8004944:	681b      	ldr	r3, [r3, #0]
 8004946:	f003 0308 	and.w	r3, r3, #8
 800494a:	2b00      	cmp	r3, #0
 800494c:	d036      	beq.n	80049bc <HAL_RCC_OscConfig+0x258>
  {
    /* Check the parameters */
    assert_param(IS_RCC_LSI(RCC_OscInitStruct->LSIState));

    /* Check the LSI State */
    if ((RCC_OscInitStruct->LSIState) != RCC_LSI_OFF)
 800494e:	687b      	ldr	r3, [r7, #4]
 8004950:	695b      	ldr	r3, [r3, #20]
 8004952:	2b00      	cmp	r3, #0
 8004954:	d016      	beq.n	8004984 <HAL_RCC_OscConfig+0x220>
    {
      /* Enable the Internal Low Speed oscillator (LSI). */
      __HAL_RCC_LSI_ENABLE();
 8004956:	4b15      	ldr	r3, [pc, #84]	@ (80049ac <HAL_RCC_OscConfig+0x248>)
 8004958:	2201      	movs	r2, #1
 800495a:	601a      	str	r2, [r3, #0]

      /* Get Start Tick*/
      tickstart = HAL_GetTick();
 800495c:	f7fd ff70 	bl	8002840 <HAL_GetTick>
 8004960:	6138      	str	r0, [r7, #16]

      /* Wait till LSI is ready */
      while (__HAL_RCC_GET_FLAG(RCC_FLAG_LSIRDY) == RESET)
 8004962:	e008      	b.n	8004976 <HAL_RCC_OscConfig+0x212>
      {
        if ((HAL_GetTick() - tickstart) > LSI_TIMEOUT_VALUE)
 8004964:	f7fd ff6c 	bl	8002840 <HAL_GetTick>
 8004968:	4602      	mov	r2, r0
 800496a:	693b      	ldr	r3, [r7, #16]
 800496c:	1ad3      	subs	r3, r2, r3
 800496e:	2b02      	cmp	r3, #2
 8004970:	d901      	bls.n	8004976 <HAL_RCC_OscConfig+0x212>
        {
          return HAL_TIMEOUT;
 8004972:	2303      	movs	r3, #3
 8004974:	e167      	b.n	8004c46 <HAL_RCC_OscConfig+0x4e2>
      while (__HAL_RCC_GET_FLAG(RCC_FLAG_LSIRDY) == RESET)
 8004976:	4b0b      	ldr	r3, [pc, #44]	@ (80049a4 <HAL_RCC_OscConfig+0x240>)
 8004978:	6f5b      	ldr	r3, [r3, #116]	@ 0x74
 800497a:	f003 0302 	and.w	r3, r3, #2
 800497e:	2b00      	cmp	r3, #0
 8004980:	d0f0      	beq.n	8004964 <HAL_RCC_OscConfig+0x200>
 8004982:	e01b      	b.n	80049bc <HAL_RCC_OscConfig+0x258>
      }
    }
    else
    {
      /* Disable the Internal Low Speed oscillator (LSI). */
      __HAL_RCC_LSI_DISABLE();
 8004984:	4b09      	ldr	r3, [pc, #36]	@ (80049ac <HAL_RCC_OscConfig+0x248>)
 8004986:	2200      	movs	r2, #0
 8004988:	601a      	str	r2, [r3, #0]

      /* Get Start Tick */
      tickstart = HAL_GetTick();
 800498a:	f7fd ff59 	bl	8002840 <HAL_GetTick>
 800498e:	6138      	str	r0, [r7, #16]

      /* Wait till LSI is ready */
      while (__HAL_RCC_GET_FLAG(RCC_FLAG_LSIRDY) != RESET)
 8004990:	e00e      	b.n	80049b0 <HAL_RCC_OscConfig+0x24c>
      {
        if ((HAL_GetTick() - tickstart) > LSI_TIMEOUT_VALUE)
 8004992:	f7fd ff55 	bl	8002840 <HAL_GetTick>
 8004996:	4602      	mov	r2, r0
 8004998:	693b      	ldr	r3, [r7, #16]
 800499a:	1ad3      	subs	r3, r2, r3
 800499c:	2b02      	cmp	r3, #2
 800499e:	d907      	bls.n	80049b0 <HAL_RCC_OscConfig+0x24c>
        {
          return HAL_TIMEOUT;
 80049a0:	2303      	movs	r3, #3
 80049a2:	e150      	b.n	8004c46 <HAL_RCC_OscConfig+0x4e2>
 80049a4:	40023800 	.word	0x40023800
 80049a8:	42470000 	.word	0x42470000
 80049ac:	42470e80 	.word	0x42470e80
      while (__HAL_RCC_GET_FLAG(RCC_FLAG_LSIRDY) != RESET)
 80049b0:	4b88      	ldr	r3, [pc, #544]	@ (8004bd4 <HAL_RCC_OscConfig+0x470>)
 80049b2:	6f5b      	ldr	r3, [r3, #116]	@ 0x74
 80049b4:	f003 0302 	and.w	r3, r3, #2
 80049b8:	2b00      	cmp	r3, #0
 80049ba:	d1ea      	bne.n	8004992 <HAL_RCC_OscConfig+0x22e>
        }
      }
    }
  }
  /*------------------------------ LSE Configuration -------------------------*/
  if (((RCC_OscInitStruct->OscillatorType) & RCC_OSCILLATORTYPE_LSE) == RCC_OSCILLATORTYPE_LSE)
 80049bc:	687b      	ldr	r3, [r7, #4]
 80049be:	681b      	ldr	r3, [r3, #0]
 80049c0:	f003 0304 	and.w	r3, r3, #4
 80049c4:	2b00      	cmp	r3, #0
 80049c6:	f000 8097 	beq.w	8004af8 <HAL_RCC_OscConfig+0x394>
  {
    FlagStatus       pwrclkchanged = RESET;
 80049ca:	2300      	movs	r3, #0
 80049cc:	75fb      	strb	r3, [r7, #23]
    /* Check the parameters */
    assert_param(IS_RCC_LSE(RCC_OscInitStruct->LSEState));

    /* Update LSE configuration in Backup Domain control register    */
    /* Requires to enable write access to Backup Domain of necessary */
    if (__HAL_RCC_PWR_IS_CLK_DISABLED())
 80049ce:	4b81      	ldr	r3, [pc, #516]	@ (8004bd4 <HAL_RCC_OscConfig+0x470>)
 80049d0:	6c1b      	ldr	r3, [r3, #64]	@ 0x40
 80049d2:	f003 5380 	and.w	r3, r3, #268435456	@ 0x10000000
 80049d6:	2b00      	cmp	r3, #0
 80049d8:	d10f      	bne.n	80049fa <HAL_RCC_OscConfig+0x296>
    {
      __HAL_RCC_PWR_CLK_ENABLE();
 80049da:	2300      	movs	r3, #0
 80049dc:	60bb      	str	r3, [r7, #8]
 80049de:	4b7d      	ldr	r3, [pc, #500]	@ (8004bd4 <HAL_RCC_OscConfig+0x470>)
 80049e0:	6c1b      	ldr	r3, [r3, #64]	@ 0x40
 80049e2:	4a7c      	ldr	r2, [pc, #496]	@ (8004bd4 <HAL_RCC_OscConfig+0x470>)
 80049e4:	f043 5380 	orr.w	r3, r3, #268435456	@ 0x10000000
 80049e8:	6413      	str	r3, [r2, #64]	@ 0x40
 80049ea:	4b7a      	ldr	r3, [pc, #488]	@ (8004bd4 <HAL_RCC_OscConfig+0x470>)
 80049ec:	6c1b      	ldr	r3, [r3, #64]	@ 0x40
 80049ee:	f003 5380 	and.w	r3, r3, #268435456	@ 0x10000000
 80049f2:	60bb      	str	r3, [r7, #8]
 80049f4:	68bb      	ldr	r3, [r7, #8]
      pwrclkchanged = SET;
 80049f6:	2301      	movs	r3, #1
 80049f8:	75fb      	strb	r3, [r7, #23]
    }

    if (HAL_IS_BIT_CLR(PWR->CR, PWR_CR_DBP))
 80049fa:	4b77      	ldr	r3, [pc, #476]	@ (8004bd8 <HAL_RCC_OscConfig+0x474>)
 80049fc:	681b      	ldr	r3, [r3, #0]
 80049fe:	f403 7380 	and.w	r3, r3, #256	@ 0x100
 8004a02:	2b00      	cmp	r3, #0
 8004a04:	d118      	bne.n	8004a38 <HAL_RCC_OscConfig+0x2d4>
    {
      /* Enable write access to Backup domain */
      SET_BIT(PWR->CR, PWR_CR_DBP);
 8004a06:	4b74      	ldr	r3, [pc, #464]	@ (8004bd8 <HAL_RCC_OscConfig+0x474>)
 8004a08:	681b      	ldr	r3, [r3, #0]
 8004a0a:	4a73      	ldr	r2, [pc, #460]	@ (8004bd8 <HAL_RCC_OscConfig+0x474>)
 8004a0c:	f443 7380 	orr.w	r3, r3, #256	@ 0x100
 8004a10:	6013      	str	r3, [r2, #0]

      /* Wait for Backup domain Write protection disable */
      tickstart = HAL_GetTick();
 8004a12:	f7fd ff15 	bl	8002840 <HAL_GetTick>
 8004a16:	6138      	str	r0, [r7, #16]

      while (HAL_IS_BIT_CLR(PWR->CR, PWR_CR_DBP))
 8004a18:	e008      	b.n	8004a2c <HAL_RCC_OscConfig+0x2c8>
      {
        if ((HAL_GetTick() - tickstart) > RCC_DBP_TIMEOUT_VALUE)
 8004a1a:	f7fd ff11 	bl	8002840 <HAL_GetTick>
 8004a1e:	4602      	mov	r2, r0
 8004a20:	693b      	ldr	r3, [r7, #16]
 8004a22:	1ad3      	subs	r3, r2, r3
 8004a24:	2b02      	cmp	r3, #2
 8004a26:	d901      	bls.n	8004a2c <HAL_RCC_OscConfig+0x2c8>
        {
          return HAL_TIMEOUT;
 8004a28:	2303      	movs	r3, #3
 8004a2a:	e10c      	b.n	8004c46 <HAL_RCC_OscConfig+0x4e2>
      while (HAL_IS_BIT_CLR(PWR->CR, PWR_CR_DBP))
 8004a2c:	4b6a      	ldr	r3, [pc, #424]	@ (8004bd8 <HAL_RCC_OscConfig+0x474>)
 8004a2e:	681b      	ldr	r3, [r3, #0]
 8004a30:	f403 7380 	and.w	r3, r3, #256	@ 0x100
 8004a34:	2b00      	cmp	r3, #0
 8004a36:	d0f0      	beq.n	8004a1a <HAL_RCC_OscConfig+0x2b6>
        }
      }
    }

    /* Set the new LSE configuration -----------------------------------------*/
    __HAL_RCC_LSE_CONFIG(RCC_OscInitStruct->LSEState);
 8004a38:	687b      	ldr	r3, [r7, #4]
 8004a3a:	689b      	ldr	r3, [r3, #8]
 8004a3c:	2b01      	cmp	r3, #1
 8004a3e:	d106      	bne.n	8004a4e <HAL_RCC_OscConfig+0x2ea>
 8004a40:	4b64      	ldr	r3, [pc, #400]	@ (8004bd4 <HAL_RCC_OscConfig+0x470>)
 8004a42:	6f1b      	ldr	r3, [r3, #112]	@ 0x70
 8004a44:	4a63      	ldr	r2, [pc, #396]	@ (8004bd4 <HAL_RCC_OscConfig+0x470>)
 8004a46:	f043 0301 	orr.w	r3, r3, #1
 8004a4a:	6713      	str	r3, [r2, #112]	@ 0x70
 8004a4c:	e01c      	b.n	8004a88 <HAL_RCC_OscConfig+0x324>
 8004a4e:	687b      	ldr	r3, [r7, #4]
 8004a50:	689b      	ldr	r3, [r3, #8]
 8004a52:	2b05      	cmp	r3, #5
 8004a54:	d10c      	bne.n	8004a70 <HAL_RCC_OscConfig+0x30c>
 8004a56:	4b5f      	ldr	r3, [pc, #380]	@ (8004bd4 <HAL_RCC_OscConfig+0x470>)
 8004a58:	6f1b      	ldr	r3, [r3, #112]	@ 0x70
 8004a5a:	4a5e      	ldr	r2, [pc, #376]	@ (8004bd4 <HAL_RCC_OscConfig+0x470>)
 8004a5c:	f043 0304 	orr.w	r3, r3, #4
 8004a60:	6713      	str	r3, [r2, #112]	@ 0x70
 8004a62:	4b5c      	ldr	r3, [pc, #368]	@ (8004bd4 <HAL_RCC_OscConfig+0x470>)
 8004a64:	6f1b      	ldr	r3, [r3, #112]	@ 0x70
 8004a66:	4a5b      	ldr	r2, [pc, #364]	@ (8004bd4 <HAL_RCC_OscConfig+0x470>)
 8004a68:	f043 0301 	orr.w	r3, r3, #1
 8004a6c:	6713      	str	r3, [r2, #112]	@ 0x70
 8004a6e:	e00b      	b.n	8004a88 <HAL_RCC_OscConfig+0x324>
 8004a70:	4b58      	ldr	r3, [pc, #352]	@ (8004bd4 <HAL_RCC_OscConfig+0x470>)
 8004a72:	6f1b      	ldr	r3, [r3, #112]	@ 0x70
 8004a74:	4a57      	ldr	r2, [pc, #348]	@ (8004bd4 <HAL_RCC_OscConfig+0x470>)
 8004a76:	f023 0301 	bic.w	r3, r3, #1
 8004a7a:	6713      	str	r3, [r2, #112]	@ 0x70
 8004a7c:	4b55      	ldr	r3, [pc, #340]	@ (8004bd4 <HAL_RCC_OscConfig+0x470>)
 8004a7e:	6f1b      	ldr	r3, [r3, #112]	@ 0x70
 8004a80:	4a54      	ldr	r2, [pc, #336]	@ (8004bd4 <HAL_RCC_OscConfig+0x470>)
 8004a82:	f023 0304 	bic.w	r3, r3, #4
 8004a86:	6713      	str	r3, [r2, #112]	@ 0x70
    /* Check the LSE State */
    if ((RCC_OscInitStruct->LSEState) != RCC_LSE_OFF)
 8004a88:	687b      	ldr	r3, [r7, #4]
 8004a8a:	689b      	ldr	r3, [r3, #8]
 8004a8c:	2b00      	cmp	r3, #0
 8004a8e:	d015      	beq.n	8004abc <HAL_RCC_OscConfig+0x358>
    {
      /* Get Start Tick*/
      tickstart = HAL_GetTick();
 8004a90:	f7fd fed6 	bl	8002840 <HAL_GetTick>
 8004a94:	6138      	str	r0, [r7, #16]

      /* Wait till LSE is ready */
      while (__HAL_RCC_GET_FLAG(RCC_FLAG_LSERDY) == RESET)
 8004a96:	e00a      	b.n	8004aae <HAL_RCC_OscConfig+0x34a>
      {
        if ((HAL_GetTick() - tickstart) > RCC_LSE_TIMEOUT_VALUE)
 8004a98:	f7fd fed2 	bl	8002840 <HAL_GetTick>
 8004a9c:	4602      	mov	r2, r0
 8004a9e:	693b      	ldr	r3, [r7, #16]
 8004aa0:	1ad3      	subs	r3, r2, r3
 8004aa2:	f241 3288 	movw	r2, #5000	@ 0x1388
 8004aa6:	4293      	cmp	r3, r2
 8004aa8:	d901      	bls.n	8004aae <HAL_RCC_OscConfig+0x34a>
        {
          return HAL_TIMEOUT;
 8004aaa:	2303      	movs	r3, #3
 8004aac:	e0cb      	b.n	8004c46 <HAL_RCC_OscConfig+0x4e2>
      while (__HAL_RCC_GET_FLAG(RCC_FLAG_LSERDY) == RESET)
 8004aae:	4b49      	ldr	r3, [pc, #292]	@ (8004bd4 <HAL_RCC_OscConfig+0x470>)
 8004ab0:	6f1b      	ldr	r3, [r3, #112]	@ 0x70
 8004ab2:	f003 0302 	and.w	r3, r3, #2
 8004ab6:	2b00      	cmp	r3, #0
 8004ab8:	d0ee      	beq.n	8004a98 <HAL_RCC_OscConfig+0x334>
 8004aba:	e014      	b.n	8004ae6 <HAL_RCC_OscConfig+0x382>
      }
    }
    else
    {
      /* Get Start Tick */
      tickstart = HAL_GetTick();
 8004abc:	f7fd fec0 	bl	8002840 <HAL_GetTick>
 8004ac0:	6138      	str	r0, [r7, #16]

      /* Wait till LSE is ready */
      while (__HAL_RCC_GET_FLAG(RCC_FLAG_LSERDY) != RESET)
 8004ac2:	e00a      	b.n	8004ada <HAL_RCC_OscConfig+0x376>
      {
        if ((HAL_GetTick() - tickstart) > RCC_LSE_TIMEOUT_VALUE)
 8004ac4:	f7fd febc 	bl	8002840 <HAL_GetTick>
 8004ac8:	4602      	mov	r2, r0
 8004aca:	693b      	ldr	r3, [r7, #16]
 8004acc:	1ad3      	subs	r3, r2, r3
 8004ace:	f241 3288 	movw	r2, #5000	@ 0x1388
 8004ad2:	4293      	cmp	r3, r2
 8004ad4:	d901      	bls.n	8004ada <HAL_RCC_OscConfig+0x376>
        {
          return HAL_TIMEOUT;
 8004ad6:	2303      	movs	r3, #3
 8004ad8:	e0b5      	b.n	8004c46 <HAL_RCC_OscConfig+0x4e2>
      while (__HAL_RCC_GET_FLAG(RCC_FLAG_LSERDY) != RESET)
 8004ada:	4b3e      	ldr	r3, [pc, #248]	@ (8004bd4 <HAL_RCC_OscConfig+0x470>)
 8004adc:	6f1b      	ldr	r3, [r3, #112]	@ 0x70
 8004ade:	f003 0302 	and.w	r3, r3, #2
 8004ae2:	2b00      	cmp	r3, #0
 8004ae4:	d1ee      	bne.n	8004ac4 <HAL_RCC_OscConfig+0x360>
        }
      }
    }

    /* Restore clock configuration if changed */
    if (pwrclkchanged == SET)
 8004ae6:	7dfb      	ldrb	r3, [r7, #23]
 8004ae8:	2b01      	cmp	r3, #1
 8004aea:	d105      	bne.n	8004af8 <HAL_RCC_OscConfig+0x394>
    {
      __HAL_RCC_PWR_CLK_DISABLE();
 8004aec:	4b39      	ldr	r3, [pc, #228]	@ (8004bd4 <HAL_RCC_OscConfig+0x470>)
 8004aee:	6c1b      	ldr	r3, [r3, #64]	@ 0x40
 8004af0:	4a38      	ldr	r2, [pc, #224]	@ (8004bd4 <HAL_RCC_OscConfig+0x470>)
 8004af2:	f023 5380 	bic.w	r3, r3, #268435456	@ 0x10000000
 8004af6:	6413      	str	r3, [r2, #64]	@ 0x40
    }
  }
  /*-------------------------------- PLL Configuration -----------------------*/
  /* Check the parameters */
  assert_param(IS_RCC_PLL(RCC_OscInitStruct->PLL.PLLState));
  if ((RCC_OscInitStruct->PLL.PLLState) != RCC_PLL_NONE)
 8004af8:	687b      	ldr	r3, [r7, #4]
 8004afa:	699b      	ldr	r3, [r3, #24]
 8004afc:	2b00      	cmp	r3, #0
 8004afe:	f000 80a1 	beq.w	8004c44 <HAL_RCC_OscConfig+0x4e0>
  {
    /* Check if the PLL is used as system clock or not */
    if (__HAL_RCC_GET_SYSCLK_SOURCE() != RCC_CFGR_SWS_PLL)
 8004b02:	4b34      	ldr	r3, [pc, #208]	@ (8004bd4 <HAL_RCC_OscConfig+0x470>)
 8004b04:	689b      	ldr	r3, [r3, #8]
 8004b06:	f003 030c 	and.w	r3, r3, #12
 8004b0a:	2b08      	cmp	r3, #8
 8004b0c:	d05c      	beq.n	8004bc8 <HAL_RCC_OscConfig+0x464>
    {
      if ((RCC_OscInitStruct->PLL.PLLState) == RCC_PLL_ON)
 8004b0e:	687b      	ldr	r3, [r7, #4]
 8004b10:	699b      	ldr	r3, [r3, #24]
 8004b12:	2b02      	cmp	r3, #2
 8004b14:	d141      	bne.n	8004b9a <HAL_RCC_OscConfig+0x436>
        assert_param(IS_RCC_PLLN_VALUE(RCC_OscInitStruct->PLL.PLLN));
        assert_param(IS_RCC_PLLP_VALUE(RCC_OscInitStruct->PLL.PLLP));
        assert_param(IS_RCC_PLLQ_VALUE(RCC_OscInitStruct->PLL.PLLQ));

        /* Disable the main PLL. */
        __HAL_RCC_PLL_DISABLE();
 8004b16:	4b31      	ldr	r3, [pc, #196]	@ (8004bdc <HAL_RCC_OscConfig+0x478>)
 8004b18:	2200      	movs	r2, #0
 8004b1a:	601a      	str	r2, [r3, #0]

        /* Get Start Tick */
        tickstart = HAL_GetTick();
 8004b1c:	f7fd fe90 	bl	8002840 <HAL_GetTick>
 8004b20:	6138      	str	r0, [r7, #16]

        /* Wait till PLL is disabled */
        while (__HAL_RCC_GET_FLAG(RCC_FLAG_PLLRDY) != RESET)
 8004b22:	e008      	b.n	8004b36 <HAL_RCC_OscConfig+0x3d2>
        {
          if ((HAL_GetTick() - tickstart) > PLL_TIMEOUT_VALUE)
 8004b24:	f7fd fe8c 	bl	8002840 <HAL_GetTick>
 8004b28:	4602      	mov	r2, r0
 8004b2a:	693b      	ldr	r3, [r7, #16]
 8004b2c:	1ad3      	subs	r3, r2, r3
 8004b2e:	2b02      	cmp	r3, #2
 8004b30:	d901      	bls.n	8004b36 <HAL_RCC_OscConfig+0x3d2>
          {
            return HAL_TIMEOUT;
 8004b32:	2303      	movs	r3, #3
 8004b34:	e087      	b.n	8004c46 <HAL_RCC_OscConfig+0x4e2>
        while (__HAL_RCC_GET_FLAG(RCC_FLAG_PLLRDY) != RESET)
 8004b36:	4b27      	ldr	r3, [pc, #156]	@ (8004bd4 <HAL_RCC_OscConfig+0x470>)
 8004b38:	681b      	ldr	r3, [r3, #0]
 8004b3a:	f003 7300 	and.w	r3, r3, #33554432	@ 0x2000000
 8004b3e:	2b00      	cmp	r3, #0
 8004b40:	d1f0      	bne.n	8004b24 <HAL_RCC_OscConfig+0x3c0>
          }
        }

        /* Configure the main PLL clock source, multiplication and division factors. */
        WRITE_REG(RCC->PLLCFGR, (RCC_OscInitStruct->PLL.PLLSource                                            | \
 8004b42:	687b      	ldr	r3, [r7, #4]
 8004b44:	69da      	ldr	r2, [r3, #28]
 8004b46:	687b      	ldr	r3, [r7, #4]
 8004b48:	6a1b      	ldr	r3, [r3, #32]
 8004b4a:	431a      	orrs	r2, r3
 8004b4c:	687b      	ldr	r3, [r7, #4]
 8004b4e:	6a5b      	ldr	r3, [r3, #36]	@ 0x24
 8004b50:	019b      	lsls	r3, r3, #6
 8004b52:	431a      	orrs	r2, r3
 8004b54:	687b      	ldr	r3, [r7, #4]
 8004b56:	6a9b      	ldr	r3, [r3, #40]	@ 0x28
 8004b58:	085b      	lsrs	r3, r3, #1
 8004b5a:	3b01      	subs	r3, #1
 8004b5c:	041b      	lsls	r3, r3, #16
 8004b5e:	431a      	orrs	r2, r3
 8004b60:	687b      	ldr	r3, [r7, #4]
 8004b62:	6adb      	ldr	r3, [r3, #44]	@ 0x2c
 8004b64:	061b      	lsls	r3, r3, #24
 8004b66:	491b      	ldr	r1, [pc, #108]	@ (8004bd4 <HAL_RCC_OscConfig+0x470>)
 8004b68:	4313      	orrs	r3, r2
 8004b6a:	604b      	str	r3, [r1, #4]
                                 RCC_OscInitStruct->PLL.PLLM                                                 | \
                                 (RCC_OscInitStruct->PLL.PLLN << RCC_PLLCFGR_PLLN_Pos)             | \
                                 (((RCC_OscInitStruct->PLL.PLLP >> 1U) - 1U) << RCC_PLLCFGR_PLLP_Pos) | \
                                 (RCC_OscInitStruct->PLL.PLLQ << RCC_PLLCFGR_PLLQ_Pos)));
        /* Enable the main PLL. */
        __HAL_RCC_PLL_ENABLE();
 8004b6c:	4b1b      	ldr	r3, [pc, #108]	@ (8004bdc <HAL_RCC_OscConfig+0x478>)
 8004b6e:	2201      	movs	r2, #1
 8004b70:	601a      	str	r2, [r3, #0]

        /* Get Start Tick */
        tickstart = HAL_GetTick();
 8004b72:	f7fd fe65 	bl	8002840 <HAL_GetTick>
 8004b76:	6138      	str	r0, [r7, #16]

        /* Wait till PLL is ready */
        while (__HAL_RCC_GET_FLAG(RCC_FLAG_PLLRDY) == RESET)
 8004b78:	e008      	b.n	8004b8c <HAL_RCC_OscConfig+0x428>
        {
          if ((HAL_GetTick() - tickstart) > PLL_TIMEOUT_VALUE)
 8004b7a:	f7fd fe61 	bl	8002840 <HAL_GetTick>
 8004b7e:	4602      	mov	r2, r0
 8004b80:	693b      	ldr	r3, [r7, #16]
 8004b82:	1ad3      	subs	r3, r2, r3
 8004b84:	2b02      	cmp	r3, #2
 8004b86:	d901      	bls.n	8004b8c <HAL_RCC_OscConfig+0x428>
          {
            return HAL_TIMEOUT;
 8004b88:	2303      	movs	r3, #3
 8004b8a:	e05c      	b.n	8004c46 <HAL_RCC_OscConfig+0x4e2>
        while (__HAL_RCC_GET_FLAG(RCC_FLAG_PLLRDY) == RESET)
 8004b8c:	4b11      	ldr	r3, [pc, #68]	@ (8004bd4 <HAL_RCC_OscConfig+0x470>)
 8004b8e:	681b      	ldr	r3, [r3, #0]
 8004b90:	f003 7300 	and.w	r3, r3, #33554432	@ 0x2000000
 8004b94:	2b00      	cmp	r3, #0
 8004b96:	d0f0      	beq.n	8004b7a <HAL_RCC_OscConfig+0x416>
 8004b98:	e054      	b.n	8004c44 <HAL_RCC_OscConfig+0x4e0>
        }
      }
      else
      {
        /* Disable the main PLL. */
        __HAL_RCC_PLL_DISABLE();
 8004b9a:	4b10      	ldr	r3, [pc, #64]	@ (8004bdc <HAL_RCC_OscConfig+0x478>)
 8004b9c:	2200      	movs	r2, #0
 8004b9e:	601a      	str	r2, [r3, #0]

        /* Get Start Tick */
        tickstart = HAL_GetTick();
 8004ba0:	f7fd fe4e 	bl	8002840 <HAL_GetTick>
 8004ba4:	6138      	str	r0, [r7, #16]

        /* Wait till PLL is disabled */
        while (__HAL_RCC_GET_FLAG(RCC_FLAG_PLLRDY) != RESET)
 8004ba6:	e008      	b.n	8004bba <HAL_RCC_OscConfig+0x456>
        {
          if ((HAL_GetTick() - tickstart) > PLL_TIMEOUT_VALUE)
 8004ba8:	f7fd fe4a 	bl	8002840 <HAL_GetTick>
 8004bac:	4602      	mov	r2, r0
 8004bae:	693b      	ldr	r3, [r7, #16]
 8004bb0:	1ad3      	subs	r3, r2, r3
 8004bb2:	2b02      	cmp	r3, #2
 8004bb4:	d901      	bls.n	8004bba <HAL_RCC_OscConfig+0x456>
          {
            return HAL_TIMEOUT;
 8004bb6:	2303      	movs	r3, #3
 8004bb8:	e045      	b.n	8004c46 <HAL_RCC_OscConfig+0x4e2>
        while (__HAL_RCC_GET_FLAG(RCC_FLAG_PLLRDY) != RESET)
 8004bba:	4b06      	ldr	r3, [pc, #24]	@ (8004bd4 <HAL_RCC_OscConfig+0x470>)
 8004bbc:	681b      	ldr	r3, [r3, #0]
 8004bbe:	f003 7300 	and.w	r3, r3, #33554432	@ 0x2000000
 8004bc2:	2b00      	cmp	r3, #0
 8004bc4:	d1f0      	bne.n	8004ba8 <HAL_RCC_OscConfig+0x444>
 8004bc6:	e03d      	b.n	8004c44 <HAL_RCC_OscConfig+0x4e0>
      }
    }
    else
    {
      /* Check if there is a request to disable the PLL used as System clock source */
      if ((RCC_OscInitStruct->PLL.PLLState) == RCC_PLL_OFF)
 8004bc8:	687b      	ldr	r3, [r7, #4]
 8004bca:	699b      	ldr	r3, [r3, #24]
 8004bcc:	2b01      	cmp	r3, #1
 8004bce:	d107      	bne.n	8004be0 <HAL_RCC_OscConfig+0x47c>
      {
        return HAL_ERROR;
 8004bd0:	2301      	movs	r3, #1
 8004bd2:	e038      	b.n	8004c46 <HAL_RCC_OscConfig+0x4e2>
 8004bd4:	40023800 	.word	0x40023800
 8004bd8:	40007000 	.word	0x40007000
 8004bdc:	42470060 	.word	0x42470060
      }
      else
      {
        /* Do not return HAL_ERROR if request repeats the current configuration */
        pll_config = RCC->PLLCFGR;
 8004be0:	4b1b      	ldr	r3, [pc, #108]	@ (8004c50 <HAL_RCC_OscConfig+0x4ec>)
 8004be2:	685b      	ldr	r3, [r3, #4]
 8004be4:	60fb      	str	r3, [r7, #12]
            (READ_BIT(pll_config, RCC_PLLCFGR_PLLN) != (RCC_OscInitStruct->PLL.PLLN) << RCC_PLLCFGR_PLLN_Pos) ||
            (READ_BIT(pll_config, RCC_PLLCFGR_PLLP) != (((RCC_OscInitStruct->PLL.PLLP >> 1U) - 1U)) << RCC_PLLCFGR_PLLP_Pos) ||
            (READ_BIT(pll_config, RCC_PLLCFGR_PLLQ) != (RCC_OscInitStruct->PLL.PLLQ << RCC_PLLCFGR_PLLQ_Pos)) ||
            (READ_BIT(pll_config, RCC_PLLCFGR_PLLR) != (RCC_OscInitStruct->PLL.PLLR << RCC_PLLCFGR_PLLR_Pos)))
#else
        if (((RCC_OscInitStruct->PLL.PLLState) == RCC_PLL_OFF) ||
 8004be6:	687b      	ldr	r3, [r7, #4]
 8004be8:	699b      	ldr	r3, [r3, #24]
 8004bea:	2b01      	cmp	r3, #1
 8004bec:	d028      	beq.n	8004c40 <HAL_RCC_OscConfig+0x4dc>
            (READ_BIT(pll_config, RCC_PLLCFGR_PLLSRC) != RCC_OscInitStruct->PLL.PLLSource) ||
 8004bee:	68fb      	ldr	r3, [r7, #12]
 8004bf0:	f403 0280 	and.w	r2, r3, #4194304	@ 0x400000
 8004bf4:	687b      	ldr	r3, [r7, #4]
 8004bf6:	69db      	ldr	r3, [r3, #28]
        if (((RCC_OscInitStruct->PLL.PLLState) == RCC_PLL_OFF) ||
 8004bf8:	429a      	cmp	r2, r3
 8004bfa:	d121      	bne.n	8004c40 <HAL_RCC_OscConfig+0x4dc>
            (READ_BIT(pll_config, RCC_PLLCFGR_PLLM) != (RCC_OscInitStruct->PLL.PLLM) << RCC_PLLCFGR_PLLM_Pos) ||
 8004bfc:	68fb      	ldr	r3, [r7, #12]
 8004bfe:	f003 023f 	and.w	r2, r3, #63	@ 0x3f
 8004c02:	687b      	ldr	r3, [r7, #4]
 8004c04:	6a1b      	ldr	r3, [r3, #32]
            (READ_BIT(pll_config, RCC_PLLCFGR_PLLSRC) != RCC_OscInitStruct->PLL.PLLSource) ||
 8004c06:	429a      	cmp	r2, r3
 8004c08:	d11a      	bne.n	8004c40 <HAL_RCC_OscConfig+0x4dc>
            (READ_BIT(pll_config, RCC_PLLCFGR_PLLN) != (RCC_OscInitStruct->PLL.PLLN) << RCC_PLLCFGR_PLLN_Pos) ||
 8004c0a:	68fa      	ldr	r2, [r7, #12]
 8004c0c:	f647 73c0 	movw	r3, #32704	@ 0x7fc0
 8004c10:	4013      	ands	r3, r2
 8004c12:	687a      	ldr	r2, [r7, #4]
 8004c14:	6a52      	ldr	r2, [r2, #36]	@ 0x24
 8004c16:	0192      	lsls	r2, r2, #6
            (READ_BIT(pll_config, RCC_PLLCFGR_PLLM) != (RCC_OscInitStruct->PLL.PLLM) << RCC_PLLCFGR_PLLM_Pos) ||
 8004c18:	4293      	cmp	r3, r2
 8004c1a:	d111      	bne.n	8004c40 <HAL_RCC_OscConfig+0x4dc>
            (READ_BIT(pll_config, RCC_PLLCFGR_PLLP) != (((RCC_OscInitStruct->PLL.PLLP >> 1U) - 1U)) << RCC_PLLCFGR_PLLP_Pos) ||
 8004c1c:	68fb      	ldr	r3, [r7, #12]
 8004c1e:	f403 3240 	and.w	r2, r3, #196608	@ 0x30000
 8004c22:	687b      	ldr	r3, [r7, #4]
 8004c24:	6a9b      	ldr	r3, [r3, #40]	@ 0x28
 8004c26:	085b      	lsrs	r3, r3, #1
 8004c28:	3b01      	subs	r3, #1
 8004c2a:	041b      	lsls	r3, r3, #16
            (READ_BIT(pll_config, RCC_PLLCFGR_PLLN) != (RCC_OscInitStruct->PLL.PLLN) << RCC_PLLCFGR_PLLN_Pos) ||
 8004c2c:	429a      	cmp	r2, r3
 8004c2e:	d107      	bne.n	8004c40 <HAL_RCC_OscConfig+0x4dc>
            (READ_BIT(pll_config, RCC_PLLCFGR_PLLQ) != (RCC_OscInitStruct->PLL.PLLQ << RCC_PLLCFGR_PLLQ_Pos)))
 8004c30:	68fb      	ldr	r3, [r7, #12]
 8004c32:	f003 6270 	and.w	r2, r3, #251658240	@ 0xf000000
 8004c36:	687b      	ldr	r3, [r7, #4]
 8004c38:	6adb      	ldr	r3, [r3, #44]	@ 0x2c
 8004c3a:	061b      	lsls	r3, r3, #24
            (READ_BIT(pll_config, RCC_PLLCFGR_PLLP) != (((RCC_OscInitStruct->PLL.PLLP >> 1U) - 1U)) << RCC_PLLCFGR_PLLP_Pos) ||
 8004c3c:	429a      	cmp	r2, r3
 8004c3e:	d001      	beq.n	8004c44 <HAL_RCC_OscConfig+0x4e0>
#endif /* RCC_PLLCFGR_PLLR */
        {
          return HAL_ERROR;
 8004c40:	2301      	movs	r3, #1
 8004c42:	e000      	b.n	8004c46 <HAL_RCC_OscConfig+0x4e2>
        }
      }
    }
  }
  return HAL_OK;
 8004c44:	2300      	movs	r3, #0
}
 8004c46:	4618      	mov	r0, r3
 8004c48:	3718      	adds	r7, #24
 8004c4a:	46bd      	mov	sp, r7
 8004c4c:	bd80      	pop	{r7, pc}
 8004c4e:	bf00      	nop
 8004c50:	40023800 	.word	0x40023800

08004c54 <HAL_RCC_ClockConfig>:
  *         HPRE[3:0] bits to ensure that HCLK not exceed the maximum allowed frequency
  *         (for more details refer to section above "Initialization/de-initialization functions")
  * @retval None
  */
HAL_StatusTypeDef HAL_RCC_ClockConfig(RCC_ClkInitTypeDef  *RCC_ClkInitStruct, uint32_t FLatency)
{
 8004c54:	b580      	push	{r7, lr}
 8004c56:	b084      	sub	sp, #16
 8004c58:	af00      	add	r7, sp, #0
 8004c5a:	6078      	str	r0, [r7, #4]
 8004c5c:	6039      	str	r1, [r7, #0]
  uint32_t tickstart;

  /* Check Null pointer */
  if (RCC_ClkInitStruct == NULL)
 8004c5e:	687b      	ldr	r3, [r7, #4]
 8004c60:	2b00      	cmp	r3, #0
 8004c62:	d101      	bne.n	8004c68 <HAL_RCC_ClockConfig+0x14>
  {
    return HAL_ERROR;
 8004c64:	2301      	movs	r3, #1
 8004c66:	e0cc      	b.n	8004e02 <HAL_RCC_ClockConfig+0x1ae>
  /* To correctly read data from FLASH memory, the number of wait states (LATENCY)
    must be correctly programmed according to the frequency of the CPU clock
    (HCLK) and the supply voltage of the device. */

  /* Increasing the number of wait states because of higher CPU frequency */
  if (FLatency > __HAL_FLASH_GET_LATENCY())
 8004c68:	4b68      	ldr	r3, [pc, #416]	@ (8004e0c <HAL_RCC_ClockConfig+0x1b8>)
 8004c6a:	681b      	ldr	r3, [r3, #0]
 8004c6c:	f003 0307 	and.w	r3, r3, #7
 8004c70:	683a      	ldr	r2, [r7, #0]
 8004c72:	429a      	cmp	r2, r3
 8004c74:	d90c      	bls.n	8004c90 <HAL_RCC_ClockConfig+0x3c>
  {
    /* Program the new number of wait states to the LATENCY bits in the FLASH_ACR register */
    __HAL_FLASH_SET_LATENCY(FLatency);
 8004c76:	4b65      	ldr	r3, [pc, #404]	@ (8004e0c <HAL_RCC_ClockConfig+0x1b8>)
 8004c78:	683a      	ldr	r2, [r7, #0]
 8004c7a:	b2d2      	uxtb	r2, r2
 8004c7c:	701a      	strb	r2, [r3, #0]

    /* Check that the new number of wait states is taken into account to access the Flash
    memory by reading the FLASH_ACR register */
    if (__HAL_FLASH_GET_LATENCY() != FLatency)
 8004c7e:	4b63      	ldr	r3, [pc, #396]	@ (8004e0c <HAL_RCC_ClockConfig+0x1b8>)
 8004c80:	681b      	ldr	r3, [r3, #0]
 8004c82:	f003 0307 	and.w	r3, r3, #7
 8004c86:	683a      	ldr	r2, [r7, #0]
 8004c88:	429a      	cmp	r2, r3
 8004c8a:	d001      	beq.n	8004c90 <HAL_RCC_ClockConfig+0x3c>
    {
      return HAL_ERROR;
 8004c8c:	2301      	movs	r3, #1
 8004c8e:	e0b8      	b.n	8004e02 <HAL_RCC_ClockConfig+0x1ae>
    }
  }

  /*-------------------------- HCLK Configuration --------------------------*/
  if (((RCC_ClkInitStruct->ClockType) & RCC_CLOCKTYPE_HCLK) == RCC_CLOCKTYPE_HCLK)
 8004c90:	687b      	ldr	r3, [r7, #4]
 8004c92:	681b      	ldr	r3, [r3, #0]
 8004c94:	f003 0302 	and.w	r3, r3, #2
 8004c98:	2b00      	cmp	r3, #0
 8004c9a:	d020      	beq.n	8004cde <HAL_RCC_ClockConfig+0x8a>
  {
    /* Set the highest APBx dividers in order to ensure that we do not go through
       a non-spec phase whatever we decrease or increase HCLK. */
    if (((RCC_ClkInitStruct->ClockType) & RCC_CLOCKTYPE_PCLK1) == RCC_CLOCKTYPE_PCLK1)
 8004c9c:	687b      	ldr	r3, [r7, #4]
 8004c9e:	681b      	ldr	r3, [r3, #0]
 8004ca0:	f003 0304 	and.w	r3, r3, #4
 8004ca4:	2b00      	cmp	r3, #0
 8004ca6:	d005      	beq.n	8004cb4 <HAL_RCC_ClockConfig+0x60>
    {
      MODIFY_REG(RCC->CFGR, RCC_CFGR_PPRE1, RCC_HCLK_DIV16);
 8004ca8:	4b59      	ldr	r3, [pc, #356]	@ (8004e10 <HAL_RCC_ClockConfig+0x1bc>)
 8004caa:	689b      	ldr	r3, [r3, #8]
 8004cac:	4a58      	ldr	r2, [pc, #352]	@ (8004e10 <HAL_RCC_ClockConfig+0x1bc>)
 8004cae:	f443 53e0 	orr.w	r3, r3, #7168	@ 0x1c00
 8004cb2:	6093      	str	r3, [r2, #8]
    }

    if (((RCC_ClkInitStruct->ClockType) & RCC_CLOCKTYPE_PCLK2) == RCC_CLOCKTYPE_PCLK2)
 8004cb4:	687b      	ldr	r3, [r7, #4]
 8004cb6:	681b      	ldr	r3, [r3, #0]
 8004cb8:	f003 0308 	and.w	r3, r3, #8
 8004cbc:	2b00      	cmp	r3, #0
 8004cbe:	d005      	beq.n	8004ccc <HAL_RCC_ClockConfig+0x78>
    {
      MODIFY_REG(RCC->CFGR, RCC_CFGR_PPRE2, (RCC_HCLK_DIV16 << 3));
 8004cc0:	4b53      	ldr	r3, [pc, #332]	@ (8004e10 <HAL_RCC_ClockConfig+0x1bc>)
 8004cc2:	689b      	ldr	r3, [r3, #8]
 8004cc4:	4a52      	ldr	r2, [pc, #328]	@ (8004e10 <HAL_RCC_ClockConfig+0x1bc>)
 8004cc6:	f443 4360 	orr.w	r3, r3, #57344	@ 0xe000
 8004cca:	6093      	str	r3, [r2, #8]
    }

    assert_param(IS_RCC_HCLK(RCC_ClkInitStruct->AHBCLKDivider));
    MODIFY_REG(RCC->CFGR, RCC_CFGR_HPRE, RCC_ClkInitStruct->AHBCLKDivider);
 8004ccc:	4b50      	ldr	r3, [pc, #320]	@ (8004e10 <HAL_RCC_ClockConfig+0x1bc>)
 8004cce:	689b      	ldr	r3, [r3, #8]
 8004cd0:	f023 02f0 	bic.w	r2, r3, #240	@ 0xf0
 8004cd4:	687b      	ldr	r3, [r7, #4]
 8004cd6:	689b      	ldr	r3, [r3, #8]
 8004cd8:	494d      	ldr	r1, [pc, #308]	@ (8004e10 <HAL_RCC_ClockConfig+0x1bc>)
 8004cda:	4313      	orrs	r3, r2
 8004cdc:	608b      	str	r3, [r1, #8]
  }

  /*------------------------- SYSCLK Configuration ---------------------------*/
  if (((RCC_ClkInitStruct->ClockType) & RCC_CLOCKTYPE_SYSCLK) == RCC_CLOCKTYPE_SYSCLK)
 8004cde:	687b      	ldr	r3, [r7, #4]
 8004ce0:	681b      	ldr	r3, [r3, #0]
 8004ce2:	f003 0301 	and.w	r3, r3, #1
 8004ce6:	2b00      	cmp	r3, #0
 8004ce8:	d044      	beq.n	8004d74 <HAL_RCC_ClockConfig+0x120>
  {
    assert_param(IS_RCC_SYSCLKSOURCE(RCC_ClkInitStruct->SYSCLKSource));

    /* HSE is selected as System Clock Source */
    if (RCC_ClkInitStruct->SYSCLKSource == RCC_SYSCLKSOURCE_HSE)
 8004cea:	687b      	ldr	r3, [r7, #4]
 8004cec:	685b      	ldr	r3, [r3, #4]
 8004cee:	2b01      	cmp	r3, #1
 8004cf0:	d107      	bne.n	8004d02 <HAL_RCC_ClockConfig+0xae>
    {
      /* Check the HSE ready flag */
      if (__HAL_RCC_GET_FLAG(RCC_FLAG_HSERDY) == RESET)
 8004cf2:	4b47      	ldr	r3, [pc, #284]	@ (8004e10 <HAL_RCC_ClockConfig+0x1bc>)
 8004cf4:	681b      	ldr	r3, [r3, #0]
 8004cf6:	f403 3300 	and.w	r3, r3, #131072	@ 0x20000
 8004cfa:	2b00      	cmp	r3, #0
 8004cfc:	d119      	bne.n	8004d32 <HAL_RCC_ClockConfig+0xde>
      {
        return HAL_ERROR;
 8004cfe:	2301      	movs	r3, #1
 8004d00:	e07f      	b.n	8004e02 <HAL_RCC_ClockConfig+0x1ae>
      }
    }
    /* PLL is selected as System Clock Source */
    else if ((RCC_ClkInitStruct->SYSCLKSource == RCC_SYSCLKSOURCE_PLLCLK)   ||
 8004d02:	687b      	ldr	r3, [r7, #4]
 8004d04:	685b      	ldr	r3, [r3, #4]
 8004d06:	2b02      	cmp	r3, #2
 8004d08:	d003      	beq.n	8004d12 <HAL_RCC_ClockConfig+0xbe>
             (RCC_ClkInitStruct->SYSCLKSource == RCC_SYSCLKSOURCE_PLLRCLK))
 8004d0a:	687b      	ldr	r3, [r7, #4]
 8004d0c:	685b      	ldr	r3, [r3, #4]
    else if ((RCC_ClkInitStruct->SYSCLKSource == RCC_SYSCLKSOURCE_PLLCLK)   ||
 8004d0e:	2b03      	cmp	r3, #3
 8004d10:	d107      	bne.n	8004d22 <HAL_RCC_ClockConfig+0xce>
    {
      /* Check the PLL ready flag */
      if (__HAL_RCC_GET_FLAG(RCC_FLAG_PLLRDY) == RESET)
 8004d12:	4b3f      	ldr	r3, [pc, #252]	@ (8004e10 <HAL_RCC_ClockConfig+0x1bc>)
 8004d14:	681b      	ldr	r3, [r3, #0]
 8004d16:	f003 7300 	and.w	r3, r3, #33554432	@ 0x2000000
 8004d1a:	2b00      	cmp	r3, #0
 8004d1c:	d109      	bne.n	8004d32 <HAL_RCC_ClockConfig+0xde>
      {
        return HAL_ERROR;
 8004d1e:	2301      	movs	r3, #1
 8004d20:	e06f      	b.n	8004e02 <HAL_RCC_ClockConfig+0x1ae>
    }
    /* HSI is selected as System Clock Source */
    else
    {
      /* Check the HSI ready flag */
      if (__HAL_RCC_GET_FLAG(RCC_FLAG_HSIRDY) == RESET)
 8004d22:	4b3b      	ldr	r3, [pc, #236]	@ (8004e10 <HAL_RCC_ClockConfig+0x1bc>)
 8004d24:	681b      	ldr	r3, [r3, #0]
 8004d26:	f003 0302 	and.w	r3, r3, #2
 8004d2a:	2b00      	cmp	r3, #0
 8004d2c:	d101      	bne.n	8004d32 <HAL_RCC_ClockConfig+0xde>
      {
        return HAL_ERROR;
 8004d2e:	2301      	movs	r3, #1
 8004d30:	e067      	b.n	8004e02 <HAL_RCC_ClockConfig+0x1ae>
      }
    }

    __HAL_RCC_SYSCLK_CONFIG(RCC_ClkInitStruct->SYSCLKSource);
 8004d32:	4b37      	ldr	r3, [pc, #220]	@ (8004e10 <HAL_RCC_ClockConfig+0x1bc>)
 8004d34:	689b      	ldr	r3, [r3, #8]
 8004d36:	f023 0203 	bic.w	r2, r3, #3
 8004d3a:	687b      	ldr	r3, [r7, #4]
 8004d3c:	685b      	ldr	r3, [r3, #4]
 8004d3e:	4934      	ldr	r1, [pc, #208]	@ (8004e10 <HAL_RCC_ClockConfig+0x1bc>)
 8004d40:	4313      	orrs	r3, r2
 8004d42:	608b      	str	r3, [r1, #8]

    /* Get Start Tick */
    tickstart = HAL_GetTick();
 8004d44:	f7fd fd7c 	bl	8002840 <HAL_GetTick>
 8004d48:	60f8      	str	r0, [r7, #12]

    while (__HAL_RCC_GET_SYSCLK_SOURCE() != (RCC_ClkInitStruct->SYSCLKSource << RCC_CFGR_SWS_Pos))
 8004d4a:	e00a      	b.n	8004d62 <HAL_RCC_ClockConfig+0x10e>
    {
      if ((HAL_GetTick() - tickstart) > CLOCKSWITCH_TIMEOUT_VALUE)
 8004d4c:	f7fd fd78 	bl	8002840 <HAL_GetTick>
 8004d50:	4602      	mov	r2, r0
 8004d52:	68fb      	ldr	r3, [r7, #12]
 8004d54:	1ad3      	subs	r3, r2, r3
 8004d56:	f241 3288 	movw	r2, #5000	@ 0x1388
 8004d5a:	4293      	cmp	r3, r2
 8004d5c:	d901      	bls.n	8004d62 <HAL_RCC_ClockConfig+0x10e>
      {
        return HAL_TIMEOUT;
 8004d5e:	2303      	movs	r3, #3
 8004d60:	e04f      	b.n	8004e02 <HAL_RCC_ClockConfig+0x1ae>
    while (__HAL_RCC_GET_SYSCLK_SOURCE() != (RCC_ClkInitStruct->SYSCLKSource << RCC_CFGR_SWS_Pos))
 8004d62:	4b2b      	ldr	r3, [pc, #172]	@ (8004e10 <HAL_RCC_ClockConfig+0x1bc>)
 8004d64:	689b      	ldr	r3, [r3, #8]
 8004d66:	f003 020c 	and.w	r2, r3, #12
 8004d6a:	687b      	ldr	r3, [r7, #4]
 8004d6c:	685b      	ldr	r3, [r3, #4]
 8004d6e:	009b      	lsls	r3, r3, #2
 8004d70:	429a      	cmp	r2, r3
 8004d72:	d1eb      	bne.n	8004d4c <HAL_RCC_ClockConfig+0xf8>
      }
    }
  }

  /* Decreasing the number of wait states because of lower CPU frequency */
  if (FLatency < __HAL_FLASH_GET_LATENCY())
 8004d74:	4b25      	ldr	r3, [pc, #148]	@ (8004e0c <HAL_RCC_ClockConfig+0x1b8>)
 8004d76:	681b      	ldr	r3, [r3, #0]
 8004d78:	f003 0307 	and.w	r3, r3, #7
 8004d7c:	683a      	ldr	r2, [r7, #0]
 8004d7e:	429a      	cmp	r2, r3
 8004d80:	d20c      	bcs.n	8004d9c <HAL_RCC_ClockConfig+0x148>
  {
    /* Program the new number of wait states to the LATENCY bits in the FLASH_ACR register */
    __HAL_FLASH_SET_LATENCY(FLatency);
 8004d82:	4b22      	ldr	r3, [pc, #136]	@ (8004e0c <HAL_RCC_ClockConfig+0x1b8>)
 8004d84:	683a      	ldr	r2, [r7, #0]
 8004d86:	b2d2      	uxtb	r2, r2
 8004d88:	701a      	strb	r2, [r3, #0]

    /* Check that the new number of wait states is taken into account to access the Flash
    memory by reading the FLASH_ACR register */
    if (__HAL_FLASH_GET_LATENCY() != FLatency)
 8004d8a:	4b20      	ldr	r3, [pc, #128]	@ (8004e0c <HAL_RCC_ClockConfig+0x1b8>)
 8004d8c:	681b      	ldr	r3, [r3, #0]
 8004d8e:	f003 0307 	and.w	r3, r3, #7
 8004d92:	683a      	ldr	r2, [r7, #0]
 8004d94:	429a      	cmp	r2, r3
 8004d96:	d001      	beq.n	8004d9c <HAL_RCC_ClockConfig+0x148>
    {
      return HAL_ERROR;
 8004d98:	2301      	movs	r3, #1
 8004d9a:	e032      	b.n	8004e02 <HAL_RCC_ClockConfig+0x1ae>
    }
  }

  /*-------------------------- PCLK1 Configuration ---------------------------*/
  if (((RCC_ClkInitStruct->ClockType) & RCC_CLOCKTYPE_PCLK1) == RCC_CLOCKTYPE_PCLK1)
 8004d9c:	687b      	ldr	r3, [r7, #4]
 8004d9e:	681b      	ldr	r3, [r3, #0]
 8004da0:	f003 0304 	and.w	r3, r3, #4
 8004da4:	2b00      	cmp	r3, #0
 8004da6:	d008      	beq.n	8004dba <HAL_RCC_ClockConfig+0x166>
  {
    assert_param(IS_RCC_PCLK(RCC_ClkInitStruct->APB1CLKDivider));
    MODIFY_REG(RCC->CFGR, RCC_CFGR_PPRE1, RCC_ClkInitStruct->APB1CLKDivider);
 8004da8:	4b19      	ldr	r3, [pc, #100]	@ (8004e10 <HAL_RCC_ClockConfig+0x1bc>)
 8004daa:	689b      	ldr	r3, [r3, #8]
 8004dac:	f423 52e0 	bic.w	r2, r3, #7168	@ 0x1c00
 8004db0:	687b      	ldr	r3, [r7, #4]
 8004db2:	68db      	ldr	r3, [r3, #12]
 8004db4:	4916      	ldr	r1, [pc, #88]	@ (8004e10 <HAL_RCC_ClockConfig+0x1bc>)
 8004db6:	4313      	orrs	r3, r2
 8004db8:	608b      	str	r3, [r1, #8]
  }

  /*-------------------------- PCLK2 Configuration ---------------------------*/
  if (((RCC_ClkInitStruct->ClockType) & RCC_CLOCKTYPE_PCLK2) == RCC_CLOCKTYPE_PCLK2)
 8004dba:	687b      	ldr	r3, [r7, #4]
 8004dbc:	681b      	ldr	r3, [r3, #0]
 8004dbe:	f003 0308 	and.w	r3, r3, #8
 8004dc2:	2b00      	cmp	r3, #0
 8004dc4:	d009      	beq.n	8004dda <HAL_RCC_ClockConfig+0x186>
  {
    assert_param(IS_RCC_PCLK(RCC_ClkInitStruct->APB2CLKDivider));
    MODIFY_REG(RCC->CFGR, RCC_CFGR_PPRE2, ((RCC_ClkInitStruct->APB2CLKDivider) << 3U));
 8004dc6:	4b12      	ldr	r3, [pc, #72]	@ (8004e10 <HAL_RCC_ClockConfig+0x1bc>)
 8004dc8:	689b      	ldr	r3, [r3, #8]
 8004dca:	f423 4260 	bic.w	r2, r3, #57344	@ 0xe000
 8004dce:	687b      	ldr	r3, [r7, #4]
 8004dd0:	691b      	ldr	r3, [r3, #16]
 8004dd2:	00db      	lsls	r3, r3, #3
 8004dd4:	490e      	ldr	r1, [pc, #56]	@ (8004e10 <HAL_RCC_ClockConfig+0x1bc>)
 8004dd6:	4313      	orrs	r3, r2
 8004dd8:	608b      	str	r3, [r1, #8]
  }

  /* Update the SystemCoreClock global variable */
  SystemCoreClock = HAL_RCC_GetSysClockFreq() >> AHBPrescTable[(RCC->CFGR & RCC_CFGR_HPRE) >> RCC_CFGR_HPRE_Pos];
 8004dda:	f000 f821 	bl	8004e20 <HAL_RCC_GetSysClockFreq>
 8004dde:	4602      	mov	r2, r0
 8004de0:	4b0b      	ldr	r3, [pc, #44]	@ (8004e10 <HAL_RCC_ClockConfig+0x1bc>)
 8004de2:	689b      	ldr	r3, [r3, #8]
 8004de4:	091b      	lsrs	r3, r3, #4
 8004de6:	f003 030f 	and.w	r3, r3, #15
 8004dea:	490a      	ldr	r1, [pc, #40]	@ (8004e14 <HAL_RCC_ClockConfig+0x1c0>)
 8004dec:	5ccb      	ldrb	r3, [r1, r3]
 8004dee:	fa22 f303 	lsr.w	r3, r2, r3
 8004df2:	4a09      	ldr	r2, [pc, #36]	@ (8004e18 <HAL_RCC_ClockConfig+0x1c4>)
 8004df4:	6013      	str	r3, [r2, #0]

  /* Configure the source of time base considering new system clocks settings */
  HAL_InitTick(uwTickPrio);
 8004df6:	4b09      	ldr	r3, [pc, #36]	@ (8004e1c <HAL_RCC_ClockConfig+0x1c8>)
 8004df8:	681b      	ldr	r3, [r3, #0]
 8004dfa:	4618      	mov	r0, r3
 8004dfc:	f7fd fcdc 	bl	80027b8 <HAL_InitTick>

  return HAL_OK;
 8004e00:	2300      	movs	r3, #0
}
 8004e02:	4618      	mov	r0, r3
 8004e04:	3710      	adds	r7, #16
 8004e06:	46bd      	mov	sp, r7
 8004e08:	bd80      	pop	{r7, pc}
 8004e0a:	bf00      	nop
 8004e0c:	40023c00 	.word	0x40023c00
 8004e10:	40023800 	.word	0x40023800
 8004e14:	080093b0 	.word	0x080093b0
 8004e18:	20000008 	.word	0x20000008
 8004e1c:	2000000c 	.word	0x2000000c

08004e20 <HAL_RCC_GetSysClockFreq>:
  *
  *
  * @retval SYSCLK frequency
  */
__weak uint32_t HAL_RCC_GetSysClockFreq(void)
{
 8004e20:	e92d 4fb0 	stmdb	sp!, {r4, r5, r7, r8, r9, sl, fp, lr}
 8004e24:	b090      	sub	sp, #64	@ 0x40
 8004e26:	af00      	add	r7, sp, #0
  uint32_t pllm = 0U;
 8004e28:	2300      	movs	r3, #0
 8004e2a:	637b      	str	r3, [r7, #52]	@ 0x34
  uint32_t pllvco = 0U;
 8004e2c:	2300      	movs	r3, #0
 8004e2e:	63fb      	str	r3, [r7, #60]	@ 0x3c
  uint32_t pllp = 0U;
 8004e30:	2300      	movs	r3, #0
 8004e32:	633b      	str	r3, [r7, #48]	@ 0x30
  uint32_t sysclockfreq = 0U;
 8004e34:	2300      	movs	r3, #0
 8004e36:	63bb      	str	r3, [r7, #56]	@ 0x38

  /* Get SYSCLK source -------------------------------------------------------*/
  switch (RCC->CFGR & RCC_CFGR_SWS)
 8004e38:	4b59      	ldr	r3, [pc, #356]	@ (8004fa0 <HAL_RCC_GetSysClockFreq+0x180>)
 8004e3a:	689b      	ldr	r3, [r3, #8]
 8004e3c:	f003 030c 	and.w	r3, r3, #12
 8004e40:	2b08      	cmp	r3, #8
 8004e42:	d00d      	beq.n	8004e60 <HAL_RCC_GetSysClockFreq+0x40>
 8004e44:	2b08      	cmp	r3, #8
 8004e46:	f200 80a1 	bhi.w	8004f8c <HAL_RCC_GetSysClockFreq+0x16c>
 8004e4a:	2b00      	cmp	r3, #0
 8004e4c:	d002      	beq.n	8004e54 <HAL_RCC_GetSysClockFreq+0x34>
 8004e4e:	2b04      	cmp	r3, #4
 8004e50:	d003      	beq.n	8004e5a <HAL_RCC_GetSysClockFreq+0x3a>
 8004e52:	e09b      	b.n	8004f8c <HAL_RCC_GetSysClockFreq+0x16c>
  {
    case RCC_CFGR_SWS_HSI:  /* HSI used as system clock source */
    {
      sysclockfreq = HSI_VALUE;
 8004e54:	4b53      	ldr	r3, [pc, #332]	@ (8004fa4 <HAL_RCC_GetSysClockFreq+0x184>)
 8004e56:	63bb      	str	r3, [r7, #56]	@ 0x38
      break;
 8004e58:	e09b      	b.n	8004f92 <HAL_RCC_GetSysClockFreq+0x172>
    }
    case RCC_CFGR_SWS_HSE:  /* HSE used as system clock  source */
    {
      sysclockfreq = HSE_VALUE;
 8004e5a:	4b53      	ldr	r3, [pc, #332]	@ (8004fa8 <HAL_RCC_GetSysClockFreq+0x188>)
 8004e5c:	63bb      	str	r3, [r7, #56]	@ 0x38
      break;
 8004e5e:	e098      	b.n	8004f92 <HAL_RCC_GetSysClockFreq+0x172>
    }
    case RCC_CFGR_SWS_PLL:  /* PLL used as system clock  source */
    {
      /* PLL_VCO = (HSE_VALUE or HSI_VALUE / PLLM) * PLLN
      SYSCLK = PLL_VCO / PLLP */
      pllm = RCC->PLLCFGR & RCC_PLLCFGR_PLLM;
 8004e60:	4b4f      	ldr	r3, [pc, #316]	@ (8004fa0 <HAL_RCC_GetSysClockFreq+0x180>)
 8004e62:	685b      	ldr	r3, [r3, #4]
 8004e64:	f003 033f 	and.w	r3, r3, #63	@ 0x3f
 8004e68:	637b      	str	r3, [r7, #52]	@ 0x34
      if (__HAL_RCC_GET_PLL_OSCSOURCE() != RCC_PLLSOURCE_HSI)
 8004e6a:	4b4d      	ldr	r3, [pc, #308]	@ (8004fa0 <HAL_RCC_GetSysClockFreq+0x180>)
 8004e6c:	685b      	ldr	r3, [r3, #4]
 8004e6e:	f403 0380 	and.w	r3, r3, #4194304	@ 0x400000
 8004e72:	2b00      	cmp	r3, #0
 8004e74:	d028      	beq.n	8004ec8 <HAL_RCC_GetSysClockFreq+0xa8>
      {
        /* HSE used as PLL clock source */
        pllvco = (uint32_t)((((uint64_t) HSE_VALUE * ((uint64_t)((RCC->PLLCFGR & RCC_PLLCFGR_PLLN) >> RCC_PLLCFGR_PLLN_Pos)))) / (uint64_t)pllm);
 8004e76:	4b4a      	ldr	r3, [pc, #296]	@ (8004fa0 <HAL_RCC_GetSysClockFreq+0x180>)
 8004e78:	685b      	ldr	r3, [r3, #4]
 8004e7a:	099b      	lsrs	r3, r3, #6
 8004e7c:	2200      	movs	r2, #0
 8004e7e:	623b      	str	r3, [r7, #32]
 8004e80:	627a      	str	r2, [r7, #36]	@ 0x24
 8004e82:	6a3b      	ldr	r3, [r7, #32]
 8004e84:	f3c3 0008 	ubfx	r0, r3, #0, #9
 8004e88:	2100      	movs	r1, #0
 8004e8a:	4b47      	ldr	r3, [pc, #284]	@ (8004fa8 <HAL_RCC_GetSysClockFreq+0x188>)
 8004e8c:	fb03 f201 	mul.w	r2, r3, r1
 8004e90:	2300      	movs	r3, #0
 8004e92:	fb00 f303 	mul.w	r3, r0, r3
 8004e96:	4413      	add	r3, r2
 8004e98:	4a43      	ldr	r2, [pc, #268]	@ (8004fa8 <HAL_RCC_GetSysClockFreq+0x188>)
 8004e9a:	fba0 1202 	umull	r1, r2, r0, r2
 8004e9e:	62fa      	str	r2, [r7, #44]	@ 0x2c
 8004ea0:	460a      	mov	r2, r1
 8004ea2:	62ba      	str	r2, [r7, #40]	@ 0x28
 8004ea4:	6afa      	ldr	r2, [r7, #44]	@ 0x2c
 8004ea6:	4413      	add	r3, r2
 8004ea8:	62fb      	str	r3, [r7, #44]	@ 0x2c
 8004eaa:	6b7b      	ldr	r3, [r7, #52]	@ 0x34
 8004eac:	2200      	movs	r2, #0
 8004eae:	61bb      	str	r3, [r7, #24]
 8004eb0:	61fa      	str	r2, [r7, #28]
 8004eb2:	e9d7 2306 	ldrd	r2, r3, [r7, #24]
 8004eb6:	e9d7 010a 	ldrd	r0, r1, [r7, #40]	@ 0x28
 8004eba:	f7fb fec5 	bl	8000c48 <__aeabi_uldivmod>
 8004ebe:	4602      	mov	r2, r0
 8004ec0:	460b      	mov	r3, r1
 8004ec2:	4613      	mov	r3, r2
 8004ec4:	63fb      	str	r3, [r7, #60]	@ 0x3c
 8004ec6:	e053      	b.n	8004f70 <HAL_RCC_GetSysClockFreq+0x150>
      }
      else
      {
        /* HSI used as PLL clock source */
        pllvco = (uint32_t)((((uint64_t) HSI_VALUE * ((uint64_t)((RCC->PLLCFGR & RCC_PLLCFGR_PLLN) >> RCC_PLLCFGR_PLLN_Pos)))) / (uint64_t)pllm);
 8004ec8:	4b35      	ldr	r3, [pc, #212]	@ (8004fa0 <HAL_RCC_GetSysClockFreq+0x180>)
 8004eca:	685b      	ldr	r3, [r3, #4]
 8004ecc:	099b      	lsrs	r3, r3, #6
 8004ece:	2200      	movs	r2, #0
 8004ed0:	613b      	str	r3, [r7, #16]
 8004ed2:	617a      	str	r2, [r7, #20]
 8004ed4:	693b      	ldr	r3, [r7, #16]
 8004ed6:	f3c3 0a08 	ubfx	sl, r3, #0, #9
 8004eda:	f04f 0b00 	mov.w	fp, #0
 8004ede:	4652      	mov	r2, sl
 8004ee0:	465b      	mov	r3, fp
 8004ee2:	f04f 0000 	mov.w	r0, #0
 8004ee6:	f04f 0100 	mov.w	r1, #0
 8004eea:	0159      	lsls	r1, r3, #5
 8004eec:	ea41 61d2 	orr.w	r1, r1, r2, lsr #27
 8004ef0:	0150      	lsls	r0, r2, #5
 8004ef2:	4602      	mov	r2, r0
 8004ef4:	460b      	mov	r3, r1
 8004ef6:	ebb2 080a 	subs.w	r8, r2, sl
 8004efa:	eb63 090b 	sbc.w	r9, r3, fp
 8004efe:	f04f 0200 	mov.w	r2, #0
 8004f02:	f04f 0300 	mov.w	r3, #0
 8004f06:	ea4f 1389 	mov.w	r3, r9, lsl #6
 8004f0a:	ea43 6398 	orr.w	r3, r3, r8, lsr #26
 8004f0e:	ea4f 1288 	mov.w	r2, r8, lsl #6
 8004f12:	ebb2 0408 	subs.w	r4, r2, r8
 8004f16:	eb63 0509 	sbc.w	r5, r3, r9
 8004f1a:	f04f 0200 	mov.w	r2, #0
 8004f1e:	f04f 0300 	mov.w	r3, #0
 8004f22:	00eb      	lsls	r3, r5, #3
 8004f24:	ea43 7354 	orr.w	r3, r3, r4, lsr #29
 8004f28:	00e2      	lsls	r2, r4, #3
 8004f2a:	4614      	mov	r4, r2
 8004f2c:	461d      	mov	r5, r3
 8004f2e:	eb14 030a 	adds.w	r3, r4, sl
 8004f32:	603b      	str	r3, [r7, #0]
 8004f34:	eb45 030b 	adc.w	r3, r5, fp
 8004f38:	607b      	str	r3, [r7, #4]
 8004f3a:	f04f 0200 	mov.w	r2, #0
 8004f3e:	f04f 0300 	mov.w	r3, #0
 8004f42:	e9d7 4500 	ldrd	r4, r5, [r7]
 8004f46:	4629      	mov	r1, r5
 8004f48:	028b      	lsls	r3, r1, #10
 8004f4a:	4621      	mov	r1, r4
 8004f4c:	ea43 5391 	orr.w	r3, r3, r1, lsr #22
 8004f50:	4621      	mov	r1, r4
 8004f52:	028a      	lsls	r2, r1, #10
 8004f54:	4610      	mov	r0, r2
 8004f56:	4619      	mov	r1, r3
 8004f58:	6b7b      	ldr	r3, [r7, #52]	@ 0x34
 8004f5a:	2200      	movs	r2, #0
 8004f5c:	60bb      	str	r3, [r7, #8]
 8004f5e:	60fa      	str	r2, [r7, #12]
 8004f60:	e9d7 2302 	ldrd	r2, r3, [r7, #8]
 8004f64:	f7fb fe70 	bl	8000c48 <__aeabi_uldivmod>
 8004f68:	4602      	mov	r2, r0
 8004f6a:	460b      	mov	r3, r1
 8004f6c:	4613      	mov	r3, r2
 8004f6e:	63fb      	str	r3, [r7, #60]	@ 0x3c
      }
      pllp = ((((RCC->PLLCFGR & RCC_PLLCFGR_PLLP) >> RCC_PLLCFGR_PLLP_Pos) + 1U) * 2U);
 8004f70:	4b0b      	ldr	r3, [pc, #44]	@ (8004fa0 <HAL_RCC_GetSysClockFreq+0x180>)
 8004f72:	685b      	ldr	r3, [r3, #4]
 8004f74:	0c1b      	lsrs	r3, r3, #16
 8004f76:	f003 0303 	and.w	r3, r3, #3
 8004f7a:	3301      	adds	r3, #1
 8004f7c:	005b      	lsls	r3, r3, #1
 8004f7e:	633b      	str	r3, [r7, #48]	@ 0x30

      sysclockfreq = pllvco / pllp;
 8004f80:	6bfa      	ldr	r2, [r7, #60]	@ 0x3c
 8004f82:	6b3b      	ldr	r3, [r7, #48]	@ 0x30
 8004f84:	fbb2 f3f3 	udiv	r3, r2, r3
 8004f88:	63bb      	str	r3, [r7, #56]	@ 0x38
      break;
 8004f8a:	e002      	b.n	8004f92 <HAL_RCC_GetSysClockFreq+0x172>
    }
    default:
    {
      sysclockfreq = HSI_VALUE;
 8004f8c:	4b05      	ldr	r3, [pc, #20]	@ (8004fa4 <HAL_RCC_GetSysClockFreq+0x184>)
 8004f8e:	63bb      	str	r3, [r7, #56]	@ 0x38
      break;
 8004f90:	bf00      	nop
    }
  }
  return sysclockfreq;
 8004f92:	6bbb      	ldr	r3, [r7, #56]	@ 0x38
}
 8004f94:	4618      	mov	r0, r3
 8004f96:	3740      	adds	r7, #64	@ 0x40
 8004f98:	46bd      	mov	sp, r7
 8004f9a:	e8bd 8fb0 	ldmia.w	sp!, {r4, r5, r7, r8, r9, sl, fp, pc}
 8004f9e:	bf00      	nop
 8004fa0:	40023800 	.word	0x40023800
 8004fa4:	00f42400 	.word	0x00f42400
 8004fa8:	017d7840 	.word	0x017d7840

08004fac <HAL_RCC_GetHCLKFreq>:
  * @note   The SystemCoreClock CMSIS variable is used to store System Clock Frequency
  *         and updated within this function
  * @retval HCLK frequency
  */
uint32_t HAL_RCC_GetHCLKFreq(void)
{
 8004fac:	b480      	push	{r7}
 8004fae:	af00      	add	r7, sp, #0
  return SystemCoreClock;
 8004fb0:	4b03      	ldr	r3, [pc, #12]	@ (8004fc0 <HAL_RCC_GetHCLKFreq+0x14>)
 8004fb2:	681b      	ldr	r3, [r3, #0]
}
 8004fb4:	4618      	mov	r0, r3
 8004fb6:	46bd      	mov	sp, r7
 8004fb8:	f85d 7b04 	ldr.w	r7, [sp], #4
 8004fbc:	4770      	bx	lr
 8004fbe:	bf00      	nop
 8004fc0:	20000008 	.word	0x20000008

08004fc4 <HAL_RCC_GetPCLK1Freq>:
  * @note   Each time PCLK1 changes, this function must be called to update the
  *         right PCLK1 value. Otherwise, any configuration based on this function will be incorrect.
  * @retval PCLK1 frequency
  */
uint32_t HAL_RCC_GetPCLK1Freq(void)
{
 8004fc4:	b580      	push	{r7, lr}
 8004fc6:	af00      	add	r7, sp, #0
  /* Get HCLK source and Compute PCLK1 frequency ---------------------------*/
  return (HAL_RCC_GetHCLKFreq() >> APBPrescTable[(RCC->CFGR & RCC_CFGR_PPRE1) >> RCC_CFGR_PPRE1_Pos]);
 8004fc8:	f7ff fff0 	bl	8004fac <HAL_RCC_GetHCLKFreq>
 8004fcc:	4602      	mov	r2, r0
 8004fce:	4b05      	ldr	r3, [pc, #20]	@ (8004fe4 <HAL_RCC_GetPCLK1Freq+0x20>)
 8004fd0:	689b      	ldr	r3, [r3, #8]
 8004fd2:	0a9b      	lsrs	r3, r3, #10
 8004fd4:	f003 0307 	and.w	r3, r3, #7
 8004fd8:	4903      	ldr	r1, [pc, #12]	@ (8004fe8 <HAL_RCC_GetPCLK1Freq+0x24>)
 8004fda:	5ccb      	ldrb	r3, [r1, r3]
 8004fdc:	fa22 f303 	lsr.w	r3, r2, r3
}
 8004fe0:	4618      	mov	r0, r3
 8004fe2:	bd80      	pop	{r7, pc}
 8004fe4:	40023800 	.word	0x40023800
 8004fe8:	080093c0 	.word	0x080093c0

08004fec <HAL_RCC_GetPCLK2Freq>:
  * @note   Each time PCLK2 changes, this function must be called to update the
  *         right PCLK2 value. Otherwise, any configuration based on this function will be incorrect.
  * @retval PCLK2 frequency
  */
uint32_t HAL_RCC_GetPCLK2Freq(void)
{
 8004fec:	b580      	push	{r7, lr}
 8004fee:	af00      	add	r7, sp, #0
  /* Get HCLK source and Compute PCLK2 frequency ---------------------------*/
  return (HAL_RCC_GetHCLKFreq() >> APBPrescTable[(RCC->CFGR & RCC_CFGR_PPRE2) >> RCC_CFGR_PPRE2_Pos]);
 8004ff0:	f7ff ffdc 	bl	8004fac <HAL_RCC_GetHCLKFreq>
 8004ff4:	4602      	mov	r2, r0
 8004ff6:	4b05      	ldr	r3, [pc, #20]	@ (800500c <HAL_RCC_GetPCLK2Freq+0x20>)
 8004ff8:	689b      	ldr	r3, [r3, #8]
 8004ffa:	0b5b      	lsrs	r3, r3, #13
 8004ffc:	f003 0307 	and.w	r3, r3, #7
 8005000:	4903      	ldr	r1, [pc, #12]	@ (8005010 <HAL_RCC_GetPCLK2Freq+0x24>)
 8005002:	5ccb      	ldrb	r3, [r1, r3]
 8005004:	fa22 f303 	lsr.w	r3, r2, r3
}
 8005008:	4618      	mov	r0, r3
 800500a:	bd80      	pop	{r7, pc}
 800500c:	40023800 	.word	0x40023800
 8005010:	080093c0 	.word	0x080093c0

08005014 <HAL_TIM_Base_Init>:
  *         Ex: call @ref HAL_TIM_Base_DeInit() before HAL_TIM_Base_Init()
  * @param  htim TIM Base handle
  * @retval HAL status
  */
HAL_StatusTypeDef HAL_TIM_Base_Init(TIM_HandleTypeDef *htim)
{
 8005014:	b580      	push	{r7, lr}
 8005016:	b082      	sub	sp, #8
 8005018:	af00      	add	r7, sp, #0
 800501a:	6078      	str	r0, [r7, #4]
  /* Check the TIM handle allocation */
  if (htim == NULL)
 800501c:	687b      	ldr	r3, [r7, #4]
 800501e:	2b00      	cmp	r3, #0
 8005020:	d101      	bne.n	8005026 <HAL_TIM_Base_Init+0x12>
  {
    return HAL_ERROR;
 8005022:	2301      	movs	r3, #1
 8005024:	e041      	b.n	80050aa <HAL_TIM_Base_Init+0x96>
  assert_param(IS_TIM_COUNTER_MODE(htim->Init.CounterMode));
  assert_param(IS_TIM_CLOCKDIVISION_DIV(htim->Init.ClockDivision));
  assert_param(IS_TIM_PERIOD(htim, htim->Init.Period));
  assert_param(IS_TIM_AUTORELOAD_PRELOAD(htim->Init.AutoReloadPreload));

  if (htim->State == HAL_TIM_STATE_RESET)
 8005026:	687b      	ldr	r3, [r7, #4]
 8005028:	f893 303d 	ldrb.w	r3, [r3, #61]	@ 0x3d
 800502c:	b2db      	uxtb	r3, r3
 800502e:	2b00      	cmp	r3, #0
 8005030:	d106      	bne.n	8005040 <HAL_TIM_Base_Init+0x2c>
  {
    /* Allocate lock resource and initialize it */
    htim->Lock = HAL_UNLOCKED;
 8005032:	687b      	ldr	r3, [r7, #4]
 8005034:	2200      	movs	r2, #0
 8005036:	f883 203c 	strb.w	r2, [r3, #60]	@ 0x3c
    }
    /* Init the low level hardware : GPIO, CLOCK, NVIC */
    htim->Base_MspInitCallback(htim);
#else
    /* Init the low level hardware : GPIO, CLOCK, NVIC */
    HAL_TIM_Base_MspInit(htim);
 800503a:	6878      	ldr	r0, [r7, #4]
 800503c:	f7fd f9c2 	bl	80023c4 <HAL_TIM_Base_MspInit>
#endif /* USE_HAL_TIM_REGISTER_CALLBACKS */
  }

  /* Set the TIM state */
  htim->State = HAL_TIM_STATE_BUSY;
 8005040:	687b      	ldr	r3, [r7, #4]
 8005042:	2202      	movs	r2, #2
 8005044:	f883 203d 	strb.w	r2, [r3, #61]	@ 0x3d

  /* Set the Time Base configuration */
  TIM_Base_SetConfig(htim->Instance, &htim->Init);
 8005048:	687b      	ldr	r3, [r7, #4]
 800504a:	681a      	ldr	r2, [r3, #0]
 800504c:	687b      	ldr	r3, [r7, #4]
 800504e:	3304      	adds	r3, #4
 8005050:	4619      	mov	r1, r3
 8005052:	4610      	mov	r0, r2
 8005054:	f000 fbca 	bl	80057ec <TIM_Base_SetConfig>

  /* Initialize the DMA burst operation state */
  htim->DMABurstState = HAL_DMA_BURST_STATE_READY;
 8005058:	687b      	ldr	r3, [r7, #4]
 800505a:	2201      	movs	r2, #1
 800505c:	f883 2046 	strb.w	r2, [r3, #70]	@ 0x46

  /* Initialize the TIM channels state */
  TIM_CHANNEL_STATE_SET_ALL(htim, HAL_TIM_CHANNEL_STATE_READY);
 8005060:	687b      	ldr	r3, [r7, #4]
 8005062:	2201      	movs	r2, #1
 8005064:	f883 203e 	strb.w	r2, [r3, #62]	@ 0x3e
 8005068:	687b      	ldr	r3, [r7, #4]
 800506a:	2201      	movs	r2, #1
 800506c:	f883 203f 	strb.w	r2, [r3, #63]	@ 0x3f
 8005070:	687b      	ldr	r3, [r7, #4]
 8005072:	2201      	movs	r2, #1
 8005074:	f883 2040 	strb.w	r2, [r3, #64]	@ 0x40
 8005078:	687b      	ldr	r3, [r7, #4]
 800507a:	2201      	movs	r2, #1
 800507c:	f883 2041 	strb.w	r2, [r3, #65]	@ 0x41
  TIM_CHANNEL_N_STATE_SET_ALL(htim, HAL_TIM_CHANNEL_STATE_READY);
 8005080:	687b      	ldr	r3, [r7, #4]
 8005082:	2201      	movs	r2, #1
 8005084:	f883 2042 	strb.w	r2, [r3, #66]	@ 0x42
 8005088:	687b      	ldr	r3, [r7, #4]
 800508a:	2201      	movs	r2, #1
 800508c:	f883 2043 	strb.w	r2, [r3, #67]	@ 0x43
 8005090:	687b      	ldr	r3, [r7, #4]
 8005092:	2201      	movs	r2, #1
 8005094:	f883 2044 	strb.w	r2, [r3, #68]	@ 0x44
 8005098:	687b      	ldr	r3, [r7, #4]
 800509a:	2201      	movs	r2, #1
 800509c:	f883 2045 	strb.w	r2, [r3, #69]	@ 0x45

  /* Initialize the TIM state*/
  htim->State = HAL_TIM_STATE_READY;
 80050a0:	687b      	ldr	r3, [r7, #4]
 80050a2:	2201      	movs	r2, #1
 80050a4:	f883 203d 	strb.w	r2, [r3, #61]	@ 0x3d

  return HAL_OK;
 80050a8:	2300      	movs	r3, #0
}
 80050aa:	4618      	mov	r0, r3
 80050ac:	3708      	adds	r7, #8
 80050ae:	46bd      	mov	sp, r7
 80050b0:	bd80      	pop	{r7, pc}
	...

080050b4 <HAL_TIM_PWM_Start>:
  *            @arg TIM_CHANNEL_3: TIM Channel 3 selected
  *            @arg TIM_CHANNEL_4: TIM Channel 4 selected
  * @retval HAL status
  */
HAL_StatusTypeDef HAL_TIM_PWM_Start(TIM_HandleTypeDef *htim, uint32_t Channel)
{
 80050b4:	b580      	push	{r7, lr}
 80050b6:	b084      	sub	sp, #16
 80050b8:	af00      	add	r7, sp, #0
 80050ba:	6078      	str	r0, [r7, #4]
 80050bc:	6039      	str	r1, [r7, #0]

  /* Check the parameters */
  assert_param(IS_TIM_CCX_INSTANCE(htim->Instance, Channel));

  /* Check the TIM channel state */
  if (TIM_CHANNEL_STATE_GET(htim, Channel) != HAL_TIM_CHANNEL_STATE_READY)
 80050be:	683b      	ldr	r3, [r7, #0]
 80050c0:	2b00      	cmp	r3, #0
 80050c2:	d109      	bne.n	80050d8 <HAL_TIM_PWM_Start+0x24>
 80050c4:	687b      	ldr	r3, [r7, #4]
 80050c6:	f893 303e 	ldrb.w	r3, [r3, #62]	@ 0x3e
 80050ca:	b2db      	uxtb	r3, r3
 80050cc:	2b01      	cmp	r3, #1
 80050ce:	bf14      	ite	ne
 80050d0:	2301      	movne	r3, #1
 80050d2:	2300      	moveq	r3, #0
 80050d4:	b2db      	uxtb	r3, r3
 80050d6:	e022      	b.n	800511e <HAL_TIM_PWM_Start+0x6a>
 80050d8:	683b      	ldr	r3, [r7, #0]
 80050da:	2b04      	cmp	r3, #4
 80050dc:	d109      	bne.n	80050f2 <HAL_TIM_PWM_Start+0x3e>
 80050de:	687b      	ldr	r3, [r7, #4]
 80050e0:	f893 303f 	ldrb.w	r3, [r3, #63]	@ 0x3f
 80050e4:	b2db      	uxtb	r3, r3
 80050e6:	2b01      	cmp	r3, #1
 80050e8:	bf14      	ite	ne
 80050ea:	2301      	movne	r3, #1
 80050ec:	2300      	moveq	r3, #0
 80050ee:	b2db      	uxtb	r3, r3
 80050f0:	e015      	b.n	800511e <HAL_TIM_PWM_Start+0x6a>
 80050f2:	683b      	ldr	r3, [r7, #0]
 80050f4:	2b08      	cmp	r3, #8
 80050f6:	d109      	bne.n	800510c <HAL_TIM_PWM_Start+0x58>
 80050f8:	687b      	ldr	r3, [r7, #4]
 80050fa:	f893 3040 	ldrb.w	r3, [r3, #64]	@ 0x40
 80050fe:	b2db      	uxtb	r3, r3
 8005100:	2b01      	cmp	r3, #1
 8005102:	bf14      	ite	ne
 8005104:	2301      	movne	r3, #1
 8005106:	2300      	moveq	r3, #0
 8005108:	b2db      	uxtb	r3, r3
 800510a:	e008      	b.n	800511e <HAL_TIM_PWM_Start+0x6a>
 800510c:	687b      	ldr	r3, [r7, #4]
 800510e:	f893 3041 	ldrb.w	r3, [r3, #65]	@ 0x41
 8005112:	b2db      	uxtb	r3, r3
 8005114:	2b01      	cmp	r3, #1
 8005116:	bf14      	ite	ne
 8005118:	2301      	movne	r3, #1
 800511a:	2300      	moveq	r3, #0
 800511c:	b2db      	uxtb	r3, r3
 800511e:	2b00      	cmp	r3, #0
 8005120:	d001      	beq.n	8005126 <HAL_TIM_PWM_Start+0x72>
  {
    return HAL_ERROR;
 8005122:	2301      	movs	r3, #1
 8005124:	e07c      	b.n	8005220 <HAL_TIM_PWM_Start+0x16c>
  }

  /* Set the TIM channel state */
  TIM_CHANNEL_STATE_SET(htim, Channel, HAL_TIM_CHANNEL_STATE_BUSY);
 8005126:	683b      	ldr	r3, [r7, #0]
 8005128:	2b00      	cmp	r3, #0
 800512a:	d104      	bne.n	8005136 <HAL_TIM_PWM_Start+0x82>
 800512c:	687b      	ldr	r3, [r7, #4]
 800512e:	2202      	movs	r2, #2
 8005130:	f883 203e 	strb.w	r2, [r3, #62]	@ 0x3e
 8005134:	e013      	b.n	800515e <HAL_TIM_PWM_Start+0xaa>
 8005136:	683b      	ldr	r3, [r7, #0]
 8005138:	2b04      	cmp	r3, #4
 800513a:	d104      	bne.n	8005146 <HAL_TIM_PWM_Start+0x92>
 800513c:	687b      	ldr	r3, [r7, #4]
 800513e:	2202      	movs	r2, #2
 8005140:	f883 203f 	strb.w	r2, [r3, #63]	@ 0x3f
 8005144:	e00b      	b.n	800515e <HAL_TIM_PWM_Start+0xaa>
 8005146:	683b      	ldr	r3, [r7, #0]
 8005148:	2b08      	cmp	r3, #8
 800514a:	d104      	bne.n	8005156 <HAL_TIM_PWM_Start+0xa2>
 800514c:	687b      	ldr	r3, [r7, #4]
 800514e:	2202      	movs	r2, #2
 8005150:	f883 2040 	strb.w	r2, [r3, #64]	@ 0x40
 8005154:	e003      	b.n	800515e <HAL_TIM_PWM_Start+0xaa>
 8005156:	687b      	ldr	r3, [r7, #4]
 8005158:	2202      	movs	r2, #2
 800515a:	f883 2041 	strb.w	r2, [r3, #65]	@ 0x41

  /* Enable the Capture compare channel */
  TIM_CCxChannelCmd(htim->Instance, Channel, TIM_CCx_ENABLE);
 800515e:	687b      	ldr	r3, [r7, #4]
 8005160:	681b      	ldr	r3, [r3, #0]
 8005162:	2201      	movs	r2, #1
 8005164:	6839      	ldr	r1, [r7, #0]
 8005166:	4618      	mov	r0, r3
 8005168:	f000 fdb0 	bl	8005ccc <TIM_CCxChannelCmd>

  if (IS_TIM_BREAK_INSTANCE(htim->Instance) != RESET)
 800516c:	687b      	ldr	r3, [r7, #4]
 800516e:	681b      	ldr	r3, [r3, #0]
 8005170:	4a2d      	ldr	r2, [pc, #180]	@ (8005228 <HAL_TIM_PWM_Start+0x174>)
 8005172:	4293      	cmp	r3, r2
 8005174:	d004      	beq.n	8005180 <HAL_TIM_PWM_Start+0xcc>
 8005176:	687b      	ldr	r3, [r7, #4]
 8005178:	681b      	ldr	r3, [r3, #0]
 800517a:	4a2c      	ldr	r2, [pc, #176]	@ (800522c <HAL_TIM_PWM_Start+0x178>)
 800517c:	4293      	cmp	r3, r2
 800517e:	d101      	bne.n	8005184 <HAL_TIM_PWM_Start+0xd0>
 8005180:	2301      	movs	r3, #1
 8005182:	e000      	b.n	8005186 <HAL_TIM_PWM_Start+0xd2>
 8005184:	2300      	movs	r3, #0
 8005186:	2b00      	cmp	r3, #0
 8005188:	d007      	beq.n	800519a <HAL_TIM_PWM_Start+0xe6>
  {
    /* Enable the main output */
    __HAL_TIM_MOE_ENABLE(htim);
 800518a:	687b      	ldr	r3, [r7, #4]
 800518c:	681b      	ldr	r3, [r3, #0]
 800518e:	6c5a      	ldr	r2, [r3, #68]	@ 0x44
 8005190:	687b      	ldr	r3, [r7, #4]
 8005192:	681b      	ldr	r3, [r3, #0]
 8005194:	f442 4200 	orr.w	r2, r2, #32768	@ 0x8000
 8005198:	645a      	str	r2, [r3, #68]	@ 0x44
  }

  /* Enable the Peripheral, except in trigger mode where enable is automatically done with trigger */
  if (IS_TIM_SLAVE_INSTANCE(htim->Instance))
 800519a:	687b      	ldr	r3, [r7, #4]
 800519c:	681b      	ldr	r3, [r3, #0]
 800519e:	4a22      	ldr	r2, [pc, #136]	@ (8005228 <HAL_TIM_PWM_Start+0x174>)
 80051a0:	4293      	cmp	r3, r2
 80051a2:	d022      	beq.n	80051ea <HAL_TIM_PWM_Start+0x136>
 80051a4:	687b      	ldr	r3, [r7, #4]
 80051a6:	681b      	ldr	r3, [r3, #0]
 80051a8:	f1b3 4f80 	cmp.w	r3, #1073741824	@ 0x40000000
 80051ac:	d01d      	beq.n	80051ea <HAL_TIM_PWM_Start+0x136>
 80051ae:	687b      	ldr	r3, [r7, #4]
 80051b0:	681b      	ldr	r3, [r3, #0]
 80051b2:	4a1f      	ldr	r2, [pc, #124]	@ (8005230 <HAL_TIM_PWM_Start+0x17c>)
 80051b4:	4293      	cmp	r3, r2
 80051b6:	d018      	beq.n	80051ea <HAL_TIM_PWM_Start+0x136>
 80051b8:	687b      	ldr	r3, [r7, #4]
 80051ba:	681b      	ldr	r3, [r3, #0]
 80051bc:	4a1d      	ldr	r2, [pc, #116]	@ (8005234 <HAL_TIM_PWM_Start+0x180>)
 80051be:	4293      	cmp	r3, r2
 80051c0:	d013      	beq.n	80051ea <HAL_TIM_PWM_Start+0x136>
 80051c2:	687b      	ldr	r3, [r7, #4]
 80051c4:	681b      	ldr	r3, [r3, #0]
 80051c6:	4a1c      	ldr	r2, [pc, #112]	@ (8005238 <HAL_TIM_PWM_Start+0x184>)
 80051c8:	4293      	cmp	r3, r2
 80051ca:	d00e      	beq.n	80051ea <HAL_TIM_PWM_Start+0x136>
 80051cc:	687b      	ldr	r3, [r7, #4]
 80051ce:	681b      	ldr	r3, [r3, #0]
 80051d0:	4a16      	ldr	r2, [pc, #88]	@ (800522c <HAL_TIM_PWM_Start+0x178>)
 80051d2:	4293      	cmp	r3, r2
 80051d4:	d009      	beq.n	80051ea <HAL_TIM_PWM_Start+0x136>
 80051d6:	687b      	ldr	r3, [r7, #4]
 80051d8:	681b      	ldr	r3, [r3, #0]
 80051da:	4a18      	ldr	r2, [pc, #96]	@ (800523c <HAL_TIM_PWM_Start+0x188>)
 80051dc:	4293      	cmp	r3, r2
 80051de:	d004      	beq.n	80051ea <HAL_TIM_PWM_Start+0x136>
 80051e0:	687b      	ldr	r3, [r7, #4]
 80051e2:	681b      	ldr	r3, [r3, #0]
 80051e4:	4a16      	ldr	r2, [pc, #88]	@ (8005240 <HAL_TIM_PWM_Start+0x18c>)
 80051e6:	4293      	cmp	r3, r2
 80051e8:	d111      	bne.n	800520e <HAL_TIM_PWM_Start+0x15a>
  {
    tmpsmcr = htim->Instance->SMCR & TIM_SMCR_SMS;
 80051ea:	687b      	ldr	r3, [r7, #4]
 80051ec:	681b      	ldr	r3, [r3, #0]
 80051ee:	689b      	ldr	r3, [r3, #8]
 80051f0:	f003 0307 	and.w	r3, r3, #7
 80051f4:	60fb      	str	r3, [r7, #12]
    if (!IS_TIM_SLAVEMODE_TRIGGER_ENABLED(tmpsmcr))
 80051f6:	68fb      	ldr	r3, [r7, #12]
 80051f8:	2b06      	cmp	r3, #6
 80051fa:	d010      	beq.n	800521e <HAL_TIM_PWM_Start+0x16a>
    {
      __HAL_TIM_ENABLE(htim);
 80051fc:	687b      	ldr	r3, [r7, #4]
 80051fe:	681b      	ldr	r3, [r3, #0]
 8005200:	681a      	ldr	r2, [r3, #0]
 8005202:	687b      	ldr	r3, [r7, #4]
 8005204:	681b      	ldr	r3, [r3, #0]
 8005206:	f042 0201 	orr.w	r2, r2, #1
 800520a:	601a      	str	r2, [r3, #0]
    if (!IS_TIM_SLAVEMODE_TRIGGER_ENABLED(tmpsmcr))
 800520c:	e007      	b.n	800521e <HAL_TIM_PWM_Start+0x16a>
    }
  }
  else
  {
    __HAL_TIM_ENABLE(htim);
 800520e:	687b      	ldr	r3, [r7, #4]
 8005210:	681b      	ldr	r3, [r3, #0]
 8005212:	681a      	ldr	r2, [r3, #0]
 8005214:	687b      	ldr	r3, [r7, #4]
 8005216:	681b      	ldr	r3, [r3, #0]
 8005218:	f042 0201 	orr.w	r2, r2, #1
 800521c:	601a      	str	r2, [r3, #0]
  }

  /* Return function status */
  return HAL_OK;
 800521e:	2300      	movs	r3, #0
}
 8005220:	4618      	mov	r0, r3
 8005222:	3710      	adds	r7, #16
 8005224:	46bd      	mov	sp, r7
 8005226:	bd80      	pop	{r7, pc}
 8005228:	40010000 	.word	0x40010000
 800522c:	40010400 	.word	0x40010400
 8005230:	40000400 	.word	0x40000400
 8005234:	40000800 	.word	0x40000800
 8005238:	40000c00 	.word	0x40000c00
 800523c:	40014000 	.word	0x40014000
 8005240:	40001800 	.word	0x40001800

08005244 <HAL_TIM_IC_Init>:
  *         Ex: call @ref HAL_TIM_IC_DeInit() before HAL_TIM_IC_Init()
  * @param  htim TIM Input Capture handle
  * @retval HAL status
  */
HAL_StatusTypeDef HAL_TIM_IC_Init(TIM_HandleTypeDef *htim)
{
 8005244:	b580      	push	{r7, lr}
 8005246:	b082      	sub	sp, #8
 8005248:	af00      	add	r7, sp, #0
 800524a:	6078      	str	r0, [r7, #4]
  /* Check the TIM handle allocation */
  if (htim == NULL)
 800524c:	687b      	ldr	r3, [r7, #4]
 800524e:	2b00      	cmp	r3, #0
 8005250:	d101      	bne.n	8005256 <HAL_TIM_IC_Init+0x12>
  {
    return HAL_ERROR;
 8005252:	2301      	movs	r3, #1
 8005254:	e041      	b.n	80052da <HAL_TIM_IC_Init+0x96>
  assert_param(IS_TIM_COUNTER_MODE(htim->Init.CounterMode));
  assert_param(IS_TIM_CLOCKDIVISION_DIV(htim->Init.ClockDivision));
  assert_param(IS_TIM_PERIOD(htim, htim->Init.Period));
  assert_param(IS_TIM_AUTORELOAD_PRELOAD(htim->Init.AutoReloadPreload));

  if (htim->State == HAL_TIM_STATE_RESET)
 8005256:	687b      	ldr	r3, [r7, #4]
 8005258:	f893 303d 	ldrb.w	r3, [r3, #61]	@ 0x3d
 800525c:	b2db      	uxtb	r3, r3
 800525e:	2b00      	cmp	r3, #0
 8005260:	d106      	bne.n	8005270 <HAL_TIM_IC_Init+0x2c>
  {
    /* Allocate lock resource and initialize it */
    htim->Lock = HAL_UNLOCKED;
 8005262:	687b      	ldr	r3, [r7, #4]
 8005264:	2200      	movs	r2, #0
 8005266:	f883 203c 	strb.w	r2, [r3, #60]	@ 0x3c
    }
    /* Init the low level hardware : GPIO, CLOCK, NVIC */
    htim->IC_MspInitCallback(htim);
#else
    /* Init the low level hardware : GPIO, CLOCK, NVIC and DMA */
    HAL_TIM_IC_MspInit(htim);
 800526a:	6878      	ldr	r0, [r7, #4]
 800526c:	f7fd f85a 	bl	8002324 <HAL_TIM_IC_MspInit>
#endif /* USE_HAL_TIM_REGISTER_CALLBACKS */
  }

  /* Set the TIM state */
  htim->State = HAL_TIM_STATE_BUSY;
 8005270:	687b      	ldr	r3, [r7, #4]
 8005272:	2202      	movs	r2, #2
 8005274:	f883 203d 	strb.w	r2, [r3, #61]	@ 0x3d

  /* Init the base time for the input capture */
  TIM_Base_SetConfig(htim->Instance, &htim->Init);
 8005278:	687b      	ldr	r3, [r7, #4]
 800527a:	681a      	ldr	r2, [r3, #0]
 800527c:	687b      	ldr	r3, [r7, #4]
 800527e:	3304      	adds	r3, #4
 8005280:	4619      	mov	r1, r3
 8005282:	4610      	mov	r0, r2
 8005284:	f000 fab2 	bl	80057ec <TIM_Base_SetConfig>

  /* Initialize the DMA burst operation state */
  htim->DMABurstState = HAL_DMA_BURST_STATE_READY;
 8005288:	687b      	ldr	r3, [r7, #4]
 800528a:	2201      	movs	r2, #1
 800528c:	f883 2046 	strb.w	r2, [r3, #70]	@ 0x46

  /* Initialize the TIM channels state */
  TIM_CHANNEL_STATE_SET_ALL(htim, HAL_TIM_CHANNEL_STATE_READY);
 8005290:	687b      	ldr	r3, [r7, #4]
 8005292:	2201      	movs	r2, #1
 8005294:	f883 203e 	strb.w	r2, [r3, #62]	@ 0x3e
 8005298:	687b      	ldr	r3, [r7, #4]
 800529a:	2201      	movs	r2, #1
 800529c:	f883 203f 	strb.w	r2, [r3, #63]	@ 0x3f
 80052a0:	687b      	ldr	r3, [r7, #4]
 80052a2:	2201      	movs	r2, #1
 80052a4:	f883 2040 	strb.w	r2, [r3, #64]	@ 0x40
 80052a8:	687b      	ldr	r3, [r7, #4]
 80052aa:	2201      	movs	r2, #1
 80052ac:	f883 2041 	strb.w	r2, [r3, #65]	@ 0x41
  TIM_CHANNEL_N_STATE_SET_ALL(htim, HAL_TIM_CHANNEL_STATE_READY);
 80052b0:	687b      	ldr	r3, [r7, #4]
 80052b2:	2201      	movs	r2, #1
 80052b4:	f883 2042 	strb.w	r2, [r3, #66]	@ 0x42
 80052b8:	687b      	ldr	r3, [r7, #4]
 80052ba:	2201      	movs	r2, #1
 80052bc:	f883 2043 	strb.w	r2, [r3, #67]	@ 0x43
 80052c0:	687b      	ldr	r3, [r7, #4]
 80052c2:	2201      	movs	r2, #1
 80052c4:	f883 2044 	strb.w	r2, [r3, #68]	@ 0x44
 80052c8:	687b      	ldr	r3, [r7, #4]
 80052ca:	2201      	movs	r2, #1
 80052cc:	f883 2045 	strb.w	r2, [r3, #69]	@ 0x45

  /* Initialize the TIM state*/
  htim->State = HAL_TIM_STATE_READY;
 80052d0:	687b      	ldr	r3, [r7, #4]
 80052d2:	2201      	movs	r2, #1
 80052d4:	f883 203d 	strb.w	r2, [r3, #61]	@ 0x3d

  return HAL_OK;
 80052d8:	2300      	movs	r3, #0
}
 80052da:	4618      	mov	r0, r3
 80052dc:	3708      	adds	r7, #8
 80052de:	46bd      	mov	sp, r7
 80052e0:	bd80      	pop	{r7, pc}

080052e2 <HAL_TIM_IRQHandler>:
  * @brief  This function handles TIM interrupts requests.
  * @param  htim TIM  handle
  * @retval None
  */
void HAL_TIM_IRQHandler(TIM_HandleTypeDef *htim)
{
 80052e2:	b580      	push	{r7, lr}
 80052e4:	b084      	sub	sp, #16
 80052e6:	af00      	add	r7, sp, #0
 80052e8:	6078      	str	r0, [r7, #4]
  uint32_t itsource = htim->Instance->DIER;
 80052ea:	687b      	ldr	r3, [r7, #4]
 80052ec:	681b      	ldr	r3, [r3, #0]
 80052ee:	68db      	ldr	r3, [r3, #12]
 80052f0:	60fb      	str	r3, [r7, #12]
  uint32_t itflag   = htim->Instance->SR;
 80052f2:	687b      	ldr	r3, [r7, #4]
 80052f4:	681b      	ldr	r3, [r3, #0]
 80052f6:	691b      	ldr	r3, [r3, #16]
 80052f8:	60bb      	str	r3, [r7, #8]

  /* Capture compare 1 event */
  if ((itflag & (TIM_FLAG_CC1)) == (TIM_FLAG_CC1))
 80052fa:	68bb      	ldr	r3, [r7, #8]
 80052fc:	f003 0302 	and.w	r3, r3, #2
 8005300:	2b00      	cmp	r3, #0
 8005302:	d020      	beq.n	8005346 <HAL_TIM_IRQHandler+0x64>
  {
    if ((itsource & (TIM_IT_CC1)) == (TIM_IT_CC1))
 8005304:	68fb      	ldr	r3, [r7, #12]
 8005306:	f003 0302 	and.w	r3, r3, #2
 800530a:	2b00      	cmp	r3, #0
 800530c:	d01b      	beq.n	8005346 <HAL_TIM_IRQHandler+0x64>
    {
      {
        __HAL_TIM_CLEAR_FLAG(htim, TIM_FLAG_CC1);
 800530e:	687b      	ldr	r3, [r7, #4]
 8005310:	681b      	ldr	r3, [r3, #0]
 8005312:	f06f 0202 	mvn.w	r2, #2
 8005316:	611a      	str	r2, [r3, #16]
        htim->Channel = HAL_TIM_ACTIVE_CHANNEL_1;
 8005318:	687b      	ldr	r3, [r7, #4]
 800531a:	2201      	movs	r2, #1
 800531c:	771a      	strb	r2, [r3, #28]

        /* Input capture event */
        if ((htim->Instance->CCMR1 & TIM_CCMR1_CC1S) != 0x00U)
 800531e:	687b      	ldr	r3, [r7, #4]
 8005320:	681b      	ldr	r3, [r3, #0]
 8005322:	699b      	ldr	r3, [r3, #24]
 8005324:	f003 0303 	and.w	r3, r3, #3
 8005328:	2b00      	cmp	r3, #0
 800532a:	d003      	beq.n	8005334 <HAL_TIM_IRQHandler+0x52>
        {
#if (USE_HAL_TIM_REGISTER_CALLBACKS == 1)
          htim->IC_CaptureCallback(htim);
#else
          HAL_TIM_IC_CaptureCallback(htim);
 800532c:	6878      	ldr	r0, [r7, #4]
 800532e:	f000 fa3f 	bl	80057b0 <HAL_TIM_IC_CaptureCallback>
 8005332:	e005      	b.n	8005340 <HAL_TIM_IRQHandler+0x5e>
        {
#if (USE_HAL_TIM_REGISTER_CALLBACKS == 1)
          htim->OC_DelayElapsedCallback(htim);
          htim->PWM_PulseFinishedCallback(htim);
#else
          HAL_TIM_OC_DelayElapsedCallback(htim);
 8005334:	6878      	ldr	r0, [r7, #4]
 8005336:	f000 fa31 	bl	800579c <HAL_TIM_OC_DelayElapsedCallback>
          HAL_TIM_PWM_PulseFinishedCallback(htim);
 800533a:	6878      	ldr	r0, [r7, #4]
 800533c:	f000 fa42 	bl	80057c4 <HAL_TIM_PWM_PulseFinishedCallback>
#endif /* USE_HAL_TIM_REGISTER_CALLBACKS */
        }
        htim->Channel = HAL_TIM_ACTIVE_CHANNEL_CLEARED;
 8005340:	687b      	ldr	r3, [r7, #4]
 8005342:	2200      	movs	r2, #0
 8005344:	771a      	strb	r2, [r3, #28]
      }
    }
  }
  /* Capture compare 2 event */
  if ((itflag & (TIM_FLAG_CC2)) == (TIM_FLAG_CC2))
 8005346:	68bb      	ldr	r3, [r7, #8]
 8005348:	f003 0304 	and.w	r3, r3, #4
 800534c:	2b00      	cmp	r3, #0
 800534e:	d020      	beq.n	8005392 <HAL_TIM_IRQHandler+0xb0>
  {
    if ((itsource & (TIM_IT_CC2)) == (TIM_IT_CC2))
 8005350:	68fb      	ldr	r3, [r7, #12]
 8005352:	f003 0304 	and.w	r3, r3, #4
 8005356:	2b00      	cmp	r3, #0
 8005358:	d01b      	beq.n	8005392 <HAL_TIM_IRQHandler+0xb0>
    {
      __HAL_TIM_CLEAR_FLAG(htim, TIM_FLAG_CC2);
 800535a:	687b      	ldr	r3, [r7, #4]
 800535c:	681b      	ldr	r3, [r3, #0]
 800535e:	f06f 0204 	mvn.w	r2, #4
 8005362:	611a      	str	r2, [r3, #16]
      htim->Channel = HAL_TIM_ACTIVE_CHANNEL_2;
 8005364:	687b      	ldr	r3, [r7, #4]
 8005366:	2202      	movs	r2, #2
 8005368:	771a      	strb	r2, [r3, #28]
      /* Input capture event */
      if ((htim->Instance->CCMR1 & TIM_CCMR1_CC2S) != 0x00U)
 800536a:	687b      	ldr	r3, [r7, #4]
 800536c:	681b      	ldr	r3, [r3, #0]
 800536e:	699b      	ldr	r3, [r3, #24]
 8005370:	f403 7340 	and.w	r3, r3, #768	@ 0x300
 8005374:	2b00      	cmp	r3, #0
 8005376:	d003      	beq.n	8005380 <HAL_TIM_IRQHandler+0x9e>
      {
#if (USE_HAL_TIM_REGISTER_CALLBACKS == 1)
        htim->IC_CaptureCallback(htim);
#else
        HAL_TIM_IC_CaptureCallback(htim);
 8005378:	6878      	ldr	r0, [r7, #4]
 800537a:	f000 fa19 	bl	80057b0 <HAL_TIM_IC_CaptureCallback>
 800537e:	e005      	b.n	800538c <HAL_TIM_IRQHandler+0xaa>
      {
#if (USE_HAL_TIM_REGISTER_CALLBACKS == 1)
        htim->OC_DelayElapsedCallback(htim);
        htim->PWM_PulseFinishedCallback(htim);
#else
        HAL_TIM_OC_DelayElapsedCallback(htim);
 8005380:	6878      	ldr	r0, [r7, #4]
 8005382:	f000 fa0b 	bl	800579c <HAL_TIM_OC_DelayElapsedCallback>
        HAL_TIM_PWM_PulseFinishedCallback(htim);
 8005386:	6878      	ldr	r0, [r7, #4]
 8005388:	f000 fa1c 	bl	80057c4 <HAL_TIM_PWM_PulseFinishedCallback>
#endif /* USE_HAL_TIM_REGISTER_CALLBACKS */
      }
      htim->Channel = HAL_TIM_ACTIVE_CHANNEL_CLEARED;
 800538c:	687b      	ldr	r3, [r7, #4]
 800538e:	2200      	movs	r2, #0
 8005390:	771a      	strb	r2, [r3, #28]
    }
  }
  /* Capture compare 3 event */
  if ((itflag & (TIM_FLAG_CC3)) == (TIM_FLAG_CC3))
 8005392:	68bb      	ldr	r3, [r7, #8]
 8005394:	f003 0308 	and.w	r3, r3, #8
 8005398:	2b00      	cmp	r3, #0
 800539a:	d020      	beq.n	80053de <HAL_TIM_IRQHandler+0xfc>
  {
    if ((itsource & (TIM_IT_CC3)) == (TIM_IT_CC3))
 800539c:	68fb      	ldr	r3, [r7, #12]
 800539e:	f003 0308 	and.w	r3, r3, #8
 80053a2:	2b00      	cmp	r3, #0
 80053a4:	d01b      	beq.n	80053de <HAL_TIM_IRQHandler+0xfc>
    {
      __HAL_TIM_CLEAR_FLAG(htim, TIM_FLAG_CC3);
 80053a6:	687b      	ldr	r3, [r7, #4]
 80053a8:	681b      	ldr	r3, [r3, #0]
 80053aa:	f06f 0208 	mvn.w	r2, #8
 80053ae:	611a      	str	r2, [r3, #16]
      htim->Channel = HAL_TIM_ACTIVE_CHANNEL_3;
 80053b0:	687b      	ldr	r3, [r7, #4]
 80053b2:	2204      	movs	r2, #4
 80053b4:	771a      	strb	r2, [r3, #28]
      /* Input capture event */
      if ((htim->Instance->CCMR2 & TIM_CCMR2_CC3S) != 0x00U)
 80053b6:	687b      	ldr	r3, [r7, #4]
 80053b8:	681b      	ldr	r3, [r3, #0]
 80053ba:	69db      	ldr	r3, [r3, #28]
 80053bc:	f003 0303 	and.w	r3, r3, #3
 80053c0:	2b00      	cmp	r3, #0
 80053c2:	d003      	beq.n	80053cc <HAL_TIM_IRQHandler+0xea>
      {
#if (USE_HAL_TIM_REGISTER_CALLBACKS == 1)
        htim->IC_CaptureCallback(htim);
#else
        HAL_TIM_IC_CaptureCallback(htim);
 80053c4:	6878      	ldr	r0, [r7, #4]
 80053c6:	f000 f9f3 	bl	80057b0 <HAL_TIM_IC_CaptureCallback>
 80053ca:	e005      	b.n	80053d8 <HAL_TIM_IRQHandler+0xf6>
      {
#if (USE_HAL_TIM_REGISTER_CALLBACKS == 1)
        htim->OC_DelayElapsedCallback(htim);
        htim->PWM_PulseFinishedCallback(htim);
#else
        HAL_TIM_OC_DelayElapsedCallback(htim);
 80053cc:	6878      	ldr	r0, [r7, #4]
 80053ce:	f000 f9e5 	bl	800579c <HAL_TIM_OC_DelayElapsedCallback>
        HAL_TIM_PWM_PulseFinishedCallback(htim);
 80053d2:	6878      	ldr	r0, [r7, #4]
 80053d4:	f000 f9f6 	bl	80057c4 <HAL_TIM_PWM_PulseFinishedCallback>
#endif /* USE_HAL_TIM_REGISTER_CALLBACKS */
      }
      htim->Channel = HAL_TIM_ACTIVE_CHANNEL_CLEARED;
 80053d8:	687b      	ldr	r3, [r7, #4]
 80053da:	2200      	movs	r2, #0
 80053dc:	771a      	strb	r2, [r3, #28]
    }
  }
  /* Capture compare 4 event */
  if ((itflag & (TIM_FLAG_CC4)) == (TIM_FLAG_CC4))
 80053de:	68bb      	ldr	r3, [r7, #8]
 80053e0:	f003 0310 	and.w	r3, r3, #16
 80053e4:	2b00      	cmp	r3, #0
 80053e6:	d020      	beq.n	800542a <HAL_TIM_IRQHandler+0x148>
  {
    if ((itsource & (TIM_IT_CC4)) == (TIM_IT_CC4))
 80053e8:	68fb      	ldr	r3, [r7, #12]
 80053ea:	f003 0310 	and.w	r3, r3, #16
 80053ee:	2b00      	cmp	r3, #0
 80053f0:	d01b      	beq.n	800542a <HAL_TIM_IRQHandler+0x148>
    {
      __HAL_TIM_CLEAR_FLAG(htim, TIM_FLAG_CC4);
 80053f2:	687b      	ldr	r3, [r7, #4]
 80053f4:	681b      	ldr	r3, [r3, #0]
 80053f6:	f06f 0210 	mvn.w	r2, #16
 80053fa:	611a      	str	r2, [r3, #16]
      htim->Channel = HAL_TIM_ACTIVE_CHANNEL_4;
 80053fc:	687b      	ldr	r3, [r7, #4]
 80053fe:	2208      	movs	r2, #8
 8005400:	771a      	strb	r2, [r3, #28]
      /* Input capture event */
      if ((htim->Instance->CCMR2 & TIM_CCMR2_CC4S) != 0x00U)
 8005402:	687b      	ldr	r3, [r7, #4]
 8005404:	681b      	ldr	r3, [r3, #0]
 8005406:	69db      	ldr	r3, [r3, #28]
 8005408:	f403 7340 	and.w	r3, r3, #768	@ 0x300
 800540c:	2b00      	cmp	r3, #0
 800540e:	d003      	beq.n	8005418 <HAL_TIM_IRQHandler+0x136>
      {
#if (USE_HAL_TIM_REGISTER_CALLBACKS == 1)
        htim->IC_CaptureCallback(htim);
#else
        HAL_TIM_IC_CaptureCallback(htim);
 8005410:	6878      	ldr	r0, [r7, #4]
 8005412:	f000 f9cd 	bl	80057b0 <HAL_TIM_IC_CaptureCallback>
 8005416:	e005      	b.n	8005424 <HAL_TIM_IRQHandler+0x142>
      {
#if (USE_HAL_TIM_REGISTER_CALLBACKS == 1)
        htim->OC_DelayElapsedCallback(htim);
        htim->PWM_PulseFinishedCallback(htim);
#else
        HAL_TIM_OC_DelayElapsedCallback(htim);
 8005418:	6878      	ldr	r0, [r7, #4]
 800541a:	f000 f9bf 	bl	800579c <HAL_TIM_OC_DelayElapsedCallback>
        HAL_TIM_PWM_PulseFinishedCallback(htim);
 800541e:	6878      	ldr	r0, [r7, #4]
 8005420:	f000 f9d0 	bl	80057c4 <HAL_TIM_PWM_PulseFinishedCallback>
#endif /* USE_HAL_TIM_REGISTER_CALLBACKS */
      }
      htim->Channel = HAL_TIM_ACTIVE_CHANNEL_CLEARED;
 8005424:	687b      	ldr	r3, [r7, #4]
 8005426:	2200      	movs	r2, #0
 8005428:	771a      	strb	r2, [r3, #28]
    }
  }
  /* TIM Update event */
  if ((itflag & (TIM_FLAG_UPDATE)) == (TIM_FLAG_UPDATE))
 800542a:	68bb      	ldr	r3, [r7, #8]
 800542c:	f003 0301 	and.w	r3, r3, #1
 8005430:	2b00      	cmp	r3, #0
 8005432:	d00c      	beq.n	800544e <HAL_TIM_IRQHandler+0x16c>
  {
    if ((itsource & (TIM_IT_UPDATE)) == (TIM_IT_UPDATE))
 8005434:	68fb      	ldr	r3, [r7, #12]
 8005436:	f003 0301 	and.w	r3, r3, #1
 800543a:	2b00      	cmp	r3, #0
 800543c:	d007      	beq.n	800544e <HAL_TIM_IRQHandler+0x16c>
    {
      __HAL_TIM_CLEAR_FLAG(htim, TIM_FLAG_UPDATE);
 800543e:	687b      	ldr	r3, [r7, #4]
 8005440:	681b      	ldr	r3, [r3, #0]
 8005442:	f06f 0201 	mvn.w	r2, #1
 8005446:	611a      	str	r2, [r3, #16]
#if (USE_HAL_TIM_REGISTER_CALLBACKS == 1)
      htim->PeriodElapsedCallback(htim);
#else
      HAL_TIM_PeriodElapsedCallback(htim);
 8005448:	6878      	ldr	r0, [r7, #4]
 800544a:	f000 f99d 	bl	8005788 <HAL_TIM_PeriodElapsedCallback>
#endif /* USE_HAL_TIM_REGISTER_CALLBACKS */
    }
  }
  /* TIM Break input event */
  if ((itflag & (TIM_FLAG_BREAK)) == (TIM_FLAG_BREAK))
 800544e:	68bb      	ldr	r3, [r7, #8]
 8005450:	f003 0380 	and.w	r3, r3, #128	@ 0x80
 8005454:	2b00      	cmp	r3, #0
 8005456:	d00c      	beq.n	8005472 <HAL_TIM_IRQHandler+0x190>
  {
    if ((itsource & (TIM_IT_BREAK)) == (TIM_IT_BREAK))
 8005458:	68fb      	ldr	r3, [r7, #12]
 800545a:	f003 0380 	and.w	r3, r3, #128	@ 0x80
 800545e:	2b00      	cmp	r3, #0
 8005460:	d007      	beq.n	8005472 <HAL_TIM_IRQHandler+0x190>
    {
      __HAL_TIM_CLEAR_FLAG(htim, TIM_FLAG_BREAK);
 8005462:	687b      	ldr	r3, [r7, #4]
 8005464:	681b      	ldr	r3, [r3, #0]
 8005466:	f06f 0280 	mvn.w	r2, #128	@ 0x80
 800546a:	611a      	str	r2, [r3, #16]
#if (USE_HAL_TIM_REGISTER_CALLBACKS == 1)
      htim->BreakCallback(htim);
#else
      HAL_TIMEx_BreakCallback(htim);
 800546c:	6878      	ldr	r0, [r7, #4]
 800546e:	f000 fcd9 	bl	8005e24 <HAL_TIMEx_BreakCallback>
#endif /* USE_HAL_TIM_REGISTER_CALLBACKS */
    }
  }
  /* TIM Trigger detection event */
  if ((itflag & (TIM_FLAG_TRIGGER)) == (TIM_FLAG_TRIGGER))
 8005472:	68bb      	ldr	r3, [r7, #8]
 8005474:	f003 0340 	and.w	r3, r3, #64	@ 0x40
 8005478:	2b00      	cmp	r3, #0
 800547a:	d00c      	beq.n	8005496 <HAL_TIM_IRQHandler+0x1b4>
  {
    if ((itsource & (TIM_IT_TRIGGER)) == (TIM_IT_TRIGGER))
 800547c:	68fb      	ldr	r3, [r7, #12]
 800547e:	f003 0340 	and.w	r3, r3, #64	@ 0x40
 8005482:	2b00      	cmp	r3, #0
 8005484:	d007      	beq.n	8005496 <HAL_TIM_IRQHandler+0x1b4>
    {
      __HAL_TIM_CLEAR_FLAG(htim, TIM_FLAG_TRIGGER);
 8005486:	687b      	ldr	r3, [r7, #4]
 8005488:	681b      	ldr	r3, [r3, #0]
 800548a:	f06f 0240 	mvn.w	r2, #64	@ 0x40
 800548e:	611a      	str	r2, [r3, #16]
#if (USE_HAL_TIM_REGISTER_CALLBACKS == 1)
      htim->TriggerCallback(htim);
#else
      HAL_TIM_TriggerCallback(htim);
 8005490:	6878      	ldr	r0, [r7, #4]
 8005492:	f000 f9a1 	bl	80057d8 <HAL_TIM_TriggerCallback>
#endif /* USE_HAL_TIM_REGISTER_CALLBACKS */
    }
  }
  /* TIM commutation event */
  if ((itflag & (TIM_FLAG_COM)) == (TIM_FLAG_COM))
 8005496:	68bb      	ldr	r3, [r7, #8]
 8005498:	f003 0320 	and.w	r3, r3, #32
 800549c:	2b00      	cmp	r3, #0
 800549e:	d00c      	beq.n	80054ba <HAL_TIM_IRQHandler+0x1d8>
  {
    if ((itsource & (TIM_IT_COM)) == (TIM_IT_COM))
 80054a0:	68fb      	ldr	r3, [r7, #12]
 80054a2:	f003 0320 	and.w	r3, r3, #32
 80054a6:	2b00      	cmp	r3, #0
 80054a8:	d007      	beq.n	80054ba <HAL_TIM_IRQHandler+0x1d8>
    {
      __HAL_TIM_CLEAR_FLAG(htim, TIM_FLAG_COM);
 80054aa:	687b      	ldr	r3, [r7, #4]
 80054ac:	681b      	ldr	r3, [r3, #0]
 80054ae:	f06f 0220 	mvn.w	r2, #32
 80054b2:	611a      	str	r2, [r3, #16]
#if (USE_HAL_TIM_REGISTER_CALLBACKS == 1)
      htim->CommutationCallback(htim);
#else
      HAL_TIMEx_CommutCallback(htim);
 80054b4:	6878      	ldr	r0, [r7, #4]
 80054b6:	f000 fcab 	bl	8005e10 <HAL_TIMEx_CommutCallback>
#endif /* USE_HAL_TIM_REGISTER_CALLBACKS */
    }
  }
}
 80054ba:	bf00      	nop
 80054bc:	3710      	adds	r7, #16
 80054be:	46bd      	mov	sp, r7
 80054c0:	bd80      	pop	{r7, pc}

080054c2 <HAL_TIM_IC_ConfigChannel>:
  *            @arg TIM_CHANNEL_3: TIM Channel 3 selected
  *            @arg TIM_CHANNEL_4: TIM Channel 4 selected
  * @retval HAL status
  */
HAL_StatusTypeDef HAL_TIM_IC_ConfigChannel(TIM_HandleTypeDef *htim, const TIM_IC_InitTypeDef *sConfig, uint32_t Channel)
{
 80054c2:	b580      	push	{r7, lr}
 80054c4:	b086      	sub	sp, #24
 80054c6:	af00      	add	r7, sp, #0
 80054c8:	60f8      	str	r0, [r7, #12]
 80054ca:	60b9      	str	r1, [r7, #8]
 80054cc:	607a      	str	r2, [r7, #4]
  HAL_StatusTypeDef status = HAL_OK;
 80054ce:	2300      	movs	r3, #0
 80054d0:	75fb      	strb	r3, [r7, #23]
  assert_param(IS_TIM_IC_SELECTION(sConfig->ICSelection));
  assert_param(IS_TIM_IC_PRESCALER(sConfig->ICPrescaler));
  assert_param(IS_TIM_IC_FILTER(sConfig->ICFilter));

  /* Process Locked */
  __HAL_LOCK(htim);
 80054d2:	68fb      	ldr	r3, [r7, #12]
 80054d4:	f893 303c 	ldrb.w	r3, [r3, #60]	@ 0x3c
 80054d8:	2b01      	cmp	r3, #1
 80054da:	d101      	bne.n	80054e0 <HAL_TIM_IC_ConfigChannel+0x1e>
 80054dc:	2302      	movs	r3, #2
 80054de:	e088      	b.n	80055f2 <HAL_TIM_IC_ConfigChannel+0x130>
 80054e0:	68fb      	ldr	r3, [r7, #12]
 80054e2:	2201      	movs	r2, #1
 80054e4:	f883 203c 	strb.w	r2, [r3, #60]	@ 0x3c

  if (Channel == TIM_CHANNEL_1)
 80054e8:	687b      	ldr	r3, [r7, #4]
 80054ea:	2b00      	cmp	r3, #0
 80054ec:	d11b      	bne.n	8005526 <HAL_TIM_IC_ConfigChannel+0x64>
  {
    /* TI1 Configuration */
    TIM_TI1_SetConfig(htim->Instance,
 80054ee:	68fb      	ldr	r3, [r7, #12]
 80054f0:	6818      	ldr	r0, [r3, #0]
                      sConfig->ICPolarity,
 80054f2:	68bb      	ldr	r3, [r7, #8]
 80054f4:	6819      	ldr	r1, [r3, #0]
                      sConfig->ICSelection,
 80054f6:	68bb      	ldr	r3, [r7, #8]
 80054f8:	685a      	ldr	r2, [r3, #4]
                      sConfig->ICFilter);
 80054fa:	68bb      	ldr	r3, [r7, #8]
 80054fc:	68db      	ldr	r3, [r3, #12]
    TIM_TI1_SetConfig(htim->Instance,
 80054fe:	f000 fa21 	bl	8005944 <TIM_TI1_SetConfig>

    /* Reset the IC1PSC Bits */
    htim->Instance->CCMR1 &= ~TIM_CCMR1_IC1PSC;
 8005502:	68fb      	ldr	r3, [r7, #12]
 8005504:	681b      	ldr	r3, [r3, #0]
 8005506:	699a      	ldr	r2, [r3, #24]
 8005508:	68fb      	ldr	r3, [r7, #12]
 800550a:	681b      	ldr	r3, [r3, #0]
 800550c:	f022 020c 	bic.w	r2, r2, #12
 8005510:	619a      	str	r2, [r3, #24]

    /* Set the IC1PSC value */
    htim->Instance->CCMR1 |= sConfig->ICPrescaler;
 8005512:	68fb      	ldr	r3, [r7, #12]
 8005514:	681b      	ldr	r3, [r3, #0]
 8005516:	6999      	ldr	r1, [r3, #24]
 8005518:	68bb      	ldr	r3, [r7, #8]
 800551a:	689a      	ldr	r2, [r3, #8]
 800551c:	68fb      	ldr	r3, [r7, #12]
 800551e:	681b      	ldr	r3, [r3, #0]
 8005520:	430a      	orrs	r2, r1
 8005522:	619a      	str	r2, [r3, #24]
 8005524:	e060      	b.n	80055e8 <HAL_TIM_IC_ConfigChannel+0x126>
  }
  else if (Channel == TIM_CHANNEL_2)
 8005526:	687b      	ldr	r3, [r7, #4]
 8005528:	2b04      	cmp	r3, #4
 800552a:	d11c      	bne.n	8005566 <HAL_TIM_IC_ConfigChannel+0xa4>
  {
    /* TI2 Configuration */
    assert_param(IS_TIM_CC2_INSTANCE(htim->Instance));

    TIM_TI2_SetConfig(htim->Instance,
 800552c:	68fb      	ldr	r3, [r7, #12]
 800552e:	6818      	ldr	r0, [r3, #0]
                      sConfig->ICPolarity,
 8005530:	68bb      	ldr	r3, [r7, #8]
 8005532:	6819      	ldr	r1, [r3, #0]
                      sConfig->ICSelection,
 8005534:	68bb      	ldr	r3, [r7, #8]
 8005536:	685a      	ldr	r2, [r3, #4]
                      sConfig->ICFilter);
 8005538:	68bb      	ldr	r3, [r7, #8]
 800553a:	68db      	ldr	r3, [r3, #12]
    TIM_TI2_SetConfig(htim->Instance,
 800553c:	f000 faa5 	bl	8005a8a <TIM_TI2_SetConfig>

    /* Reset the IC2PSC Bits */
    htim->Instance->CCMR1 &= ~TIM_CCMR1_IC2PSC;
 8005540:	68fb      	ldr	r3, [r7, #12]
 8005542:	681b      	ldr	r3, [r3, #0]
 8005544:	699a      	ldr	r2, [r3, #24]
 8005546:	68fb      	ldr	r3, [r7, #12]
 8005548:	681b      	ldr	r3, [r3, #0]
 800554a:	f422 6240 	bic.w	r2, r2, #3072	@ 0xc00
 800554e:	619a      	str	r2, [r3, #24]

    /* Set the IC2PSC value */
    htim->Instance->CCMR1 |= (sConfig->ICPrescaler << 8U);
 8005550:	68fb      	ldr	r3, [r7, #12]
 8005552:	681b      	ldr	r3, [r3, #0]
 8005554:	6999      	ldr	r1, [r3, #24]
 8005556:	68bb      	ldr	r3, [r7, #8]
 8005558:	689b      	ldr	r3, [r3, #8]
 800555a:	021a      	lsls	r2, r3, #8
 800555c:	68fb      	ldr	r3, [r7, #12]
 800555e:	681b      	ldr	r3, [r3, #0]
 8005560:	430a      	orrs	r2, r1
 8005562:	619a      	str	r2, [r3, #24]
 8005564:	e040      	b.n	80055e8 <HAL_TIM_IC_ConfigChannel+0x126>
  }
  else if (Channel == TIM_CHANNEL_3)
 8005566:	687b      	ldr	r3, [r7, #4]
 8005568:	2b08      	cmp	r3, #8
 800556a:	d11b      	bne.n	80055a4 <HAL_TIM_IC_ConfigChannel+0xe2>
  {
    /* TI3 Configuration */
    assert_param(IS_TIM_CC3_INSTANCE(htim->Instance));

    TIM_TI3_SetConfig(htim->Instance,
 800556c:	68fb      	ldr	r3, [r7, #12]
 800556e:	6818      	ldr	r0, [r3, #0]
                      sConfig->ICPolarity,
 8005570:	68bb      	ldr	r3, [r7, #8]
 8005572:	6819      	ldr	r1, [r3, #0]
                      sConfig->ICSelection,
 8005574:	68bb      	ldr	r3, [r7, #8]
 8005576:	685a      	ldr	r2, [r3, #4]
                      sConfig->ICFilter);
 8005578:	68bb      	ldr	r3, [r7, #8]
 800557a:	68db      	ldr	r3, [r3, #12]
    TIM_TI3_SetConfig(htim->Instance,
 800557c:	f000 faf2 	bl	8005b64 <TIM_TI3_SetConfig>

    /* Reset the IC3PSC Bits */
    htim->Instance->CCMR2 &= ~TIM_CCMR2_IC3PSC;
 8005580:	68fb      	ldr	r3, [r7, #12]
 8005582:	681b      	ldr	r3, [r3, #0]
 8005584:	69da      	ldr	r2, [r3, #28]
 8005586:	68fb      	ldr	r3, [r7, #12]
 8005588:	681b      	ldr	r3, [r3, #0]
 800558a:	f022 020c 	bic.w	r2, r2, #12
 800558e:	61da      	str	r2, [r3, #28]

    /* Set the IC3PSC value */
    htim->Instance->CCMR2 |= sConfig->ICPrescaler;
 8005590:	68fb      	ldr	r3, [r7, #12]
 8005592:	681b      	ldr	r3, [r3, #0]
 8005594:	69d9      	ldr	r1, [r3, #28]
 8005596:	68bb      	ldr	r3, [r7, #8]
 8005598:	689a      	ldr	r2, [r3, #8]
 800559a:	68fb      	ldr	r3, [r7, #12]
 800559c:	681b      	ldr	r3, [r3, #0]
 800559e:	430a      	orrs	r2, r1
 80055a0:	61da      	str	r2, [r3, #28]
 80055a2:	e021      	b.n	80055e8 <HAL_TIM_IC_ConfigChannel+0x126>
  }
  else if (Channel == TIM_CHANNEL_4)
 80055a4:	687b      	ldr	r3, [r7, #4]
 80055a6:	2b0c      	cmp	r3, #12
 80055a8:	d11c      	bne.n	80055e4 <HAL_TIM_IC_ConfigChannel+0x122>
  {
    /* TI4 Configuration */
    assert_param(IS_TIM_CC4_INSTANCE(htim->Instance));

    TIM_TI4_SetConfig(htim->Instance,
 80055aa:	68fb      	ldr	r3, [r7, #12]
 80055ac:	6818      	ldr	r0, [r3, #0]
                      sConfig->ICPolarity,
 80055ae:	68bb      	ldr	r3, [r7, #8]
 80055b0:	6819      	ldr	r1, [r3, #0]
                      sConfig->ICSelection,
 80055b2:	68bb      	ldr	r3, [r7, #8]
 80055b4:	685a      	ldr	r2, [r3, #4]
                      sConfig->ICFilter);
 80055b6:	68bb      	ldr	r3, [r7, #8]
 80055b8:	68db      	ldr	r3, [r3, #12]
    TIM_TI4_SetConfig(htim->Instance,
 80055ba:	f000 fb0f 	bl	8005bdc <TIM_TI4_SetConfig>

    /* Reset the IC4PSC Bits */
    htim->Instance->CCMR2 &= ~TIM_CCMR2_IC4PSC;
 80055be:	68fb      	ldr	r3, [r7, #12]
 80055c0:	681b      	ldr	r3, [r3, #0]
 80055c2:	69da      	ldr	r2, [r3, #28]
 80055c4:	68fb      	ldr	r3, [r7, #12]
 80055c6:	681b      	ldr	r3, [r3, #0]
 80055c8:	f422 6240 	bic.w	r2, r2, #3072	@ 0xc00
 80055cc:	61da      	str	r2, [r3, #28]

    /* Set the IC4PSC value */
    htim->Instance->CCMR2 |= (sConfig->ICPrescaler << 8U);
 80055ce:	68fb      	ldr	r3, [r7, #12]
 80055d0:	681b      	ldr	r3, [r3, #0]
 80055d2:	69d9      	ldr	r1, [r3, #28]
 80055d4:	68bb      	ldr	r3, [r7, #8]
 80055d6:	689b      	ldr	r3, [r3, #8]
 80055d8:	021a      	lsls	r2, r3, #8
 80055da:	68fb      	ldr	r3, [r7, #12]
 80055dc:	681b      	ldr	r3, [r3, #0]
 80055de:	430a      	orrs	r2, r1
 80055e0:	61da      	str	r2, [r3, #28]
 80055e2:	e001      	b.n	80055e8 <HAL_TIM_IC_ConfigChannel+0x126>
  }
  else
  {
    status = HAL_ERROR;
 80055e4:	2301      	movs	r3, #1
 80055e6:	75fb      	strb	r3, [r7, #23]
  }

  __HAL_UNLOCK(htim);
 80055e8:	68fb      	ldr	r3, [r7, #12]
 80055ea:	2200      	movs	r2, #0
 80055ec:	f883 203c 	strb.w	r2, [r3, #60]	@ 0x3c

  return status;
 80055f0:	7dfb      	ldrb	r3, [r7, #23]
}
 80055f2:	4618      	mov	r0, r3
 80055f4:	3718      	adds	r7, #24
 80055f6:	46bd      	mov	sp, r7
 80055f8:	bd80      	pop	{r7, pc}

080055fa <HAL_TIM_ConfigClockSource>:
  * @param  sClockSourceConfig pointer to a TIM_ClockConfigTypeDef structure that
  *         contains the clock source information for the TIM peripheral.
  * @retval HAL status
  */
HAL_StatusTypeDef HAL_TIM_ConfigClockSource(TIM_HandleTypeDef *htim, const TIM_ClockConfigTypeDef *sClockSourceConfig)
{
 80055fa:	b580      	push	{r7, lr}
 80055fc:	b084      	sub	sp, #16
 80055fe:	af00      	add	r7, sp, #0
 8005600:	6078      	str	r0, [r7, #4]
 8005602:	6039      	str	r1, [r7, #0]
  HAL_StatusTypeDef status = HAL_OK;
 8005604:	2300      	movs	r3, #0
 8005606:	73fb      	strb	r3, [r7, #15]
  uint32_t tmpsmcr;

  /* Process Locked */
  __HAL_LOCK(htim);
 8005608:	687b      	ldr	r3, [r7, #4]
 800560a:	f893 303c 	ldrb.w	r3, [r3, #60]	@ 0x3c
 800560e:	2b01      	cmp	r3, #1
 8005610:	d101      	bne.n	8005616 <HAL_TIM_ConfigClockSource+0x1c>
 8005612:	2302      	movs	r3, #2
 8005614:	e0b4      	b.n	8005780 <HAL_TIM_ConfigClockSource+0x186>
 8005616:	687b      	ldr	r3, [r7, #4]
 8005618:	2201      	movs	r2, #1
 800561a:	f883 203c 	strb.w	r2, [r3, #60]	@ 0x3c

  htim->State = HAL_TIM_STATE_BUSY;
 800561e:	687b      	ldr	r3, [r7, #4]
 8005620:	2202      	movs	r2, #2
 8005622:	f883 203d 	strb.w	r2, [r3, #61]	@ 0x3d

  /* Check the parameters */
  assert_param(IS_TIM_CLOCKSOURCE(sClockSourceConfig->ClockSource));

  /* Reset the SMS, TS, ECE, ETPS and ETRF bits */
  tmpsmcr = htim->Instance->SMCR;
 8005626:	687b      	ldr	r3, [r7, #4]
 8005628:	681b      	ldr	r3, [r3, #0]
 800562a:	689b      	ldr	r3, [r3, #8]
 800562c:	60bb      	str	r3, [r7, #8]
  tmpsmcr &= ~(TIM_SMCR_SMS | TIM_SMCR_TS);
 800562e:	68bb      	ldr	r3, [r7, #8]
 8005630:	f023 0377 	bic.w	r3, r3, #119	@ 0x77
 8005634:	60bb      	str	r3, [r7, #8]
  tmpsmcr &= ~(TIM_SMCR_ETF | TIM_SMCR_ETPS | TIM_SMCR_ECE | TIM_SMCR_ETP);
 8005636:	68bb      	ldr	r3, [r7, #8]
 8005638:	f423 437f 	bic.w	r3, r3, #65280	@ 0xff00
 800563c:	60bb      	str	r3, [r7, #8]
  htim->Instance->SMCR = tmpsmcr;
 800563e:	687b      	ldr	r3, [r7, #4]
 8005640:	681b      	ldr	r3, [r3, #0]
 8005642:	68ba      	ldr	r2, [r7, #8]
 8005644:	609a      	str	r2, [r3, #8]

  switch (sClockSourceConfig->ClockSource)
 8005646:	683b      	ldr	r3, [r7, #0]
 8005648:	681b      	ldr	r3, [r3, #0]
 800564a:	f5b3 5f00 	cmp.w	r3, #8192	@ 0x2000
 800564e:	d03e      	beq.n	80056ce <HAL_TIM_ConfigClockSource+0xd4>
 8005650:	f5b3 5f00 	cmp.w	r3, #8192	@ 0x2000
 8005654:	f200 8087 	bhi.w	8005766 <HAL_TIM_ConfigClockSource+0x16c>
 8005658:	f5b3 5f80 	cmp.w	r3, #4096	@ 0x1000
 800565c:	f000 8086 	beq.w	800576c <HAL_TIM_ConfigClockSource+0x172>
 8005660:	f5b3 5f80 	cmp.w	r3, #4096	@ 0x1000
 8005664:	d87f      	bhi.n	8005766 <HAL_TIM_ConfigClockSource+0x16c>
 8005666:	2b70      	cmp	r3, #112	@ 0x70
 8005668:	d01a      	beq.n	80056a0 <HAL_TIM_ConfigClockSource+0xa6>
 800566a:	2b70      	cmp	r3, #112	@ 0x70
 800566c:	d87b      	bhi.n	8005766 <HAL_TIM_ConfigClockSource+0x16c>
 800566e:	2b60      	cmp	r3, #96	@ 0x60
 8005670:	d050      	beq.n	8005714 <HAL_TIM_ConfigClockSource+0x11a>
 8005672:	2b60      	cmp	r3, #96	@ 0x60
 8005674:	d877      	bhi.n	8005766 <HAL_TIM_ConfigClockSource+0x16c>
 8005676:	2b50      	cmp	r3, #80	@ 0x50
 8005678:	d03c      	beq.n	80056f4 <HAL_TIM_ConfigClockSource+0xfa>
 800567a:	2b50      	cmp	r3, #80	@ 0x50
 800567c:	d873      	bhi.n	8005766 <HAL_TIM_ConfigClockSource+0x16c>
 800567e:	2b40      	cmp	r3, #64	@ 0x40
 8005680:	d058      	beq.n	8005734 <HAL_TIM_ConfigClockSource+0x13a>
 8005682:	2b40      	cmp	r3, #64	@ 0x40
 8005684:	d86f      	bhi.n	8005766 <HAL_TIM_ConfigClockSource+0x16c>
 8005686:	2b30      	cmp	r3, #48	@ 0x30
 8005688:	d064      	beq.n	8005754 <HAL_TIM_ConfigClockSource+0x15a>
 800568a:	2b30      	cmp	r3, #48	@ 0x30
 800568c:	d86b      	bhi.n	8005766 <HAL_TIM_ConfigClockSource+0x16c>
 800568e:	2b20      	cmp	r3, #32
 8005690:	d060      	beq.n	8005754 <HAL_TIM_ConfigClockSource+0x15a>
 8005692:	2b20      	cmp	r3, #32
 8005694:	d867      	bhi.n	8005766 <HAL_TIM_ConfigClockSource+0x16c>
 8005696:	2b00      	cmp	r3, #0
 8005698:	d05c      	beq.n	8005754 <HAL_TIM_ConfigClockSource+0x15a>
 800569a:	2b10      	cmp	r3, #16
 800569c:	d05a      	beq.n	8005754 <HAL_TIM_ConfigClockSource+0x15a>
 800569e:	e062      	b.n	8005766 <HAL_TIM_ConfigClockSource+0x16c>
      assert_param(IS_TIM_CLOCKPRESCALER(sClockSourceConfig->ClockPrescaler));
      assert_param(IS_TIM_CLOCKPOLARITY(sClockSourceConfig->ClockPolarity));
      assert_param(IS_TIM_CLOCKFILTER(sClockSourceConfig->ClockFilter));

      /* Configure the ETR Clock source */
      TIM_ETR_SetConfig(htim->Instance,
 80056a0:	687b      	ldr	r3, [r7, #4]
 80056a2:	6818      	ldr	r0, [r3, #0]
                        sClockSourceConfig->ClockPrescaler,
 80056a4:	683b      	ldr	r3, [r7, #0]
 80056a6:	6899      	ldr	r1, [r3, #8]
                        sClockSourceConfig->ClockPolarity,
 80056a8:	683b      	ldr	r3, [r7, #0]
 80056aa:	685a      	ldr	r2, [r3, #4]
                        sClockSourceConfig->ClockFilter);
 80056ac:	683b      	ldr	r3, [r7, #0]
 80056ae:	68db      	ldr	r3, [r3, #12]
      TIM_ETR_SetConfig(htim->Instance,
 80056b0:	f000 faec 	bl	8005c8c <TIM_ETR_SetConfig>

      /* Select the External clock mode1 and the ETRF trigger */
      tmpsmcr = htim->Instance->SMCR;
 80056b4:	687b      	ldr	r3, [r7, #4]
 80056b6:	681b      	ldr	r3, [r3, #0]
 80056b8:	689b      	ldr	r3, [r3, #8]
 80056ba:	60bb      	str	r3, [r7, #8]
      tmpsmcr |= (TIM_SLAVEMODE_EXTERNAL1 | TIM_CLOCKSOURCE_ETRMODE1);
 80056bc:	68bb      	ldr	r3, [r7, #8]
 80056be:	f043 0377 	orr.w	r3, r3, #119	@ 0x77
 80056c2:	60bb      	str	r3, [r7, #8]
      /* Write to TIMx SMCR */
      htim->Instance->SMCR = tmpsmcr;
 80056c4:	687b      	ldr	r3, [r7, #4]
 80056c6:	681b      	ldr	r3, [r3, #0]
 80056c8:	68ba      	ldr	r2, [r7, #8]
 80056ca:	609a      	str	r2, [r3, #8]
      break;
 80056cc:	e04f      	b.n	800576e <HAL_TIM_ConfigClockSource+0x174>
      assert_param(IS_TIM_CLOCKPRESCALER(sClockSourceConfig->ClockPrescaler));
      assert_param(IS_TIM_CLOCKPOLARITY(sClockSourceConfig->ClockPolarity));
      assert_param(IS_TIM_CLOCKFILTER(sClockSourceConfig->ClockFilter));

      /* Configure the ETR Clock source */
      TIM_ETR_SetConfig(htim->Instance,
 80056ce:	687b      	ldr	r3, [r7, #4]
 80056d0:	6818      	ldr	r0, [r3, #0]
                        sClockSourceConfig->ClockPrescaler,
 80056d2:	683b      	ldr	r3, [r7, #0]
 80056d4:	6899      	ldr	r1, [r3, #8]
                        sClockSourceConfig->ClockPolarity,
 80056d6:	683b      	ldr	r3, [r7, #0]
 80056d8:	685a      	ldr	r2, [r3, #4]
                        sClockSourceConfig->ClockFilter);
 80056da:	683b      	ldr	r3, [r7, #0]
 80056dc:	68db      	ldr	r3, [r3, #12]
      TIM_ETR_SetConfig(htim->Instance,
 80056de:	f000 fad5 	bl	8005c8c <TIM_ETR_SetConfig>
      /* Enable the External clock mode2 */
      htim->Instance->SMCR |= TIM_SMCR_ECE;
 80056e2:	687b      	ldr	r3, [r7, #4]
 80056e4:	681b      	ldr	r3, [r3, #0]
 80056e6:	689a      	ldr	r2, [r3, #8]
 80056e8:	687b      	ldr	r3, [r7, #4]
 80056ea:	681b      	ldr	r3, [r3, #0]
 80056ec:	f442 4280 	orr.w	r2, r2, #16384	@ 0x4000
 80056f0:	609a      	str	r2, [r3, #8]
      break;
 80056f2:	e03c      	b.n	800576e <HAL_TIM_ConfigClockSource+0x174>

      /* Check TI1 input conditioning related parameters */
      assert_param(IS_TIM_CLOCKPOLARITY(sClockSourceConfig->ClockPolarity));
      assert_param(IS_TIM_CLOCKFILTER(sClockSourceConfig->ClockFilter));

      TIM_TI1_ConfigInputStage(htim->Instance,
 80056f4:	687b      	ldr	r3, [r7, #4]
 80056f6:	6818      	ldr	r0, [r3, #0]
                               sClockSourceConfig->ClockPolarity,
 80056f8:	683b      	ldr	r3, [r7, #0]
 80056fa:	6859      	ldr	r1, [r3, #4]
                               sClockSourceConfig->ClockFilter);
 80056fc:	683b      	ldr	r3, [r7, #0]
 80056fe:	68db      	ldr	r3, [r3, #12]
      TIM_TI1_ConfigInputStage(htim->Instance,
 8005700:	461a      	mov	r2, r3
 8005702:	f000 f993 	bl	8005a2c <TIM_TI1_ConfigInputStage>
      TIM_ITRx_SetConfig(htim->Instance, TIM_CLOCKSOURCE_TI1);
 8005706:	687b      	ldr	r3, [r7, #4]
 8005708:	681b      	ldr	r3, [r3, #0]
 800570a:	2150      	movs	r1, #80	@ 0x50
 800570c:	4618      	mov	r0, r3
 800570e:	f000 faa2 	bl	8005c56 <TIM_ITRx_SetConfig>
      break;
 8005712:	e02c      	b.n	800576e <HAL_TIM_ConfigClockSource+0x174>

      /* Check TI2 input conditioning related parameters */
      assert_param(IS_TIM_CLOCKPOLARITY(sClockSourceConfig->ClockPolarity));
      assert_param(IS_TIM_CLOCKFILTER(sClockSourceConfig->ClockFilter));

      TIM_TI2_ConfigInputStage(htim->Instance,
 8005714:	687b      	ldr	r3, [r7, #4]
 8005716:	6818      	ldr	r0, [r3, #0]
                               sClockSourceConfig->ClockPolarity,
 8005718:	683b      	ldr	r3, [r7, #0]
 800571a:	6859      	ldr	r1, [r3, #4]
                               sClockSourceConfig->ClockFilter);
 800571c:	683b      	ldr	r3, [r7, #0]
 800571e:	68db      	ldr	r3, [r3, #12]
      TIM_TI2_ConfigInputStage(htim->Instance,
 8005720:	461a      	mov	r2, r3
 8005722:	f000 f9ef 	bl	8005b04 <TIM_TI2_ConfigInputStage>
      TIM_ITRx_SetConfig(htim->Instance, TIM_CLOCKSOURCE_TI2);
 8005726:	687b      	ldr	r3, [r7, #4]
 8005728:	681b      	ldr	r3, [r3, #0]
 800572a:	2160      	movs	r1, #96	@ 0x60
 800572c:	4618      	mov	r0, r3
 800572e:	f000 fa92 	bl	8005c56 <TIM_ITRx_SetConfig>
      break;
 8005732:	e01c      	b.n	800576e <HAL_TIM_ConfigClockSource+0x174>

      /* Check TI1 input conditioning related parameters */
      assert_param(IS_TIM_CLOCKPOLARITY(sClockSourceConfig->ClockPolarity));
      assert_param(IS_TIM_CLOCKFILTER(sClockSourceConfig->ClockFilter));

      TIM_TI1_ConfigInputStage(htim->Instance,
 8005734:	687b      	ldr	r3, [r7, #4]
 8005736:	6818      	ldr	r0, [r3, #0]
                               sClockSourceConfig->ClockPolarity,
 8005738:	683b      	ldr	r3, [r7, #0]
 800573a:	6859      	ldr	r1, [r3, #4]
                               sClockSourceConfig->ClockFilter);
 800573c:	683b      	ldr	r3, [r7, #0]
 800573e:	68db      	ldr	r3, [r3, #12]
      TIM_TI1_ConfigInputStage(htim->Instance,
 8005740:	461a      	mov	r2, r3
 8005742:	f000 f973 	bl	8005a2c <TIM_TI1_ConfigInputStage>
      TIM_ITRx_SetConfig(htim->Instance, TIM_CLOCKSOURCE_TI1ED);
 8005746:	687b      	ldr	r3, [r7, #4]
 8005748:	681b      	ldr	r3, [r3, #0]
 800574a:	2140      	movs	r1, #64	@ 0x40
 800574c:	4618      	mov	r0, r3
 800574e:	f000 fa82 	bl	8005c56 <TIM_ITRx_SetConfig>
      break;
 8005752:	e00c      	b.n	800576e <HAL_TIM_ConfigClockSource+0x174>
    case TIM_CLOCKSOURCE_ITR3:
    {
      /* Check whether or not the timer instance supports internal trigger input */
      assert_param(IS_TIM_CLOCKSOURCE_ITRX_INSTANCE(htim->Instance));

      TIM_ITRx_SetConfig(htim->Instance, sClockSourceConfig->ClockSource);
 8005754:	687b      	ldr	r3, [r7, #4]
 8005756:	681a      	ldr	r2, [r3, #0]
 8005758:	683b      	ldr	r3, [r7, #0]
 800575a:	681b      	ldr	r3, [r3, #0]
 800575c:	4619      	mov	r1, r3
 800575e:	4610      	mov	r0, r2
 8005760:	f000 fa79 	bl	8005c56 <TIM_ITRx_SetConfig>
      break;
 8005764:	e003      	b.n	800576e <HAL_TIM_ConfigClockSource+0x174>
    }

    default:
      status = HAL_ERROR;
 8005766:	2301      	movs	r3, #1
 8005768:	73fb      	strb	r3, [r7, #15]
      break;
 800576a:	e000      	b.n	800576e <HAL_TIM_ConfigClockSource+0x174>
      break;
 800576c:	bf00      	nop
  }
  htim->State = HAL_TIM_STATE_READY;
 800576e:	687b      	ldr	r3, [r7, #4]
 8005770:	2201      	movs	r2, #1
 8005772:	f883 203d 	strb.w	r2, [r3, #61]	@ 0x3d

  __HAL_UNLOCK(htim);
 8005776:	687b      	ldr	r3, [r7, #4]
 8005778:	2200      	movs	r2, #0
 800577a:	f883 203c 	strb.w	r2, [r3, #60]	@ 0x3c

  return status;
 800577e:	7bfb      	ldrb	r3, [r7, #15]
}
 8005780:	4618      	mov	r0, r3
 8005782:	3710      	adds	r7, #16
 8005784:	46bd      	mov	sp, r7
 8005786:	bd80      	pop	{r7, pc}

08005788 <HAL_TIM_PeriodElapsedCallback>:
  * @brief  Period elapsed callback in non-blocking mode
  * @param  htim TIM handle
  * @retval None
  */
__weak void HAL_TIM_PeriodElapsedCallback(TIM_HandleTypeDef *htim)
{
 8005788:	b480      	push	{r7}
 800578a:	b083      	sub	sp, #12
 800578c:	af00      	add	r7, sp, #0
 800578e:	6078      	str	r0, [r7, #4]
  UNUSED(htim);

  /* NOTE : This function should not be modified, when the callback is needed,
            the HAL_TIM_PeriodElapsedCallback could be implemented in the user file
   */
}
 8005790:	bf00      	nop
 8005792:	370c      	adds	r7, #12
 8005794:	46bd      	mov	sp, r7
 8005796:	f85d 7b04 	ldr.w	r7, [sp], #4
 800579a:	4770      	bx	lr

0800579c <HAL_TIM_OC_DelayElapsedCallback>:
  * @brief  Output Compare callback in non-blocking mode
  * @param  htim TIM OC handle
  * @retval None
  */
__weak void HAL_TIM_OC_DelayElapsedCallback(TIM_HandleTypeDef *htim)
{
 800579c:	b480      	push	{r7}
 800579e:	b083      	sub	sp, #12
 80057a0:	af00      	add	r7, sp, #0
 80057a2:	6078      	str	r0, [r7, #4]
  UNUSED(htim);

  /* NOTE : This function should not be modified, when the callback is needed,
            the HAL_TIM_OC_DelayElapsedCallback could be implemented in the user file
   */
}
 80057a4:	bf00      	nop
 80057a6:	370c      	adds	r7, #12
 80057a8:	46bd      	mov	sp, r7
 80057aa:	f85d 7b04 	ldr.w	r7, [sp], #4
 80057ae:	4770      	bx	lr

080057b0 <HAL_TIM_IC_CaptureCallback>:
  * @brief  Input Capture callback in non-blocking mode
  * @param  htim TIM IC handle
  * @retval None
  */
__weak void HAL_TIM_IC_CaptureCallback(TIM_HandleTypeDef *htim)
{
 80057b0:	b480      	push	{r7}
 80057b2:	b083      	sub	sp, #12
 80057b4:	af00      	add	r7, sp, #0
 80057b6:	6078      	str	r0, [r7, #4]
  UNUSED(htim);

  /* NOTE : This function should not be modified, when the callback is needed,
            the HAL_TIM_IC_CaptureCallback could be implemented in the user file
   */
}
 80057b8:	bf00      	nop
 80057ba:	370c      	adds	r7, #12
 80057bc:	46bd      	mov	sp, r7
 80057be:	f85d 7b04 	ldr.w	r7, [sp], #4
 80057c2:	4770      	bx	lr

080057c4 <HAL_TIM_PWM_PulseFinishedCallback>:
  * @brief  PWM Pulse finished callback in non-blocking mode
  * @param  htim TIM handle
  * @retval None
  */
__weak void HAL_TIM_PWM_PulseFinishedCallback(TIM_HandleTypeDef *htim)
{
 80057c4:	b480      	push	{r7}
 80057c6:	b083      	sub	sp, #12
 80057c8:	af00      	add	r7, sp, #0
 80057ca:	6078      	str	r0, [r7, #4]
  UNUSED(htim);

  /* NOTE : This function should not be modified, when the callback is needed,
            the HAL_TIM_PWM_PulseFinishedCallback could be implemented in the user file
   */
}
 80057cc:	bf00      	nop
 80057ce:	370c      	adds	r7, #12
 80057d0:	46bd      	mov	sp, r7
 80057d2:	f85d 7b04 	ldr.w	r7, [sp], #4
 80057d6:	4770      	bx	lr

080057d8 <HAL_TIM_TriggerCallback>:
  * @brief  Hall Trigger detection callback in non-blocking mode
  * @param  htim TIM handle
  * @retval None
  */
__weak void HAL_TIM_TriggerCallback(TIM_HandleTypeDef *htim)
{
 80057d8:	b480      	push	{r7}
 80057da:	b083      	sub	sp, #12
 80057dc:	af00      	add	r7, sp, #0
 80057de:	6078      	str	r0, [r7, #4]
  UNUSED(htim);

  /* NOTE : This function should not be modified, when the callback is needed,
            the HAL_TIM_TriggerCallback could be implemented in the user file
   */
}
 80057e0:	bf00      	nop
 80057e2:	370c      	adds	r7, #12
 80057e4:	46bd      	mov	sp, r7
 80057e6:	f85d 7b04 	ldr.w	r7, [sp], #4
 80057ea:	4770      	bx	lr

080057ec <TIM_Base_SetConfig>:
  * @param  TIMx TIM peripheral
  * @param  Structure TIM Base configuration structure
  * @retval None
  */
void TIM_Base_SetConfig(TIM_TypeDef *TIMx, const TIM_Base_InitTypeDef *Structure)
{
 80057ec:	b480      	push	{r7}
 80057ee:	b085      	sub	sp, #20
 80057f0:	af00      	add	r7, sp, #0
 80057f2:	6078      	str	r0, [r7, #4]
 80057f4:	6039      	str	r1, [r7, #0]
  uint32_t tmpcr1;
  tmpcr1 = TIMx->CR1;
 80057f6:	687b      	ldr	r3, [r7, #4]
 80057f8:	681b      	ldr	r3, [r3, #0]
 80057fa:	60fb      	str	r3, [r7, #12]

  /* Set TIM Time Base Unit parameters ---------------------------------------*/
  if (IS_TIM_COUNTER_MODE_SELECT_INSTANCE(TIMx))
 80057fc:	687b      	ldr	r3, [r7, #4]
 80057fe:	4a46      	ldr	r2, [pc, #280]	@ (8005918 <TIM_Base_SetConfig+0x12c>)
 8005800:	4293      	cmp	r3, r2
 8005802:	d013      	beq.n	800582c <TIM_Base_SetConfig+0x40>
 8005804:	687b      	ldr	r3, [r7, #4]
 8005806:	f1b3 4f80 	cmp.w	r3, #1073741824	@ 0x40000000
 800580a:	d00f      	beq.n	800582c <TIM_Base_SetConfig+0x40>
 800580c:	687b      	ldr	r3, [r7, #4]
 800580e:	4a43      	ldr	r2, [pc, #268]	@ (800591c <TIM_Base_SetConfig+0x130>)
 8005810:	4293      	cmp	r3, r2
 8005812:	d00b      	beq.n	800582c <TIM_Base_SetConfig+0x40>
 8005814:	687b      	ldr	r3, [r7, #4]
 8005816:	4a42      	ldr	r2, [pc, #264]	@ (8005920 <TIM_Base_SetConfig+0x134>)
 8005818:	4293      	cmp	r3, r2
 800581a:	d007      	beq.n	800582c <TIM_Base_SetConfig+0x40>
 800581c:	687b      	ldr	r3, [r7, #4]
 800581e:	4a41      	ldr	r2, [pc, #260]	@ (8005924 <TIM_Base_SetConfig+0x138>)
 8005820:	4293      	cmp	r3, r2
 8005822:	d003      	beq.n	800582c <TIM_Base_SetConfig+0x40>
 8005824:	687b      	ldr	r3, [r7, #4]
 8005826:	4a40      	ldr	r2, [pc, #256]	@ (8005928 <TIM_Base_SetConfig+0x13c>)
 8005828:	4293      	cmp	r3, r2
 800582a:	d108      	bne.n	800583e <TIM_Base_SetConfig+0x52>
  {
    /* Select the Counter Mode */
    tmpcr1 &= ~(TIM_CR1_DIR | TIM_CR1_CMS);
 800582c:	68fb      	ldr	r3, [r7, #12]
 800582e:	f023 0370 	bic.w	r3, r3, #112	@ 0x70
 8005832:	60fb      	str	r3, [r7, #12]
    tmpcr1 |= Structure->CounterMode;
 8005834:	683b      	ldr	r3, [r7, #0]
 8005836:	685b      	ldr	r3, [r3, #4]
 8005838:	68fa      	ldr	r2, [r7, #12]
 800583a:	4313      	orrs	r3, r2
 800583c:	60fb      	str	r3, [r7, #12]
  }

  if (IS_TIM_CLOCK_DIVISION_INSTANCE(TIMx))
 800583e:	687b      	ldr	r3, [r7, #4]
 8005840:	4a35      	ldr	r2, [pc, #212]	@ (8005918 <TIM_Base_SetConfig+0x12c>)
 8005842:	4293      	cmp	r3, r2
 8005844:	d02b      	beq.n	800589e <TIM_Base_SetConfig+0xb2>
 8005846:	687b      	ldr	r3, [r7, #4]
 8005848:	f1b3 4f80 	cmp.w	r3, #1073741824	@ 0x40000000
 800584c:	d027      	beq.n	800589e <TIM_Base_SetConfig+0xb2>
 800584e:	687b      	ldr	r3, [r7, #4]
 8005850:	4a32      	ldr	r2, [pc, #200]	@ (800591c <TIM_Base_SetConfig+0x130>)
 8005852:	4293      	cmp	r3, r2
 8005854:	d023      	beq.n	800589e <TIM_Base_SetConfig+0xb2>
 8005856:	687b      	ldr	r3, [r7, #4]
 8005858:	4a31      	ldr	r2, [pc, #196]	@ (8005920 <TIM_Base_SetConfig+0x134>)
 800585a:	4293      	cmp	r3, r2
 800585c:	d01f      	beq.n	800589e <TIM_Base_SetConfig+0xb2>
 800585e:	687b      	ldr	r3, [r7, #4]
 8005860:	4a30      	ldr	r2, [pc, #192]	@ (8005924 <TIM_Base_SetConfig+0x138>)
 8005862:	4293      	cmp	r3, r2
 8005864:	d01b      	beq.n	800589e <TIM_Base_SetConfig+0xb2>
 8005866:	687b      	ldr	r3, [r7, #4]
 8005868:	4a2f      	ldr	r2, [pc, #188]	@ (8005928 <TIM_Base_SetConfig+0x13c>)
 800586a:	4293      	cmp	r3, r2
 800586c:	d017      	beq.n	800589e <TIM_Base_SetConfig+0xb2>
 800586e:	687b      	ldr	r3, [r7, #4]
 8005870:	4a2e      	ldr	r2, [pc, #184]	@ (800592c <TIM_Base_SetConfig+0x140>)
 8005872:	4293      	cmp	r3, r2
 8005874:	d013      	beq.n	800589e <TIM_Base_SetConfig+0xb2>
 8005876:	687b      	ldr	r3, [r7, #4]
 8005878:	4a2d      	ldr	r2, [pc, #180]	@ (8005930 <TIM_Base_SetConfig+0x144>)
 800587a:	4293      	cmp	r3, r2
 800587c:	d00f      	beq.n	800589e <TIM_Base_SetConfig+0xb2>
 800587e:	687b      	ldr	r3, [r7, #4]
 8005880:	4a2c      	ldr	r2, [pc, #176]	@ (8005934 <TIM_Base_SetConfig+0x148>)
 8005882:	4293      	cmp	r3, r2
 8005884:	d00b      	beq.n	800589e <TIM_Base_SetConfig+0xb2>
 8005886:	687b      	ldr	r3, [r7, #4]
 8005888:	4a2b      	ldr	r2, [pc, #172]	@ (8005938 <TIM_Base_SetConfig+0x14c>)
 800588a:	4293      	cmp	r3, r2
 800588c:	d007      	beq.n	800589e <TIM_Base_SetConfig+0xb2>
 800588e:	687b      	ldr	r3, [r7, #4]
 8005890:	4a2a      	ldr	r2, [pc, #168]	@ (800593c <TIM_Base_SetConfig+0x150>)
 8005892:	4293      	cmp	r3, r2
 8005894:	d003      	beq.n	800589e <TIM_Base_SetConfig+0xb2>
 8005896:	687b      	ldr	r3, [r7, #4]
 8005898:	4a29      	ldr	r2, [pc, #164]	@ (8005940 <TIM_Base_SetConfig+0x154>)
 800589a:	4293      	cmp	r3, r2
 800589c:	d108      	bne.n	80058b0 <TIM_Base_SetConfig+0xc4>
  {
    /* Set the clock division */
    tmpcr1 &= ~TIM_CR1_CKD;
 800589e:	68fb      	ldr	r3, [r7, #12]
 80058a0:	f423 7340 	bic.w	r3, r3, #768	@ 0x300
 80058a4:	60fb      	str	r3, [r7, #12]
    tmpcr1 |= (uint32_t)Structure->ClockDivision;
 80058a6:	683b      	ldr	r3, [r7, #0]
 80058a8:	68db      	ldr	r3, [r3, #12]
 80058aa:	68fa      	ldr	r2, [r7, #12]
 80058ac:	4313      	orrs	r3, r2
 80058ae:	60fb      	str	r3, [r7, #12]
  }

  /* Set the auto-reload preload */
  MODIFY_REG(tmpcr1, TIM_CR1_ARPE, Structure->AutoReloadPreload);
 80058b0:	68fb      	ldr	r3, [r7, #12]
 80058b2:	f023 0280 	bic.w	r2, r3, #128	@ 0x80
 80058b6:	683b      	ldr	r3, [r7, #0]
 80058b8:	695b      	ldr	r3, [r3, #20]
 80058ba:	4313      	orrs	r3, r2
 80058bc:	60fb      	str	r3, [r7, #12]

  TIMx->CR1 = tmpcr1;
 80058be:	687b      	ldr	r3, [r7, #4]
 80058c0:	68fa      	ldr	r2, [r7, #12]
 80058c2:	601a      	str	r2, [r3, #0]

  /* Set the Autoreload value */
  TIMx->ARR = (uint32_t)Structure->Period ;
 80058c4:	683b      	ldr	r3, [r7, #0]
 80058c6:	689a      	ldr	r2, [r3, #8]
 80058c8:	687b      	ldr	r3, [r7, #4]
 80058ca:	62da      	str	r2, [r3, #44]	@ 0x2c

  /* Set the Prescaler value */
  TIMx->PSC = Structure->Prescaler;
 80058cc:	683b      	ldr	r3, [r7, #0]
 80058ce:	681a      	ldr	r2, [r3, #0]
 80058d0:	687b      	ldr	r3, [r7, #4]
 80058d2:	629a      	str	r2, [r3, #40]	@ 0x28

  if (IS_TIM_REPETITION_COUNTER_INSTANCE(TIMx))
 80058d4:	687b      	ldr	r3, [r7, #4]
 80058d6:	4a10      	ldr	r2, [pc, #64]	@ (8005918 <TIM_Base_SetConfig+0x12c>)
 80058d8:	4293      	cmp	r3, r2
 80058da:	d003      	beq.n	80058e4 <TIM_Base_SetConfig+0xf8>
 80058dc:	687b      	ldr	r3, [r7, #4]
 80058de:	4a12      	ldr	r2, [pc, #72]	@ (8005928 <TIM_Base_SetConfig+0x13c>)
 80058e0:	4293      	cmp	r3, r2
 80058e2:	d103      	bne.n	80058ec <TIM_Base_SetConfig+0x100>
  {
    /* Set the Repetition Counter value */
    TIMx->RCR = Structure->RepetitionCounter;
 80058e4:	683b      	ldr	r3, [r7, #0]
 80058e6:	691a      	ldr	r2, [r3, #16]
 80058e8:	687b      	ldr	r3, [r7, #4]
 80058ea:	631a      	str	r2, [r3, #48]	@ 0x30
  }

  /* Generate an update event to reload the Prescaler
     and the repetition counter (only for advanced timer) value immediately */
  TIMx->EGR = TIM_EGR_UG;
 80058ec:	687b      	ldr	r3, [r7, #4]
 80058ee:	2201      	movs	r2, #1
 80058f0:	615a      	str	r2, [r3, #20]

  /* Check if the update flag is set after the Update Generation, if so clear the UIF flag */
  if (HAL_IS_BIT_SET(TIMx->SR, TIM_FLAG_UPDATE))
 80058f2:	687b      	ldr	r3, [r7, #4]
 80058f4:	691b      	ldr	r3, [r3, #16]
 80058f6:	f003 0301 	and.w	r3, r3, #1
 80058fa:	2b01      	cmp	r3, #1
 80058fc:	d105      	bne.n	800590a <TIM_Base_SetConfig+0x11e>
  {
    /* Clear the update flag */
    CLEAR_BIT(TIMx->SR, TIM_FLAG_UPDATE);
 80058fe:	687b      	ldr	r3, [r7, #4]
 8005900:	691b      	ldr	r3, [r3, #16]
 8005902:	f023 0201 	bic.w	r2, r3, #1
 8005906:	687b      	ldr	r3, [r7, #4]
 8005908:	611a      	str	r2, [r3, #16]
  }
}
 800590a:	bf00      	nop
 800590c:	3714      	adds	r7, #20
 800590e:	46bd      	mov	sp, r7
 8005910:	f85d 7b04 	ldr.w	r7, [sp], #4
 8005914:	4770      	bx	lr
 8005916:	bf00      	nop
 8005918:	40010000 	.word	0x40010000
 800591c:	40000400 	.word	0x40000400
 8005920:	40000800 	.word	0x40000800
 8005924:	40000c00 	.word	0x40000c00
 8005928:	40010400 	.word	0x40010400
 800592c:	40014000 	.word	0x40014000
 8005930:	40014400 	.word	0x40014400
 8005934:	40014800 	.word	0x40014800
 8005938:	40001800 	.word	0x40001800
 800593c:	40001c00 	.word	0x40001c00
 8005940:	40002000 	.word	0x40002000

08005944 <TIM_TI1_SetConfig>:
  *       (on channel2 path) is used as the input signal. Therefore CCMR1 must be
  *        protected against un-initialized filter and polarity values.
  */
void TIM_TI1_SetConfig(TIM_TypeDef *TIMx, uint32_t TIM_ICPolarity, uint32_t TIM_ICSelection,
                       uint32_t TIM_ICFilter)
{
 8005944:	b480      	push	{r7}
 8005946:	b087      	sub	sp, #28
 8005948:	af00      	add	r7, sp, #0
 800594a:	60f8      	str	r0, [r7, #12]
 800594c:	60b9      	str	r1, [r7, #8]
 800594e:	607a      	str	r2, [r7, #4]
 8005950:	603b      	str	r3, [r7, #0]
  uint32_t tmpccmr1;
  uint32_t tmpccer;

  /* Disable the Channel 1: Reset the CC1E Bit */
  tmpccer = TIMx->CCER;
 8005952:	68fb      	ldr	r3, [r7, #12]
 8005954:	6a1b      	ldr	r3, [r3, #32]
 8005956:	613b      	str	r3, [r7, #16]
  TIMx->CCER &= ~TIM_CCER_CC1E;
 8005958:	68fb      	ldr	r3, [r7, #12]
 800595a:	6a1b      	ldr	r3, [r3, #32]
 800595c:	f023 0201 	bic.w	r2, r3, #1
 8005960:	68fb      	ldr	r3, [r7, #12]
 8005962:	621a      	str	r2, [r3, #32]
  tmpccmr1 = TIMx->CCMR1;
 8005964:	68fb      	ldr	r3, [r7, #12]
 8005966:	699b      	ldr	r3, [r3, #24]
 8005968:	617b      	str	r3, [r7, #20]

  /* Select the Input */
  if (IS_TIM_CC2_INSTANCE(TIMx) != RESET)
 800596a:	68fb      	ldr	r3, [r7, #12]
 800596c:	4a28      	ldr	r2, [pc, #160]	@ (8005a10 <TIM_TI1_SetConfig+0xcc>)
 800596e:	4293      	cmp	r3, r2
 8005970:	d01b      	beq.n	80059aa <TIM_TI1_SetConfig+0x66>
 8005972:	68fb      	ldr	r3, [r7, #12]
 8005974:	f1b3 4f80 	cmp.w	r3, #1073741824	@ 0x40000000
 8005978:	d017      	beq.n	80059aa <TIM_TI1_SetConfig+0x66>
 800597a:	68fb      	ldr	r3, [r7, #12]
 800597c:	4a25      	ldr	r2, [pc, #148]	@ (8005a14 <TIM_TI1_SetConfig+0xd0>)
 800597e:	4293      	cmp	r3, r2
 8005980:	d013      	beq.n	80059aa <TIM_TI1_SetConfig+0x66>
 8005982:	68fb      	ldr	r3, [r7, #12]
 8005984:	4a24      	ldr	r2, [pc, #144]	@ (8005a18 <TIM_TI1_SetConfig+0xd4>)
 8005986:	4293      	cmp	r3, r2
 8005988:	d00f      	beq.n	80059aa <TIM_TI1_SetConfig+0x66>
 800598a:	68fb      	ldr	r3, [r7, #12]
 800598c:	4a23      	ldr	r2, [pc, #140]	@ (8005a1c <TIM_TI1_SetConfig+0xd8>)
 800598e:	4293      	cmp	r3, r2
 8005990:	d00b      	beq.n	80059aa <TIM_TI1_SetConfig+0x66>
 8005992:	68fb      	ldr	r3, [r7, #12]
 8005994:	4a22      	ldr	r2, [pc, #136]	@ (8005a20 <TIM_TI1_SetConfig+0xdc>)
 8005996:	4293      	cmp	r3, r2
 8005998:	d007      	beq.n	80059aa <TIM_TI1_SetConfig+0x66>
 800599a:	68fb      	ldr	r3, [r7, #12]
 800599c:	4a21      	ldr	r2, [pc, #132]	@ (8005a24 <TIM_TI1_SetConfig+0xe0>)
 800599e:	4293      	cmp	r3, r2
 80059a0:	d003      	beq.n	80059aa <TIM_TI1_SetConfig+0x66>
 80059a2:	68fb      	ldr	r3, [r7, #12]
 80059a4:	4a20      	ldr	r2, [pc, #128]	@ (8005a28 <TIM_TI1_SetConfig+0xe4>)
 80059a6:	4293      	cmp	r3, r2
 80059a8:	d101      	bne.n	80059ae <TIM_TI1_SetConfig+0x6a>
 80059aa:	2301      	movs	r3, #1
 80059ac:	e000      	b.n	80059b0 <TIM_TI1_SetConfig+0x6c>
 80059ae:	2300      	movs	r3, #0
 80059b0:	2b00      	cmp	r3, #0
 80059b2:	d008      	beq.n	80059c6 <TIM_TI1_SetConfig+0x82>
  {
    tmpccmr1 &= ~TIM_CCMR1_CC1S;
 80059b4:	697b      	ldr	r3, [r7, #20]
 80059b6:	f023 0303 	bic.w	r3, r3, #3
 80059ba:	617b      	str	r3, [r7, #20]
    tmpccmr1 |= TIM_ICSelection;
 80059bc:	697a      	ldr	r2, [r7, #20]
 80059be:	687b      	ldr	r3, [r7, #4]
 80059c0:	4313      	orrs	r3, r2
 80059c2:	617b      	str	r3, [r7, #20]
 80059c4:	e003      	b.n	80059ce <TIM_TI1_SetConfig+0x8a>
  }
  else
  {
    tmpccmr1 |= TIM_CCMR1_CC1S_0;
 80059c6:	697b      	ldr	r3, [r7, #20]
 80059c8:	f043 0301 	orr.w	r3, r3, #1
 80059cc:	617b      	str	r3, [r7, #20]
  }

  /* Set the filter */
  tmpccmr1 &= ~TIM_CCMR1_IC1F;
 80059ce:	697b      	ldr	r3, [r7, #20]
 80059d0:	f023 03f0 	bic.w	r3, r3, #240	@ 0xf0
 80059d4:	617b      	str	r3, [r7, #20]
  tmpccmr1 |= ((TIM_ICFilter << 4U) & TIM_CCMR1_IC1F);
 80059d6:	683b      	ldr	r3, [r7, #0]
 80059d8:	011b      	lsls	r3, r3, #4
 80059da:	b2db      	uxtb	r3, r3
 80059dc:	697a      	ldr	r2, [r7, #20]
 80059de:	4313      	orrs	r3, r2
 80059e0:	617b      	str	r3, [r7, #20]

  /* Select the Polarity and set the CC1E Bit */
  tmpccer &= ~(TIM_CCER_CC1P | TIM_CCER_CC1NP);
 80059e2:	693b      	ldr	r3, [r7, #16]
 80059e4:	f023 030a 	bic.w	r3, r3, #10
 80059e8:	613b      	str	r3, [r7, #16]
  tmpccer |= (TIM_ICPolarity & (TIM_CCER_CC1P | TIM_CCER_CC1NP));
 80059ea:	68bb      	ldr	r3, [r7, #8]
 80059ec:	f003 030a 	and.w	r3, r3, #10
 80059f0:	693a      	ldr	r2, [r7, #16]
 80059f2:	4313      	orrs	r3, r2
 80059f4:	613b      	str	r3, [r7, #16]

  /* Write to TIMx CCMR1 and CCER registers */
  TIMx->CCMR1 = tmpccmr1;
 80059f6:	68fb      	ldr	r3, [r7, #12]
 80059f8:	697a      	ldr	r2, [r7, #20]
 80059fa:	619a      	str	r2, [r3, #24]
  TIMx->CCER = tmpccer;
 80059fc:	68fb      	ldr	r3, [r7, #12]
 80059fe:	693a      	ldr	r2, [r7, #16]
 8005a00:	621a      	str	r2, [r3, #32]
}
 8005a02:	bf00      	nop
 8005a04:	371c      	adds	r7, #28
 8005a06:	46bd      	mov	sp, r7
 8005a08:	f85d 7b04 	ldr.w	r7, [sp], #4
 8005a0c:	4770      	bx	lr
 8005a0e:	bf00      	nop
 8005a10:	40010000 	.word	0x40010000
 8005a14:	40000400 	.word	0x40000400
 8005a18:	40000800 	.word	0x40000800
 8005a1c:	40000c00 	.word	0x40000c00
 8005a20:	40010400 	.word	0x40010400
 8005a24:	40014000 	.word	0x40014000
 8005a28:	40001800 	.word	0x40001800

08005a2c <TIM_TI1_ConfigInputStage>:
  * @param  TIM_ICFilter Specifies the Input Capture Filter.
  *          This parameter must be a value between 0x00 and 0x0F.
  * @retval None
  */
static void TIM_TI1_ConfigInputStage(TIM_TypeDef *TIMx, uint32_t TIM_ICPolarity, uint32_t TIM_ICFilter)
{
 8005a2c:	b480      	push	{r7}
 8005a2e:	b087      	sub	sp, #28
 8005a30:	af00      	add	r7, sp, #0
 8005a32:	60f8      	str	r0, [r7, #12]
 8005a34:	60b9      	str	r1, [r7, #8]
 8005a36:	607a      	str	r2, [r7, #4]
  uint32_t tmpccmr1;
  uint32_t tmpccer;

  /* Disable the Channel 1: Reset the CC1E Bit */
  tmpccer = TIMx->CCER;
 8005a38:	68fb      	ldr	r3, [r7, #12]
 8005a3a:	6a1b      	ldr	r3, [r3, #32]
 8005a3c:	617b      	str	r3, [r7, #20]
  TIMx->CCER &= ~TIM_CCER_CC1E;
 8005a3e:	68fb      	ldr	r3, [r7, #12]
 8005a40:	6a1b      	ldr	r3, [r3, #32]
 8005a42:	f023 0201 	bic.w	r2, r3, #1
 8005a46:	68fb      	ldr	r3, [r7, #12]
 8005a48:	621a      	str	r2, [r3, #32]
  tmpccmr1 = TIMx->CCMR1;
 8005a4a:	68fb      	ldr	r3, [r7, #12]
 8005a4c:	699b      	ldr	r3, [r3, #24]
 8005a4e:	613b      	str	r3, [r7, #16]

  /* Set the filter */
  tmpccmr1 &= ~TIM_CCMR1_IC1F;
 8005a50:	693b      	ldr	r3, [r7, #16]
 8005a52:	f023 03f0 	bic.w	r3, r3, #240	@ 0xf0
 8005a56:	613b      	str	r3, [r7, #16]
  tmpccmr1 |= (TIM_ICFilter << 4U);
 8005a58:	687b      	ldr	r3, [r7, #4]
 8005a5a:	011b      	lsls	r3, r3, #4
 8005a5c:	693a      	ldr	r2, [r7, #16]
 8005a5e:	4313      	orrs	r3, r2
 8005a60:	613b      	str	r3, [r7, #16]

  /* Select the Polarity and set the CC1E Bit */
  tmpccer &= ~(TIM_CCER_CC1P | TIM_CCER_CC1NP);
 8005a62:	697b      	ldr	r3, [r7, #20]
 8005a64:	f023 030a 	bic.w	r3, r3, #10
 8005a68:	617b      	str	r3, [r7, #20]
  tmpccer |= TIM_ICPolarity;
 8005a6a:	697a      	ldr	r2, [r7, #20]
 8005a6c:	68bb      	ldr	r3, [r7, #8]
 8005a6e:	4313      	orrs	r3, r2
 8005a70:	617b      	str	r3, [r7, #20]

  /* Write to TIMx CCMR1 and CCER registers */
  TIMx->CCMR1 = tmpccmr1;
 8005a72:	68fb      	ldr	r3, [r7, #12]
 8005a74:	693a      	ldr	r2, [r7, #16]
 8005a76:	619a      	str	r2, [r3, #24]
  TIMx->CCER = tmpccer;
 8005a78:	68fb      	ldr	r3, [r7, #12]
 8005a7a:	697a      	ldr	r2, [r7, #20]
 8005a7c:	621a      	str	r2, [r3, #32]
}
 8005a7e:	bf00      	nop
 8005a80:	371c      	adds	r7, #28
 8005a82:	46bd      	mov	sp, r7
 8005a84:	f85d 7b04 	ldr.w	r7, [sp], #4
 8005a88:	4770      	bx	lr

08005a8a <TIM_TI2_SetConfig>:
  *       (on channel1 path) is used as the input signal. Therefore CCMR1 must be
  *        protected against un-initialized filter and polarity values.
  */
static void TIM_TI2_SetConfig(TIM_TypeDef *TIMx, uint32_t TIM_ICPolarity, uint32_t TIM_ICSelection,
                              uint32_t TIM_ICFilter)
{
 8005a8a:	b480      	push	{r7}
 8005a8c:	b087      	sub	sp, #28
 8005a8e:	af00      	add	r7, sp, #0
 8005a90:	60f8      	str	r0, [r7, #12]
 8005a92:	60b9      	str	r1, [r7, #8]
 8005a94:	607a      	str	r2, [r7, #4]
 8005a96:	603b      	str	r3, [r7, #0]
  uint32_t tmpccmr1;
  uint32_t tmpccer;

  /* Disable the Channel 2: Reset the CC2E Bit */
  tmpccer = TIMx->CCER;
 8005a98:	68fb      	ldr	r3, [r7, #12]
 8005a9a:	6a1b      	ldr	r3, [r3, #32]
 8005a9c:	617b      	str	r3, [r7, #20]
  TIMx->CCER &= ~TIM_CCER_CC2E;
 8005a9e:	68fb      	ldr	r3, [r7, #12]
 8005aa0:	6a1b      	ldr	r3, [r3, #32]
 8005aa2:	f023 0210 	bic.w	r2, r3, #16
 8005aa6:	68fb      	ldr	r3, [r7, #12]
 8005aa8:	621a      	str	r2, [r3, #32]
  tmpccmr1 = TIMx->CCMR1;
 8005aaa:	68fb      	ldr	r3, [r7, #12]
 8005aac:	699b      	ldr	r3, [r3, #24]
 8005aae:	613b      	str	r3, [r7, #16]

  /* Select the Input */
  tmpccmr1 &= ~TIM_CCMR1_CC2S;
 8005ab0:	693b      	ldr	r3, [r7, #16]
 8005ab2:	f423 7340 	bic.w	r3, r3, #768	@ 0x300
 8005ab6:	613b      	str	r3, [r7, #16]
  tmpccmr1 |= (TIM_ICSelection << 8U);
 8005ab8:	687b      	ldr	r3, [r7, #4]
 8005aba:	021b      	lsls	r3, r3, #8
 8005abc:	693a      	ldr	r2, [r7, #16]
 8005abe:	4313      	orrs	r3, r2
 8005ac0:	613b      	str	r3, [r7, #16]

  /* Set the filter */
  tmpccmr1 &= ~TIM_CCMR1_IC2F;
 8005ac2:	693b      	ldr	r3, [r7, #16]
 8005ac4:	f423 4370 	bic.w	r3, r3, #61440	@ 0xf000
 8005ac8:	613b      	str	r3, [r7, #16]
  tmpccmr1 |= ((TIM_ICFilter << 12U) & TIM_CCMR1_IC2F);
 8005aca:	683b      	ldr	r3, [r7, #0]
 8005acc:	031b      	lsls	r3, r3, #12
 8005ace:	b29b      	uxth	r3, r3
 8005ad0:	693a      	ldr	r2, [r7, #16]
 8005ad2:	4313      	orrs	r3, r2
 8005ad4:	613b      	str	r3, [r7, #16]

  /* Select the Polarity and set the CC2E Bit */
  tmpccer &= ~(TIM_CCER_CC2P | TIM_CCER_CC2NP);
 8005ad6:	697b      	ldr	r3, [r7, #20]
 8005ad8:	f023 03a0 	bic.w	r3, r3, #160	@ 0xa0
 8005adc:	617b      	str	r3, [r7, #20]
  tmpccer |= ((TIM_ICPolarity << 4U) & (TIM_CCER_CC2P | TIM_CCER_CC2NP));
 8005ade:	68bb      	ldr	r3, [r7, #8]
 8005ae0:	011b      	lsls	r3, r3, #4
 8005ae2:	f003 03a0 	and.w	r3, r3, #160	@ 0xa0
 8005ae6:	697a      	ldr	r2, [r7, #20]
 8005ae8:	4313      	orrs	r3, r2
 8005aea:	617b      	str	r3, [r7, #20]

  /* Write to TIMx CCMR1 and CCER registers */
  TIMx->CCMR1 = tmpccmr1 ;
 8005aec:	68fb      	ldr	r3, [r7, #12]
 8005aee:	693a      	ldr	r2, [r7, #16]
 8005af0:	619a      	str	r2, [r3, #24]
  TIMx->CCER = tmpccer;
 8005af2:	68fb      	ldr	r3, [r7, #12]
 8005af4:	697a      	ldr	r2, [r7, #20]
 8005af6:	621a      	str	r2, [r3, #32]
}
 8005af8:	bf00      	nop
 8005afa:	371c      	adds	r7, #28
 8005afc:	46bd      	mov	sp, r7
 8005afe:	f85d 7b04 	ldr.w	r7, [sp], #4
 8005b02:	4770      	bx	lr

08005b04 <TIM_TI2_ConfigInputStage>:
  * @param  TIM_ICFilter Specifies the Input Capture Filter.
  *          This parameter must be a value between 0x00 and 0x0F.
  * @retval None
  */
static void TIM_TI2_ConfigInputStage(TIM_TypeDef *TIMx, uint32_t TIM_ICPolarity, uint32_t TIM_ICFilter)
{
 8005b04:	b480      	push	{r7}
 8005b06:	b087      	sub	sp, #28
 8005b08:	af00      	add	r7, sp, #0
 8005b0a:	60f8      	str	r0, [r7, #12]
 8005b0c:	60b9      	str	r1, [r7, #8]
 8005b0e:	607a      	str	r2, [r7, #4]
  uint32_t tmpccmr1;
  uint32_t tmpccer;

  /* Disable the Channel 2: Reset the CC2E Bit */
  tmpccer = TIMx->CCER;
 8005b10:	68fb      	ldr	r3, [r7, #12]
 8005b12:	6a1b      	ldr	r3, [r3, #32]
 8005b14:	617b      	str	r3, [r7, #20]
  TIMx->CCER &= ~TIM_CCER_CC2E;
 8005b16:	68fb      	ldr	r3, [r7, #12]
 8005b18:	6a1b      	ldr	r3, [r3, #32]
 8005b1a:	f023 0210 	bic.w	r2, r3, #16
 8005b1e:	68fb      	ldr	r3, [r7, #12]
 8005b20:	621a      	str	r2, [r3, #32]
  tmpccmr1 = TIMx->CCMR1;
 8005b22:	68fb      	ldr	r3, [r7, #12]
 8005b24:	699b      	ldr	r3, [r3, #24]
 8005b26:	613b      	str	r3, [r7, #16]

  /* Set the filter */
  tmpccmr1 &= ~TIM_CCMR1_IC2F;
 8005b28:	693b      	ldr	r3, [r7, #16]
 8005b2a:	f423 4370 	bic.w	r3, r3, #61440	@ 0xf000
 8005b2e:	613b      	str	r3, [r7, #16]
  tmpccmr1 |= (TIM_ICFilter << 12U);
 8005b30:	687b      	ldr	r3, [r7, #4]
 8005b32:	031b      	lsls	r3, r3, #12
 8005b34:	693a      	ldr	r2, [r7, #16]
 8005b36:	4313      	orrs	r3, r2
 8005b38:	613b      	str	r3, [r7, #16]

  /* Select the Polarity and set the CC2E Bit */
  tmpccer &= ~(TIM_CCER_CC2P | TIM_CCER_CC2NP);
 8005b3a:	697b      	ldr	r3, [r7, #20]
 8005b3c:	f023 03a0 	bic.w	r3, r3, #160	@ 0xa0
 8005b40:	617b      	str	r3, [r7, #20]
  tmpccer |= (TIM_ICPolarity << 4U);
 8005b42:	68bb      	ldr	r3, [r7, #8]
 8005b44:	011b      	lsls	r3, r3, #4
 8005b46:	697a      	ldr	r2, [r7, #20]
 8005b48:	4313      	orrs	r3, r2
 8005b4a:	617b      	str	r3, [r7, #20]

  /* Write to TIMx CCMR1 and CCER registers */
  TIMx->CCMR1 = tmpccmr1 ;
 8005b4c:	68fb      	ldr	r3, [r7, #12]
 8005b4e:	693a      	ldr	r2, [r7, #16]
 8005b50:	619a      	str	r2, [r3, #24]
  TIMx->CCER = tmpccer;
 8005b52:	68fb      	ldr	r3, [r7, #12]
 8005b54:	697a      	ldr	r2, [r7, #20]
 8005b56:	621a      	str	r2, [r3, #32]
}
 8005b58:	bf00      	nop
 8005b5a:	371c      	adds	r7, #28
 8005b5c:	46bd      	mov	sp, r7
 8005b5e:	f85d 7b04 	ldr.w	r7, [sp], #4
 8005b62:	4770      	bx	lr

08005b64 <TIM_TI3_SetConfig>:
  *       (on channel1 path) is used as the input signal. Therefore CCMR2 must be
  *        protected against un-initialized filter and polarity values.
  */
static void TIM_TI3_SetConfig(TIM_TypeDef *TIMx, uint32_t TIM_ICPolarity, uint32_t TIM_ICSelection,
                              uint32_t TIM_ICFilter)
{
 8005b64:	b480      	push	{r7}
 8005b66:	b087      	sub	sp, #28
 8005b68:	af00      	add	r7, sp, #0
 8005b6a:	60f8      	str	r0, [r7, #12]
 8005b6c:	60b9      	str	r1, [r7, #8]
 8005b6e:	607a      	str	r2, [r7, #4]
 8005b70:	603b      	str	r3, [r7, #0]
  uint32_t tmpccmr2;
  uint32_t tmpccer;

  /* Disable the Channel 3: Reset the CC3E Bit */
  tmpccer = TIMx->CCER;
 8005b72:	68fb      	ldr	r3, [r7, #12]
 8005b74:	6a1b      	ldr	r3, [r3, #32]
 8005b76:	617b      	str	r3, [r7, #20]
  TIMx->CCER &= ~TIM_CCER_CC3E;
 8005b78:	68fb      	ldr	r3, [r7, #12]
 8005b7a:	6a1b      	ldr	r3, [r3, #32]
 8005b7c:	f423 7280 	bic.w	r2, r3, #256	@ 0x100
 8005b80:	68fb      	ldr	r3, [r7, #12]
 8005b82:	621a      	str	r2, [r3, #32]
  tmpccmr2 = TIMx->CCMR2;
 8005b84:	68fb      	ldr	r3, [r7, #12]
 8005b86:	69db      	ldr	r3, [r3, #28]
 8005b88:	613b      	str	r3, [r7, #16]

  /* Select the Input */
  tmpccmr2 &= ~TIM_CCMR2_CC3S;
 8005b8a:	693b      	ldr	r3, [r7, #16]
 8005b8c:	f023 0303 	bic.w	r3, r3, #3
 8005b90:	613b      	str	r3, [r7, #16]
  tmpccmr2 |= TIM_ICSelection;
 8005b92:	693a      	ldr	r2, [r7, #16]
 8005b94:	687b      	ldr	r3, [r7, #4]
 8005b96:	4313      	orrs	r3, r2
 8005b98:	613b      	str	r3, [r7, #16]

  /* Set the filter */
  tmpccmr2 &= ~TIM_CCMR2_IC3F;
 8005b9a:	693b      	ldr	r3, [r7, #16]
 8005b9c:	f023 03f0 	bic.w	r3, r3, #240	@ 0xf0
 8005ba0:	613b      	str	r3, [r7, #16]
  tmpccmr2 |= ((TIM_ICFilter << 4U) & TIM_CCMR2_IC3F);
 8005ba2:	683b      	ldr	r3, [r7, #0]
 8005ba4:	011b      	lsls	r3, r3, #4
 8005ba6:	b2db      	uxtb	r3, r3
 8005ba8:	693a      	ldr	r2, [r7, #16]
 8005baa:	4313      	orrs	r3, r2
 8005bac:	613b      	str	r3, [r7, #16]

  /* Select the Polarity and set the CC3E Bit */
  tmpccer &= ~(TIM_CCER_CC3P | TIM_CCER_CC3NP);
 8005bae:	697b      	ldr	r3, [r7, #20]
 8005bb0:	f423 6320 	bic.w	r3, r3, #2560	@ 0xa00
 8005bb4:	617b      	str	r3, [r7, #20]
  tmpccer |= ((TIM_ICPolarity << 8U) & (TIM_CCER_CC3P | TIM_CCER_CC3NP));
 8005bb6:	68bb      	ldr	r3, [r7, #8]
 8005bb8:	021b      	lsls	r3, r3, #8
 8005bba:	f403 6320 	and.w	r3, r3, #2560	@ 0xa00
 8005bbe:	697a      	ldr	r2, [r7, #20]
 8005bc0:	4313      	orrs	r3, r2
 8005bc2:	617b      	str	r3, [r7, #20]

  /* Write to TIMx CCMR2 and CCER registers */
  TIMx->CCMR2 = tmpccmr2;
 8005bc4:	68fb      	ldr	r3, [r7, #12]
 8005bc6:	693a      	ldr	r2, [r7, #16]
 8005bc8:	61da      	str	r2, [r3, #28]
  TIMx->CCER = tmpccer;
 8005bca:	68fb      	ldr	r3, [r7, #12]
 8005bcc:	697a      	ldr	r2, [r7, #20]
 8005bce:	621a      	str	r2, [r3, #32]
}
 8005bd0:	bf00      	nop
 8005bd2:	371c      	adds	r7, #28
 8005bd4:	46bd      	mov	sp, r7
 8005bd6:	f85d 7b04 	ldr.w	r7, [sp], #4
 8005bda:	4770      	bx	lr

08005bdc <TIM_TI4_SetConfig>:
  *        protected against un-initialized filter and polarity values.
  * @retval None
  */
static void TIM_TI4_SetConfig(TIM_TypeDef *TIMx, uint32_t TIM_ICPolarity, uint32_t TIM_ICSelection,
                              uint32_t TIM_ICFilter)
{
 8005bdc:	b480      	push	{r7}
 8005bde:	b087      	sub	sp, #28
 8005be0:	af00      	add	r7, sp, #0
 8005be2:	60f8      	str	r0, [r7, #12]
 8005be4:	60b9      	str	r1, [r7, #8]
 8005be6:	607a      	str	r2, [r7, #4]
 8005be8:	603b      	str	r3, [r7, #0]
  uint32_t tmpccmr2;
  uint32_t tmpccer;

  /* Disable the Channel 4: Reset the CC4E Bit */
  tmpccer = TIMx->CCER;
 8005bea:	68fb      	ldr	r3, [r7, #12]
 8005bec:	6a1b      	ldr	r3, [r3, #32]
 8005bee:	617b      	str	r3, [r7, #20]
  TIMx->CCER &= ~TIM_CCER_CC4E;
 8005bf0:	68fb      	ldr	r3, [r7, #12]
 8005bf2:	6a1b      	ldr	r3, [r3, #32]
 8005bf4:	f423 5280 	bic.w	r2, r3, #4096	@ 0x1000
 8005bf8:	68fb      	ldr	r3, [r7, #12]
 8005bfa:	621a      	str	r2, [r3, #32]
  tmpccmr2 = TIMx->CCMR2;
 8005bfc:	68fb      	ldr	r3, [r7, #12]
 8005bfe:	69db      	ldr	r3, [r3, #28]
 8005c00:	613b      	str	r3, [r7, #16]

  /* Select the Input */
  tmpccmr2 &= ~TIM_CCMR2_CC4S;
 8005c02:	693b      	ldr	r3, [r7, #16]
 8005c04:	f423 7340 	bic.w	r3, r3, #768	@ 0x300
 8005c08:	613b      	str	r3, [r7, #16]
  tmpccmr2 |= (TIM_ICSelection << 8U);
 8005c0a:	687b      	ldr	r3, [r7, #4]
 8005c0c:	021b      	lsls	r3, r3, #8
 8005c0e:	693a      	ldr	r2, [r7, #16]
 8005c10:	4313      	orrs	r3, r2
 8005c12:	613b      	str	r3, [r7, #16]

  /* Set the filter */
  tmpccmr2 &= ~TIM_CCMR2_IC4F;
 8005c14:	693b      	ldr	r3, [r7, #16]
 8005c16:	f423 4370 	bic.w	r3, r3, #61440	@ 0xf000
 8005c1a:	613b      	str	r3, [r7, #16]
  tmpccmr2 |= ((TIM_ICFilter << 12U) & TIM_CCMR2_IC4F);
 8005c1c:	683b      	ldr	r3, [r7, #0]
 8005c1e:	031b      	lsls	r3, r3, #12
 8005c20:	b29b      	uxth	r3, r3
 8005c22:	693a      	ldr	r2, [r7, #16]
 8005c24:	4313      	orrs	r3, r2
 8005c26:	613b      	str	r3, [r7, #16]

  /* Select the Polarity and set the CC4E Bit */
  tmpccer &= ~(TIM_CCER_CC4P | TIM_CCER_CC4NP);
 8005c28:	697b      	ldr	r3, [r7, #20]
 8005c2a:	f423 4320 	bic.w	r3, r3, #40960	@ 0xa000
 8005c2e:	617b      	str	r3, [r7, #20]
  tmpccer |= ((TIM_ICPolarity << 12U) & (TIM_CCER_CC4P | TIM_CCER_CC4NP));
 8005c30:	68bb      	ldr	r3, [r7, #8]
 8005c32:	031b      	lsls	r3, r3, #12
 8005c34:	f403 4320 	and.w	r3, r3, #40960	@ 0xa000
 8005c38:	697a      	ldr	r2, [r7, #20]
 8005c3a:	4313      	orrs	r3, r2
 8005c3c:	617b      	str	r3, [r7, #20]

  /* Write to TIMx CCMR2 and CCER registers */
  TIMx->CCMR2 = tmpccmr2;
 8005c3e:	68fb      	ldr	r3, [r7, #12]
 8005c40:	693a      	ldr	r2, [r7, #16]
 8005c42:	61da      	str	r2, [r3, #28]
  TIMx->CCER = tmpccer ;
 8005c44:	68fb      	ldr	r3, [r7, #12]
 8005c46:	697a      	ldr	r2, [r7, #20]
 8005c48:	621a      	str	r2, [r3, #32]
}
 8005c4a:	bf00      	nop
 8005c4c:	371c      	adds	r7, #28
 8005c4e:	46bd      	mov	sp, r7
 8005c50:	f85d 7b04 	ldr.w	r7, [sp], #4
 8005c54:	4770      	bx	lr

08005c56 <TIM_ITRx_SetConfig>:
  *            @arg TIM_TS_TI2FP2: Filtered Timer Input 2
  *            @arg TIM_TS_ETRF: External Trigger input
  * @retval None
  */
static void TIM_ITRx_SetConfig(TIM_TypeDef *TIMx, uint32_t InputTriggerSource)
{
 8005c56:	b480      	push	{r7}
 8005c58:	b085      	sub	sp, #20
 8005c5a:	af00      	add	r7, sp, #0
 8005c5c:	6078      	str	r0, [r7, #4]
 8005c5e:	6039      	str	r1, [r7, #0]
  uint32_t tmpsmcr;

  /* Get the TIMx SMCR register value */
  tmpsmcr = TIMx->SMCR;
 8005c60:	687b      	ldr	r3, [r7, #4]
 8005c62:	689b      	ldr	r3, [r3, #8]
 8005c64:	60fb      	str	r3, [r7, #12]
  /* Reset the TS Bits */
  tmpsmcr &= ~TIM_SMCR_TS;
 8005c66:	68fb      	ldr	r3, [r7, #12]
 8005c68:	f023 0370 	bic.w	r3, r3, #112	@ 0x70
 8005c6c:	60fb      	str	r3, [r7, #12]
  /* Set the Input Trigger source and the slave mode*/
  tmpsmcr |= (InputTriggerSource | TIM_SLAVEMODE_EXTERNAL1);
 8005c6e:	683a      	ldr	r2, [r7, #0]
 8005c70:	68fb      	ldr	r3, [r7, #12]
 8005c72:	4313      	orrs	r3, r2
 8005c74:	f043 0307 	orr.w	r3, r3, #7
 8005c78:	60fb      	str	r3, [r7, #12]
  /* Write to TIMx SMCR */
  TIMx->SMCR = tmpsmcr;
 8005c7a:	687b      	ldr	r3, [r7, #4]
 8005c7c:	68fa      	ldr	r2, [r7, #12]
 8005c7e:	609a      	str	r2, [r3, #8]
}
 8005c80:	bf00      	nop
 8005c82:	3714      	adds	r7, #20
 8005c84:	46bd      	mov	sp, r7
 8005c86:	f85d 7b04 	ldr.w	r7, [sp], #4
 8005c8a:	4770      	bx	lr

08005c8c <TIM_ETR_SetConfig>:
  *          This parameter must be a value between 0x00 and 0x0F
  * @retval None
  */
void TIM_ETR_SetConfig(TIM_TypeDef *TIMx, uint32_t TIM_ExtTRGPrescaler,
                       uint32_t TIM_ExtTRGPolarity, uint32_t ExtTRGFilter)
{
 8005c8c:	b480      	push	{r7}
 8005c8e:	b087      	sub	sp, #28
 8005c90:	af00      	add	r7, sp, #0
 8005c92:	60f8      	str	r0, [r7, #12]
 8005c94:	60b9      	str	r1, [r7, #8]
 8005c96:	607a      	str	r2, [r7, #4]
 8005c98:	603b      	str	r3, [r7, #0]
  uint32_t tmpsmcr;

  tmpsmcr = TIMx->SMCR;
 8005c9a:	68fb      	ldr	r3, [r7, #12]
 8005c9c:	689b      	ldr	r3, [r3, #8]
 8005c9e:	617b      	str	r3, [r7, #20]

  /* Reset the ETR Bits */
  tmpsmcr &= ~(TIM_SMCR_ETF | TIM_SMCR_ETPS | TIM_SMCR_ECE | TIM_SMCR_ETP);
 8005ca0:	697b      	ldr	r3, [r7, #20]
 8005ca2:	f423 437f 	bic.w	r3, r3, #65280	@ 0xff00
 8005ca6:	617b      	str	r3, [r7, #20]

  /* Set the Prescaler, the Filter value and the Polarity */
  tmpsmcr |= (uint32_t)(TIM_ExtTRGPrescaler | (TIM_ExtTRGPolarity | (ExtTRGFilter << 8U)));
 8005ca8:	683b      	ldr	r3, [r7, #0]
 8005caa:	021a      	lsls	r2, r3, #8
 8005cac:	687b      	ldr	r3, [r7, #4]
 8005cae:	431a      	orrs	r2, r3
 8005cb0:	68bb      	ldr	r3, [r7, #8]
 8005cb2:	4313      	orrs	r3, r2
 8005cb4:	697a      	ldr	r2, [r7, #20]
 8005cb6:	4313      	orrs	r3, r2
 8005cb8:	617b      	str	r3, [r7, #20]

  /* Write to TIMx SMCR */
  TIMx->SMCR = tmpsmcr;
 8005cba:	68fb      	ldr	r3, [r7, #12]
 8005cbc:	697a      	ldr	r2, [r7, #20]
 8005cbe:	609a      	str	r2, [r3, #8]
}
 8005cc0:	bf00      	nop
 8005cc2:	371c      	adds	r7, #28
 8005cc4:	46bd      	mov	sp, r7
 8005cc6:	f85d 7b04 	ldr.w	r7, [sp], #4
 8005cca:	4770      	bx	lr

08005ccc <TIM_CCxChannelCmd>:
  * @param  ChannelState specifies the TIM Channel CCxE bit new state.
  *          This parameter can be: TIM_CCx_ENABLE or TIM_CCx_DISABLE.
  * @retval None
  */
void TIM_CCxChannelCmd(TIM_TypeDef *TIMx, uint32_t Channel, uint32_t ChannelState)
{
 8005ccc:	b480      	push	{r7}
 8005cce:	b087      	sub	sp, #28
 8005cd0:	af00      	add	r7, sp, #0
 8005cd2:	60f8      	str	r0, [r7, #12]
 8005cd4:	60b9      	str	r1, [r7, #8]
 8005cd6:	607a      	str	r2, [r7, #4]

  /* Check the parameters */
  assert_param(IS_TIM_CC1_INSTANCE(TIMx));
  assert_param(IS_TIM_CHANNELS(Channel));

  tmp = TIM_CCER_CC1E << (Channel & 0x1FU); /* 0x1FU = 31 bits max shift */
 8005cd8:	68bb      	ldr	r3, [r7, #8]
 8005cda:	f003 031f 	and.w	r3, r3, #31
 8005cde:	2201      	movs	r2, #1
 8005ce0:	fa02 f303 	lsl.w	r3, r2, r3
 8005ce4:	617b      	str	r3, [r7, #20]

  /* Reset the CCxE Bit */
  TIMx->CCER &= ~tmp;
 8005ce6:	68fb      	ldr	r3, [r7, #12]
 8005ce8:	6a1a      	ldr	r2, [r3, #32]
 8005cea:	697b      	ldr	r3, [r7, #20]
 8005cec:	43db      	mvns	r3, r3
 8005cee:	401a      	ands	r2, r3
 8005cf0:	68fb      	ldr	r3, [r7, #12]
 8005cf2:	621a      	str	r2, [r3, #32]

  /* Set or reset the CCxE Bit */
  TIMx->CCER |= (uint32_t)(ChannelState << (Channel & 0x1FU)); /* 0x1FU = 31 bits max shift */
 8005cf4:	68fb      	ldr	r3, [r7, #12]
 8005cf6:	6a1a      	ldr	r2, [r3, #32]
 8005cf8:	68bb      	ldr	r3, [r7, #8]
 8005cfa:	f003 031f 	and.w	r3, r3, #31
 8005cfe:	6879      	ldr	r1, [r7, #4]
 8005d00:	fa01 f303 	lsl.w	r3, r1, r3
 8005d04:	431a      	orrs	r2, r3
 8005d06:	68fb      	ldr	r3, [r7, #12]
 8005d08:	621a      	str	r2, [r3, #32]
}
 8005d0a:	bf00      	nop
 8005d0c:	371c      	adds	r7, #28
 8005d0e:	46bd      	mov	sp, r7
 8005d10:	f85d 7b04 	ldr.w	r7, [sp], #4
 8005d14:	4770      	bx	lr
	...

08005d18 <HAL_TIMEx_MasterConfigSynchronization>:
  *         mode.
  * @retval HAL status
  */
HAL_StatusTypeDef HAL_TIMEx_MasterConfigSynchronization(TIM_HandleTypeDef *htim,
                                                        const TIM_MasterConfigTypeDef *sMasterConfig)
{
 8005d18:	b480      	push	{r7}
 8005d1a:	b085      	sub	sp, #20
 8005d1c:	af00      	add	r7, sp, #0
 8005d1e:	6078      	str	r0, [r7, #4]
 8005d20:	6039      	str	r1, [r7, #0]
  assert_param(IS_TIM_MASTER_INSTANCE(htim->Instance));
  assert_param(IS_TIM_TRGO_SOURCE(sMasterConfig->MasterOutputTrigger));
  assert_param(IS_TIM_MSM_STATE(sMasterConfig->MasterSlaveMode));

  /* Check input state */
  __HAL_LOCK(htim);
 8005d22:	687b      	ldr	r3, [r7, #4]
 8005d24:	f893 303c 	ldrb.w	r3, [r3, #60]	@ 0x3c
 8005d28:	2b01      	cmp	r3, #1
 8005d2a:	d101      	bne.n	8005d30 <HAL_TIMEx_MasterConfigSynchronization+0x18>
 8005d2c:	2302      	movs	r3, #2
 8005d2e:	e05a      	b.n	8005de6 <HAL_TIMEx_MasterConfigSynchronization+0xce>
 8005d30:	687b      	ldr	r3, [r7, #4]
 8005d32:	2201      	movs	r2, #1
 8005d34:	f883 203c 	strb.w	r2, [r3, #60]	@ 0x3c

  /* Change the handler state */
  htim->State = HAL_TIM_STATE_BUSY;
 8005d38:	687b      	ldr	r3, [r7, #4]
 8005d3a:	2202      	movs	r2, #2
 8005d3c:	f883 203d 	strb.w	r2, [r3, #61]	@ 0x3d

  /* Get the TIMx CR2 register value */
  tmpcr2 = htim->Instance->CR2;
 8005d40:	687b      	ldr	r3, [r7, #4]
 8005d42:	681b      	ldr	r3, [r3, #0]
 8005d44:	685b      	ldr	r3, [r3, #4]
 8005d46:	60fb      	str	r3, [r7, #12]

  /* Get the TIMx SMCR register value */
  tmpsmcr = htim->Instance->SMCR;
 8005d48:	687b      	ldr	r3, [r7, #4]
 8005d4a:	681b      	ldr	r3, [r3, #0]
 8005d4c:	689b      	ldr	r3, [r3, #8]
 8005d4e:	60bb      	str	r3, [r7, #8]

  /* Reset the MMS Bits */
  tmpcr2 &= ~TIM_CR2_MMS;
 8005d50:	68fb      	ldr	r3, [r7, #12]
 8005d52:	f023 0370 	bic.w	r3, r3, #112	@ 0x70
 8005d56:	60fb      	str	r3, [r7, #12]
  /* Select the TRGO source */
  tmpcr2 |=  sMasterConfig->MasterOutputTrigger;
 8005d58:	683b      	ldr	r3, [r7, #0]
 8005d5a:	681b      	ldr	r3, [r3, #0]
 8005d5c:	68fa      	ldr	r2, [r7, #12]
 8005d5e:	4313      	orrs	r3, r2
 8005d60:	60fb      	str	r3, [r7, #12]

  /* Update TIMx CR2 */
  htim->Instance->CR2 = tmpcr2;
 8005d62:	687b      	ldr	r3, [r7, #4]
 8005d64:	681b      	ldr	r3, [r3, #0]
 8005d66:	68fa      	ldr	r2, [r7, #12]
 8005d68:	605a      	str	r2, [r3, #4]

  if (IS_TIM_SLAVE_INSTANCE(htim->Instance))
 8005d6a:	687b      	ldr	r3, [r7, #4]
 8005d6c:	681b      	ldr	r3, [r3, #0]
 8005d6e:	4a21      	ldr	r2, [pc, #132]	@ (8005df4 <HAL_TIMEx_MasterConfigSynchronization+0xdc>)
 8005d70:	4293      	cmp	r3, r2
 8005d72:	d022      	beq.n	8005dba <HAL_TIMEx_MasterConfigSynchronization+0xa2>
 8005d74:	687b      	ldr	r3, [r7, #4]
 8005d76:	681b      	ldr	r3, [r3, #0]
 8005d78:	f1b3 4f80 	cmp.w	r3, #1073741824	@ 0x40000000
 8005d7c:	d01d      	beq.n	8005dba <HAL_TIMEx_MasterConfigSynchronization+0xa2>
 8005d7e:	687b      	ldr	r3, [r7, #4]
 8005d80:	681b      	ldr	r3, [r3, #0]
 8005d82:	4a1d      	ldr	r2, [pc, #116]	@ (8005df8 <HAL_TIMEx_MasterConfigSynchronization+0xe0>)
 8005d84:	4293      	cmp	r3, r2
 8005d86:	d018      	beq.n	8005dba <HAL_TIMEx_MasterConfigSynchronization+0xa2>
 8005d88:	687b      	ldr	r3, [r7, #4]
 8005d8a:	681b      	ldr	r3, [r3, #0]
 8005d8c:	4a1b      	ldr	r2, [pc, #108]	@ (8005dfc <HAL_TIMEx_MasterConfigSynchronization+0xe4>)
 8005d8e:	4293      	cmp	r3, r2
 8005d90:	d013      	beq.n	8005dba <HAL_TIMEx_MasterConfigSynchronization+0xa2>
 8005d92:	687b      	ldr	r3, [r7, #4]
 8005d94:	681b      	ldr	r3, [r3, #0]
 8005d96:	4a1a      	ldr	r2, [pc, #104]	@ (8005e00 <HAL_TIMEx_MasterConfigSynchronization+0xe8>)
 8005d98:	4293      	cmp	r3, r2
 8005d9a:	d00e      	beq.n	8005dba <HAL_TIMEx_MasterConfigSynchronization+0xa2>
 8005d9c:	687b      	ldr	r3, [r7, #4]
 8005d9e:	681b      	ldr	r3, [r3, #0]
 8005da0:	4a18      	ldr	r2, [pc, #96]	@ (8005e04 <HAL_TIMEx_MasterConfigSynchronization+0xec>)
 8005da2:	4293      	cmp	r3, r2
 8005da4:	d009      	beq.n	8005dba <HAL_TIMEx_MasterConfigSynchronization+0xa2>
 8005da6:	687b      	ldr	r3, [r7, #4]
 8005da8:	681b      	ldr	r3, [r3, #0]
 8005daa:	4a17      	ldr	r2, [pc, #92]	@ (8005e08 <HAL_TIMEx_MasterConfigSynchronization+0xf0>)
 8005dac:	4293      	cmp	r3, r2
 8005dae:	d004      	beq.n	8005dba <HAL_TIMEx_MasterConfigSynchronization+0xa2>
 8005db0:	687b      	ldr	r3, [r7, #4]
 8005db2:	681b      	ldr	r3, [r3, #0]
 8005db4:	4a15      	ldr	r2, [pc, #84]	@ (8005e0c <HAL_TIMEx_MasterConfigSynchronization+0xf4>)
 8005db6:	4293      	cmp	r3, r2
 8005db8:	d10c      	bne.n	8005dd4 <HAL_TIMEx_MasterConfigSynchronization+0xbc>
  {
    /* Reset the MSM Bit */
    tmpsmcr &= ~TIM_SMCR_MSM;
 8005dba:	68bb      	ldr	r3, [r7, #8]
 8005dbc:	f023 0380 	bic.w	r3, r3, #128	@ 0x80
 8005dc0:	60bb      	str	r3, [r7, #8]
    /* Set master mode */
    tmpsmcr |= sMasterConfig->MasterSlaveMode;
 8005dc2:	683b      	ldr	r3, [r7, #0]
 8005dc4:	685b      	ldr	r3, [r3, #4]
 8005dc6:	68ba      	ldr	r2, [r7, #8]
 8005dc8:	4313      	orrs	r3, r2
 8005dca:	60bb      	str	r3, [r7, #8]

    /* Update TIMx SMCR */
    htim->Instance->SMCR = tmpsmcr;
 8005dcc:	687b      	ldr	r3, [r7, #4]
 8005dce:	681b      	ldr	r3, [r3, #0]
 8005dd0:	68ba      	ldr	r2, [r7, #8]
 8005dd2:	609a      	str	r2, [r3, #8]
  }

  /* Change the htim state */
  htim->State = HAL_TIM_STATE_READY;
 8005dd4:	687b      	ldr	r3, [r7, #4]
 8005dd6:	2201      	movs	r2, #1
 8005dd8:	f883 203d 	strb.w	r2, [r3, #61]	@ 0x3d

  __HAL_UNLOCK(htim);
 8005ddc:	687b      	ldr	r3, [r7, #4]
 8005dde:	2200      	movs	r2, #0
 8005de0:	f883 203c 	strb.w	r2, [r3, #60]	@ 0x3c

  return HAL_OK;
 8005de4:	2300      	movs	r3, #0
}
 8005de6:	4618      	mov	r0, r3
 8005de8:	3714      	adds	r7, #20
 8005dea:	46bd      	mov	sp, r7
 8005dec:	f85d 7b04 	ldr.w	r7, [sp], #4
 8005df0:	4770      	bx	lr
 8005df2:	bf00      	nop
 8005df4:	40010000 	.word	0x40010000
 8005df8:	40000400 	.word	0x40000400
 8005dfc:	40000800 	.word	0x40000800
 8005e00:	40000c00 	.word	0x40000c00
 8005e04:	40010400 	.word	0x40010400
 8005e08:	40014000 	.word	0x40014000
 8005e0c:	40001800 	.word	0x40001800

08005e10 <HAL_TIMEx_CommutCallback>:
  * @brief  Commutation callback in non-blocking mode
  * @param  htim TIM handle
  * @retval None
  */
__weak void HAL_TIMEx_CommutCallback(TIM_HandleTypeDef *htim)
{
 8005e10:	b480      	push	{r7}
 8005e12:	b083      	sub	sp, #12
 8005e14:	af00      	add	r7, sp, #0
 8005e16:	6078      	str	r0, [r7, #4]
  UNUSED(htim);

  /* NOTE : This function should not be modified, when the callback is needed,
            the HAL_TIMEx_CommutCallback could be implemented in the user file
   */
}
 8005e18:	bf00      	nop
 8005e1a:	370c      	adds	r7, #12
 8005e1c:	46bd      	mov	sp, r7
 8005e1e:	f85d 7b04 	ldr.w	r7, [sp], #4
 8005e22:	4770      	bx	lr

08005e24 <HAL_TIMEx_BreakCallback>:
  * @brief  Break detection callback in non-blocking mode
  * @param  htim TIM handle
  * @retval None
  */
__weak void HAL_TIMEx_BreakCallback(TIM_HandleTypeDef *htim)
{
 8005e24:	b480      	push	{r7}
 8005e26:	b083      	sub	sp, #12
 8005e28:	af00      	add	r7, sp, #0
 8005e2a:	6078      	str	r0, [r7, #4]
  UNUSED(htim);

  /* NOTE : This function should not be modified, when the callback is needed,
            the HAL_TIMEx_BreakCallback could be implemented in the user file
   */
}
 8005e2c:	bf00      	nop
 8005e2e:	370c      	adds	r7, #12
 8005e30:	46bd      	mov	sp, r7
 8005e32:	f85d 7b04 	ldr.w	r7, [sp], #4
 8005e36:	4770      	bx	lr

08005e38 <HAL_UART_Init>:
  * @param  huart  Pointer to a UART_HandleTypeDef structure that contains
  *                the configuration information for the specified UART module.
  * @retval HAL status
  */
HAL_StatusTypeDef HAL_UART_Init(UART_HandleTypeDef *huart)
{
 8005e38:	b580      	push	{r7, lr}
 8005e3a:	b082      	sub	sp, #8
 8005e3c:	af00      	add	r7, sp, #0
 8005e3e:	6078      	str	r0, [r7, #4]
  /* Check the UART handle allocation */
  if (huart == NULL)
 8005e40:	687b      	ldr	r3, [r7, #4]
 8005e42:	2b00      	cmp	r3, #0
 8005e44:	d101      	bne.n	8005e4a <HAL_UART_Init+0x12>
  {
    return HAL_ERROR;
 8005e46:	2301      	movs	r3, #1
 8005e48:	e042      	b.n	8005ed0 <HAL_UART_Init+0x98>
    assert_param(IS_UART_INSTANCE(huart->Instance));
  }
  assert_param(IS_UART_WORD_LENGTH(huart->Init.WordLength));
  assert_param(IS_UART_OVERSAMPLING(huart->Init.OverSampling));

  if (huart->gState == HAL_UART_STATE_RESET)
 8005e4a:	687b      	ldr	r3, [r7, #4]
 8005e4c:	f893 3041 	ldrb.w	r3, [r3, #65]	@ 0x41
 8005e50:	b2db      	uxtb	r3, r3
 8005e52:	2b00      	cmp	r3, #0
 8005e54:	d106      	bne.n	8005e64 <HAL_UART_Init+0x2c>
  {
    /* Allocate lock resource and initialize it */
    huart->Lock = HAL_UNLOCKED;
 8005e56:	687b      	ldr	r3, [r7, #4]
 8005e58:	2200      	movs	r2, #0
 8005e5a:	f883 2040 	strb.w	r2, [r3, #64]	@ 0x40

    /* Init the low level hardware */
    huart->MspInitCallback(huart);
#else
    /* Init the low level hardware : GPIO, CLOCK */
    HAL_UART_MspInit(huart);
 8005e5e:	6878      	ldr	r0, [r7, #4]
 8005e60:	f7fc fad2 	bl	8002408 <HAL_UART_MspInit>
#endif /* (USE_HAL_UART_REGISTER_CALLBACKS) */
  }

  huart->gState = HAL_UART_STATE_BUSY;
 8005e64:	687b      	ldr	r3, [r7, #4]
 8005e66:	2224      	movs	r2, #36	@ 0x24
 8005e68:	f883 2041 	strb.w	r2, [r3, #65]	@ 0x41

  /* Disable the peripheral */
  __HAL_UART_DISABLE(huart);
 8005e6c:	687b      	ldr	r3, [r7, #4]
 8005e6e:	681b      	ldr	r3, [r3, #0]
 8005e70:	68da      	ldr	r2, [r3, #12]
 8005e72:	687b      	ldr	r3, [r7, #4]
 8005e74:	681b      	ldr	r3, [r3, #0]
 8005e76:	f422 5200 	bic.w	r2, r2, #8192	@ 0x2000
 8005e7a:	60da      	str	r2, [r3, #12]

  /* Set the UART Communication parameters */
  UART_SetConfig(huart);
 8005e7c:	6878      	ldr	r0, [r7, #4]
 8005e7e:	f000 f973 	bl	8006168 <UART_SetConfig>

  /* In asynchronous mode, the following bits must be kept cleared:
     - LINEN and CLKEN bits in the USART_CR2 register,
     - SCEN, HDSEL and IREN  bits in the USART_CR3 register.*/
  CLEAR_BIT(huart->Instance->CR2, (USART_CR2_LINEN | USART_CR2_CLKEN));
 8005e82:	687b      	ldr	r3, [r7, #4]
 8005e84:	681b      	ldr	r3, [r3, #0]
 8005e86:	691a      	ldr	r2, [r3, #16]
 8005e88:	687b      	ldr	r3, [r7, #4]
 8005e8a:	681b      	ldr	r3, [r3, #0]
 8005e8c:	f422 4290 	bic.w	r2, r2, #18432	@ 0x4800
 8005e90:	611a      	str	r2, [r3, #16]
  CLEAR_BIT(huart->Instance->CR3, (USART_CR3_SCEN | USART_CR3_HDSEL | USART_CR3_IREN));
 8005e92:	687b      	ldr	r3, [r7, #4]
 8005e94:	681b      	ldr	r3, [r3, #0]
 8005e96:	695a      	ldr	r2, [r3, #20]
 8005e98:	687b      	ldr	r3, [r7, #4]
 8005e9a:	681b      	ldr	r3, [r3, #0]
 8005e9c:	f022 022a 	bic.w	r2, r2, #42	@ 0x2a
 8005ea0:	615a      	str	r2, [r3, #20]

  /* Enable the peripheral */
  __HAL_UART_ENABLE(huart);
 8005ea2:	687b      	ldr	r3, [r7, #4]
 8005ea4:	681b      	ldr	r3, [r3, #0]
 8005ea6:	68da      	ldr	r2, [r3, #12]
 8005ea8:	687b      	ldr	r3, [r7, #4]
 8005eaa:	681b      	ldr	r3, [r3, #0]
 8005eac:	f442 5200 	orr.w	r2, r2, #8192	@ 0x2000
 8005eb0:	60da      	str	r2, [r3, #12]

  /* Initialize the UART state */
  huart->ErrorCode = HAL_UART_ERROR_NONE;
 8005eb2:	687b      	ldr	r3, [r7, #4]
 8005eb4:	2200      	movs	r2, #0
 8005eb6:	645a      	str	r2, [r3, #68]	@ 0x44
  huart->gState = HAL_UART_STATE_READY;
 8005eb8:	687b      	ldr	r3, [r7, #4]
 8005eba:	2220      	movs	r2, #32
 8005ebc:	f883 2041 	strb.w	r2, [r3, #65]	@ 0x41
  huart->RxState = HAL_UART_STATE_READY;
 8005ec0:	687b      	ldr	r3, [r7, #4]
 8005ec2:	2220      	movs	r2, #32
 8005ec4:	f883 2042 	strb.w	r2, [r3, #66]	@ 0x42
  huart->RxEventType = HAL_UART_RXEVENT_TC;
 8005ec8:	687b      	ldr	r3, [r7, #4]
 8005eca:	2200      	movs	r2, #0
 8005ecc:	635a      	str	r2, [r3, #52]	@ 0x34

  return HAL_OK;
 8005ece:	2300      	movs	r3, #0
}
 8005ed0:	4618      	mov	r0, r3
 8005ed2:	3708      	adds	r7, #8
 8005ed4:	46bd      	mov	sp, r7
 8005ed6:	bd80      	pop	{r7, pc}

08005ed8 <HAL_UART_Transmit>:
  * @param  Size  Amount of data elements (u8 or u16) to be sent
  * @param  Timeout Timeout duration
  * @retval HAL status
  */
HAL_StatusTypeDef HAL_UART_Transmit(UART_HandleTypeDef *huart, const uint8_t *pData, uint16_t Size, uint32_t Timeout)
{
 8005ed8:	b580      	push	{r7, lr}
 8005eda:	b08a      	sub	sp, #40	@ 0x28
 8005edc:	af02      	add	r7, sp, #8
 8005ede:	60f8      	str	r0, [r7, #12]
 8005ee0:	60b9      	str	r1, [r7, #8]
 8005ee2:	603b      	str	r3, [r7, #0]
 8005ee4:	4613      	mov	r3, r2
 8005ee6:	80fb      	strh	r3, [r7, #6]
  const uint8_t  *pdata8bits;
  const uint16_t *pdata16bits;
  uint32_t tickstart = 0U;
 8005ee8:	2300      	movs	r3, #0
 8005eea:	617b      	str	r3, [r7, #20]

  /* Check that a Tx process is not already ongoing */
  if (huart->gState == HAL_UART_STATE_READY)
 8005eec:	68fb      	ldr	r3, [r7, #12]
 8005eee:	f893 3041 	ldrb.w	r3, [r3, #65]	@ 0x41
 8005ef2:	b2db      	uxtb	r3, r3
 8005ef4:	2b20      	cmp	r3, #32
 8005ef6:	d175      	bne.n	8005fe4 <HAL_UART_Transmit+0x10c>
  {
    if ((pData == NULL) || (Size == 0U))
 8005ef8:	68bb      	ldr	r3, [r7, #8]
 8005efa:	2b00      	cmp	r3, #0
 8005efc:	d002      	beq.n	8005f04 <HAL_UART_Transmit+0x2c>
 8005efe:	88fb      	ldrh	r3, [r7, #6]
 8005f00:	2b00      	cmp	r3, #0
 8005f02:	d101      	bne.n	8005f08 <HAL_UART_Transmit+0x30>
    {
      return  HAL_ERROR;
 8005f04:	2301      	movs	r3, #1
 8005f06:	e06e      	b.n	8005fe6 <HAL_UART_Transmit+0x10e>
    }

    huart->ErrorCode = HAL_UART_ERROR_NONE;
 8005f08:	68fb      	ldr	r3, [r7, #12]
 8005f0a:	2200      	movs	r2, #0
 8005f0c:	645a      	str	r2, [r3, #68]	@ 0x44
    huart->gState = HAL_UART_STATE_BUSY_TX;
 8005f0e:	68fb      	ldr	r3, [r7, #12]
 8005f10:	2221      	movs	r2, #33	@ 0x21
 8005f12:	f883 2041 	strb.w	r2, [r3, #65]	@ 0x41

    /* Init tickstart for timeout management */
    tickstart = HAL_GetTick();
 8005f16:	f7fc fc93 	bl	8002840 <HAL_GetTick>
 8005f1a:	6178      	str	r0, [r7, #20]

    huart->TxXferSize = Size;
 8005f1c:	68fb      	ldr	r3, [r7, #12]
 8005f1e:	88fa      	ldrh	r2, [r7, #6]
 8005f20:	849a      	strh	r2, [r3, #36]	@ 0x24
    huart->TxXferCount = Size;
 8005f22:	68fb      	ldr	r3, [r7, #12]
 8005f24:	88fa      	ldrh	r2, [r7, #6]
 8005f26:	84da      	strh	r2, [r3, #38]	@ 0x26

    /* In case of 9bits/No Parity transfer, pData needs to be handled as a uint16_t pointer */
    if ((huart->Init.WordLength == UART_WORDLENGTH_9B) && (huart->Init.Parity == UART_PARITY_NONE))
 8005f28:	68fb      	ldr	r3, [r7, #12]
 8005f2a:	689b      	ldr	r3, [r3, #8]
 8005f2c:	f5b3 5f80 	cmp.w	r3, #4096	@ 0x1000
 8005f30:	d108      	bne.n	8005f44 <HAL_UART_Transmit+0x6c>
 8005f32:	68fb      	ldr	r3, [r7, #12]
 8005f34:	691b      	ldr	r3, [r3, #16]
 8005f36:	2b00      	cmp	r3, #0
 8005f38:	d104      	bne.n	8005f44 <HAL_UART_Transmit+0x6c>
    {
      pdata8bits  = NULL;
 8005f3a:	2300      	movs	r3, #0
 8005f3c:	61fb      	str	r3, [r7, #28]
      pdata16bits = (const uint16_t *) pData;
 8005f3e:	68bb      	ldr	r3, [r7, #8]
 8005f40:	61bb      	str	r3, [r7, #24]
 8005f42:	e003      	b.n	8005f4c <HAL_UART_Transmit+0x74>
    }
    else
    {
      pdata8bits  = pData;
 8005f44:	68bb      	ldr	r3, [r7, #8]
 8005f46:	61fb      	str	r3, [r7, #28]
      pdata16bits = NULL;
 8005f48:	2300      	movs	r3, #0
 8005f4a:	61bb      	str	r3, [r7, #24]
    }

    while (huart->TxXferCount > 0U)
 8005f4c:	e02e      	b.n	8005fac <HAL_UART_Transmit+0xd4>
    {
      if (UART_WaitOnFlagUntilTimeout(huart, UART_FLAG_TXE, RESET, tickstart, Timeout) != HAL_OK)
 8005f4e:	683b      	ldr	r3, [r7, #0]
 8005f50:	9300      	str	r3, [sp, #0]
 8005f52:	697b      	ldr	r3, [r7, #20]
 8005f54:	2200      	movs	r2, #0
 8005f56:	2180      	movs	r1, #128	@ 0x80
 8005f58:	68f8      	ldr	r0, [r7, #12]
 8005f5a:	f000 f848 	bl	8005fee <UART_WaitOnFlagUntilTimeout>
 8005f5e:	4603      	mov	r3, r0
 8005f60:	2b00      	cmp	r3, #0
 8005f62:	d005      	beq.n	8005f70 <HAL_UART_Transmit+0x98>
      {
        huart->gState = HAL_UART_STATE_READY;
 8005f64:	68fb      	ldr	r3, [r7, #12]
 8005f66:	2220      	movs	r2, #32
 8005f68:	f883 2041 	strb.w	r2, [r3, #65]	@ 0x41

        return HAL_TIMEOUT;
 8005f6c:	2303      	movs	r3, #3
 8005f6e:	e03a      	b.n	8005fe6 <HAL_UART_Transmit+0x10e>
      }
      if (pdata8bits == NULL)
 8005f70:	69fb      	ldr	r3, [r7, #28]
 8005f72:	2b00      	cmp	r3, #0
 8005f74:	d10b      	bne.n	8005f8e <HAL_UART_Transmit+0xb6>
      {
        huart->Instance->DR = (uint16_t)(*pdata16bits & 0x01FFU);
 8005f76:	69bb      	ldr	r3, [r7, #24]
 8005f78:	881b      	ldrh	r3, [r3, #0]
 8005f7a:	461a      	mov	r2, r3
 8005f7c:	68fb      	ldr	r3, [r7, #12]
 8005f7e:	681b      	ldr	r3, [r3, #0]
 8005f80:	f3c2 0208 	ubfx	r2, r2, #0, #9
 8005f84:	605a      	str	r2, [r3, #4]
        pdata16bits++;
 8005f86:	69bb      	ldr	r3, [r7, #24]
 8005f88:	3302      	adds	r3, #2
 8005f8a:	61bb      	str	r3, [r7, #24]
 8005f8c:	e007      	b.n	8005f9e <HAL_UART_Transmit+0xc6>
      }
      else
      {
        huart->Instance->DR = (uint8_t)(*pdata8bits & 0xFFU);
 8005f8e:	69fb      	ldr	r3, [r7, #28]
 8005f90:	781a      	ldrb	r2, [r3, #0]
 8005f92:	68fb      	ldr	r3, [r7, #12]
 8005f94:	681b      	ldr	r3, [r3, #0]
 8005f96:	605a      	str	r2, [r3, #4]
        pdata8bits++;
 8005f98:	69fb      	ldr	r3, [r7, #28]
 8005f9a:	3301      	adds	r3, #1
 8005f9c:	61fb      	str	r3, [r7, #28]
      }
      huart->TxXferCount--;
 8005f9e:	68fb      	ldr	r3, [r7, #12]
 8005fa0:	8cdb      	ldrh	r3, [r3, #38]	@ 0x26
 8005fa2:	b29b      	uxth	r3, r3
 8005fa4:	3b01      	subs	r3, #1
 8005fa6:	b29a      	uxth	r2, r3
 8005fa8:	68fb      	ldr	r3, [r7, #12]
 8005faa:	84da      	strh	r2, [r3, #38]	@ 0x26
    while (huart->TxXferCount > 0U)
 8005fac:	68fb      	ldr	r3, [r7, #12]
 8005fae:	8cdb      	ldrh	r3, [r3, #38]	@ 0x26
 8005fb0:	b29b      	uxth	r3, r3
 8005fb2:	2b00      	cmp	r3, #0
 8005fb4:	d1cb      	bne.n	8005f4e <HAL_UART_Transmit+0x76>
    }

    if (UART_WaitOnFlagUntilTimeout(huart, UART_FLAG_TC, RESET, tickstart, Timeout) != HAL_OK)
 8005fb6:	683b      	ldr	r3, [r7, #0]
 8005fb8:	9300      	str	r3, [sp, #0]
 8005fba:	697b      	ldr	r3, [r7, #20]
 8005fbc:	2200      	movs	r2, #0
 8005fbe:	2140      	movs	r1, #64	@ 0x40
 8005fc0:	68f8      	ldr	r0, [r7, #12]
 8005fc2:	f000 f814 	bl	8005fee <UART_WaitOnFlagUntilTimeout>
 8005fc6:	4603      	mov	r3, r0
 8005fc8:	2b00      	cmp	r3, #0
 8005fca:	d005      	beq.n	8005fd8 <HAL_UART_Transmit+0x100>
    {
      huart->gState = HAL_UART_STATE_READY;
 8005fcc:	68fb      	ldr	r3, [r7, #12]
 8005fce:	2220      	movs	r2, #32
 8005fd0:	f883 2041 	strb.w	r2, [r3, #65]	@ 0x41

      return HAL_TIMEOUT;
 8005fd4:	2303      	movs	r3, #3
 8005fd6:	e006      	b.n	8005fe6 <HAL_UART_Transmit+0x10e>
    }

    /* At end of Tx process, restore huart->gState to Ready */
    huart->gState = HAL_UART_STATE_READY;
 8005fd8:	68fb      	ldr	r3, [r7, #12]
 8005fda:	2220      	movs	r2, #32
 8005fdc:	f883 2041 	strb.w	r2, [r3, #65]	@ 0x41

    return HAL_OK;
 8005fe0:	2300      	movs	r3, #0
 8005fe2:	e000      	b.n	8005fe6 <HAL_UART_Transmit+0x10e>
  }
  else
  {
    return HAL_BUSY;
 8005fe4:	2302      	movs	r3, #2
  }
}
 8005fe6:	4618      	mov	r0, r3
 8005fe8:	3720      	adds	r7, #32
 8005fea:	46bd      	mov	sp, r7
 8005fec:	bd80      	pop	{r7, pc}

08005fee <UART_WaitOnFlagUntilTimeout>:
  * @param  Timeout Timeout duration
  * @retval HAL status
  */
static HAL_StatusTypeDef UART_WaitOnFlagUntilTimeout(UART_HandleTypeDef *huart, uint32_t Flag, FlagStatus Status,
                                                     uint32_t Tickstart, uint32_t Timeout)
{
 8005fee:	b580      	push	{r7, lr}
 8005ff0:	b086      	sub	sp, #24
 8005ff2:	af00      	add	r7, sp, #0
 8005ff4:	60f8      	str	r0, [r7, #12]
 8005ff6:	60b9      	str	r1, [r7, #8]
 8005ff8:	603b      	str	r3, [r7, #0]
 8005ffa:	4613      	mov	r3, r2
 8005ffc:	71fb      	strb	r3, [r7, #7]
  /* Wait until flag is set */
  while ((__HAL_UART_GET_FLAG(huart, Flag) ? SET : RESET) == Status)
 8005ffe:	e03b      	b.n	8006078 <UART_WaitOnFlagUntilTimeout+0x8a>
  {
    /* Check for the Timeout */
    if (Timeout != HAL_MAX_DELAY)
 8006000:	6a3b      	ldr	r3, [r7, #32]
 8006002:	f1b3 3fff 	cmp.w	r3, #4294967295
 8006006:	d037      	beq.n	8006078 <UART_WaitOnFlagUntilTimeout+0x8a>
    {
      if (((HAL_GetTick() - Tickstart) > Timeout) || (Timeout == 0U))
 8006008:	f7fc fc1a 	bl	8002840 <HAL_GetTick>
 800600c:	4602      	mov	r2, r0
 800600e:	683b      	ldr	r3, [r7, #0]
 8006010:	1ad3      	subs	r3, r2, r3
 8006012:	6a3a      	ldr	r2, [r7, #32]
 8006014:	429a      	cmp	r2, r3
 8006016:	d302      	bcc.n	800601e <UART_WaitOnFlagUntilTimeout+0x30>
 8006018:	6a3b      	ldr	r3, [r7, #32]
 800601a:	2b00      	cmp	r3, #0
 800601c:	d101      	bne.n	8006022 <UART_WaitOnFlagUntilTimeout+0x34>
      {

        return HAL_TIMEOUT;
 800601e:	2303      	movs	r3, #3
 8006020:	e03a      	b.n	8006098 <UART_WaitOnFlagUntilTimeout+0xaa>
      }

      if ((READ_BIT(huart->Instance->CR1, USART_CR1_RE) != 0U) && (Flag != UART_FLAG_TXE) && (Flag != UART_FLAG_TC))
 8006022:	68fb      	ldr	r3, [r7, #12]
 8006024:	681b      	ldr	r3, [r3, #0]
 8006026:	68db      	ldr	r3, [r3, #12]
 8006028:	f003 0304 	and.w	r3, r3, #4
 800602c:	2b00      	cmp	r3, #0
 800602e:	d023      	beq.n	8006078 <UART_WaitOnFlagUntilTimeout+0x8a>
 8006030:	68bb      	ldr	r3, [r7, #8]
 8006032:	2b80      	cmp	r3, #128	@ 0x80
 8006034:	d020      	beq.n	8006078 <UART_WaitOnFlagUntilTimeout+0x8a>
 8006036:	68bb      	ldr	r3, [r7, #8]
 8006038:	2b40      	cmp	r3, #64	@ 0x40
 800603a:	d01d      	beq.n	8006078 <UART_WaitOnFlagUntilTimeout+0x8a>
      {
        if (__HAL_UART_GET_FLAG(huart, UART_FLAG_ORE) == SET)
 800603c:	68fb      	ldr	r3, [r7, #12]
 800603e:	681b      	ldr	r3, [r3, #0]
 8006040:	681b      	ldr	r3, [r3, #0]
 8006042:	f003 0308 	and.w	r3, r3, #8
 8006046:	2b08      	cmp	r3, #8
 8006048:	d116      	bne.n	8006078 <UART_WaitOnFlagUntilTimeout+0x8a>
        {
          /* Clear Overrun Error flag*/
          __HAL_UART_CLEAR_OREFLAG(huart);
 800604a:	2300      	movs	r3, #0
 800604c:	617b      	str	r3, [r7, #20]
 800604e:	68fb      	ldr	r3, [r7, #12]
 8006050:	681b      	ldr	r3, [r3, #0]
 8006052:	681b      	ldr	r3, [r3, #0]
 8006054:	617b      	str	r3, [r7, #20]
 8006056:	68fb      	ldr	r3, [r7, #12]
 8006058:	681b      	ldr	r3, [r3, #0]
 800605a:	685b      	ldr	r3, [r3, #4]
 800605c:	617b      	str	r3, [r7, #20]
 800605e:	697b      	ldr	r3, [r7, #20]

          /* Blocking error : transfer is aborted
          Set the UART state ready to be able to start again the process,
          Disable Rx Interrupts if ongoing */
          UART_EndRxTransfer(huart);
 8006060:	68f8      	ldr	r0, [r7, #12]
 8006062:	f000 f81d 	bl	80060a0 <UART_EndRxTransfer>

          huart->ErrorCode = HAL_UART_ERROR_ORE;
 8006066:	68fb      	ldr	r3, [r7, #12]
 8006068:	2208      	movs	r2, #8
 800606a:	645a      	str	r2, [r3, #68]	@ 0x44

          /* Process Unlocked */
          __HAL_UNLOCK(huart);
 800606c:	68fb      	ldr	r3, [r7, #12]
 800606e:	2200      	movs	r2, #0
 8006070:	f883 2040 	strb.w	r2, [r3, #64]	@ 0x40

          return HAL_ERROR;
 8006074:	2301      	movs	r3, #1
 8006076:	e00f      	b.n	8006098 <UART_WaitOnFlagUntilTimeout+0xaa>
  while ((__HAL_UART_GET_FLAG(huart, Flag) ? SET : RESET) == Status)
 8006078:	68fb      	ldr	r3, [r7, #12]
 800607a:	681b      	ldr	r3, [r3, #0]
 800607c:	681a      	ldr	r2, [r3, #0]
 800607e:	68bb      	ldr	r3, [r7, #8]
 8006080:	4013      	ands	r3, r2
 8006082:	68ba      	ldr	r2, [r7, #8]
 8006084:	429a      	cmp	r2, r3
 8006086:	bf0c      	ite	eq
 8006088:	2301      	moveq	r3, #1
 800608a:	2300      	movne	r3, #0
 800608c:	b2db      	uxtb	r3, r3
 800608e:	461a      	mov	r2, r3
 8006090:	79fb      	ldrb	r3, [r7, #7]
 8006092:	429a      	cmp	r2, r3
 8006094:	d0b4      	beq.n	8006000 <UART_WaitOnFlagUntilTimeout+0x12>
        }
      }
    }
  }
  return HAL_OK;
 8006096:	2300      	movs	r3, #0
}
 8006098:	4618      	mov	r0, r3
 800609a:	3718      	adds	r7, #24
 800609c:	46bd      	mov	sp, r7
 800609e:	bd80      	pop	{r7, pc}

080060a0 <UART_EndRxTransfer>:
  * @brief  End ongoing Rx transfer on UART peripheral (following error detection or Reception completion).
  * @param  huart UART handle.
  * @retval None
  */
static void UART_EndRxTransfer(UART_HandleTypeDef *huart)
{
 80060a0:	b480      	push	{r7}
 80060a2:	b095      	sub	sp, #84	@ 0x54
 80060a4:	af00      	add	r7, sp, #0
 80060a6:	6078      	str	r0, [r7, #4]
  /* Disable RXNE, PE and ERR (Frame error, noise error, overrun error) interrupts */
  ATOMIC_CLEAR_BIT(huart->Instance->CR1, (USART_CR1_RXNEIE | USART_CR1_PEIE));
 80060a8:	687b      	ldr	r3, [r7, #4]
 80060aa:	681b      	ldr	r3, [r3, #0]
 80060ac:	330c      	adds	r3, #12
 80060ae:	637b      	str	r3, [r7, #52]	@ 0x34
   __ASM volatile ("ldrex %0, %1" : "=r" (result) : "Q" (*addr) );
 80060b0:	6b7b      	ldr	r3, [r7, #52]	@ 0x34
 80060b2:	e853 3f00 	ldrex	r3, [r3]
 80060b6:	633b      	str	r3, [r7, #48]	@ 0x30
   return(result);
 80060b8:	6b3b      	ldr	r3, [r7, #48]	@ 0x30
 80060ba:	f423 7390 	bic.w	r3, r3, #288	@ 0x120
 80060be:	64fb      	str	r3, [r7, #76]	@ 0x4c
 80060c0:	687b      	ldr	r3, [r7, #4]
 80060c2:	681b      	ldr	r3, [r3, #0]
 80060c4:	330c      	adds	r3, #12
 80060c6:	6cfa      	ldr	r2, [r7, #76]	@ 0x4c
 80060c8:	643a      	str	r2, [r7, #64]	@ 0x40
 80060ca:	63fb      	str	r3, [r7, #60]	@ 0x3c
   __ASM volatile ("strex %0, %2, %1" : "=&r" (result), "=Q" (*addr) : "r" (value) );
 80060cc:	6bf9      	ldr	r1, [r7, #60]	@ 0x3c
 80060ce:	6c3a      	ldr	r2, [r7, #64]	@ 0x40
 80060d0:	e841 2300 	strex	r3, r2, [r1]
 80060d4:	63bb      	str	r3, [r7, #56]	@ 0x38
   return(result);
 80060d6:	6bbb      	ldr	r3, [r7, #56]	@ 0x38
 80060d8:	2b00      	cmp	r3, #0
 80060da:	d1e5      	bne.n	80060a8 <UART_EndRxTransfer+0x8>
  ATOMIC_CLEAR_BIT(huart->Instance->CR3, USART_CR3_EIE);
 80060dc:	687b      	ldr	r3, [r7, #4]
 80060de:	681b      	ldr	r3, [r3, #0]
 80060e0:	3314      	adds	r3, #20
 80060e2:	623b      	str	r3, [r7, #32]
   __ASM volatile ("ldrex %0, %1" : "=r" (result) : "Q" (*addr) );
 80060e4:	6a3b      	ldr	r3, [r7, #32]
 80060e6:	e853 3f00 	ldrex	r3, [r3]
 80060ea:	61fb      	str	r3, [r7, #28]
   return(result);
 80060ec:	69fb      	ldr	r3, [r7, #28]
 80060ee:	f023 0301 	bic.w	r3, r3, #1
 80060f2:	64bb      	str	r3, [r7, #72]	@ 0x48
 80060f4:	687b      	ldr	r3, [r7, #4]
 80060f6:	681b      	ldr	r3, [r3, #0]
 80060f8:	3314      	adds	r3, #20
 80060fa:	6cba      	ldr	r2, [r7, #72]	@ 0x48
 80060fc:	62fa      	str	r2, [r7, #44]	@ 0x2c
 80060fe:	62bb      	str	r3, [r7, #40]	@ 0x28
   __ASM volatile ("strex %0, %2, %1" : "=&r" (result), "=Q" (*addr) : "r" (value) );
 8006100:	6ab9      	ldr	r1, [r7, #40]	@ 0x28
 8006102:	6afa      	ldr	r2, [r7, #44]	@ 0x2c
 8006104:	e841 2300 	strex	r3, r2, [r1]
 8006108:	627b      	str	r3, [r7, #36]	@ 0x24
   return(result);
 800610a:	6a7b      	ldr	r3, [r7, #36]	@ 0x24
 800610c:	2b00      	cmp	r3, #0
 800610e:	d1e5      	bne.n	80060dc <UART_EndRxTransfer+0x3c>

  /* In case of reception waiting for IDLE event, disable also the IDLE IE interrupt source */
  if (huart->ReceptionType == HAL_UART_RECEPTION_TOIDLE)
 8006110:	687b      	ldr	r3, [r7, #4]
 8006112:	6b1b      	ldr	r3, [r3, #48]	@ 0x30
 8006114:	2b01      	cmp	r3, #1
 8006116:	d119      	bne.n	800614c <UART_EndRxTransfer+0xac>
  {
    ATOMIC_CLEAR_BIT(huart->Instance->CR1, USART_CR1_IDLEIE);
 8006118:	687b      	ldr	r3, [r7, #4]
 800611a:	681b      	ldr	r3, [r3, #0]
 800611c:	330c      	adds	r3, #12
 800611e:	60fb      	str	r3, [r7, #12]
   __ASM volatile ("ldrex %0, %1" : "=r" (result) : "Q" (*addr) );
 8006120:	68fb      	ldr	r3, [r7, #12]
 8006122:	e853 3f00 	ldrex	r3, [r3]
 8006126:	60bb      	str	r3, [r7, #8]
   return(result);
 8006128:	68bb      	ldr	r3, [r7, #8]
 800612a:	f023 0310 	bic.w	r3, r3, #16
 800612e:	647b      	str	r3, [r7, #68]	@ 0x44
 8006130:	687b      	ldr	r3, [r7, #4]
 8006132:	681b      	ldr	r3, [r3, #0]
 8006134:	330c      	adds	r3, #12
 8006136:	6c7a      	ldr	r2, [r7, #68]	@ 0x44
 8006138:	61ba      	str	r2, [r7, #24]
 800613a:	617b      	str	r3, [r7, #20]
   __ASM volatile ("strex %0, %2, %1" : "=&r" (result), "=Q" (*addr) : "r" (value) );
 800613c:	6979      	ldr	r1, [r7, #20]
 800613e:	69ba      	ldr	r2, [r7, #24]
 8006140:	e841 2300 	strex	r3, r2, [r1]
 8006144:	613b      	str	r3, [r7, #16]
   return(result);
 8006146:	693b      	ldr	r3, [r7, #16]
 8006148:	2b00      	cmp	r3, #0
 800614a:	d1e5      	bne.n	8006118 <UART_EndRxTransfer+0x78>
  }

  /* At end of Rx process, restore huart->RxState to Ready */
  huart->RxState = HAL_UART_STATE_READY;
 800614c:	687b      	ldr	r3, [r7, #4]
 800614e:	2220      	movs	r2, #32
 8006150:	f883 2042 	strb.w	r2, [r3, #66]	@ 0x42
  huart->ReceptionType = HAL_UART_RECEPTION_STANDARD;
 8006154:	687b      	ldr	r3, [r7, #4]
 8006156:	2200      	movs	r2, #0
 8006158:	631a      	str	r2, [r3, #48]	@ 0x30
}
 800615a:	bf00      	nop
 800615c:	3754      	adds	r7, #84	@ 0x54
 800615e:	46bd      	mov	sp, r7
 8006160:	f85d 7b04 	ldr.w	r7, [sp], #4
 8006164:	4770      	bx	lr
	...

08006168 <UART_SetConfig>:
  * @param  huart  Pointer to a UART_HandleTypeDef structure that contains
  *                the configuration information for the specified UART module.
  * @retval None
  */
static void UART_SetConfig(UART_HandleTypeDef *huart)
{
 8006168:	e92d 4fb0 	stmdb	sp!, {r4, r5, r7, r8, r9, sl, fp, lr}
 800616c:	b0c0      	sub	sp, #256	@ 0x100
 800616e:	af00      	add	r7, sp, #0
 8006170:	f8c7 00f4 	str.w	r0, [r7, #244]	@ 0xf4
  assert_param(IS_UART_MODE(huart->Init.Mode));

  /*-------------------------- USART CR2 Configuration -----------------------*/
  /* Configure the UART Stop Bits: Set STOP[13:12] bits
     according to huart->Init.StopBits value */
  MODIFY_REG(huart->Instance->CR2, USART_CR2_STOP, huart->Init.StopBits);
 8006174:	f8d7 30f4 	ldr.w	r3, [r7, #244]	@ 0xf4
 8006178:	681b      	ldr	r3, [r3, #0]
 800617a:	691b      	ldr	r3, [r3, #16]
 800617c:	f423 5040 	bic.w	r0, r3, #12288	@ 0x3000
 8006180:	f8d7 30f4 	ldr.w	r3, [r7, #244]	@ 0xf4
 8006184:	68d9      	ldr	r1, [r3, #12]
 8006186:	f8d7 30f4 	ldr.w	r3, [r7, #244]	@ 0xf4
 800618a:	681a      	ldr	r2, [r3, #0]
 800618c:	ea40 0301 	orr.w	r3, r0, r1
 8006190:	6113      	str	r3, [r2, #16]
     Set the M bits according to huart->Init.WordLength value
     Set PCE and PS bits according to huart->Init.Parity value
     Set TE and RE bits according to huart->Init.Mode value
     Set OVER8 bit according to huart->Init.OverSampling value */

  tmpreg = (uint32_t)huart->Init.WordLength | huart->Init.Parity | huart->Init.Mode | huart->Init.OverSampling;
 8006192:	f8d7 30f4 	ldr.w	r3, [r7, #244]	@ 0xf4
 8006196:	689a      	ldr	r2, [r3, #8]
 8006198:	f8d7 30f4 	ldr.w	r3, [r7, #244]	@ 0xf4
 800619c:	691b      	ldr	r3, [r3, #16]
 800619e:	431a      	orrs	r2, r3
 80061a0:	f8d7 30f4 	ldr.w	r3, [r7, #244]	@ 0xf4
 80061a4:	695b      	ldr	r3, [r3, #20]
 80061a6:	431a      	orrs	r2, r3
 80061a8:	f8d7 30f4 	ldr.w	r3, [r7, #244]	@ 0xf4
 80061ac:	69db      	ldr	r3, [r3, #28]
 80061ae:	4313      	orrs	r3, r2
 80061b0:	f8c7 30f8 	str.w	r3, [r7, #248]	@ 0xf8
  MODIFY_REG(huart->Instance->CR1,
 80061b4:	f8d7 30f4 	ldr.w	r3, [r7, #244]	@ 0xf4
 80061b8:	681b      	ldr	r3, [r3, #0]
 80061ba:	68db      	ldr	r3, [r3, #12]
 80061bc:	f423 4116 	bic.w	r1, r3, #38400	@ 0x9600
 80061c0:	f021 010c 	bic.w	r1, r1, #12
 80061c4:	f8d7 30f4 	ldr.w	r3, [r7, #244]	@ 0xf4
 80061c8:	681a      	ldr	r2, [r3, #0]
 80061ca:	f8d7 30f8 	ldr.w	r3, [r7, #248]	@ 0xf8
 80061ce:	430b      	orrs	r3, r1
 80061d0:	60d3      	str	r3, [r2, #12]
             (uint32_t)(USART_CR1_M | USART_CR1_PCE | USART_CR1_PS | USART_CR1_TE | USART_CR1_RE | USART_CR1_OVER8),
             tmpreg);

  /*-------------------------- USART CR3 Configuration -----------------------*/
  /* Configure the UART HFC: Set CTSE and RTSE bits according to huart->Init.HwFlowCtl value */
  MODIFY_REG(huart->Instance->CR3, (USART_CR3_RTSE | USART_CR3_CTSE), huart->Init.HwFlowCtl);
 80061d2:	f8d7 30f4 	ldr.w	r3, [r7, #244]	@ 0xf4
 80061d6:	681b      	ldr	r3, [r3, #0]
 80061d8:	695b      	ldr	r3, [r3, #20]
 80061da:	f423 7040 	bic.w	r0, r3, #768	@ 0x300
 80061de:	f8d7 30f4 	ldr.w	r3, [r7, #244]	@ 0xf4
 80061e2:	6999      	ldr	r1, [r3, #24]
 80061e4:	f8d7 30f4 	ldr.w	r3, [r7, #244]	@ 0xf4
 80061e8:	681a      	ldr	r2, [r3, #0]
 80061ea:	ea40 0301 	orr.w	r3, r0, r1
 80061ee:	6153      	str	r3, [r2, #20]
    if ((huart->Instance == USART1) || (huart->Instance == USART6) || (huart->Instance == UART9) || (huart->Instance == UART10))
    {
      pclk = HAL_RCC_GetPCLK2Freq();
    }
#elif defined(USART6)
    if ((huart->Instance == USART1) || (huart->Instance == USART6))
 80061f0:	f8d7 30f4 	ldr.w	r3, [r7, #244]	@ 0xf4
 80061f4:	681a      	ldr	r2, [r3, #0]
 80061f6:	4b8f      	ldr	r3, [pc, #572]	@ (8006434 <UART_SetConfig+0x2cc>)
 80061f8:	429a      	cmp	r2, r3
 80061fa:	d005      	beq.n	8006208 <UART_SetConfig+0xa0>
 80061fc:	f8d7 30f4 	ldr.w	r3, [r7, #244]	@ 0xf4
 8006200:	681a      	ldr	r2, [r3, #0]
 8006202:	4b8d      	ldr	r3, [pc, #564]	@ (8006438 <UART_SetConfig+0x2d0>)
 8006204:	429a      	cmp	r2, r3
 8006206:	d104      	bne.n	8006212 <UART_SetConfig+0xaa>
    {
      pclk = HAL_RCC_GetPCLK2Freq();
 8006208:	f7fe fef0 	bl	8004fec <HAL_RCC_GetPCLK2Freq>
 800620c:	f8c7 00fc 	str.w	r0, [r7, #252]	@ 0xfc
 8006210:	e003      	b.n	800621a <UART_SetConfig+0xb2>
      pclk = HAL_RCC_GetPCLK2Freq();
    }
#endif /* USART6 */
    else
    {
      pclk = HAL_RCC_GetPCLK1Freq();
 8006212:	f7fe fed7 	bl	8004fc4 <HAL_RCC_GetPCLK1Freq>
 8006216:	f8c7 00fc 	str.w	r0, [r7, #252]	@ 0xfc
    }
  /*-------------------------- USART BRR Configuration ---------------------*/
  if (huart->Init.OverSampling == UART_OVERSAMPLING_8)
 800621a:	f8d7 30f4 	ldr.w	r3, [r7, #244]	@ 0xf4
 800621e:	69db      	ldr	r3, [r3, #28]
 8006220:	f5b3 4f00 	cmp.w	r3, #32768	@ 0x8000
 8006224:	f040 810c 	bne.w	8006440 <UART_SetConfig+0x2d8>
  {
    huart->Instance->BRR = UART_BRR_SAMPLING8(pclk, huart->Init.BaudRate);
 8006228:	f8d7 30fc 	ldr.w	r3, [r7, #252]	@ 0xfc
 800622c:	2200      	movs	r2, #0
 800622e:	f8c7 30e8 	str.w	r3, [r7, #232]	@ 0xe8
 8006232:	f8c7 20ec 	str.w	r2, [r7, #236]	@ 0xec
 8006236:	e9d7 453a 	ldrd	r4, r5, [r7, #232]	@ 0xe8
 800623a:	4622      	mov	r2, r4
 800623c:	462b      	mov	r3, r5
 800623e:	1891      	adds	r1, r2, r2
 8006240:	65b9      	str	r1, [r7, #88]	@ 0x58
 8006242:	415b      	adcs	r3, r3
 8006244:	65fb      	str	r3, [r7, #92]	@ 0x5c
 8006246:	e9d7 2316 	ldrd	r2, r3, [r7, #88]	@ 0x58
 800624a:	4621      	mov	r1, r4
 800624c:	eb12 0801 	adds.w	r8, r2, r1
 8006250:	4629      	mov	r1, r5
 8006252:	eb43 0901 	adc.w	r9, r3, r1
 8006256:	f04f 0200 	mov.w	r2, #0
 800625a:	f04f 0300 	mov.w	r3, #0
 800625e:	ea4f 03c9 	mov.w	r3, r9, lsl #3
 8006262:	ea43 7358 	orr.w	r3, r3, r8, lsr #29
 8006266:	ea4f 02c8 	mov.w	r2, r8, lsl #3
 800626a:	4690      	mov	r8, r2
 800626c:	4699      	mov	r9, r3
 800626e:	4623      	mov	r3, r4
 8006270:	eb18 0303 	adds.w	r3, r8, r3
 8006274:	f8c7 30e0 	str.w	r3, [r7, #224]	@ 0xe0
 8006278:	462b      	mov	r3, r5
 800627a:	eb49 0303 	adc.w	r3, r9, r3
 800627e:	f8c7 30e4 	str.w	r3, [r7, #228]	@ 0xe4
 8006282:	f8d7 30f4 	ldr.w	r3, [r7, #244]	@ 0xf4
 8006286:	685b      	ldr	r3, [r3, #4]
 8006288:	2200      	movs	r2, #0
 800628a:	f8c7 30d8 	str.w	r3, [r7, #216]	@ 0xd8
 800628e:	f8c7 20dc 	str.w	r2, [r7, #220]	@ 0xdc
 8006292:	e9d7 1236 	ldrd	r1, r2, [r7, #216]	@ 0xd8
 8006296:	460b      	mov	r3, r1
 8006298:	18db      	adds	r3, r3, r3
 800629a:	653b      	str	r3, [r7, #80]	@ 0x50
 800629c:	4613      	mov	r3, r2
 800629e:	eb42 0303 	adc.w	r3, r2, r3
 80062a2:	657b      	str	r3, [r7, #84]	@ 0x54
 80062a4:	e9d7 2314 	ldrd	r2, r3, [r7, #80]	@ 0x50
 80062a8:	e9d7 0138 	ldrd	r0, r1, [r7, #224]	@ 0xe0
 80062ac:	f7fa fccc 	bl	8000c48 <__aeabi_uldivmod>
 80062b0:	4602      	mov	r2, r0
 80062b2:	460b      	mov	r3, r1
 80062b4:	4b61      	ldr	r3, [pc, #388]	@ (800643c <UART_SetConfig+0x2d4>)
 80062b6:	fba3 2302 	umull	r2, r3, r3, r2
 80062ba:	095b      	lsrs	r3, r3, #5
 80062bc:	011c      	lsls	r4, r3, #4
 80062be:	f8d7 30fc 	ldr.w	r3, [r7, #252]	@ 0xfc
 80062c2:	2200      	movs	r2, #0
 80062c4:	f8c7 30d0 	str.w	r3, [r7, #208]	@ 0xd0
 80062c8:	f8c7 20d4 	str.w	r2, [r7, #212]	@ 0xd4
 80062cc:	e9d7 8934 	ldrd	r8, r9, [r7, #208]	@ 0xd0
 80062d0:	4642      	mov	r2, r8
 80062d2:	464b      	mov	r3, r9
 80062d4:	1891      	adds	r1, r2, r2
 80062d6:	64b9      	str	r1, [r7, #72]	@ 0x48
 80062d8:	415b      	adcs	r3, r3
 80062da:	64fb      	str	r3, [r7, #76]	@ 0x4c
 80062dc:	e9d7 2312 	ldrd	r2, r3, [r7, #72]	@ 0x48
 80062e0:	4641      	mov	r1, r8
 80062e2:	eb12 0a01 	adds.w	sl, r2, r1
 80062e6:	4649      	mov	r1, r9
 80062e8:	eb43 0b01 	adc.w	fp, r3, r1
 80062ec:	f04f 0200 	mov.w	r2, #0
 80062f0:	f04f 0300 	mov.w	r3, #0
 80062f4:	ea4f 03cb 	mov.w	r3, fp, lsl #3
 80062f8:	ea43 735a 	orr.w	r3, r3, sl, lsr #29
 80062fc:	ea4f 02ca 	mov.w	r2, sl, lsl #3
 8006300:	4692      	mov	sl, r2
 8006302:	469b      	mov	fp, r3
 8006304:	4643      	mov	r3, r8
 8006306:	eb1a 0303 	adds.w	r3, sl, r3
 800630a:	f8c7 30c8 	str.w	r3, [r7, #200]	@ 0xc8
 800630e:	464b      	mov	r3, r9
 8006310:	eb4b 0303 	adc.w	r3, fp, r3
 8006314:	f8c7 30cc 	str.w	r3, [r7, #204]	@ 0xcc
 8006318:	f8d7 30f4 	ldr.w	r3, [r7, #244]	@ 0xf4
 800631c:	685b      	ldr	r3, [r3, #4]
 800631e:	2200      	movs	r2, #0
 8006320:	f8c7 30c0 	str.w	r3, [r7, #192]	@ 0xc0
 8006324:	f8c7 20c4 	str.w	r2, [r7, #196]	@ 0xc4
 8006328:	e9d7 1230 	ldrd	r1, r2, [r7, #192]	@ 0xc0
 800632c:	460b      	mov	r3, r1
 800632e:	18db      	adds	r3, r3, r3
 8006330:	643b      	str	r3, [r7, #64]	@ 0x40
 8006332:	4613      	mov	r3, r2
 8006334:	eb42 0303 	adc.w	r3, r2, r3
 8006338:	647b      	str	r3, [r7, #68]	@ 0x44
 800633a:	e9d7 2310 	ldrd	r2, r3, [r7, #64]	@ 0x40
 800633e:	e9d7 0132 	ldrd	r0, r1, [r7, #200]	@ 0xc8
 8006342:	f7fa fc81 	bl	8000c48 <__aeabi_uldivmod>
 8006346:	4602      	mov	r2, r0
 8006348:	460b      	mov	r3, r1
 800634a:	4611      	mov	r1, r2
 800634c:	4b3b      	ldr	r3, [pc, #236]	@ (800643c <UART_SetConfig+0x2d4>)
 800634e:	fba3 2301 	umull	r2, r3, r3, r1
 8006352:	095b      	lsrs	r3, r3, #5
 8006354:	2264      	movs	r2, #100	@ 0x64
 8006356:	fb02 f303 	mul.w	r3, r2, r3
 800635a:	1acb      	subs	r3, r1, r3
 800635c:	00db      	lsls	r3, r3, #3
 800635e:	f103 0232 	add.w	r2, r3, #50	@ 0x32
 8006362:	4b36      	ldr	r3, [pc, #216]	@ (800643c <UART_SetConfig+0x2d4>)
 8006364:	fba3 2302 	umull	r2, r3, r3, r2
 8006368:	095b      	lsrs	r3, r3, #5
 800636a:	005b      	lsls	r3, r3, #1
 800636c:	f403 73f8 	and.w	r3, r3, #496	@ 0x1f0
 8006370:	441c      	add	r4, r3
 8006372:	f8d7 30fc 	ldr.w	r3, [r7, #252]	@ 0xfc
 8006376:	2200      	movs	r2, #0
 8006378:	f8c7 30b8 	str.w	r3, [r7, #184]	@ 0xb8
 800637c:	f8c7 20bc 	str.w	r2, [r7, #188]	@ 0xbc
 8006380:	e9d7 892e 	ldrd	r8, r9, [r7, #184]	@ 0xb8
 8006384:	4642      	mov	r2, r8
 8006386:	464b      	mov	r3, r9
 8006388:	1891      	adds	r1, r2, r2
 800638a:	63b9      	str	r1, [r7, #56]	@ 0x38
 800638c:	415b      	adcs	r3, r3
 800638e:	63fb      	str	r3, [r7, #60]	@ 0x3c
 8006390:	e9d7 230e 	ldrd	r2, r3, [r7, #56]	@ 0x38
 8006394:	4641      	mov	r1, r8
 8006396:	1851      	adds	r1, r2, r1
 8006398:	6339      	str	r1, [r7, #48]	@ 0x30
 800639a:	4649      	mov	r1, r9
 800639c:	414b      	adcs	r3, r1
 800639e:	637b      	str	r3, [r7, #52]	@ 0x34
 80063a0:	f04f 0200 	mov.w	r2, #0
 80063a4:	f04f 0300 	mov.w	r3, #0
 80063a8:	e9d7 ab0c 	ldrd	sl, fp, [r7, #48]	@ 0x30
 80063ac:	4659      	mov	r1, fp
 80063ae:	00cb      	lsls	r3, r1, #3
 80063b0:	4651      	mov	r1, sl
 80063b2:	ea43 7351 	orr.w	r3, r3, r1, lsr #29
 80063b6:	4651      	mov	r1, sl
 80063b8:	00ca      	lsls	r2, r1, #3
 80063ba:	4610      	mov	r0, r2
 80063bc:	4619      	mov	r1, r3
 80063be:	4603      	mov	r3, r0
 80063c0:	4642      	mov	r2, r8
 80063c2:	189b      	adds	r3, r3, r2
 80063c4:	f8c7 30b0 	str.w	r3, [r7, #176]	@ 0xb0
 80063c8:	464b      	mov	r3, r9
 80063ca:	460a      	mov	r2, r1
 80063cc:	eb42 0303 	adc.w	r3, r2, r3
 80063d0:	f8c7 30b4 	str.w	r3, [r7, #180]	@ 0xb4
 80063d4:	f8d7 30f4 	ldr.w	r3, [r7, #244]	@ 0xf4
 80063d8:	685b      	ldr	r3, [r3, #4]
 80063da:	2200      	movs	r2, #0
 80063dc:	f8c7 30a8 	str.w	r3, [r7, #168]	@ 0xa8
 80063e0:	f8c7 20ac 	str.w	r2, [r7, #172]	@ 0xac
 80063e4:	e9d7 122a 	ldrd	r1, r2, [r7, #168]	@ 0xa8
 80063e8:	460b      	mov	r3, r1
 80063ea:	18db      	adds	r3, r3, r3
 80063ec:	62bb      	str	r3, [r7, #40]	@ 0x28
 80063ee:	4613      	mov	r3, r2
 80063f0:	eb42 0303 	adc.w	r3, r2, r3
 80063f4:	62fb      	str	r3, [r7, #44]	@ 0x2c
 80063f6:	e9d7 230a 	ldrd	r2, r3, [r7, #40]	@ 0x28
 80063fa:	e9d7 012c 	ldrd	r0, r1, [r7, #176]	@ 0xb0
 80063fe:	f7fa fc23 	bl	8000c48 <__aeabi_uldivmod>
 8006402:	4602      	mov	r2, r0
 8006404:	460b      	mov	r3, r1
 8006406:	4b0d      	ldr	r3, [pc, #52]	@ (800643c <UART_SetConfig+0x2d4>)
 8006408:	fba3 1302 	umull	r1, r3, r3, r2
 800640c:	095b      	lsrs	r3, r3, #5
 800640e:	2164      	movs	r1, #100	@ 0x64
 8006410:	fb01 f303 	mul.w	r3, r1, r3
 8006414:	1ad3      	subs	r3, r2, r3
 8006416:	00db      	lsls	r3, r3, #3
 8006418:	3332      	adds	r3, #50	@ 0x32
 800641a:	4a08      	ldr	r2, [pc, #32]	@ (800643c <UART_SetConfig+0x2d4>)
 800641c:	fba2 2303 	umull	r2, r3, r2, r3
 8006420:	095b      	lsrs	r3, r3, #5
 8006422:	f003 0207 	and.w	r2, r3, #7
 8006426:	f8d7 30f4 	ldr.w	r3, [r7, #244]	@ 0xf4
 800642a:	681b      	ldr	r3, [r3, #0]
 800642c:	4422      	add	r2, r4
 800642e:	609a      	str	r2, [r3, #8]
  }
  else
  {
    huart->Instance->BRR = UART_BRR_SAMPLING16(pclk, huart->Init.BaudRate);
  }
}
 8006430:	e106      	b.n	8006640 <UART_SetConfig+0x4d8>
 8006432:	bf00      	nop
 8006434:	40011000 	.word	0x40011000
 8006438:	40011400 	.word	0x40011400
 800643c:	51eb851f 	.word	0x51eb851f
    huart->Instance->BRR = UART_BRR_SAMPLING16(pclk, huart->Init.BaudRate);
 8006440:	f8d7 30fc 	ldr.w	r3, [r7, #252]	@ 0xfc
 8006444:	2200      	movs	r2, #0
 8006446:	f8c7 30a0 	str.w	r3, [r7, #160]	@ 0xa0
 800644a:	f8c7 20a4 	str.w	r2, [r7, #164]	@ 0xa4
 800644e:	e9d7 8928 	ldrd	r8, r9, [r7, #160]	@ 0xa0
 8006452:	4642      	mov	r2, r8
 8006454:	464b      	mov	r3, r9
 8006456:	1891      	adds	r1, r2, r2
 8006458:	6239      	str	r1, [r7, #32]
 800645a:	415b      	adcs	r3, r3
 800645c:	627b      	str	r3, [r7, #36]	@ 0x24
 800645e:	e9d7 2308 	ldrd	r2, r3, [r7, #32]
 8006462:	4641      	mov	r1, r8
 8006464:	1854      	adds	r4, r2, r1
 8006466:	4649      	mov	r1, r9
 8006468:	eb43 0501 	adc.w	r5, r3, r1
 800646c:	f04f 0200 	mov.w	r2, #0
 8006470:	f04f 0300 	mov.w	r3, #0
 8006474:	00eb      	lsls	r3, r5, #3
 8006476:	ea43 7354 	orr.w	r3, r3, r4, lsr #29
 800647a:	00e2      	lsls	r2, r4, #3
 800647c:	4614      	mov	r4, r2
 800647e:	461d      	mov	r5, r3
 8006480:	4643      	mov	r3, r8
 8006482:	18e3      	adds	r3, r4, r3
 8006484:	f8c7 3098 	str.w	r3, [r7, #152]	@ 0x98
 8006488:	464b      	mov	r3, r9
 800648a:	eb45 0303 	adc.w	r3, r5, r3
 800648e:	f8c7 309c 	str.w	r3, [r7, #156]	@ 0x9c
 8006492:	f8d7 30f4 	ldr.w	r3, [r7, #244]	@ 0xf4
 8006496:	685b      	ldr	r3, [r3, #4]
 8006498:	2200      	movs	r2, #0
 800649a:	f8c7 3090 	str.w	r3, [r7, #144]	@ 0x90
 800649e:	f8c7 2094 	str.w	r2, [r7, #148]	@ 0x94
 80064a2:	f04f 0200 	mov.w	r2, #0
 80064a6:	f04f 0300 	mov.w	r3, #0
 80064aa:	e9d7 4524 	ldrd	r4, r5, [r7, #144]	@ 0x90
 80064ae:	4629      	mov	r1, r5
 80064b0:	008b      	lsls	r3, r1, #2
 80064b2:	4621      	mov	r1, r4
 80064b4:	ea43 7391 	orr.w	r3, r3, r1, lsr #30
 80064b8:	4621      	mov	r1, r4
 80064ba:	008a      	lsls	r2, r1, #2
 80064bc:	e9d7 0126 	ldrd	r0, r1, [r7, #152]	@ 0x98
 80064c0:	f7fa fbc2 	bl	8000c48 <__aeabi_uldivmod>
 80064c4:	4602      	mov	r2, r0
 80064c6:	460b      	mov	r3, r1
 80064c8:	4b60      	ldr	r3, [pc, #384]	@ (800664c <UART_SetConfig+0x4e4>)
 80064ca:	fba3 2302 	umull	r2, r3, r3, r2
 80064ce:	095b      	lsrs	r3, r3, #5
 80064d0:	011c      	lsls	r4, r3, #4
 80064d2:	f8d7 30fc 	ldr.w	r3, [r7, #252]	@ 0xfc
 80064d6:	2200      	movs	r2, #0
 80064d8:	f8c7 3088 	str.w	r3, [r7, #136]	@ 0x88
 80064dc:	f8c7 208c 	str.w	r2, [r7, #140]	@ 0x8c
 80064e0:	e9d7 8922 	ldrd	r8, r9, [r7, #136]	@ 0x88
 80064e4:	4642      	mov	r2, r8
 80064e6:	464b      	mov	r3, r9
 80064e8:	1891      	adds	r1, r2, r2
 80064ea:	61b9      	str	r1, [r7, #24]
 80064ec:	415b      	adcs	r3, r3
 80064ee:	61fb      	str	r3, [r7, #28]
 80064f0:	e9d7 2306 	ldrd	r2, r3, [r7, #24]
 80064f4:	4641      	mov	r1, r8
 80064f6:	1851      	adds	r1, r2, r1
 80064f8:	6139      	str	r1, [r7, #16]
 80064fa:	4649      	mov	r1, r9
 80064fc:	414b      	adcs	r3, r1
 80064fe:	617b      	str	r3, [r7, #20]
 8006500:	f04f 0200 	mov.w	r2, #0
 8006504:	f04f 0300 	mov.w	r3, #0
 8006508:	e9d7 ab04 	ldrd	sl, fp, [r7, #16]
 800650c:	4659      	mov	r1, fp
 800650e:	00cb      	lsls	r3, r1, #3
 8006510:	4651      	mov	r1, sl
 8006512:	ea43 7351 	orr.w	r3, r3, r1, lsr #29
 8006516:	4651      	mov	r1, sl
 8006518:	00ca      	lsls	r2, r1, #3
 800651a:	4610      	mov	r0, r2
 800651c:	4619      	mov	r1, r3
 800651e:	4603      	mov	r3, r0
 8006520:	4642      	mov	r2, r8
 8006522:	189b      	adds	r3, r3, r2
 8006524:	f8c7 3080 	str.w	r3, [r7, #128]	@ 0x80
 8006528:	464b      	mov	r3, r9
 800652a:	460a      	mov	r2, r1
 800652c:	eb42 0303 	adc.w	r3, r2, r3
 8006530:	f8c7 3084 	str.w	r3, [r7, #132]	@ 0x84
 8006534:	f8d7 30f4 	ldr.w	r3, [r7, #244]	@ 0xf4
 8006538:	685b      	ldr	r3, [r3, #4]
 800653a:	2200      	movs	r2, #0
 800653c:	67bb      	str	r3, [r7, #120]	@ 0x78
 800653e:	67fa      	str	r2, [r7, #124]	@ 0x7c
 8006540:	f04f 0200 	mov.w	r2, #0
 8006544:	f04f 0300 	mov.w	r3, #0
 8006548:	e9d7 891e 	ldrd	r8, r9, [r7, #120]	@ 0x78
 800654c:	4649      	mov	r1, r9
 800654e:	008b      	lsls	r3, r1, #2
 8006550:	4641      	mov	r1, r8
 8006552:	ea43 7391 	orr.w	r3, r3, r1, lsr #30
 8006556:	4641      	mov	r1, r8
 8006558:	008a      	lsls	r2, r1, #2
 800655a:	e9d7 0120 	ldrd	r0, r1, [r7, #128]	@ 0x80
 800655e:	f7fa fb73 	bl	8000c48 <__aeabi_uldivmod>
 8006562:	4602      	mov	r2, r0
 8006564:	460b      	mov	r3, r1
 8006566:	4611      	mov	r1, r2
 8006568:	4b38      	ldr	r3, [pc, #224]	@ (800664c <UART_SetConfig+0x4e4>)
 800656a:	fba3 2301 	umull	r2, r3, r3, r1
 800656e:	095b      	lsrs	r3, r3, #5
 8006570:	2264      	movs	r2, #100	@ 0x64
 8006572:	fb02 f303 	mul.w	r3, r2, r3
 8006576:	1acb      	subs	r3, r1, r3
 8006578:	011b      	lsls	r3, r3, #4
 800657a:	3332      	adds	r3, #50	@ 0x32
 800657c:	4a33      	ldr	r2, [pc, #204]	@ (800664c <UART_SetConfig+0x4e4>)
 800657e:	fba2 2303 	umull	r2, r3, r2, r3
 8006582:	095b      	lsrs	r3, r3, #5
 8006584:	f003 03f0 	and.w	r3, r3, #240	@ 0xf0
 8006588:	441c      	add	r4, r3
 800658a:	f8d7 30fc 	ldr.w	r3, [r7, #252]	@ 0xfc
 800658e:	2200      	movs	r2, #0
 8006590:	673b      	str	r3, [r7, #112]	@ 0x70
 8006592:	677a      	str	r2, [r7, #116]	@ 0x74
 8006594:	e9d7 891c 	ldrd	r8, r9, [r7, #112]	@ 0x70
 8006598:	4642      	mov	r2, r8
 800659a:	464b      	mov	r3, r9
 800659c:	1891      	adds	r1, r2, r2
 800659e:	60b9      	str	r1, [r7, #8]
 80065a0:	415b      	adcs	r3, r3
 80065a2:	60fb      	str	r3, [r7, #12]
 80065a4:	e9d7 2302 	ldrd	r2, r3, [r7, #8]
 80065a8:	4641      	mov	r1, r8
 80065aa:	1851      	adds	r1, r2, r1
 80065ac:	6039      	str	r1, [r7, #0]
 80065ae:	4649      	mov	r1, r9
 80065b0:	414b      	adcs	r3, r1
 80065b2:	607b      	str	r3, [r7, #4]
 80065b4:	f04f 0200 	mov.w	r2, #0
 80065b8:	f04f 0300 	mov.w	r3, #0
 80065bc:	e9d7 ab00 	ldrd	sl, fp, [r7]
 80065c0:	4659      	mov	r1, fp
 80065c2:	00cb      	lsls	r3, r1, #3
 80065c4:	4651      	mov	r1, sl
 80065c6:	ea43 7351 	orr.w	r3, r3, r1, lsr #29
 80065ca:	4651      	mov	r1, sl
 80065cc:	00ca      	lsls	r2, r1, #3
 80065ce:	4610      	mov	r0, r2
 80065d0:	4619      	mov	r1, r3
 80065d2:	4603      	mov	r3, r0
 80065d4:	4642      	mov	r2, r8
 80065d6:	189b      	adds	r3, r3, r2
 80065d8:	66bb      	str	r3, [r7, #104]	@ 0x68
 80065da:	464b      	mov	r3, r9
 80065dc:	460a      	mov	r2, r1
 80065de:	eb42 0303 	adc.w	r3, r2, r3
 80065e2:	66fb      	str	r3, [r7, #108]	@ 0x6c
 80065e4:	f8d7 30f4 	ldr.w	r3, [r7, #244]	@ 0xf4
 80065e8:	685b      	ldr	r3, [r3, #4]
 80065ea:	2200      	movs	r2, #0
 80065ec:	663b      	str	r3, [r7, #96]	@ 0x60
 80065ee:	667a      	str	r2, [r7, #100]	@ 0x64
 80065f0:	f04f 0200 	mov.w	r2, #0
 80065f4:	f04f 0300 	mov.w	r3, #0
 80065f8:	e9d7 8918 	ldrd	r8, r9, [r7, #96]	@ 0x60
 80065fc:	4649      	mov	r1, r9
 80065fe:	008b      	lsls	r3, r1, #2
 8006600:	4641      	mov	r1, r8
 8006602:	ea43 7391 	orr.w	r3, r3, r1, lsr #30
 8006606:	4641      	mov	r1, r8
 8006608:	008a      	lsls	r2, r1, #2
 800660a:	e9d7 011a 	ldrd	r0, r1, [r7, #104]	@ 0x68
 800660e:	f7fa fb1b 	bl	8000c48 <__aeabi_uldivmod>
 8006612:	4602      	mov	r2, r0
 8006614:	460b      	mov	r3, r1
 8006616:	4b0d      	ldr	r3, [pc, #52]	@ (800664c <UART_SetConfig+0x4e4>)
 8006618:	fba3 1302 	umull	r1, r3, r3, r2
 800661c:	095b      	lsrs	r3, r3, #5
 800661e:	2164      	movs	r1, #100	@ 0x64
 8006620:	fb01 f303 	mul.w	r3, r1, r3
 8006624:	1ad3      	subs	r3, r2, r3
 8006626:	011b      	lsls	r3, r3, #4
 8006628:	3332      	adds	r3, #50	@ 0x32
 800662a:	4a08      	ldr	r2, [pc, #32]	@ (800664c <UART_SetConfig+0x4e4>)
 800662c:	fba2 2303 	umull	r2, r3, r2, r3
 8006630:	095b      	lsrs	r3, r3, #5
 8006632:	f003 020f 	and.w	r2, r3, #15
 8006636:	f8d7 30f4 	ldr.w	r3, [r7, #244]	@ 0xf4
 800663a:	681b      	ldr	r3, [r3, #0]
 800663c:	4422      	add	r2, r4
 800663e:	609a      	str	r2, [r3, #8]
}
 8006640:	bf00      	nop
 8006642:	f507 7780 	add.w	r7, r7, #256	@ 0x100
 8006646:	46bd      	mov	sp, r7
 8006648:	e8bd 8fb0 	ldmia.w	sp!, {r4, r5, r7, r8, r9, sl, fp, pc}
 800664c:	51eb851f 	.word	0x51eb851f

08006650 <__cvt>:
 8006650:	e92d 47ff 	stmdb	sp!, {r0, r1, r2, r3, r4, r5, r6, r7, r8, r9, sl, lr}
 8006654:	ec57 6b10 	vmov	r6, r7, d0
 8006658:	2f00      	cmp	r7, #0
 800665a:	460c      	mov	r4, r1
 800665c:	4619      	mov	r1, r3
 800665e:	463b      	mov	r3, r7
 8006660:	bfbb      	ittet	lt
 8006662:	f107 4300 	addlt.w	r3, r7, #2147483648	@ 0x80000000
 8006666:	461f      	movlt	r7, r3
 8006668:	2300      	movge	r3, #0
 800666a:	232d      	movlt	r3, #45	@ 0x2d
 800666c:	700b      	strb	r3, [r1, #0]
 800666e:	9b0d      	ldr	r3, [sp, #52]	@ 0x34
 8006670:	f8dd a030 	ldr.w	sl, [sp, #48]	@ 0x30
 8006674:	4691      	mov	r9, r2
 8006676:	f023 0820 	bic.w	r8, r3, #32
 800667a:	bfbc      	itt	lt
 800667c:	4632      	movlt	r2, r6
 800667e:	4616      	movlt	r6, r2
 8006680:	f1b8 0f46 	cmp.w	r8, #70	@ 0x46
 8006684:	d005      	beq.n	8006692 <__cvt+0x42>
 8006686:	f1b8 0f45 	cmp.w	r8, #69	@ 0x45
 800668a:	d100      	bne.n	800668e <__cvt+0x3e>
 800668c:	3401      	adds	r4, #1
 800668e:	2102      	movs	r1, #2
 8006690:	e000      	b.n	8006694 <__cvt+0x44>
 8006692:	2103      	movs	r1, #3
 8006694:	ab03      	add	r3, sp, #12
 8006696:	9301      	str	r3, [sp, #4]
 8006698:	ab02      	add	r3, sp, #8
 800669a:	9300      	str	r3, [sp, #0]
 800669c:	ec47 6b10 	vmov	d0, r6, r7
 80066a0:	4653      	mov	r3, sl
 80066a2:	4622      	mov	r2, r4
 80066a4:	f000 fe90 	bl	80073c8 <_dtoa_r>
 80066a8:	f1b8 0f47 	cmp.w	r8, #71	@ 0x47
 80066ac:	4605      	mov	r5, r0
 80066ae:	d119      	bne.n	80066e4 <__cvt+0x94>
 80066b0:	f019 0f01 	tst.w	r9, #1
 80066b4:	d00e      	beq.n	80066d4 <__cvt+0x84>
 80066b6:	eb00 0904 	add.w	r9, r0, r4
 80066ba:	2200      	movs	r2, #0
 80066bc:	2300      	movs	r3, #0
 80066be:	4630      	mov	r0, r6
 80066c0:	4639      	mov	r1, r7
 80066c2:	f7fa fa01 	bl	8000ac8 <__aeabi_dcmpeq>
 80066c6:	b108      	cbz	r0, 80066cc <__cvt+0x7c>
 80066c8:	f8cd 900c 	str.w	r9, [sp, #12]
 80066cc:	2230      	movs	r2, #48	@ 0x30
 80066ce:	9b03      	ldr	r3, [sp, #12]
 80066d0:	454b      	cmp	r3, r9
 80066d2:	d31e      	bcc.n	8006712 <__cvt+0xc2>
 80066d4:	9b03      	ldr	r3, [sp, #12]
 80066d6:	9a0e      	ldr	r2, [sp, #56]	@ 0x38
 80066d8:	1b5b      	subs	r3, r3, r5
 80066da:	4628      	mov	r0, r5
 80066dc:	6013      	str	r3, [r2, #0]
 80066de:	b004      	add	sp, #16
 80066e0:	e8bd 87f0 	ldmia.w	sp!, {r4, r5, r6, r7, r8, r9, sl, pc}
 80066e4:	f1b8 0f46 	cmp.w	r8, #70	@ 0x46
 80066e8:	eb00 0904 	add.w	r9, r0, r4
 80066ec:	d1e5      	bne.n	80066ba <__cvt+0x6a>
 80066ee:	7803      	ldrb	r3, [r0, #0]
 80066f0:	2b30      	cmp	r3, #48	@ 0x30
 80066f2:	d10a      	bne.n	800670a <__cvt+0xba>
 80066f4:	2200      	movs	r2, #0
 80066f6:	2300      	movs	r3, #0
 80066f8:	4630      	mov	r0, r6
 80066fa:	4639      	mov	r1, r7
 80066fc:	f7fa f9e4 	bl	8000ac8 <__aeabi_dcmpeq>
 8006700:	b918      	cbnz	r0, 800670a <__cvt+0xba>
 8006702:	f1c4 0401 	rsb	r4, r4, #1
 8006706:	f8ca 4000 	str.w	r4, [sl]
 800670a:	f8da 3000 	ldr.w	r3, [sl]
 800670e:	4499      	add	r9, r3
 8006710:	e7d3      	b.n	80066ba <__cvt+0x6a>
 8006712:	1c59      	adds	r1, r3, #1
 8006714:	9103      	str	r1, [sp, #12]
 8006716:	701a      	strb	r2, [r3, #0]
 8006718:	e7d9      	b.n	80066ce <__cvt+0x7e>

0800671a <__exponent>:
 800671a:	b5f7      	push	{r0, r1, r2, r4, r5, r6, r7, lr}
 800671c:	2900      	cmp	r1, #0
 800671e:	bfba      	itte	lt
 8006720:	4249      	neglt	r1, r1
 8006722:	232d      	movlt	r3, #45	@ 0x2d
 8006724:	232b      	movge	r3, #43	@ 0x2b
 8006726:	2909      	cmp	r1, #9
 8006728:	7002      	strb	r2, [r0, #0]
 800672a:	7043      	strb	r3, [r0, #1]
 800672c:	dd29      	ble.n	8006782 <__exponent+0x68>
 800672e:	f10d 0307 	add.w	r3, sp, #7
 8006732:	461d      	mov	r5, r3
 8006734:	270a      	movs	r7, #10
 8006736:	461a      	mov	r2, r3
 8006738:	fbb1 f6f7 	udiv	r6, r1, r7
 800673c:	fb07 1416 	mls	r4, r7, r6, r1
 8006740:	3430      	adds	r4, #48	@ 0x30
 8006742:	f802 4c01 	strb.w	r4, [r2, #-1]
 8006746:	460c      	mov	r4, r1
 8006748:	2c63      	cmp	r4, #99	@ 0x63
 800674a:	f103 33ff 	add.w	r3, r3, #4294967295
 800674e:	4631      	mov	r1, r6
 8006750:	dcf1      	bgt.n	8006736 <__exponent+0x1c>
 8006752:	3130      	adds	r1, #48	@ 0x30
 8006754:	1e94      	subs	r4, r2, #2
 8006756:	f803 1c01 	strb.w	r1, [r3, #-1]
 800675a:	1c41      	adds	r1, r0, #1
 800675c:	4623      	mov	r3, r4
 800675e:	42ab      	cmp	r3, r5
 8006760:	d30a      	bcc.n	8006778 <__exponent+0x5e>
 8006762:	f10d 0309 	add.w	r3, sp, #9
 8006766:	1a9b      	subs	r3, r3, r2
 8006768:	42ac      	cmp	r4, r5
 800676a:	bf88      	it	hi
 800676c:	2300      	movhi	r3, #0
 800676e:	3302      	adds	r3, #2
 8006770:	4403      	add	r3, r0
 8006772:	1a18      	subs	r0, r3, r0
 8006774:	b003      	add	sp, #12
 8006776:	bdf0      	pop	{r4, r5, r6, r7, pc}
 8006778:	f813 6b01 	ldrb.w	r6, [r3], #1
 800677c:	f801 6f01 	strb.w	r6, [r1, #1]!
 8006780:	e7ed      	b.n	800675e <__exponent+0x44>
 8006782:	2330      	movs	r3, #48	@ 0x30
 8006784:	3130      	adds	r1, #48	@ 0x30
 8006786:	7083      	strb	r3, [r0, #2]
 8006788:	70c1      	strb	r1, [r0, #3]
 800678a:	1d03      	adds	r3, r0, #4
 800678c:	e7f1      	b.n	8006772 <__exponent+0x58>
	...

08006790 <_printf_float>:
 8006790:	e92d 4ff0 	stmdb	sp!, {r4, r5, r6, r7, r8, r9, sl, fp, lr}
 8006794:	b08d      	sub	sp, #52	@ 0x34
 8006796:	460c      	mov	r4, r1
 8006798:	f8dd 8058 	ldr.w	r8, [sp, #88]	@ 0x58
 800679c:	4616      	mov	r6, r2
 800679e:	461f      	mov	r7, r3
 80067a0:	4605      	mov	r5, r0
 80067a2:	f000 fd0f 	bl	80071c4 <_localeconv_r>
 80067a6:	6803      	ldr	r3, [r0, #0]
 80067a8:	9304      	str	r3, [sp, #16]
 80067aa:	4618      	mov	r0, r3
 80067ac:	f7f9 fd60 	bl	8000270 <strlen>
 80067b0:	2300      	movs	r3, #0
 80067b2:	930a      	str	r3, [sp, #40]	@ 0x28
 80067b4:	f8d8 3000 	ldr.w	r3, [r8]
 80067b8:	9005      	str	r0, [sp, #20]
 80067ba:	3307      	adds	r3, #7
 80067bc:	f023 0307 	bic.w	r3, r3, #7
 80067c0:	f103 0208 	add.w	r2, r3, #8
 80067c4:	f894 a018 	ldrb.w	sl, [r4, #24]
 80067c8:	f8d4 b000 	ldr.w	fp, [r4]
 80067cc:	f8c8 2000 	str.w	r2, [r8]
 80067d0:	e9d3 8900 	ldrd	r8, r9, [r3]
 80067d4:	f029 4300 	bic.w	r3, r9, #2147483648	@ 0x80000000
 80067d8:	9307      	str	r3, [sp, #28]
 80067da:	f8cd 8018 	str.w	r8, [sp, #24]
 80067de:	e9c4 8912 	strd	r8, r9, [r4, #72]	@ 0x48
 80067e2:	e9dd 0106 	ldrd	r0, r1, [sp, #24]
 80067e6:	4b9c      	ldr	r3, [pc, #624]	@ (8006a58 <_printf_float+0x2c8>)
 80067e8:	f04f 32ff 	mov.w	r2, #4294967295
 80067ec:	f7fa f99e 	bl	8000b2c <__aeabi_dcmpun>
 80067f0:	bb70      	cbnz	r0, 8006850 <_printf_float+0xc0>
 80067f2:	e9dd 0106 	ldrd	r0, r1, [sp, #24]
 80067f6:	4b98      	ldr	r3, [pc, #608]	@ (8006a58 <_printf_float+0x2c8>)
 80067f8:	f04f 32ff 	mov.w	r2, #4294967295
 80067fc:	f7fa f978 	bl	8000af0 <__aeabi_dcmple>
 8006800:	bb30      	cbnz	r0, 8006850 <_printf_float+0xc0>
 8006802:	2200      	movs	r2, #0
 8006804:	2300      	movs	r3, #0
 8006806:	4640      	mov	r0, r8
 8006808:	4649      	mov	r1, r9
 800680a:	f7fa f967 	bl	8000adc <__aeabi_dcmplt>
 800680e:	b110      	cbz	r0, 8006816 <_printf_float+0x86>
 8006810:	232d      	movs	r3, #45	@ 0x2d
 8006812:	f884 3043 	strb.w	r3, [r4, #67]	@ 0x43
 8006816:	4a91      	ldr	r2, [pc, #580]	@ (8006a5c <_printf_float+0x2cc>)
 8006818:	4b91      	ldr	r3, [pc, #580]	@ (8006a60 <_printf_float+0x2d0>)
 800681a:	f1ba 0f47 	cmp.w	sl, #71	@ 0x47
 800681e:	bf94      	ite	ls
 8006820:	4690      	movls	r8, r2
 8006822:	4698      	movhi	r8, r3
 8006824:	2303      	movs	r3, #3
 8006826:	6123      	str	r3, [r4, #16]
 8006828:	f02b 0304 	bic.w	r3, fp, #4
 800682c:	6023      	str	r3, [r4, #0]
 800682e:	f04f 0900 	mov.w	r9, #0
 8006832:	9700      	str	r7, [sp, #0]
 8006834:	4633      	mov	r3, r6
 8006836:	aa0b      	add	r2, sp, #44	@ 0x2c
 8006838:	4621      	mov	r1, r4
 800683a:	4628      	mov	r0, r5
 800683c:	f000 f9d2 	bl	8006be4 <_printf_common>
 8006840:	3001      	adds	r0, #1
 8006842:	f040 808d 	bne.w	8006960 <_printf_float+0x1d0>
 8006846:	f04f 30ff 	mov.w	r0, #4294967295
 800684a:	b00d      	add	sp, #52	@ 0x34
 800684c:	e8bd 8ff0 	ldmia.w	sp!, {r4, r5, r6, r7, r8, r9, sl, fp, pc}
 8006850:	4642      	mov	r2, r8
 8006852:	464b      	mov	r3, r9
 8006854:	4640      	mov	r0, r8
 8006856:	4649      	mov	r1, r9
 8006858:	f7fa f968 	bl	8000b2c <__aeabi_dcmpun>
 800685c:	b140      	cbz	r0, 8006870 <_printf_float+0xe0>
 800685e:	464b      	mov	r3, r9
 8006860:	2b00      	cmp	r3, #0
 8006862:	bfbc      	itt	lt
 8006864:	232d      	movlt	r3, #45	@ 0x2d
 8006866:	f884 3043 	strblt.w	r3, [r4, #67]	@ 0x43
 800686a:	4a7e      	ldr	r2, [pc, #504]	@ (8006a64 <_printf_float+0x2d4>)
 800686c:	4b7e      	ldr	r3, [pc, #504]	@ (8006a68 <_printf_float+0x2d8>)
 800686e:	e7d4      	b.n	800681a <_printf_float+0x8a>
 8006870:	6863      	ldr	r3, [r4, #4]
 8006872:	f00a 02df 	and.w	r2, sl, #223	@ 0xdf
 8006876:	9206      	str	r2, [sp, #24]
 8006878:	1c5a      	adds	r2, r3, #1
 800687a:	d13b      	bne.n	80068f4 <_printf_float+0x164>
 800687c:	2306      	movs	r3, #6
 800687e:	6063      	str	r3, [r4, #4]
 8006880:	f44b 6280 	orr.w	r2, fp, #1024	@ 0x400
 8006884:	2300      	movs	r3, #0
 8006886:	6022      	str	r2, [r4, #0]
 8006888:	9303      	str	r3, [sp, #12]
 800688a:	ab0a      	add	r3, sp, #40	@ 0x28
 800688c:	e9cd a301 	strd	sl, r3, [sp, #4]
 8006890:	ab09      	add	r3, sp, #36	@ 0x24
 8006892:	9300      	str	r3, [sp, #0]
 8006894:	6861      	ldr	r1, [r4, #4]
 8006896:	ec49 8b10 	vmov	d0, r8, r9
 800689a:	f10d 0323 	add.w	r3, sp, #35	@ 0x23
 800689e:	4628      	mov	r0, r5
 80068a0:	f7ff fed6 	bl	8006650 <__cvt>
 80068a4:	9b06      	ldr	r3, [sp, #24]
 80068a6:	9909      	ldr	r1, [sp, #36]	@ 0x24
 80068a8:	2b47      	cmp	r3, #71	@ 0x47
 80068aa:	4680      	mov	r8, r0
 80068ac:	d129      	bne.n	8006902 <_printf_float+0x172>
 80068ae:	1cc8      	adds	r0, r1, #3
 80068b0:	db02      	blt.n	80068b8 <_printf_float+0x128>
 80068b2:	6863      	ldr	r3, [r4, #4]
 80068b4:	4299      	cmp	r1, r3
 80068b6:	dd41      	ble.n	800693c <_printf_float+0x1ac>
 80068b8:	f1aa 0a02 	sub.w	sl, sl, #2
 80068bc:	fa5f fa8a 	uxtb.w	sl, sl
 80068c0:	3901      	subs	r1, #1
 80068c2:	4652      	mov	r2, sl
 80068c4:	f104 0050 	add.w	r0, r4, #80	@ 0x50
 80068c8:	9109      	str	r1, [sp, #36]	@ 0x24
 80068ca:	f7ff ff26 	bl	800671a <__exponent>
 80068ce:	9a0a      	ldr	r2, [sp, #40]	@ 0x28
 80068d0:	1813      	adds	r3, r2, r0
 80068d2:	2a01      	cmp	r2, #1
 80068d4:	4681      	mov	r9, r0
 80068d6:	6123      	str	r3, [r4, #16]
 80068d8:	dc02      	bgt.n	80068e0 <_printf_float+0x150>
 80068da:	6822      	ldr	r2, [r4, #0]
 80068dc:	07d2      	lsls	r2, r2, #31
 80068de:	d501      	bpl.n	80068e4 <_printf_float+0x154>
 80068e0:	3301      	adds	r3, #1
 80068e2:	6123      	str	r3, [r4, #16]
 80068e4:	f89d 3023 	ldrb.w	r3, [sp, #35]	@ 0x23
 80068e8:	2b00      	cmp	r3, #0
 80068ea:	d0a2      	beq.n	8006832 <_printf_float+0xa2>
 80068ec:	232d      	movs	r3, #45	@ 0x2d
 80068ee:	f884 3043 	strb.w	r3, [r4, #67]	@ 0x43
 80068f2:	e79e      	b.n	8006832 <_printf_float+0xa2>
 80068f4:	9a06      	ldr	r2, [sp, #24]
 80068f6:	2a47      	cmp	r2, #71	@ 0x47
 80068f8:	d1c2      	bne.n	8006880 <_printf_float+0xf0>
 80068fa:	2b00      	cmp	r3, #0
 80068fc:	d1c0      	bne.n	8006880 <_printf_float+0xf0>
 80068fe:	2301      	movs	r3, #1
 8006900:	e7bd      	b.n	800687e <_printf_float+0xee>
 8006902:	f1ba 0f65 	cmp.w	sl, #101	@ 0x65
 8006906:	d9db      	bls.n	80068c0 <_printf_float+0x130>
 8006908:	f1ba 0f66 	cmp.w	sl, #102	@ 0x66
 800690c:	d118      	bne.n	8006940 <_printf_float+0x1b0>
 800690e:	2900      	cmp	r1, #0
 8006910:	6863      	ldr	r3, [r4, #4]
 8006912:	dd0b      	ble.n	800692c <_printf_float+0x19c>
 8006914:	6121      	str	r1, [r4, #16]
 8006916:	b913      	cbnz	r3, 800691e <_printf_float+0x18e>
 8006918:	6822      	ldr	r2, [r4, #0]
 800691a:	07d0      	lsls	r0, r2, #31
 800691c:	d502      	bpl.n	8006924 <_printf_float+0x194>
 800691e:	3301      	adds	r3, #1
 8006920:	440b      	add	r3, r1
 8006922:	6123      	str	r3, [r4, #16]
 8006924:	65a1      	str	r1, [r4, #88]	@ 0x58
 8006926:	f04f 0900 	mov.w	r9, #0
 800692a:	e7db      	b.n	80068e4 <_printf_float+0x154>
 800692c:	b913      	cbnz	r3, 8006934 <_printf_float+0x1a4>
 800692e:	6822      	ldr	r2, [r4, #0]
 8006930:	07d2      	lsls	r2, r2, #31
 8006932:	d501      	bpl.n	8006938 <_printf_float+0x1a8>
 8006934:	3302      	adds	r3, #2
 8006936:	e7f4      	b.n	8006922 <_printf_float+0x192>
 8006938:	2301      	movs	r3, #1
 800693a:	e7f2      	b.n	8006922 <_printf_float+0x192>
 800693c:	f04f 0a67 	mov.w	sl, #103	@ 0x67
 8006940:	9b0a      	ldr	r3, [sp, #40]	@ 0x28
 8006942:	4299      	cmp	r1, r3
 8006944:	db05      	blt.n	8006952 <_printf_float+0x1c2>
 8006946:	6823      	ldr	r3, [r4, #0]
 8006948:	6121      	str	r1, [r4, #16]
 800694a:	07d8      	lsls	r0, r3, #31
 800694c:	d5ea      	bpl.n	8006924 <_printf_float+0x194>
 800694e:	1c4b      	adds	r3, r1, #1
 8006950:	e7e7      	b.n	8006922 <_printf_float+0x192>
 8006952:	2900      	cmp	r1, #0
 8006954:	bfd4      	ite	le
 8006956:	f1c1 0202 	rsble	r2, r1, #2
 800695a:	2201      	movgt	r2, #1
 800695c:	4413      	add	r3, r2
 800695e:	e7e0      	b.n	8006922 <_printf_float+0x192>
 8006960:	6823      	ldr	r3, [r4, #0]
 8006962:	055a      	lsls	r2, r3, #21
 8006964:	d407      	bmi.n	8006976 <_printf_float+0x1e6>
 8006966:	6923      	ldr	r3, [r4, #16]
 8006968:	4642      	mov	r2, r8
 800696a:	4631      	mov	r1, r6
 800696c:	4628      	mov	r0, r5
 800696e:	47b8      	blx	r7
 8006970:	3001      	adds	r0, #1
 8006972:	d12b      	bne.n	80069cc <_printf_float+0x23c>
 8006974:	e767      	b.n	8006846 <_printf_float+0xb6>
 8006976:	f1ba 0f65 	cmp.w	sl, #101	@ 0x65
 800697a:	f240 80dd 	bls.w	8006b38 <_printf_float+0x3a8>
 800697e:	e9d4 0112 	ldrd	r0, r1, [r4, #72]	@ 0x48
 8006982:	2200      	movs	r2, #0
 8006984:	2300      	movs	r3, #0
 8006986:	f7fa f89f 	bl	8000ac8 <__aeabi_dcmpeq>
 800698a:	2800      	cmp	r0, #0
 800698c:	d033      	beq.n	80069f6 <_printf_float+0x266>
 800698e:	4a37      	ldr	r2, [pc, #220]	@ (8006a6c <_printf_float+0x2dc>)
 8006990:	2301      	movs	r3, #1
 8006992:	4631      	mov	r1, r6
 8006994:	4628      	mov	r0, r5
 8006996:	47b8      	blx	r7
 8006998:	3001      	adds	r0, #1
 800699a:	f43f af54 	beq.w	8006846 <_printf_float+0xb6>
 800699e:	e9dd 3809 	ldrd	r3, r8, [sp, #36]	@ 0x24
 80069a2:	4543      	cmp	r3, r8
 80069a4:	db02      	blt.n	80069ac <_printf_float+0x21c>
 80069a6:	6823      	ldr	r3, [r4, #0]
 80069a8:	07d8      	lsls	r0, r3, #31
 80069aa:	d50f      	bpl.n	80069cc <_printf_float+0x23c>
 80069ac:	e9dd 2304 	ldrd	r2, r3, [sp, #16]
 80069b0:	4631      	mov	r1, r6
 80069b2:	4628      	mov	r0, r5
 80069b4:	47b8      	blx	r7
 80069b6:	3001      	adds	r0, #1
 80069b8:	f43f af45 	beq.w	8006846 <_printf_float+0xb6>
 80069bc:	f04f 0900 	mov.w	r9, #0
 80069c0:	f108 38ff 	add.w	r8, r8, #4294967295
 80069c4:	f104 0a1a 	add.w	sl, r4, #26
 80069c8:	45c8      	cmp	r8, r9
 80069ca:	dc09      	bgt.n	80069e0 <_printf_float+0x250>
 80069cc:	6823      	ldr	r3, [r4, #0]
 80069ce:	079b      	lsls	r3, r3, #30
 80069d0:	f100 8103 	bmi.w	8006bda <_printf_float+0x44a>
 80069d4:	68e0      	ldr	r0, [r4, #12]
 80069d6:	9b0b      	ldr	r3, [sp, #44]	@ 0x2c
 80069d8:	4298      	cmp	r0, r3
 80069da:	bfb8      	it	lt
 80069dc:	4618      	movlt	r0, r3
 80069de:	e734      	b.n	800684a <_printf_float+0xba>
 80069e0:	2301      	movs	r3, #1
 80069e2:	4652      	mov	r2, sl
 80069e4:	4631      	mov	r1, r6
 80069e6:	4628      	mov	r0, r5
 80069e8:	47b8      	blx	r7
 80069ea:	3001      	adds	r0, #1
 80069ec:	f43f af2b 	beq.w	8006846 <_printf_float+0xb6>
 80069f0:	f109 0901 	add.w	r9, r9, #1
 80069f4:	e7e8      	b.n	80069c8 <_printf_float+0x238>
 80069f6:	9b09      	ldr	r3, [sp, #36]	@ 0x24
 80069f8:	2b00      	cmp	r3, #0
 80069fa:	dc39      	bgt.n	8006a70 <_printf_float+0x2e0>
 80069fc:	4a1b      	ldr	r2, [pc, #108]	@ (8006a6c <_printf_float+0x2dc>)
 80069fe:	2301      	movs	r3, #1
 8006a00:	4631      	mov	r1, r6
 8006a02:	4628      	mov	r0, r5
 8006a04:	47b8      	blx	r7
 8006a06:	3001      	adds	r0, #1
 8006a08:	f43f af1d 	beq.w	8006846 <_printf_float+0xb6>
 8006a0c:	e9dd 3909 	ldrd	r3, r9, [sp, #36]	@ 0x24
 8006a10:	ea59 0303 	orrs.w	r3, r9, r3
 8006a14:	d102      	bne.n	8006a1c <_printf_float+0x28c>
 8006a16:	6823      	ldr	r3, [r4, #0]
 8006a18:	07d9      	lsls	r1, r3, #31
 8006a1a:	d5d7      	bpl.n	80069cc <_printf_float+0x23c>
 8006a1c:	e9dd 2304 	ldrd	r2, r3, [sp, #16]
 8006a20:	4631      	mov	r1, r6
 8006a22:	4628      	mov	r0, r5
 8006a24:	47b8      	blx	r7
 8006a26:	3001      	adds	r0, #1
 8006a28:	f43f af0d 	beq.w	8006846 <_printf_float+0xb6>
 8006a2c:	f04f 0a00 	mov.w	sl, #0
 8006a30:	f104 0b1a 	add.w	fp, r4, #26
 8006a34:	9b09      	ldr	r3, [sp, #36]	@ 0x24
 8006a36:	425b      	negs	r3, r3
 8006a38:	4553      	cmp	r3, sl
 8006a3a:	dc01      	bgt.n	8006a40 <_printf_float+0x2b0>
 8006a3c:	464b      	mov	r3, r9
 8006a3e:	e793      	b.n	8006968 <_printf_float+0x1d8>
 8006a40:	2301      	movs	r3, #1
 8006a42:	465a      	mov	r2, fp
 8006a44:	4631      	mov	r1, r6
 8006a46:	4628      	mov	r0, r5
 8006a48:	47b8      	blx	r7
 8006a4a:	3001      	adds	r0, #1
 8006a4c:	f43f aefb 	beq.w	8006846 <_printf_float+0xb6>
 8006a50:	f10a 0a01 	add.w	sl, sl, #1
 8006a54:	e7ee      	b.n	8006a34 <_printf_float+0x2a4>
 8006a56:	bf00      	nop
 8006a58:	7fefffff 	.word	0x7fefffff
 8006a5c:	080093c8 	.word	0x080093c8
 8006a60:	080093cc 	.word	0x080093cc
 8006a64:	080093d0 	.word	0x080093d0
 8006a68:	080093d4 	.word	0x080093d4
 8006a6c:	080093d8 	.word	0x080093d8
 8006a70:	6da3      	ldr	r3, [r4, #88]	@ 0x58
 8006a72:	f8dd a028 	ldr.w	sl, [sp, #40]	@ 0x28
 8006a76:	4553      	cmp	r3, sl
 8006a78:	bfa8      	it	ge
 8006a7a:	4653      	movge	r3, sl
 8006a7c:	2b00      	cmp	r3, #0
 8006a7e:	4699      	mov	r9, r3
 8006a80:	dc36      	bgt.n	8006af0 <_printf_float+0x360>
 8006a82:	f04f 0b00 	mov.w	fp, #0
 8006a86:	ea29 79e9 	bic.w	r9, r9, r9, asr #31
 8006a8a:	f104 021a 	add.w	r2, r4, #26
 8006a8e:	6da3      	ldr	r3, [r4, #88]	@ 0x58
 8006a90:	9306      	str	r3, [sp, #24]
 8006a92:	eba3 0309 	sub.w	r3, r3, r9
 8006a96:	455b      	cmp	r3, fp
 8006a98:	dc31      	bgt.n	8006afe <_printf_float+0x36e>
 8006a9a:	9b09      	ldr	r3, [sp, #36]	@ 0x24
 8006a9c:	459a      	cmp	sl, r3
 8006a9e:	dc3a      	bgt.n	8006b16 <_printf_float+0x386>
 8006aa0:	6823      	ldr	r3, [r4, #0]
 8006aa2:	07da      	lsls	r2, r3, #31
 8006aa4:	d437      	bmi.n	8006b16 <_printf_float+0x386>
 8006aa6:	9b09      	ldr	r3, [sp, #36]	@ 0x24
 8006aa8:	ebaa 0903 	sub.w	r9, sl, r3
 8006aac:	9b06      	ldr	r3, [sp, #24]
 8006aae:	ebaa 0303 	sub.w	r3, sl, r3
 8006ab2:	4599      	cmp	r9, r3
 8006ab4:	bfa8      	it	ge
 8006ab6:	4699      	movge	r9, r3
 8006ab8:	f1b9 0f00 	cmp.w	r9, #0
 8006abc:	dc33      	bgt.n	8006b26 <_printf_float+0x396>
 8006abe:	f04f 0800 	mov.w	r8, #0
 8006ac2:	ea29 79e9 	bic.w	r9, r9, r9, asr #31
 8006ac6:	f104 0b1a 	add.w	fp, r4, #26
 8006aca:	9b09      	ldr	r3, [sp, #36]	@ 0x24
 8006acc:	ebaa 0303 	sub.w	r3, sl, r3
 8006ad0:	eba3 0309 	sub.w	r3, r3, r9
 8006ad4:	4543      	cmp	r3, r8
 8006ad6:	f77f af79 	ble.w	80069cc <_printf_float+0x23c>
 8006ada:	2301      	movs	r3, #1
 8006adc:	465a      	mov	r2, fp
 8006ade:	4631      	mov	r1, r6
 8006ae0:	4628      	mov	r0, r5
 8006ae2:	47b8      	blx	r7
 8006ae4:	3001      	adds	r0, #1
 8006ae6:	f43f aeae 	beq.w	8006846 <_printf_float+0xb6>
 8006aea:	f108 0801 	add.w	r8, r8, #1
 8006aee:	e7ec      	b.n	8006aca <_printf_float+0x33a>
 8006af0:	4642      	mov	r2, r8
 8006af2:	4631      	mov	r1, r6
 8006af4:	4628      	mov	r0, r5
 8006af6:	47b8      	blx	r7
 8006af8:	3001      	adds	r0, #1
 8006afa:	d1c2      	bne.n	8006a82 <_printf_float+0x2f2>
 8006afc:	e6a3      	b.n	8006846 <_printf_float+0xb6>
 8006afe:	2301      	movs	r3, #1
 8006b00:	4631      	mov	r1, r6
 8006b02:	4628      	mov	r0, r5
 8006b04:	9206      	str	r2, [sp, #24]
 8006b06:	47b8      	blx	r7
 8006b08:	3001      	adds	r0, #1
 8006b0a:	f43f ae9c 	beq.w	8006846 <_printf_float+0xb6>
 8006b0e:	9a06      	ldr	r2, [sp, #24]
 8006b10:	f10b 0b01 	add.w	fp, fp, #1
 8006b14:	e7bb      	b.n	8006a8e <_printf_float+0x2fe>
 8006b16:	e9dd 2304 	ldrd	r2, r3, [sp, #16]
 8006b1a:	4631      	mov	r1, r6
 8006b1c:	4628      	mov	r0, r5
 8006b1e:	47b8      	blx	r7
 8006b20:	3001      	adds	r0, #1
 8006b22:	d1c0      	bne.n	8006aa6 <_printf_float+0x316>
 8006b24:	e68f      	b.n	8006846 <_printf_float+0xb6>
 8006b26:	9a06      	ldr	r2, [sp, #24]
 8006b28:	464b      	mov	r3, r9
 8006b2a:	4442      	add	r2, r8
 8006b2c:	4631      	mov	r1, r6
 8006b2e:	4628      	mov	r0, r5
 8006b30:	47b8      	blx	r7
 8006b32:	3001      	adds	r0, #1
 8006b34:	d1c3      	bne.n	8006abe <_printf_float+0x32e>
 8006b36:	e686      	b.n	8006846 <_printf_float+0xb6>
 8006b38:	f8dd a028 	ldr.w	sl, [sp, #40]	@ 0x28
 8006b3c:	f1ba 0f01 	cmp.w	sl, #1
 8006b40:	dc01      	bgt.n	8006b46 <_printf_float+0x3b6>
 8006b42:	07db      	lsls	r3, r3, #31
 8006b44:	d536      	bpl.n	8006bb4 <_printf_float+0x424>
 8006b46:	2301      	movs	r3, #1
 8006b48:	4642      	mov	r2, r8
 8006b4a:	4631      	mov	r1, r6
 8006b4c:	4628      	mov	r0, r5
 8006b4e:	47b8      	blx	r7
 8006b50:	3001      	adds	r0, #1
 8006b52:	f43f ae78 	beq.w	8006846 <_printf_float+0xb6>
 8006b56:	e9dd 2304 	ldrd	r2, r3, [sp, #16]
 8006b5a:	4631      	mov	r1, r6
 8006b5c:	4628      	mov	r0, r5
 8006b5e:	47b8      	blx	r7
 8006b60:	3001      	adds	r0, #1
 8006b62:	f43f ae70 	beq.w	8006846 <_printf_float+0xb6>
 8006b66:	e9d4 0112 	ldrd	r0, r1, [r4, #72]	@ 0x48
 8006b6a:	2200      	movs	r2, #0
 8006b6c:	2300      	movs	r3, #0
 8006b6e:	f10a 3aff 	add.w	sl, sl, #4294967295
 8006b72:	f7f9 ffa9 	bl	8000ac8 <__aeabi_dcmpeq>
 8006b76:	b9c0      	cbnz	r0, 8006baa <_printf_float+0x41a>
 8006b78:	4653      	mov	r3, sl
 8006b7a:	f108 0201 	add.w	r2, r8, #1
 8006b7e:	4631      	mov	r1, r6
 8006b80:	4628      	mov	r0, r5
 8006b82:	47b8      	blx	r7
 8006b84:	3001      	adds	r0, #1
 8006b86:	d10c      	bne.n	8006ba2 <_printf_float+0x412>
 8006b88:	e65d      	b.n	8006846 <_printf_float+0xb6>
 8006b8a:	2301      	movs	r3, #1
 8006b8c:	465a      	mov	r2, fp
 8006b8e:	4631      	mov	r1, r6
 8006b90:	4628      	mov	r0, r5
 8006b92:	47b8      	blx	r7
 8006b94:	3001      	adds	r0, #1
 8006b96:	f43f ae56 	beq.w	8006846 <_printf_float+0xb6>
 8006b9a:	f108 0801 	add.w	r8, r8, #1
 8006b9e:	45d0      	cmp	r8, sl
 8006ba0:	dbf3      	blt.n	8006b8a <_printf_float+0x3fa>
 8006ba2:	464b      	mov	r3, r9
 8006ba4:	f104 0250 	add.w	r2, r4, #80	@ 0x50
 8006ba8:	e6df      	b.n	800696a <_printf_float+0x1da>
 8006baa:	f04f 0800 	mov.w	r8, #0
 8006bae:	f104 0b1a 	add.w	fp, r4, #26
 8006bb2:	e7f4      	b.n	8006b9e <_printf_float+0x40e>
 8006bb4:	2301      	movs	r3, #1
 8006bb6:	4642      	mov	r2, r8
 8006bb8:	e7e1      	b.n	8006b7e <_printf_float+0x3ee>
 8006bba:	2301      	movs	r3, #1
 8006bbc:	464a      	mov	r2, r9
 8006bbe:	4631      	mov	r1, r6
 8006bc0:	4628      	mov	r0, r5
 8006bc2:	47b8      	blx	r7
 8006bc4:	3001      	adds	r0, #1
 8006bc6:	f43f ae3e 	beq.w	8006846 <_printf_float+0xb6>
 8006bca:	f108 0801 	add.w	r8, r8, #1
 8006bce:	68e3      	ldr	r3, [r4, #12]
 8006bd0:	990b      	ldr	r1, [sp, #44]	@ 0x2c
 8006bd2:	1a5b      	subs	r3, r3, r1
 8006bd4:	4543      	cmp	r3, r8
 8006bd6:	dcf0      	bgt.n	8006bba <_printf_float+0x42a>
 8006bd8:	e6fc      	b.n	80069d4 <_printf_float+0x244>
 8006bda:	f04f 0800 	mov.w	r8, #0
 8006bde:	f104 0919 	add.w	r9, r4, #25
 8006be2:	e7f4      	b.n	8006bce <_printf_float+0x43e>

08006be4 <_printf_common>:
 8006be4:	e92d 47f0 	stmdb	sp!, {r4, r5, r6, r7, r8, r9, sl, lr}
 8006be8:	4616      	mov	r6, r2
 8006bea:	4698      	mov	r8, r3
 8006bec:	688a      	ldr	r2, [r1, #8]
 8006bee:	690b      	ldr	r3, [r1, #16]
 8006bf0:	f8dd 9020 	ldr.w	r9, [sp, #32]
 8006bf4:	4293      	cmp	r3, r2
 8006bf6:	bfb8      	it	lt
 8006bf8:	4613      	movlt	r3, r2
 8006bfa:	6033      	str	r3, [r6, #0]
 8006bfc:	f891 2043 	ldrb.w	r2, [r1, #67]	@ 0x43
 8006c00:	4607      	mov	r7, r0
 8006c02:	460c      	mov	r4, r1
 8006c04:	b10a      	cbz	r2, 8006c0a <_printf_common+0x26>
 8006c06:	3301      	adds	r3, #1
 8006c08:	6033      	str	r3, [r6, #0]
 8006c0a:	6823      	ldr	r3, [r4, #0]
 8006c0c:	0699      	lsls	r1, r3, #26
 8006c0e:	bf42      	ittt	mi
 8006c10:	6833      	ldrmi	r3, [r6, #0]
 8006c12:	3302      	addmi	r3, #2
 8006c14:	6033      	strmi	r3, [r6, #0]
 8006c16:	6825      	ldr	r5, [r4, #0]
 8006c18:	f015 0506 	ands.w	r5, r5, #6
 8006c1c:	d106      	bne.n	8006c2c <_printf_common+0x48>
 8006c1e:	f104 0a19 	add.w	sl, r4, #25
 8006c22:	68e3      	ldr	r3, [r4, #12]
 8006c24:	6832      	ldr	r2, [r6, #0]
 8006c26:	1a9b      	subs	r3, r3, r2
 8006c28:	42ab      	cmp	r3, r5
 8006c2a:	dc26      	bgt.n	8006c7a <_printf_common+0x96>
 8006c2c:	f894 3043 	ldrb.w	r3, [r4, #67]	@ 0x43
 8006c30:	6822      	ldr	r2, [r4, #0]
 8006c32:	3b00      	subs	r3, #0
 8006c34:	bf18      	it	ne
 8006c36:	2301      	movne	r3, #1
 8006c38:	0692      	lsls	r2, r2, #26
 8006c3a:	d42b      	bmi.n	8006c94 <_printf_common+0xb0>
 8006c3c:	f104 0243 	add.w	r2, r4, #67	@ 0x43
 8006c40:	4641      	mov	r1, r8
 8006c42:	4638      	mov	r0, r7
 8006c44:	47c8      	blx	r9
 8006c46:	3001      	adds	r0, #1
 8006c48:	d01e      	beq.n	8006c88 <_printf_common+0xa4>
 8006c4a:	6823      	ldr	r3, [r4, #0]
 8006c4c:	6922      	ldr	r2, [r4, #16]
 8006c4e:	f003 0306 	and.w	r3, r3, #6
 8006c52:	2b04      	cmp	r3, #4
 8006c54:	bf02      	ittt	eq
 8006c56:	68e5      	ldreq	r5, [r4, #12]
 8006c58:	6833      	ldreq	r3, [r6, #0]
 8006c5a:	1aed      	subeq	r5, r5, r3
 8006c5c:	68a3      	ldr	r3, [r4, #8]
 8006c5e:	bf0c      	ite	eq
 8006c60:	ea25 75e5 	biceq.w	r5, r5, r5, asr #31
 8006c64:	2500      	movne	r5, #0
 8006c66:	4293      	cmp	r3, r2
 8006c68:	bfc4      	itt	gt
 8006c6a:	1a9b      	subgt	r3, r3, r2
 8006c6c:	18ed      	addgt	r5, r5, r3
 8006c6e:	2600      	movs	r6, #0
 8006c70:	341a      	adds	r4, #26
 8006c72:	42b5      	cmp	r5, r6
 8006c74:	d11a      	bne.n	8006cac <_printf_common+0xc8>
 8006c76:	2000      	movs	r0, #0
 8006c78:	e008      	b.n	8006c8c <_printf_common+0xa8>
 8006c7a:	2301      	movs	r3, #1
 8006c7c:	4652      	mov	r2, sl
 8006c7e:	4641      	mov	r1, r8
 8006c80:	4638      	mov	r0, r7
 8006c82:	47c8      	blx	r9
 8006c84:	3001      	adds	r0, #1
 8006c86:	d103      	bne.n	8006c90 <_printf_common+0xac>
 8006c88:	f04f 30ff 	mov.w	r0, #4294967295
 8006c8c:	e8bd 87f0 	ldmia.w	sp!, {r4, r5, r6, r7, r8, r9, sl, pc}
 8006c90:	3501      	adds	r5, #1
 8006c92:	e7c6      	b.n	8006c22 <_printf_common+0x3e>
 8006c94:	18e1      	adds	r1, r4, r3
 8006c96:	1c5a      	adds	r2, r3, #1
 8006c98:	2030      	movs	r0, #48	@ 0x30
 8006c9a:	f881 0043 	strb.w	r0, [r1, #67]	@ 0x43
 8006c9e:	4422      	add	r2, r4
 8006ca0:	f894 1045 	ldrb.w	r1, [r4, #69]	@ 0x45
 8006ca4:	f882 1043 	strb.w	r1, [r2, #67]	@ 0x43
 8006ca8:	3302      	adds	r3, #2
 8006caa:	e7c7      	b.n	8006c3c <_printf_common+0x58>
 8006cac:	2301      	movs	r3, #1
 8006cae:	4622      	mov	r2, r4
 8006cb0:	4641      	mov	r1, r8
 8006cb2:	4638      	mov	r0, r7
 8006cb4:	47c8      	blx	r9
 8006cb6:	3001      	adds	r0, #1
 8006cb8:	d0e6      	beq.n	8006c88 <_printf_common+0xa4>
 8006cba:	3601      	adds	r6, #1
 8006cbc:	e7d9      	b.n	8006c72 <_printf_common+0x8e>
	...

08006cc0 <_printf_i>:
 8006cc0:	e92d 47ff 	stmdb	sp!, {r0, r1, r2, r3, r4, r5, r6, r7, r8, r9, sl, lr}
 8006cc4:	7e0f      	ldrb	r7, [r1, #24]
 8006cc6:	9e0c      	ldr	r6, [sp, #48]	@ 0x30
 8006cc8:	2f78      	cmp	r7, #120	@ 0x78
 8006cca:	4691      	mov	r9, r2
 8006ccc:	4680      	mov	r8, r0
 8006cce:	460c      	mov	r4, r1
 8006cd0:	469a      	mov	sl, r3
 8006cd2:	f101 0243 	add.w	r2, r1, #67	@ 0x43
 8006cd6:	d807      	bhi.n	8006ce8 <_printf_i+0x28>
 8006cd8:	2f62      	cmp	r7, #98	@ 0x62
 8006cda:	d80a      	bhi.n	8006cf2 <_printf_i+0x32>
 8006cdc:	2f00      	cmp	r7, #0
 8006cde:	f000 80d2 	beq.w	8006e86 <_printf_i+0x1c6>
 8006ce2:	2f58      	cmp	r7, #88	@ 0x58
 8006ce4:	f000 80b9 	beq.w	8006e5a <_printf_i+0x19a>
 8006ce8:	f104 0642 	add.w	r6, r4, #66	@ 0x42
 8006cec:	f884 7042 	strb.w	r7, [r4, #66]	@ 0x42
 8006cf0:	e03a      	b.n	8006d68 <_printf_i+0xa8>
 8006cf2:	f1a7 0363 	sub.w	r3, r7, #99	@ 0x63
 8006cf6:	2b15      	cmp	r3, #21
 8006cf8:	d8f6      	bhi.n	8006ce8 <_printf_i+0x28>
 8006cfa:	a101      	add	r1, pc, #4	@ (adr r1, 8006d00 <_printf_i+0x40>)
 8006cfc:	f851 f023 	ldr.w	pc, [r1, r3, lsl #2]
 8006d00:	08006d59 	.word	0x08006d59
 8006d04:	08006d6d 	.word	0x08006d6d
 8006d08:	08006ce9 	.word	0x08006ce9
 8006d0c:	08006ce9 	.word	0x08006ce9
 8006d10:	08006ce9 	.word	0x08006ce9
 8006d14:	08006ce9 	.word	0x08006ce9
 8006d18:	08006d6d 	.word	0x08006d6d
 8006d1c:	08006ce9 	.word	0x08006ce9
 8006d20:	08006ce9 	.word	0x08006ce9
 8006d24:	08006ce9 	.word	0x08006ce9
 8006d28:	08006ce9 	.word	0x08006ce9
 8006d2c:	08006e6d 	.word	0x08006e6d
 8006d30:	08006d97 	.word	0x08006d97
 8006d34:	08006e27 	.word	0x08006e27
 8006d38:	08006ce9 	.word	0x08006ce9
 8006d3c:	08006ce9 	.word	0x08006ce9
 8006d40:	08006e8f 	.word	0x08006e8f
 8006d44:	08006ce9 	.word	0x08006ce9
 8006d48:	08006d97 	.word	0x08006d97
 8006d4c:	08006ce9 	.word	0x08006ce9
 8006d50:	08006ce9 	.word	0x08006ce9
 8006d54:	08006e2f 	.word	0x08006e2f
 8006d58:	6833      	ldr	r3, [r6, #0]
 8006d5a:	1d1a      	adds	r2, r3, #4
 8006d5c:	681b      	ldr	r3, [r3, #0]
 8006d5e:	6032      	str	r2, [r6, #0]
 8006d60:	f104 0642 	add.w	r6, r4, #66	@ 0x42
 8006d64:	f884 3042 	strb.w	r3, [r4, #66]	@ 0x42
 8006d68:	2301      	movs	r3, #1
 8006d6a:	e09d      	b.n	8006ea8 <_printf_i+0x1e8>
 8006d6c:	6833      	ldr	r3, [r6, #0]
 8006d6e:	6820      	ldr	r0, [r4, #0]
 8006d70:	1d19      	adds	r1, r3, #4
 8006d72:	6031      	str	r1, [r6, #0]
 8006d74:	0606      	lsls	r6, r0, #24
 8006d76:	d501      	bpl.n	8006d7c <_printf_i+0xbc>
 8006d78:	681d      	ldr	r5, [r3, #0]
 8006d7a:	e003      	b.n	8006d84 <_printf_i+0xc4>
 8006d7c:	0645      	lsls	r5, r0, #25
 8006d7e:	d5fb      	bpl.n	8006d78 <_printf_i+0xb8>
 8006d80:	f9b3 5000 	ldrsh.w	r5, [r3]
 8006d84:	2d00      	cmp	r5, #0
 8006d86:	da03      	bge.n	8006d90 <_printf_i+0xd0>
 8006d88:	232d      	movs	r3, #45	@ 0x2d
 8006d8a:	426d      	negs	r5, r5
 8006d8c:	f884 3043 	strb.w	r3, [r4, #67]	@ 0x43
 8006d90:	4859      	ldr	r0, [pc, #356]	@ (8006ef8 <_printf_i+0x238>)
 8006d92:	230a      	movs	r3, #10
 8006d94:	e011      	b.n	8006dba <_printf_i+0xfa>
 8006d96:	6821      	ldr	r1, [r4, #0]
 8006d98:	6833      	ldr	r3, [r6, #0]
 8006d9a:	0608      	lsls	r0, r1, #24
 8006d9c:	f853 5b04 	ldr.w	r5, [r3], #4
 8006da0:	d402      	bmi.n	8006da8 <_printf_i+0xe8>
 8006da2:	0649      	lsls	r1, r1, #25
 8006da4:	bf48      	it	mi
 8006da6:	b2ad      	uxthmi	r5, r5
 8006da8:	2f6f      	cmp	r7, #111	@ 0x6f
 8006daa:	4853      	ldr	r0, [pc, #332]	@ (8006ef8 <_printf_i+0x238>)
 8006dac:	6033      	str	r3, [r6, #0]
 8006dae:	bf14      	ite	ne
 8006db0:	230a      	movne	r3, #10
 8006db2:	2308      	moveq	r3, #8
 8006db4:	2100      	movs	r1, #0
 8006db6:	f884 1043 	strb.w	r1, [r4, #67]	@ 0x43
 8006dba:	6866      	ldr	r6, [r4, #4]
 8006dbc:	60a6      	str	r6, [r4, #8]
 8006dbe:	2e00      	cmp	r6, #0
 8006dc0:	bfa2      	ittt	ge
 8006dc2:	6821      	ldrge	r1, [r4, #0]
 8006dc4:	f021 0104 	bicge.w	r1, r1, #4
 8006dc8:	6021      	strge	r1, [r4, #0]
 8006dca:	b90d      	cbnz	r5, 8006dd0 <_printf_i+0x110>
 8006dcc:	2e00      	cmp	r6, #0
 8006dce:	d04b      	beq.n	8006e68 <_printf_i+0x1a8>
 8006dd0:	4616      	mov	r6, r2
 8006dd2:	fbb5 f1f3 	udiv	r1, r5, r3
 8006dd6:	fb03 5711 	mls	r7, r3, r1, r5
 8006dda:	5dc7      	ldrb	r7, [r0, r7]
 8006ddc:	f806 7d01 	strb.w	r7, [r6, #-1]!
 8006de0:	462f      	mov	r7, r5
 8006de2:	42bb      	cmp	r3, r7
 8006de4:	460d      	mov	r5, r1
 8006de6:	d9f4      	bls.n	8006dd2 <_printf_i+0x112>
 8006de8:	2b08      	cmp	r3, #8
 8006dea:	d10b      	bne.n	8006e04 <_printf_i+0x144>
 8006dec:	6823      	ldr	r3, [r4, #0]
 8006dee:	07df      	lsls	r7, r3, #31
 8006df0:	d508      	bpl.n	8006e04 <_printf_i+0x144>
 8006df2:	6923      	ldr	r3, [r4, #16]
 8006df4:	6861      	ldr	r1, [r4, #4]
 8006df6:	4299      	cmp	r1, r3
 8006df8:	bfde      	ittt	le
 8006dfa:	2330      	movle	r3, #48	@ 0x30
 8006dfc:	f806 3c01 	strble.w	r3, [r6, #-1]
 8006e00:	f106 36ff 	addle.w	r6, r6, #4294967295
 8006e04:	1b92      	subs	r2, r2, r6
 8006e06:	6122      	str	r2, [r4, #16]
 8006e08:	f8cd a000 	str.w	sl, [sp]
 8006e0c:	464b      	mov	r3, r9
 8006e0e:	aa03      	add	r2, sp, #12
 8006e10:	4621      	mov	r1, r4
 8006e12:	4640      	mov	r0, r8
 8006e14:	f7ff fee6 	bl	8006be4 <_printf_common>
 8006e18:	3001      	adds	r0, #1
 8006e1a:	d14a      	bne.n	8006eb2 <_printf_i+0x1f2>
 8006e1c:	f04f 30ff 	mov.w	r0, #4294967295
 8006e20:	b004      	add	sp, #16
 8006e22:	e8bd 87f0 	ldmia.w	sp!, {r4, r5, r6, r7, r8, r9, sl, pc}
 8006e26:	6823      	ldr	r3, [r4, #0]
 8006e28:	f043 0320 	orr.w	r3, r3, #32
 8006e2c:	6023      	str	r3, [r4, #0]
 8006e2e:	4833      	ldr	r0, [pc, #204]	@ (8006efc <_printf_i+0x23c>)
 8006e30:	2778      	movs	r7, #120	@ 0x78
 8006e32:	f884 7045 	strb.w	r7, [r4, #69]	@ 0x45
 8006e36:	6823      	ldr	r3, [r4, #0]
 8006e38:	6831      	ldr	r1, [r6, #0]
 8006e3a:	061f      	lsls	r7, r3, #24
 8006e3c:	f851 5b04 	ldr.w	r5, [r1], #4
 8006e40:	d402      	bmi.n	8006e48 <_printf_i+0x188>
 8006e42:	065f      	lsls	r7, r3, #25
 8006e44:	bf48      	it	mi
 8006e46:	b2ad      	uxthmi	r5, r5
 8006e48:	6031      	str	r1, [r6, #0]
 8006e4a:	07d9      	lsls	r1, r3, #31
 8006e4c:	bf44      	itt	mi
 8006e4e:	f043 0320 	orrmi.w	r3, r3, #32
 8006e52:	6023      	strmi	r3, [r4, #0]
 8006e54:	b11d      	cbz	r5, 8006e5e <_printf_i+0x19e>
 8006e56:	2310      	movs	r3, #16
 8006e58:	e7ac      	b.n	8006db4 <_printf_i+0xf4>
 8006e5a:	4827      	ldr	r0, [pc, #156]	@ (8006ef8 <_printf_i+0x238>)
 8006e5c:	e7e9      	b.n	8006e32 <_printf_i+0x172>
 8006e5e:	6823      	ldr	r3, [r4, #0]
 8006e60:	f023 0320 	bic.w	r3, r3, #32
 8006e64:	6023      	str	r3, [r4, #0]
 8006e66:	e7f6      	b.n	8006e56 <_printf_i+0x196>
 8006e68:	4616      	mov	r6, r2
 8006e6a:	e7bd      	b.n	8006de8 <_printf_i+0x128>
 8006e6c:	6833      	ldr	r3, [r6, #0]
 8006e6e:	6825      	ldr	r5, [r4, #0]
 8006e70:	6961      	ldr	r1, [r4, #20]
 8006e72:	1d18      	adds	r0, r3, #4
 8006e74:	6030      	str	r0, [r6, #0]
 8006e76:	062e      	lsls	r6, r5, #24
 8006e78:	681b      	ldr	r3, [r3, #0]
 8006e7a:	d501      	bpl.n	8006e80 <_printf_i+0x1c0>
 8006e7c:	6019      	str	r1, [r3, #0]
 8006e7e:	e002      	b.n	8006e86 <_printf_i+0x1c6>
 8006e80:	0668      	lsls	r0, r5, #25
 8006e82:	d5fb      	bpl.n	8006e7c <_printf_i+0x1bc>
 8006e84:	8019      	strh	r1, [r3, #0]
 8006e86:	2300      	movs	r3, #0
 8006e88:	6123      	str	r3, [r4, #16]
 8006e8a:	4616      	mov	r6, r2
 8006e8c:	e7bc      	b.n	8006e08 <_printf_i+0x148>
 8006e8e:	6833      	ldr	r3, [r6, #0]
 8006e90:	1d1a      	adds	r2, r3, #4
 8006e92:	6032      	str	r2, [r6, #0]
 8006e94:	681e      	ldr	r6, [r3, #0]
 8006e96:	6862      	ldr	r2, [r4, #4]
 8006e98:	2100      	movs	r1, #0
 8006e9a:	4630      	mov	r0, r6
 8006e9c:	f7f9 f998 	bl	80001d0 <memchr>
 8006ea0:	b108      	cbz	r0, 8006ea6 <_printf_i+0x1e6>
 8006ea2:	1b80      	subs	r0, r0, r6
 8006ea4:	6060      	str	r0, [r4, #4]
 8006ea6:	6863      	ldr	r3, [r4, #4]
 8006ea8:	6123      	str	r3, [r4, #16]
 8006eaa:	2300      	movs	r3, #0
 8006eac:	f884 3043 	strb.w	r3, [r4, #67]	@ 0x43
 8006eb0:	e7aa      	b.n	8006e08 <_printf_i+0x148>
 8006eb2:	6923      	ldr	r3, [r4, #16]
 8006eb4:	4632      	mov	r2, r6
 8006eb6:	4649      	mov	r1, r9
 8006eb8:	4640      	mov	r0, r8
 8006eba:	47d0      	blx	sl
 8006ebc:	3001      	adds	r0, #1
 8006ebe:	d0ad      	beq.n	8006e1c <_printf_i+0x15c>
 8006ec0:	6823      	ldr	r3, [r4, #0]
 8006ec2:	079b      	lsls	r3, r3, #30
 8006ec4:	d413      	bmi.n	8006eee <_printf_i+0x22e>
 8006ec6:	68e0      	ldr	r0, [r4, #12]
 8006ec8:	9b03      	ldr	r3, [sp, #12]
 8006eca:	4298      	cmp	r0, r3
 8006ecc:	bfb8      	it	lt
 8006ece:	4618      	movlt	r0, r3
 8006ed0:	e7a6      	b.n	8006e20 <_printf_i+0x160>
 8006ed2:	2301      	movs	r3, #1
 8006ed4:	4632      	mov	r2, r6
 8006ed6:	4649      	mov	r1, r9
 8006ed8:	4640      	mov	r0, r8
 8006eda:	47d0      	blx	sl
 8006edc:	3001      	adds	r0, #1
 8006ede:	d09d      	beq.n	8006e1c <_printf_i+0x15c>
 8006ee0:	3501      	adds	r5, #1
 8006ee2:	68e3      	ldr	r3, [r4, #12]
 8006ee4:	9903      	ldr	r1, [sp, #12]
 8006ee6:	1a5b      	subs	r3, r3, r1
 8006ee8:	42ab      	cmp	r3, r5
 8006eea:	dcf2      	bgt.n	8006ed2 <_printf_i+0x212>
 8006eec:	e7eb      	b.n	8006ec6 <_printf_i+0x206>
 8006eee:	2500      	movs	r5, #0
 8006ef0:	f104 0619 	add.w	r6, r4, #25
 8006ef4:	e7f5      	b.n	8006ee2 <_printf_i+0x222>
 8006ef6:	bf00      	nop
 8006ef8:	080093da 	.word	0x080093da
 8006efc:	080093eb 	.word	0x080093eb

08006f00 <std>:
 8006f00:	2300      	movs	r3, #0
 8006f02:	b510      	push	{r4, lr}
 8006f04:	4604      	mov	r4, r0
 8006f06:	e9c0 3300 	strd	r3, r3, [r0]
 8006f0a:	e9c0 3304 	strd	r3, r3, [r0, #16]
 8006f0e:	6083      	str	r3, [r0, #8]
 8006f10:	8181      	strh	r1, [r0, #12]
 8006f12:	6643      	str	r3, [r0, #100]	@ 0x64
 8006f14:	81c2      	strh	r2, [r0, #14]
 8006f16:	6183      	str	r3, [r0, #24]
 8006f18:	4619      	mov	r1, r3
 8006f1a:	2208      	movs	r2, #8
 8006f1c:	305c      	adds	r0, #92	@ 0x5c
 8006f1e:	f000 f948 	bl	80071b2 <memset>
 8006f22:	4b0d      	ldr	r3, [pc, #52]	@ (8006f58 <std+0x58>)
 8006f24:	6263      	str	r3, [r4, #36]	@ 0x24
 8006f26:	4b0d      	ldr	r3, [pc, #52]	@ (8006f5c <std+0x5c>)
 8006f28:	62a3      	str	r3, [r4, #40]	@ 0x28
 8006f2a:	4b0d      	ldr	r3, [pc, #52]	@ (8006f60 <std+0x60>)
 8006f2c:	62e3      	str	r3, [r4, #44]	@ 0x2c
 8006f2e:	4b0d      	ldr	r3, [pc, #52]	@ (8006f64 <std+0x64>)
 8006f30:	6323      	str	r3, [r4, #48]	@ 0x30
 8006f32:	4b0d      	ldr	r3, [pc, #52]	@ (8006f68 <std+0x68>)
 8006f34:	6224      	str	r4, [r4, #32]
 8006f36:	429c      	cmp	r4, r3
 8006f38:	d006      	beq.n	8006f48 <std+0x48>
 8006f3a:	f103 0268 	add.w	r2, r3, #104	@ 0x68
 8006f3e:	4294      	cmp	r4, r2
 8006f40:	d002      	beq.n	8006f48 <std+0x48>
 8006f42:	33d0      	adds	r3, #208	@ 0xd0
 8006f44:	429c      	cmp	r4, r3
 8006f46:	d105      	bne.n	8006f54 <std+0x54>
 8006f48:	f104 0058 	add.w	r0, r4, #88	@ 0x58
 8006f4c:	e8bd 4010 	ldmia.w	sp!, {r4, lr}
 8006f50:	f000 b9ac 	b.w	80072ac <__retarget_lock_init_recursive>
 8006f54:	bd10      	pop	{r4, pc}
 8006f56:	bf00      	nop
 8006f58:	0800712d 	.word	0x0800712d
 8006f5c:	0800714f 	.word	0x0800714f
 8006f60:	08007187 	.word	0x08007187
 8006f64:	080071ab 	.word	0x080071ab
 8006f68:	200003cc 	.word	0x200003cc

08006f6c <stdio_exit_handler>:
 8006f6c:	4a02      	ldr	r2, [pc, #8]	@ (8006f78 <stdio_exit_handler+0xc>)
 8006f6e:	4903      	ldr	r1, [pc, #12]	@ (8006f7c <stdio_exit_handler+0x10>)
 8006f70:	4803      	ldr	r0, [pc, #12]	@ (8006f80 <stdio_exit_handler+0x14>)
 8006f72:	f000 b869 	b.w	8007048 <_fwalk_sglue>
 8006f76:	bf00      	nop
 8006f78:	20000014 	.word	0x20000014
 8006f7c:	08008c0d 	.word	0x08008c0d
 8006f80:	20000024 	.word	0x20000024

08006f84 <cleanup_stdio>:
 8006f84:	6841      	ldr	r1, [r0, #4]
 8006f86:	4b0c      	ldr	r3, [pc, #48]	@ (8006fb8 <cleanup_stdio+0x34>)
 8006f88:	4299      	cmp	r1, r3
 8006f8a:	b510      	push	{r4, lr}
 8006f8c:	4604      	mov	r4, r0
 8006f8e:	d001      	beq.n	8006f94 <cleanup_stdio+0x10>
 8006f90:	f001 fe3c 	bl	8008c0c <_fflush_r>
 8006f94:	68a1      	ldr	r1, [r4, #8]
 8006f96:	4b09      	ldr	r3, [pc, #36]	@ (8006fbc <cleanup_stdio+0x38>)
 8006f98:	4299      	cmp	r1, r3
 8006f9a:	d002      	beq.n	8006fa2 <cleanup_stdio+0x1e>
 8006f9c:	4620      	mov	r0, r4
 8006f9e:	f001 fe35 	bl	8008c0c <_fflush_r>
 8006fa2:	68e1      	ldr	r1, [r4, #12]
 8006fa4:	4b06      	ldr	r3, [pc, #24]	@ (8006fc0 <cleanup_stdio+0x3c>)
 8006fa6:	4299      	cmp	r1, r3
 8006fa8:	d004      	beq.n	8006fb4 <cleanup_stdio+0x30>
 8006faa:	4620      	mov	r0, r4
 8006fac:	e8bd 4010 	ldmia.w	sp!, {r4, lr}
 8006fb0:	f001 be2c 	b.w	8008c0c <_fflush_r>
 8006fb4:	bd10      	pop	{r4, pc}
 8006fb6:	bf00      	nop
 8006fb8:	200003cc 	.word	0x200003cc
 8006fbc:	20000434 	.word	0x20000434
 8006fc0:	2000049c 	.word	0x2000049c

08006fc4 <global_stdio_init.part.0>:
 8006fc4:	b510      	push	{r4, lr}
 8006fc6:	4b0b      	ldr	r3, [pc, #44]	@ (8006ff4 <global_stdio_init.part.0+0x30>)
 8006fc8:	4c0b      	ldr	r4, [pc, #44]	@ (8006ff8 <global_stdio_init.part.0+0x34>)
 8006fca:	4a0c      	ldr	r2, [pc, #48]	@ (8006ffc <global_stdio_init.part.0+0x38>)
 8006fcc:	601a      	str	r2, [r3, #0]
 8006fce:	4620      	mov	r0, r4
 8006fd0:	2200      	movs	r2, #0
 8006fd2:	2104      	movs	r1, #4
 8006fd4:	f7ff ff94 	bl	8006f00 <std>
 8006fd8:	f104 0068 	add.w	r0, r4, #104	@ 0x68
 8006fdc:	2201      	movs	r2, #1
 8006fde:	2109      	movs	r1, #9
 8006fe0:	f7ff ff8e 	bl	8006f00 <std>
 8006fe4:	f104 00d0 	add.w	r0, r4, #208	@ 0xd0
 8006fe8:	2202      	movs	r2, #2
 8006fea:	e8bd 4010 	ldmia.w	sp!, {r4, lr}
 8006fee:	2112      	movs	r1, #18
 8006ff0:	f7ff bf86 	b.w	8006f00 <std>
 8006ff4:	20000504 	.word	0x20000504
 8006ff8:	200003cc 	.word	0x200003cc
 8006ffc:	08006f6d 	.word	0x08006f6d

08007000 <__sfp_lock_acquire>:
 8007000:	4801      	ldr	r0, [pc, #4]	@ (8007008 <__sfp_lock_acquire+0x8>)
 8007002:	f000 b954 	b.w	80072ae <__retarget_lock_acquire_recursive>
 8007006:	bf00      	nop
 8007008:	2000050d 	.word	0x2000050d

0800700c <__sfp_lock_release>:
 800700c:	4801      	ldr	r0, [pc, #4]	@ (8007014 <__sfp_lock_release+0x8>)
 800700e:	f000 b94f 	b.w	80072b0 <__retarget_lock_release_recursive>
 8007012:	bf00      	nop
 8007014:	2000050d 	.word	0x2000050d

08007018 <__sinit>:
 8007018:	b510      	push	{r4, lr}
 800701a:	4604      	mov	r4, r0
 800701c:	f7ff fff0 	bl	8007000 <__sfp_lock_acquire>
 8007020:	6a23      	ldr	r3, [r4, #32]
 8007022:	b11b      	cbz	r3, 800702c <__sinit+0x14>
 8007024:	e8bd 4010 	ldmia.w	sp!, {r4, lr}
 8007028:	f7ff bff0 	b.w	800700c <__sfp_lock_release>
 800702c:	4b04      	ldr	r3, [pc, #16]	@ (8007040 <__sinit+0x28>)
 800702e:	6223      	str	r3, [r4, #32]
 8007030:	4b04      	ldr	r3, [pc, #16]	@ (8007044 <__sinit+0x2c>)
 8007032:	681b      	ldr	r3, [r3, #0]
 8007034:	2b00      	cmp	r3, #0
 8007036:	d1f5      	bne.n	8007024 <__sinit+0xc>
 8007038:	f7ff ffc4 	bl	8006fc4 <global_stdio_init.part.0>
 800703c:	e7f2      	b.n	8007024 <__sinit+0xc>
 800703e:	bf00      	nop
 8007040:	08006f85 	.word	0x08006f85
 8007044:	20000504 	.word	0x20000504

08007048 <_fwalk_sglue>:
 8007048:	e92d 43f8 	stmdb	sp!, {r3, r4, r5, r6, r7, r8, r9, lr}
 800704c:	4607      	mov	r7, r0
 800704e:	4688      	mov	r8, r1
 8007050:	4614      	mov	r4, r2
 8007052:	2600      	movs	r6, #0
 8007054:	e9d4 9501 	ldrd	r9, r5, [r4, #4]
 8007058:	f1b9 0901 	subs.w	r9, r9, #1
 800705c:	d505      	bpl.n	800706a <_fwalk_sglue+0x22>
 800705e:	6824      	ldr	r4, [r4, #0]
 8007060:	2c00      	cmp	r4, #0
 8007062:	d1f7      	bne.n	8007054 <_fwalk_sglue+0xc>
 8007064:	4630      	mov	r0, r6
 8007066:	e8bd 83f8 	ldmia.w	sp!, {r3, r4, r5, r6, r7, r8, r9, pc}
 800706a:	89ab      	ldrh	r3, [r5, #12]
 800706c:	2b01      	cmp	r3, #1
 800706e:	d907      	bls.n	8007080 <_fwalk_sglue+0x38>
 8007070:	f9b5 300e 	ldrsh.w	r3, [r5, #14]
 8007074:	3301      	adds	r3, #1
 8007076:	d003      	beq.n	8007080 <_fwalk_sglue+0x38>
 8007078:	4629      	mov	r1, r5
 800707a:	4638      	mov	r0, r7
 800707c:	47c0      	blx	r8
 800707e:	4306      	orrs	r6, r0
 8007080:	3568      	adds	r5, #104	@ 0x68
 8007082:	e7e9      	b.n	8007058 <_fwalk_sglue+0x10>

08007084 <sniprintf>:
 8007084:	b40c      	push	{r2, r3}
 8007086:	b530      	push	{r4, r5, lr}
 8007088:	4b17      	ldr	r3, [pc, #92]	@ (80070e8 <sniprintf+0x64>)
 800708a:	1e0c      	subs	r4, r1, #0
 800708c:	681d      	ldr	r5, [r3, #0]
 800708e:	b09d      	sub	sp, #116	@ 0x74
 8007090:	da08      	bge.n	80070a4 <sniprintf+0x20>
 8007092:	238b      	movs	r3, #139	@ 0x8b
 8007094:	602b      	str	r3, [r5, #0]
 8007096:	f04f 30ff 	mov.w	r0, #4294967295
 800709a:	b01d      	add	sp, #116	@ 0x74
 800709c:	e8bd 4030 	ldmia.w	sp!, {r4, r5, lr}
 80070a0:	b002      	add	sp, #8
 80070a2:	4770      	bx	lr
 80070a4:	f44f 7302 	mov.w	r3, #520	@ 0x208
 80070a8:	f8ad 3014 	strh.w	r3, [sp, #20]
 80070ac:	bf14      	ite	ne
 80070ae:	f104 33ff 	addne.w	r3, r4, #4294967295
 80070b2:	4623      	moveq	r3, r4
 80070b4:	9304      	str	r3, [sp, #16]
 80070b6:	9307      	str	r3, [sp, #28]
 80070b8:	f64f 73ff 	movw	r3, #65535	@ 0xffff
 80070bc:	9002      	str	r0, [sp, #8]
 80070be:	9006      	str	r0, [sp, #24]
 80070c0:	f8ad 3016 	strh.w	r3, [sp, #22]
 80070c4:	9a20      	ldr	r2, [sp, #128]	@ 0x80
 80070c6:	ab21      	add	r3, sp, #132	@ 0x84
 80070c8:	a902      	add	r1, sp, #8
 80070ca:	4628      	mov	r0, r5
 80070cc:	9301      	str	r3, [sp, #4]
 80070ce:	f001 fc1d 	bl	800890c <_svfiprintf_r>
 80070d2:	1c43      	adds	r3, r0, #1
 80070d4:	bfbc      	itt	lt
 80070d6:	238b      	movlt	r3, #139	@ 0x8b
 80070d8:	602b      	strlt	r3, [r5, #0]
 80070da:	2c00      	cmp	r4, #0
 80070dc:	d0dd      	beq.n	800709a <sniprintf+0x16>
 80070de:	9b02      	ldr	r3, [sp, #8]
 80070e0:	2200      	movs	r2, #0
 80070e2:	701a      	strb	r2, [r3, #0]
 80070e4:	e7d9      	b.n	800709a <sniprintf+0x16>
 80070e6:	bf00      	nop
 80070e8:	20000020 	.word	0x20000020

080070ec <siprintf>:
 80070ec:	b40e      	push	{r1, r2, r3}
 80070ee:	b500      	push	{lr}
 80070f0:	b09c      	sub	sp, #112	@ 0x70
 80070f2:	ab1d      	add	r3, sp, #116	@ 0x74
 80070f4:	9002      	str	r0, [sp, #8]
 80070f6:	9006      	str	r0, [sp, #24]
 80070f8:	f06f 4100 	mvn.w	r1, #2147483648	@ 0x80000000
 80070fc:	4809      	ldr	r0, [pc, #36]	@ (8007124 <siprintf+0x38>)
 80070fe:	9107      	str	r1, [sp, #28]
 8007100:	9104      	str	r1, [sp, #16]
 8007102:	4909      	ldr	r1, [pc, #36]	@ (8007128 <siprintf+0x3c>)
 8007104:	f853 2b04 	ldr.w	r2, [r3], #4
 8007108:	9105      	str	r1, [sp, #20]
 800710a:	6800      	ldr	r0, [r0, #0]
 800710c:	9301      	str	r3, [sp, #4]
 800710e:	a902      	add	r1, sp, #8
 8007110:	f001 fbfc 	bl	800890c <_svfiprintf_r>
 8007114:	9b02      	ldr	r3, [sp, #8]
 8007116:	2200      	movs	r2, #0
 8007118:	701a      	strb	r2, [r3, #0]
 800711a:	b01c      	add	sp, #112	@ 0x70
 800711c:	f85d eb04 	ldr.w	lr, [sp], #4
 8007120:	b003      	add	sp, #12
 8007122:	4770      	bx	lr
 8007124:	20000020 	.word	0x20000020
 8007128:	ffff0208 	.word	0xffff0208

0800712c <__sread>:
 800712c:	b510      	push	{r4, lr}
 800712e:	460c      	mov	r4, r1
 8007130:	f9b1 100e 	ldrsh.w	r1, [r1, #14]
 8007134:	f000 f86c 	bl	8007210 <_read_r>
 8007138:	2800      	cmp	r0, #0
 800713a:	bfab      	itete	ge
 800713c:	6d63      	ldrge	r3, [r4, #84]	@ 0x54
 800713e:	89a3      	ldrhlt	r3, [r4, #12]
 8007140:	181b      	addge	r3, r3, r0
 8007142:	f423 5380 	biclt.w	r3, r3, #4096	@ 0x1000
 8007146:	bfac      	ite	ge
 8007148:	6563      	strge	r3, [r4, #84]	@ 0x54
 800714a:	81a3      	strhlt	r3, [r4, #12]
 800714c:	bd10      	pop	{r4, pc}

0800714e <__swrite>:
 800714e:	e92d 41f0 	stmdb	sp!, {r4, r5, r6, r7, r8, lr}
 8007152:	461f      	mov	r7, r3
 8007154:	898b      	ldrh	r3, [r1, #12]
 8007156:	05db      	lsls	r3, r3, #23
 8007158:	4605      	mov	r5, r0
 800715a:	460c      	mov	r4, r1
 800715c:	4616      	mov	r6, r2
 800715e:	d505      	bpl.n	800716c <__swrite+0x1e>
 8007160:	f9b1 100e 	ldrsh.w	r1, [r1, #14]
 8007164:	2302      	movs	r3, #2
 8007166:	2200      	movs	r2, #0
 8007168:	f000 f840 	bl	80071ec <_lseek_r>
 800716c:	89a3      	ldrh	r3, [r4, #12]
 800716e:	f9b4 100e 	ldrsh.w	r1, [r4, #14]
 8007172:	f423 5380 	bic.w	r3, r3, #4096	@ 0x1000
 8007176:	81a3      	strh	r3, [r4, #12]
 8007178:	4632      	mov	r2, r6
 800717a:	463b      	mov	r3, r7
 800717c:	4628      	mov	r0, r5
 800717e:	e8bd 41f0 	ldmia.w	sp!, {r4, r5, r6, r7, r8, lr}
 8007182:	f000 b857 	b.w	8007234 <_write_r>

08007186 <__sseek>:
 8007186:	b510      	push	{r4, lr}
 8007188:	460c      	mov	r4, r1
 800718a:	f9b1 100e 	ldrsh.w	r1, [r1, #14]
 800718e:	f000 f82d 	bl	80071ec <_lseek_r>
 8007192:	1c43      	adds	r3, r0, #1
 8007194:	89a3      	ldrh	r3, [r4, #12]
 8007196:	bf15      	itete	ne
 8007198:	6560      	strne	r0, [r4, #84]	@ 0x54
 800719a:	f423 5380 	biceq.w	r3, r3, #4096	@ 0x1000
 800719e:	f443 5380 	orrne.w	r3, r3, #4096	@ 0x1000
 80071a2:	81a3      	strheq	r3, [r4, #12]
 80071a4:	bf18      	it	ne
 80071a6:	81a3      	strhne	r3, [r4, #12]
 80071a8:	bd10      	pop	{r4, pc}

080071aa <__sclose>:
 80071aa:	f9b1 100e 	ldrsh.w	r1, [r1, #14]
 80071ae:	f000 b80d 	b.w	80071cc <_close_r>

080071b2 <memset>:
 80071b2:	4402      	add	r2, r0
 80071b4:	4603      	mov	r3, r0
 80071b6:	4293      	cmp	r3, r2
 80071b8:	d100      	bne.n	80071bc <memset+0xa>
 80071ba:	4770      	bx	lr
 80071bc:	f803 1b01 	strb.w	r1, [r3], #1
 80071c0:	e7f9      	b.n	80071b6 <memset+0x4>
	...

080071c4 <_localeconv_r>:
 80071c4:	4800      	ldr	r0, [pc, #0]	@ (80071c8 <_localeconv_r+0x4>)
 80071c6:	4770      	bx	lr
 80071c8:	20000160 	.word	0x20000160

080071cc <_close_r>:
 80071cc:	b538      	push	{r3, r4, r5, lr}
 80071ce:	4d06      	ldr	r5, [pc, #24]	@ (80071e8 <_close_r+0x1c>)
 80071d0:	2300      	movs	r3, #0
 80071d2:	4604      	mov	r4, r0
 80071d4:	4608      	mov	r0, r1
 80071d6:	602b      	str	r3, [r5, #0]
 80071d8:	f7fb fa26 	bl	8002628 <_close>
 80071dc:	1c43      	adds	r3, r0, #1
 80071de:	d102      	bne.n	80071e6 <_close_r+0x1a>
 80071e0:	682b      	ldr	r3, [r5, #0]
 80071e2:	b103      	cbz	r3, 80071e6 <_close_r+0x1a>
 80071e4:	6023      	str	r3, [r4, #0]
 80071e6:	bd38      	pop	{r3, r4, r5, pc}
 80071e8:	20000508 	.word	0x20000508

080071ec <_lseek_r>:
 80071ec:	b538      	push	{r3, r4, r5, lr}
 80071ee:	4d07      	ldr	r5, [pc, #28]	@ (800720c <_lseek_r+0x20>)
 80071f0:	4604      	mov	r4, r0
 80071f2:	4608      	mov	r0, r1
 80071f4:	4611      	mov	r1, r2
 80071f6:	2200      	movs	r2, #0
 80071f8:	602a      	str	r2, [r5, #0]
 80071fa:	461a      	mov	r2, r3
 80071fc:	f7fb fa3b 	bl	8002676 <_lseek>
 8007200:	1c43      	adds	r3, r0, #1
 8007202:	d102      	bne.n	800720a <_lseek_r+0x1e>
 8007204:	682b      	ldr	r3, [r5, #0]
 8007206:	b103      	cbz	r3, 800720a <_lseek_r+0x1e>
 8007208:	6023      	str	r3, [r4, #0]
 800720a:	bd38      	pop	{r3, r4, r5, pc}
 800720c:	20000508 	.word	0x20000508

08007210 <_read_r>:
 8007210:	b538      	push	{r3, r4, r5, lr}
 8007212:	4d07      	ldr	r5, [pc, #28]	@ (8007230 <_read_r+0x20>)
 8007214:	4604      	mov	r4, r0
 8007216:	4608      	mov	r0, r1
 8007218:	4611      	mov	r1, r2
 800721a:	2200      	movs	r2, #0
 800721c:	602a      	str	r2, [r5, #0]
 800721e:	461a      	mov	r2, r3
 8007220:	f7fb f9c9 	bl	80025b6 <_read>
 8007224:	1c43      	adds	r3, r0, #1
 8007226:	d102      	bne.n	800722e <_read_r+0x1e>
 8007228:	682b      	ldr	r3, [r5, #0]
 800722a:	b103      	cbz	r3, 800722e <_read_r+0x1e>
 800722c:	6023      	str	r3, [r4, #0]
 800722e:	bd38      	pop	{r3, r4, r5, pc}
 8007230:	20000508 	.word	0x20000508

08007234 <_write_r>:
 8007234:	b538      	push	{r3, r4, r5, lr}
 8007236:	4d07      	ldr	r5, [pc, #28]	@ (8007254 <_write_r+0x20>)
 8007238:	4604      	mov	r4, r0
 800723a:	4608      	mov	r0, r1
 800723c:	4611      	mov	r1, r2
 800723e:	2200      	movs	r2, #0
 8007240:	602a      	str	r2, [r5, #0]
 8007242:	461a      	mov	r2, r3
 8007244:	f7fb f9d4 	bl	80025f0 <_write>
 8007248:	1c43      	adds	r3, r0, #1
 800724a:	d102      	bne.n	8007252 <_write_r+0x1e>
 800724c:	682b      	ldr	r3, [r5, #0]
 800724e:	b103      	cbz	r3, 8007252 <_write_r+0x1e>
 8007250:	6023      	str	r3, [r4, #0]
 8007252:	bd38      	pop	{r3, r4, r5, pc}
 8007254:	20000508 	.word	0x20000508

08007258 <__errno>:
 8007258:	4b01      	ldr	r3, [pc, #4]	@ (8007260 <__errno+0x8>)
 800725a:	6818      	ldr	r0, [r3, #0]
 800725c:	4770      	bx	lr
 800725e:	bf00      	nop
 8007260:	20000020 	.word	0x20000020

08007264 <__libc_init_array>:
 8007264:	b570      	push	{r4, r5, r6, lr}
 8007266:	4d0d      	ldr	r5, [pc, #52]	@ (800729c <__libc_init_array+0x38>)
 8007268:	4c0d      	ldr	r4, [pc, #52]	@ (80072a0 <__libc_init_array+0x3c>)
 800726a:	1b64      	subs	r4, r4, r5
 800726c:	10a4      	asrs	r4, r4, #2
 800726e:	2600      	movs	r6, #0
 8007270:	42a6      	cmp	r6, r4
 8007272:	d109      	bne.n	8007288 <__libc_init_array+0x24>
 8007274:	4d0b      	ldr	r5, [pc, #44]	@ (80072a4 <__libc_init_array+0x40>)
 8007276:	4c0c      	ldr	r4, [pc, #48]	@ (80072a8 <__libc_init_array+0x44>)
 8007278:	f002 f866 	bl	8009348 <_init>
 800727c:	1b64      	subs	r4, r4, r5
 800727e:	10a4      	asrs	r4, r4, #2
 8007280:	2600      	movs	r6, #0
 8007282:	42a6      	cmp	r6, r4
 8007284:	d105      	bne.n	8007292 <__libc_init_array+0x2e>
 8007286:	bd70      	pop	{r4, r5, r6, pc}
 8007288:	f855 3b04 	ldr.w	r3, [r5], #4
 800728c:	4798      	blx	r3
 800728e:	3601      	adds	r6, #1
 8007290:	e7ee      	b.n	8007270 <__libc_init_array+0xc>
 8007292:	f855 3b04 	ldr.w	r3, [r5], #4
 8007296:	4798      	blx	r3
 8007298:	3601      	adds	r6, #1
 800729a:	e7f2      	b.n	8007282 <__libc_init_array+0x1e>
 800729c:	08009740 	.word	0x08009740
 80072a0:	08009740 	.word	0x08009740
 80072a4:	08009740 	.word	0x08009740
 80072a8:	08009744 	.word	0x08009744

080072ac <__retarget_lock_init_recursive>:
 80072ac:	4770      	bx	lr

080072ae <__retarget_lock_acquire_recursive>:
 80072ae:	4770      	bx	lr

080072b0 <__retarget_lock_release_recursive>:
 80072b0:	4770      	bx	lr

080072b2 <quorem>:
 80072b2:	e92d 4ff7 	stmdb	sp!, {r0, r1, r2, r4, r5, r6, r7, r8, r9, sl, fp, lr}
 80072b6:	6903      	ldr	r3, [r0, #16]
 80072b8:	690c      	ldr	r4, [r1, #16]
 80072ba:	42a3      	cmp	r3, r4
 80072bc:	4607      	mov	r7, r0
 80072be:	db7e      	blt.n	80073be <quorem+0x10c>
 80072c0:	3c01      	subs	r4, #1
 80072c2:	f101 0814 	add.w	r8, r1, #20
 80072c6:	00a3      	lsls	r3, r4, #2
 80072c8:	f100 0514 	add.w	r5, r0, #20
 80072cc:	9300      	str	r3, [sp, #0]
 80072ce:	eb05 0384 	add.w	r3, r5, r4, lsl #2
 80072d2:	9301      	str	r3, [sp, #4]
 80072d4:	f858 3024 	ldr.w	r3, [r8, r4, lsl #2]
 80072d8:	f855 2024 	ldr.w	r2, [r5, r4, lsl #2]
 80072dc:	3301      	adds	r3, #1
 80072de:	429a      	cmp	r2, r3
 80072e0:	eb08 0984 	add.w	r9, r8, r4, lsl #2
 80072e4:	fbb2 f6f3 	udiv	r6, r2, r3
 80072e8:	d32e      	bcc.n	8007348 <quorem+0x96>
 80072ea:	f04f 0a00 	mov.w	sl, #0
 80072ee:	46c4      	mov	ip, r8
 80072f0:	46ae      	mov	lr, r5
 80072f2:	46d3      	mov	fp, sl
 80072f4:	f85c 3b04 	ldr.w	r3, [ip], #4
 80072f8:	b298      	uxth	r0, r3
 80072fa:	fb06 a000 	mla	r0, r6, r0, sl
 80072fe:	0c02      	lsrs	r2, r0, #16
 8007300:	0c1b      	lsrs	r3, r3, #16
 8007302:	fb06 2303 	mla	r3, r6, r3, r2
 8007306:	f8de 2000 	ldr.w	r2, [lr]
 800730a:	b280      	uxth	r0, r0
 800730c:	b292      	uxth	r2, r2
 800730e:	1a12      	subs	r2, r2, r0
 8007310:	445a      	add	r2, fp
 8007312:	f8de 0000 	ldr.w	r0, [lr]
 8007316:	ea4f 4a13 	mov.w	sl, r3, lsr #16
 800731a:	b29b      	uxth	r3, r3
 800731c:	ebc3 4322 	rsb	r3, r3, r2, asr #16
 8007320:	eb03 4310 	add.w	r3, r3, r0, lsr #16
 8007324:	b292      	uxth	r2, r2
 8007326:	ea42 4203 	orr.w	r2, r2, r3, lsl #16
 800732a:	45e1      	cmp	r9, ip
 800732c:	f84e 2b04 	str.w	r2, [lr], #4
 8007330:	ea4f 4b23 	mov.w	fp, r3, asr #16
 8007334:	d2de      	bcs.n	80072f4 <quorem+0x42>
 8007336:	9b00      	ldr	r3, [sp, #0]
 8007338:	58eb      	ldr	r3, [r5, r3]
 800733a:	b92b      	cbnz	r3, 8007348 <quorem+0x96>
 800733c:	9b01      	ldr	r3, [sp, #4]
 800733e:	3b04      	subs	r3, #4
 8007340:	429d      	cmp	r5, r3
 8007342:	461a      	mov	r2, r3
 8007344:	d32f      	bcc.n	80073a6 <quorem+0xf4>
 8007346:	613c      	str	r4, [r7, #16]
 8007348:	4638      	mov	r0, r7
 800734a:	f001 f97b 	bl	8008644 <__mcmp>
 800734e:	2800      	cmp	r0, #0
 8007350:	db25      	blt.n	800739e <quorem+0xec>
 8007352:	4629      	mov	r1, r5
 8007354:	2000      	movs	r0, #0
 8007356:	f858 2b04 	ldr.w	r2, [r8], #4
 800735a:	f8d1 c000 	ldr.w	ip, [r1]
 800735e:	fa1f fe82 	uxth.w	lr, r2
 8007362:	fa1f f38c 	uxth.w	r3, ip
 8007366:	eba3 030e 	sub.w	r3, r3, lr
 800736a:	4403      	add	r3, r0
 800736c:	0c12      	lsrs	r2, r2, #16
 800736e:	ebc2 4223 	rsb	r2, r2, r3, asr #16
 8007372:	eb02 421c 	add.w	r2, r2, ip, lsr #16
 8007376:	b29b      	uxth	r3, r3
 8007378:	ea43 4302 	orr.w	r3, r3, r2, lsl #16
 800737c:	45c1      	cmp	r9, r8
 800737e:	f841 3b04 	str.w	r3, [r1], #4
 8007382:	ea4f 4022 	mov.w	r0, r2, asr #16
 8007386:	d2e6      	bcs.n	8007356 <quorem+0xa4>
 8007388:	f855 2024 	ldr.w	r2, [r5, r4, lsl #2]
 800738c:	eb05 0384 	add.w	r3, r5, r4, lsl #2
 8007390:	b922      	cbnz	r2, 800739c <quorem+0xea>
 8007392:	3b04      	subs	r3, #4
 8007394:	429d      	cmp	r5, r3
 8007396:	461a      	mov	r2, r3
 8007398:	d30b      	bcc.n	80073b2 <quorem+0x100>
 800739a:	613c      	str	r4, [r7, #16]
 800739c:	3601      	adds	r6, #1
 800739e:	4630      	mov	r0, r6
 80073a0:	b003      	add	sp, #12
 80073a2:	e8bd 8ff0 	ldmia.w	sp!, {r4, r5, r6, r7, r8, r9, sl, fp, pc}
 80073a6:	6812      	ldr	r2, [r2, #0]
 80073a8:	3b04      	subs	r3, #4
 80073aa:	2a00      	cmp	r2, #0
 80073ac:	d1cb      	bne.n	8007346 <quorem+0x94>
 80073ae:	3c01      	subs	r4, #1
 80073b0:	e7c6      	b.n	8007340 <quorem+0x8e>
 80073b2:	6812      	ldr	r2, [r2, #0]
 80073b4:	3b04      	subs	r3, #4
 80073b6:	2a00      	cmp	r2, #0
 80073b8:	d1ef      	bne.n	800739a <quorem+0xe8>
 80073ba:	3c01      	subs	r4, #1
 80073bc:	e7ea      	b.n	8007394 <quorem+0xe2>
 80073be:	2000      	movs	r0, #0
 80073c0:	e7ee      	b.n	80073a0 <quorem+0xee>
 80073c2:	0000      	movs	r0, r0
 80073c4:	0000      	movs	r0, r0
	...

080073c8 <_dtoa_r>:
 80073c8:	e92d 4ff0 	stmdb	sp!, {r4, r5, r6, r7, r8, r9, sl, fp, lr}
 80073cc:	69c7      	ldr	r7, [r0, #28]
 80073ce:	b099      	sub	sp, #100	@ 0x64
 80073d0:	ed8d 0b02 	vstr	d0, [sp, #8]
 80073d4:	ec55 4b10 	vmov	r4, r5, d0
 80073d8:	9e22      	ldr	r6, [sp, #136]	@ 0x88
 80073da:	9109      	str	r1, [sp, #36]	@ 0x24
 80073dc:	4683      	mov	fp, r0
 80073de:	920e      	str	r2, [sp, #56]	@ 0x38
 80073e0:	9313      	str	r3, [sp, #76]	@ 0x4c
 80073e2:	b97f      	cbnz	r7, 8007404 <_dtoa_r+0x3c>
 80073e4:	2010      	movs	r0, #16
 80073e6:	f000 fdfd 	bl	8007fe4 <malloc>
 80073ea:	4602      	mov	r2, r0
 80073ec:	f8cb 001c 	str.w	r0, [fp, #28]
 80073f0:	b920      	cbnz	r0, 80073fc <_dtoa_r+0x34>
 80073f2:	4ba7      	ldr	r3, [pc, #668]	@ (8007690 <_dtoa_r+0x2c8>)
 80073f4:	21ef      	movs	r1, #239	@ 0xef
 80073f6:	48a7      	ldr	r0, [pc, #668]	@ (8007694 <_dtoa_r+0x2cc>)
 80073f8:	f001 fc68 	bl	8008ccc <__assert_func>
 80073fc:	e9c0 7701 	strd	r7, r7, [r0, #4]
 8007400:	6007      	str	r7, [r0, #0]
 8007402:	60c7      	str	r7, [r0, #12]
 8007404:	f8db 301c 	ldr.w	r3, [fp, #28]
 8007408:	6819      	ldr	r1, [r3, #0]
 800740a:	b159      	cbz	r1, 8007424 <_dtoa_r+0x5c>
 800740c:	685a      	ldr	r2, [r3, #4]
 800740e:	604a      	str	r2, [r1, #4]
 8007410:	2301      	movs	r3, #1
 8007412:	4093      	lsls	r3, r2
 8007414:	608b      	str	r3, [r1, #8]
 8007416:	4658      	mov	r0, fp
 8007418:	f000 feda 	bl	80081d0 <_Bfree>
 800741c:	f8db 301c 	ldr.w	r3, [fp, #28]
 8007420:	2200      	movs	r2, #0
 8007422:	601a      	str	r2, [r3, #0]
 8007424:	1e2b      	subs	r3, r5, #0
 8007426:	bfb9      	ittee	lt
 8007428:	f023 4300 	biclt.w	r3, r3, #2147483648	@ 0x80000000
 800742c:	9303      	strlt	r3, [sp, #12]
 800742e:	2300      	movge	r3, #0
 8007430:	6033      	strge	r3, [r6, #0]
 8007432:	9f03      	ldr	r7, [sp, #12]
 8007434:	4b98      	ldr	r3, [pc, #608]	@ (8007698 <_dtoa_r+0x2d0>)
 8007436:	bfbc      	itt	lt
 8007438:	2201      	movlt	r2, #1
 800743a:	6032      	strlt	r2, [r6, #0]
 800743c:	43bb      	bics	r3, r7
 800743e:	d112      	bne.n	8007466 <_dtoa_r+0x9e>
 8007440:	9a13      	ldr	r2, [sp, #76]	@ 0x4c
 8007442:	f242 730f 	movw	r3, #9999	@ 0x270f
 8007446:	6013      	str	r3, [r2, #0]
 8007448:	f3c7 0313 	ubfx	r3, r7, #0, #20
 800744c:	4323      	orrs	r3, r4
 800744e:	f000 854d 	beq.w	8007eec <_dtoa_r+0xb24>
 8007452:	9b23      	ldr	r3, [sp, #140]	@ 0x8c
 8007454:	f8df a254 	ldr.w	sl, [pc, #596]	@ 80076ac <_dtoa_r+0x2e4>
 8007458:	2b00      	cmp	r3, #0
 800745a:	f000 854f 	beq.w	8007efc <_dtoa_r+0xb34>
 800745e:	f10a 0303 	add.w	r3, sl, #3
 8007462:	f000 bd49 	b.w	8007ef8 <_dtoa_r+0xb30>
 8007466:	ed9d 7b02 	vldr	d7, [sp, #8]
 800746a:	2200      	movs	r2, #0
 800746c:	ec51 0b17 	vmov	r0, r1, d7
 8007470:	2300      	movs	r3, #0
 8007472:	ed8d 7b0c 	vstr	d7, [sp, #48]	@ 0x30
 8007476:	f7f9 fb27 	bl	8000ac8 <__aeabi_dcmpeq>
 800747a:	4680      	mov	r8, r0
 800747c:	b158      	cbz	r0, 8007496 <_dtoa_r+0xce>
 800747e:	9a13      	ldr	r2, [sp, #76]	@ 0x4c
 8007480:	2301      	movs	r3, #1
 8007482:	6013      	str	r3, [r2, #0]
 8007484:	9b23      	ldr	r3, [sp, #140]	@ 0x8c
 8007486:	b113      	cbz	r3, 800748e <_dtoa_r+0xc6>
 8007488:	9a23      	ldr	r2, [sp, #140]	@ 0x8c
 800748a:	4b84      	ldr	r3, [pc, #528]	@ (800769c <_dtoa_r+0x2d4>)
 800748c:	6013      	str	r3, [r2, #0]
 800748e:	f8df a220 	ldr.w	sl, [pc, #544]	@ 80076b0 <_dtoa_r+0x2e8>
 8007492:	f000 bd33 	b.w	8007efc <_dtoa_r+0xb34>
 8007496:	ed9d 0b0c 	vldr	d0, [sp, #48]	@ 0x30
 800749a:	aa16      	add	r2, sp, #88	@ 0x58
 800749c:	a917      	add	r1, sp, #92	@ 0x5c
 800749e:	4658      	mov	r0, fp
 80074a0:	f001 f980 	bl	80087a4 <__d2b>
 80074a4:	f3c7 560a 	ubfx	r6, r7, #20, #11
 80074a8:	4681      	mov	r9, r0
 80074aa:	2e00      	cmp	r6, #0
 80074ac:	d077      	beq.n	800759e <_dtoa_r+0x1d6>
 80074ae:	9b0d      	ldr	r3, [sp, #52]	@ 0x34
 80074b0:	f8cd 8050 	str.w	r8, [sp, #80]	@ 0x50
 80074b4:	f3c3 0313 	ubfx	r3, r3, #0, #20
 80074b8:	e9dd 010c 	ldrd	r0, r1, [sp, #48]	@ 0x30
 80074bc:	f043 537f 	orr.w	r3, r3, #1069547520	@ 0x3fc00000
 80074c0:	f443 1340 	orr.w	r3, r3, #3145728	@ 0x300000
 80074c4:	f2a6 36ff 	subw	r6, r6, #1023	@ 0x3ff
 80074c8:	4619      	mov	r1, r3
 80074ca:	2200      	movs	r2, #0
 80074cc:	4b74      	ldr	r3, [pc, #464]	@ (80076a0 <_dtoa_r+0x2d8>)
 80074ce:	f7f8 fedb 	bl	8000288 <__aeabi_dsub>
 80074d2:	a369      	add	r3, pc, #420	@ (adr r3, 8007678 <_dtoa_r+0x2b0>)
 80074d4:	e9d3 2300 	ldrd	r2, r3, [r3]
 80074d8:	f7f9 f88e 	bl	80005f8 <__aeabi_dmul>
 80074dc:	a368      	add	r3, pc, #416	@ (adr r3, 8007680 <_dtoa_r+0x2b8>)
 80074de:	e9d3 2300 	ldrd	r2, r3, [r3]
 80074e2:	f7f8 fed3 	bl	800028c <__adddf3>
 80074e6:	4604      	mov	r4, r0
 80074e8:	4630      	mov	r0, r6
 80074ea:	460d      	mov	r5, r1
 80074ec:	f7f9 f81a 	bl	8000524 <__aeabi_i2d>
 80074f0:	a365      	add	r3, pc, #404	@ (adr r3, 8007688 <_dtoa_r+0x2c0>)
 80074f2:	e9d3 2300 	ldrd	r2, r3, [r3]
 80074f6:	f7f9 f87f 	bl	80005f8 <__aeabi_dmul>
 80074fa:	4602      	mov	r2, r0
 80074fc:	460b      	mov	r3, r1
 80074fe:	4620      	mov	r0, r4
 8007500:	4629      	mov	r1, r5
 8007502:	f7f8 fec3 	bl	800028c <__adddf3>
 8007506:	4604      	mov	r4, r0
 8007508:	460d      	mov	r5, r1
 800750a:	f7f9 fb25 	bl	8000b58 <__aeabi_d2iz>
 800750e:	2200      	movs	r2, #0
 8007510:	4607      	mov	r7, r0
 8007512:	2300      	movs	r3, #0
 8007514:	4620      	mov	r0, r4
 8007516:	4629      	mov	r1, r5
 8007518:	f7f9 fae0 	bl	8000adc <__aeabi_dcmplt>
 800751c:	b140      	cbz	r0, 8007530 <_dtoa_r+0x168>
 800751e:	4638      	mov	r0, r7
 8007520:	f7f9 f800 	bl	8000524 <__aeabi_i2d>
 8007524:	4622      	mov	r2, r4
 8007526:	462b      	mov	r3, r5
 8007528:	f7f9 face 	bl	8000ac8 <__aeabi_dcmpeq>
 800752c:	b900      	cbnz	r0, 8007530 <_dtoa_r+0x168>
 800752e:	3f01      	subs	r7, #1
 8007530:	2f16      	cmp	r7, #22
 8007532:	d851      	bhi.n	80075d8 <_dtoa_r+0x210>
 8007534:	4b5b      	ldr	r3, [pc, #364]	@ (80076a4 <_dtoa_r+0x2dc>)
 8007536:	eb03 03c7 	add.w	r3, r3, r7, lsl #3
 800753a:	e9d3 2300 	ldrd	r2, r3, [r3]
 800753e:	e9dd 010c 	ldrd	r0, r1, [sp, #48]	@ 0x30
 8007542:	f7f9 facb 	bl	8000adc <__aeabi_dcmplt>
 8007546:	2800      	cmp	r0, #0
 8007548:	d048      	beq.n	80075dc <_dtoa_r+0x214>
 800754a:	3f01      	subs	r7, #1
 800754c:	2300      	movs	r3, #0
 800754e:	9312      	str	r3, [sp, #72]	@ 0x48
 8007550:	9b16      	ldr	r3, [sp, #88]	@ 0x58
 8007552:	1b9b      	subs	r3, r3, r6
 8007554:	1e5a      	subs	r2, r3, #1
 8007556:	bf44      	itt	mi
 8007558:	f1c3 0801 	rsbmi	r8, r3, #1
 800755c:	2300      	movmi	r3, #0
 800755e:	9208      	str	r2, [sp, #32]
 8007560:	bf54      	ite	pl
 8007562:	f04f 0800 	movpl.w	r8, #0
 8007566:	9308      	strmi	r3, [sp, #32]
 8007568:	2f00      	cmp	r7, #0
 800756a:	db39      	blt.n	80075e0 <_dtoa_r+0x218>
 800756c:	9b08      	ldr	r3, [sp, #32]
 800756e:	970f      	str	r7, [sp, #60]	@ 0x3c
 8007570:	443b      	add	r3, r7
 8007572:	9308      	str	r3, [sp, #32]
 8007574:	2300      	movs	r3, #0
 8007576:	930a      	str	r3, [sp, #40]	@ 0x28
 8007578:	9b09      	ldr	r3, [sp, #36]	@ 0x24
 800757a:	2b09      	cmp	r3, #9
 800757c:	d864      	bhi.n	8007648 <_dtoa_r+0x280>
 800757e:	2b05      	cmp	r3, #5
 8007580:	bfc4      	itt	gt
 8007582:	3b04      	subgt	r3, #4
 8007584:	9309      	strgt	r3, [sp, #36]	@ 0x24
 8007586:	9b09      	ldr	r3, [sp, #36]	@ 0x24
 8007588:	f1a3 0302 	sub.w	r3, r3, #2
 800758c:	bfcc      	ite	gt
 800758e:	2400      	movgt	r4, #0
 8007590:	2401      	movle	r4, #1
 8007592:	2b03      	cmp	r3, #3
 8007594:	d863      	bhi.n	800765e <_dtoa_r+0x296>
 8007596:	e8df f003 	tbb	[pc, r3]
 800759a:	372a      	.short	0x372a
 800759c:	5535      	.short	0x5535
 800759e:	e9dd 6316 	ldrd	r6, r3, [sp, #88]	@ 0x58
 80075a2:	441e      	add	r6, r3
 80075a4:	f206 4332 	addw	r3, r6, #1074	@ 0x432
 80075a8:	2b20      	cmp	r3, #32
 80075aa:	bfc1      	itttt	gt
 80075ac:	f1c3 0340 	rsbgt	r3, r3, #64	@ 0x40
 80075b0:	409f      	lslgt	r7, r3
 80075b2:	f206 4312 	addwgt	r3, r6, #1042	@ 0x412
 80075b6:	fa24 f303 	lsrgt.w	r3, r4, r3
 80075ba:	bfd6      	itet	le
 80075bc:	f1c3 0320 	rsble	r3, r3, #32
 80075c0:	ea47 0003 	orrgt.w	r0, r7, r3
 80075c4:	fa04 f003 	lslle.w	r0, r4, r3
 80075c8:	f7f8 ff9c 	bl	8000504 <__aeabi_ui2d>
 80075cc:	2201      	movs	r2, #1
 80075ce:	f1a1 73f8 	sub.w	r3, r1, #32505856	@ 0x1f00000
 80075d2:	3e01      	subs	r6, #1
 80075d4:	9214      	str	r2, [sp, #80]	@ 0x50
 80075d6:	e777      	b.n	80074c8 <_dtoa_r+0x100>
 80075d8:	2301      	movs	r3, #1
 80075da:	e7b8      	b.n	800754e <_dtoa_r+0x186>
 80075dc:	9012      	str	r0, [sp, #72]	@ 0x48
 80075de:	e7b7      	b.n	8007550 <_dtoa_r+0x188>
 80075e0:	427b      	negs	r3, r7
 80075e2:	930a      	str	r3, [sp, #40]	@ 0x28
 80075e4:	2300      	movs	r3, #0
 80075e6:	eba8 0807 	sub.w	r8, r8, r7
 80075ea:	930f      	str	r3, [sp, #60]	@ 0x3c
 80075ec:	e7c4      	b.n	8007578 <_dtoa_r+0x1b0>
 80075ee:	2300      	movs	r3, #0
 80075f0:	930b      	str	r3, [sp, #44]	@ 0x2c
 80075f2:	9b0e      	ldr	r3, [sp, #56]	@ 0x38
 80075f4:	2b00      	cmp	r3, #0
 80075f6:	dc35      	bgt.n	8007664 <_dtoa_r+0x29c>
 80075f8:	2301      	movs	r3, #1
 80075fa:	9300      	str	r3, [sp, #0]
 80075fc:	9307      	str	r3, [sp, #28]
 80075fe:	461a      	mov	r2, r3
 8007600:	920e      	str	r2, [sp, #56]	@ 0x38
 8007602:	e00b      	b.n	800761c <_dtoa_r+0x254>
 8007604:	2301      	movs	r3, #1
 8007606:	e7f3      	b.n	80075f0 <_dtoa_r+0x228>
 8007608:	2300      	movs	r3, #0
 800760a:	930b      	str	r3, [sp, #44]	@ 0x2c
 800760c:	9b0e      	ldr	r3, [sp, #56]	@ 0x38
 800760e:	18fb      	adds	r3, r7, r3
 8007610:	9300      	str	r3, [sp, #0]
 8007612:	3301      	adds	r3, #1
 8007614:	2b01      	cmp	r3, #1
 8007616:	9307      	str	r3, [sp, #28]
 8007618:	bfb8      	it	lt
 800761a:	2301      	movlt	r3, #1
 800761c:	f8db 001c 	ldr.w	r0, [fp, #28]
 8007620:	2100      	movs	r1, #0
 8007622:	2204      	movs	r2, #4
 8007624:	f102 0514 	add.w	r5, r2, #20
 8007628:	429d      	cmp	r5, r3
 800762a:	d91f      	bls.n	800766c <_dtoa_r+0x2a4>
 800762c:	6041      	str	r1, [r0, #4]
 800762e:	4658      	mov	r0, fp
 8007630:	f000 fd8e 	bl	8008150 <_Balloc>
 8007634:	4682      	mov	sl, r0
 8007636:	2800      	cmp	r0, #0
 8007638:	d13c      	bne.n	80076b4 <_dtoa_r+0x2ec>
 800763a:	4b1b      	ldr	r3, [pc, #108]	@ (80076a8 <_dtoa_r+0x2e0>)
 800763c:	4602      	mov	r2, r0
 800763e:	f240 11af 	movw	r1, #431	@ 0x1af
 8007642:	e6d8      	b.n	80073f6 <_dtoa_r+0x2e>
 8007644:	2301      	movs	r3, #1
 8007646:	e7e0      	b.n	800760a <_dtoa_r+0x242>
 8007648:	2401      	movs	r4, #1
 800764a:	2300      	movs	r3, #0
 800764c:	9309      	str	r3, [sp, #36]	@ 0x24
 800764e:	940b      	str	r4, [sp, #44]	@ 0x2c
 8007650:	f04f 33ff 	mov.w	r3, #4294967295
 8007654:	9300      	str	r3, [sp, #0]
 8007656:	9307      	str	r3, [sp, #28]
 8007658:	2200      	movs	r2, #0
 800765a:	2312      	movs	r3, #18
 800765c:	e7d0      	b.n	8007600 <_dtoa_r+0x238>
 800765e:	2301      	movs	r3, #1
 8007660:	930b      	str	r3, [sp, #44]	@ 0x2c
 8007662:	e7f5      	b.n	8007650 <_dtoa_r+0x288>
 8007664:	9b0e      	ldr	r3, [sp, #56]	@ 0x38
 8007666:	9300      	str	r3, [sp, #0]
 8007668:	9307      	str	r3, [sp, #28]
 800766a:	e7d7      	b.n	800761c <_dtoa_r+0x254>
 800766c:	3101      	adds	r1, #1
 800766e:	0052      	lsls	r2, r2, #1
 8007670:	e7d8      	b.n	8007624 <_dtoa_r+0x25c>
 8007672:	bf00      	nop
 8007674:	f3af 8000 	nop.w
 8007678:	636f4361 	.word	0x636f4361
 800767c:	3fd287a7 	.word	0x3fd287a7
 8007680:	8b60c8b3 	.word	0x8b60c8b3
 8007684:	3fc68a28 	.word	0x3fc68a28
 8007688:	509f79fb 	.word	0x509f79fb
 800768c:	3fd34413 	.word	0x3fd34413
 8007690:	08009409 	.word	0x08009409
 8007694:	08009420 	.word	0x08009420
 8007698:	7ff00000 	.word	0x7ff00000
 800769c:	080093d9 	.word	0x080093d9
 80076a0:	3ff80000 	.word	0x3ff80000
 80076a4:	08009518 	.word	0x08009518
 80076a8:	08009478 	.word	0x08009478
 80076ac:	08009405 	.word	0x08009405
 80076b0:	080093d8 	.word	0x080093d8
 80076b4:	f8db 301c 	ldr.w	r3, [fp, #28]
 80076b8:	6018      	str	r0, [r3, #0]
 80076ba:	9b07      	ldr	r3, [sp, #28]
 80076bc:	2b0e      	cmp	r3, #14
 80076be:	f200 80a4 	bhi.w	800780a <_dtoa_r+0x442>
 80076c2:	2c00      	cmp	r4, #0
 80076c4:	f000 80a1 	beq.w	800780a <_dtoa_r+0x442>
 80076c8:	2f00      	cmp	r7, #0
 80076ca:	dd33      	ble.n	8007734 <_dtoa_r+0x36c>
 80076cc:	4bad      	ldr	r3, [pc, #692]	@ (8007984 <_dtoa_r+0x5bc>)
 80076ce:	f007 020f 	and.w	r2, r7, #15
 80076d2:	eb03 03c2 	add.w	r3, r3, r2, lsl #3
 80076d6:	ed93 7b00 	vldr	d7, [r3]
 80076da:	05f8      	lsls	r0, r7, #23
 80076dc:	ed8d 7b04 	vstr	d7, [sp, #16]
 80076e0:	ea4f 1427 	mov.w	r4, r7, asr #4
 80076e4:	d516      	bpl.n	8007714 <_dtoa_r+0x34c>
 80076e6:	4ba8      	ldr	r3, [pc, #672]	@ (8007988 <_dtoa_r+0x5c0>)
 80076e8:	e9dd 010c 	ldrd	r0, r1, [sp, #48]	@ 0x30
 80076ec:	e9d3 2308 	ldrd	r2, r3, [r3, #32]
 80076f0:	f7f9 f8ac 	bl	800084c <__aeabi_ddiv>
 80076f4:	e9cd 0102 	strd	r0, r1, [sp, #8]
 80076f8:	f004 040f 	and.w	r4, r4, #15
 80076fc:	2603      	movs	r6, #3
 80076fe:	4da2      	ldr	r5, [pc, #648]	@ (8007988 <_dtoa_r+0x5c0>)
 8007700:	b954      	cbnz	r4, 8007718 <_dtoa_r+0x350>
 8007702:	e9dd 2304 	ldrd	r2, r3, [sp, #16]
 8007706:	e9dd 0102 	ldrd	r0, r1, [sp, #8]
 800770a:	f7f9 f89f 	bl	800084c <__aeabi_ddiv>
 800770e:	e9cd 0102 	strd	r0, r1, [sp, #8]
 8007712:	e028      	b.n	8007766 <_dtoa_r+0x39e>
 8007714:	2602      	movs	r6, #2
 8007716:	e7f2      	b.n	80076fe <_dtoa_r+0x336>
 8007718:	07e1      	lsls	r1, r4, #31
 800771a:	d508      	bpl.n	800772e <_dtoa_r+0x366>
 800771c:	e9dd 0104 	ldrd	r0, r1, [sp, #16]
 8007720:	e9d5 2300 	ldrd	r2, r3, [r5]
 8007724:	f7f8 ff68 	bl	80005f8 <__aeabi_dmul>
 8007728:	e9cd 0104 	strd	r0, r1, [sp, #16]
 800772c:	3601      	adds	r6, #1
 800772e:	1064      	asrs	r4, r4, #1
 8007730:	3508      	adds	r5, #8
 8007732:	e7e5      	b.n	8007700 <_dtoa_r+0x338>
 8007734:	f000 80d2 	beq.w	80078dc <_dtoa_r+0x514>
 8007738:	427c      	negs	r4, r7
 800773a:	4b92      	ldr	r3, [pc, #584]	@ (8007984 <_dtoa_r+0x5bc>)
 800773c:	4d92      	ldr	r5, [pc, #584]	@ (8007988 <_dtoa_r+0x5c0>)
 800773e:	f004 020f 	and.w	r2, r4, #15
 8007742:	eb03 03c2 	add.w	r3, r3, r2, lsl #3
 8007746:	e9d3 2300 	ldrd	r2, r3, [r3]
 800774a:	e9dd 010c 	ldrd	r0, r1, [sp, #48]	@ 0x30
 800774e:	f7f8 ff53 	bl	80005f8 <__aeabi_dmul>
 8007752:	e9cd 0102 	strd	r0, r1, [sp, #8]
 8007756:	1124      	asrs	r4, r4, #4
 8007758:	2300      	movs	r3, #0
 800775a:	2602      	movs	r6, #2
 800775c:	2c00      	cmp	r4, #0
 800775e:	f040 80b2 	bne.w	80078c6 <_dtoa_r+0x4fe>
 8007762:	2b00      	cmp	r3, #0
 8007764:	d1d3      	bne.n	800770e <_dtoa_r+0x346>
 8007766:	9b12      	ldr	r3, [sp, #72]	@ 0x48
 8007768:	e9dd 4502 	ldrd	r4, r5, [sp, #8]
 800776c:	2b00      	cmp	r3, #0
 800776e:	f000 80b7 	beq.w	80078e0 <_dtoa_r+0x518>
 8007772:	4b86      	ldr	r3, [pc, #536]	@ (800798c <_dtoa_r+0x5c4>)
 8007774:	2200      	movs	r2, #0
 8007776:	4620      	mov	r0, r4
 8007778:	4629      	mov	r1, r5
 800777a:	f7f9 f9af 	bl	8000adc <__aeabi_dcmplt>
 800777e:	2800      	cmp	r0, #0
 8007780:	f000 80ae 	beq.w	80078e0 <_dtoa_r+0x518>
 8007784:	9b07      	ldr	r3, [sp, #28]
 8007786:	2b00      	cmp	r3, #0
 8007788:	f000 80aa 	beq.w	80078e0 <_dtoa_r+0x518>
 800778c:	9b00      	ldr	r3, [sp, #0]
 800778e:	2b00      	cmp	r3, #0
 8007790:	dd37      	ble.n	8007802 <_dtoa_r+0x43a>
 8007792:	1e7b      	subs	r3, r7, #1
 8007794:	9304      	str	r3, [sp, #16]
 8007796:	4620      	mov	r0, r4
 8007798:	4b7d      	ldr	r3, [pc, #500]	@ (8007990 <_dtoa_r+0x5c8>)
 800779a:	2200      	movs	r2, #0
 800779c:	4629      	mov	r1, r5
 800779e:	f7f8 ff2b 	bl	80005f8 <__aeabi_dmul>
 80077a2:	e9cd 0102 	strd	r0, r1, [sp, #8]
 80077a6:	9c00      	ldr	r4, [sp, #0]
 80077a8:	3601      	adds	r6, #1
 80077aa:	4630      	mov	r0, r6
 80077ac:	f7f8 feba 	bl	8000524 <__aeabi_i2d>
 80077b0:	e9dd 2302 	ldrd	r2, r3, [sp, #8]
 80077b4:	f7f8 ff20 	bl	80005f8 <__aeabi_dmul>
 80077b8:	4b76      	ldr	r3, [pc, #472]	@ (8007994 <_dtoa_r+0x5cc>)
 80077ba:	2200      	movs	r2, #0
 80077bc:	f7f8 fd66 	bl	800028c <__adddf3>
 80077c0:	4605      	mov	r5, r0
 80077c2:	f1a1 7650 	sub.w	r6, r1, #54525952	@ 0x3400000
 80077c6:	2c00      	cmp	r4, #0
 80077c8:	f040 808d 	bne.w	80078e6 <_dtoa_r+0x51e>
 80077cc:	e9dd 0102 	ldrd	r0, r1, [sp, #8]
 80077d0:	4b71      	ldr	r3, [pc, #452]	@ (8007998 <_dtoa_r+0x5d0>)
 80077d2:	2200      	movs	r2, #0
 80077d4:	f7f8 fd58 	bl	8000288 <__aeabi_dsub>
 80077d8:	4602      	mov	r2, r0
 80077da:	460b      	mov	r3, r1
 80077dc:	e9cd 2302 	strd	r2, r3, [sp, #8]
 80077e0:	462a      	mov	r2, r5
 80077e2:	4633      	mov	r3, r6
 80077e4:	f7f9 f998 	bl	8000b18 <__aeabi_dcmpgt>
 80077e8:	2800      	cmp	r0, #0
 80077ea:	f040 828b 	bne.w	8007d04 <_dtoa_r+0x93c>
 80077ee:	e9dd 0102 	ldrd	r0, r1, [sp, #8]
 80077f2:	462a      	mov	r2, r5
 80077f4:	f106 4300 	add.w	r3, r6, #2147483648	@ 0x80000000
 80077f8:	f7f9 f970 	bl	8000adc <__aeabi_dcmplt>
 80077fc:	2800      	cmp	r0, #0
 80077fe:	f040 8128 	bne.w	8007a52 <_dtoa_r+0x68a>
 8007802:	e9dd 340c 	ldrd	r3, r4, [sp, #48]	@ 0x30
 8007806:	e9cd 3402 	strd	r3, r4, [sp, #8]
 800780a:	9b17      	ldr	r3, [sp, #92]	@ 0x5c
 800780c:	2b00      	cmp	r3, #0
 800780e:	f2c0 815a 	blt.w	8007ac6 <_dtoa_r+0x6fe>
 8007812:	2f0e      	cmp	r7, #14
 8007814:	f300 8157 	bgt.w	8007ac6 <_dtoa_r+0x6fe>
 8007818:	4b5a      	ldr	r3, [pc, #360]	@ (8007984 <_dtoa_r+0x5bc>)
 800781a:	eb03 03c7 	add.w	r3, r3, r7, lsl #3
 800781e:	ed93 7b00 	vldr	d7, [r3]
 8007822:	9b0e      	ldr	r3, [sp, #56]	@ 0x38
 8007824:	2b00      	cmp	r3, #0
 8007826:	ed8d 7b00 	vstr	d7, [sp]
 800782a:	da03      	bge.n	8007834 <_dtoa_r+0x46c>
 800782c:	9b07      	ldr	r3, [sp, #28]
 800782e:	2b00      	cmp	r3, #0
 8007830:	f340 8101 	ble.w	8007a36 <_dtoa_r+0x66e>
 8007834:	e9dd 4502 	ldrd	r4, r5, [sp, #8]
 8007838:	4656      	mov	r6, sl
 800783a:	e9dd 2300 	ldrd	r2, r3, [sp]
 800783e:	4620      	mov	r0, r4
 8007840:	4629      	mov	r1, r5
 8007842:	f7f9 f803 	bl	800084c <__aeabi_ddiv>
 8007846:	f7f9 f987 	bl	8000b58 <__aeabi_d2iz>
 800784a:	4680      	mov	r8, r0
 800784c:	f7f8 fe6a 	bl	8000524 <__aeabi_i2d>
 8007850:	e9dd 2300 	ldrd	r2, r3, [sp]
 8007854:	f7f8 fed0 	bl	80005f8 <__aeabi_dmul>
 8007858:	4602      	mov	r2, r0
 800785a:	460b      	mov	r3, r1
 800785c:	4620      	mov	r0, r4
 800785e:	4629      	mov	r1, r5
 8007860:	f108 0430 	add.w	r4, r8, #48	@ 0x30
 8007864:	f7f8 fd10 	bl	8000288 <__aeabi_dsub>
 8007868:	f806 4b01 	strb.w	r4, [r6], #1
 800786c:	9d07      	ldr	r5, [sp, #28]
 800786e:	eba6 040a 	sub.w	r4, r6, sl
 8007872:	42a5      	cmp	r5, r4
 8007874:	4602      	mov	r2, r0
 8007876:	460b      	mov	r3, r1
 8007878:	f040 8117 	bne.w	8007aaa <_dtoa_r+0x6e2>
 800787c:	f7f8 fd06 	bl	800028c <__adddf3>
 8007880:	e9dd 2300 	ldrd	r2, r3, [sp]
 8007884:	4604      	mov	r4, r0
 8007886:	460d      	mov	r5, r1
 8007888:	f7f9 f946 	bl	8000b18 <__aeabi_dcmpgt>
 800788c:	2800      	cmp	r0, #0
 800788e:	f040 80f9 	bne.w	8007a84 <_dtoa_r+0x6bc>
 8007892:	e9dd 2300 	ldrd	r2, r3, [sp]
 8007896:	4620      	mov	r0, r4
 8007898:	4629      	mov	r1, r5
 800789a:	f7f9 f915 	bl	8000ac8 <__aeabi_dcmpeq>
 800789e:	b118      	cbz	r0, 80078a8 <_dtoa_r+0x4e0>
 80078a0:	f018 0f01 	tst.w	r8, #1
 80078a4:	f040 80ee 	bne.w	8007a84 <_dtoa_r+0x6bc>
 80078a8:	4649      	mov	r1, r9
 80078aa:	4658      	mov	r0, fp
 80078ac:	f000 fc90 	bl	80081d0 <_Bfree>
 80078b0:	2300      	movs	r3, #0
 80078b2:	7033      	strb	r3, [r6, #0]
 80078b4:	9b13      	ldr	r3, [sp, #76]	@ 0x4c
 80078b6:	3701      	adds	r7, #1
 80078b8:	601f      	str	r7, [r3, #0]
 80078ba:	9b23      	ldr	r3, [sp, #140]	@ 0x8c
 80078bc:	2b00      	cmp	r3, #0
 80078be:	f000 831d 	beq.w	8007efc <_dtoa_r+0xb34>
 80078c2:	601e      	str	r6, [r3, #0]
 80078c4:	e31a      	b.n	8007efc <_dtoa_r+0xb34>
 80078c6:	07e2      	lsls	r2, r4, #31
 80078c8:	d505      	bpl.n	80078d6 <_dtoa_r+0x50e>
 80078ca:	e9d5 2300 	ldrd	r2, r3, [r5]
 80078ce:	f7f8 fe93 	bl	80005f8 <__aeabi_dmul>
 80078d2:	3601      	adds	r6, #1
 80078d4:	2301      	movs	r3, #1
 80078d6:	1064      	asrs	r4, r4, #1
 80078d8:	3508      	adds	r5, #8
 80078da:	e73f      	b.n	800775c <_dtoa_r+0x394>
 80078dc:	2602      	movs	r6, #2
 80078de:	e742      	b.n	8007766 <_dtoa_r+0x39e>
 80078e0:	9c07      	ldr	r4, [sp, #28]
 80078e2:	9704      	str	r7, [sp, #16]
 80078e4:	e761      	b.n	80077aa <_dtoa_r+0x3e2>
 80078e6:	4b27      	ldr	r3, [pc, #156]	@ (8007984 <_dtoa_r+0x5bc>)
 80078e8:	990b      	ldr	r1, [sp, #44]	@ 0x2c
 80078ea:	eb03 03c4 	add.w	r3, r3, r4, lsl #3
 80078ee:	e953 2302 	ldrd	r2, r3, [r3, #-8]
 80078f2:	4454      	add	r4, sl
 80078f4:	2900      	cmp	r1, #0
 80078f6:	d053      	beq.n	80079a0 <_dtoa_r+0x5d8>
 80078f8:	4928      	ldr	r1, [pc, #160]	@ (800799c <_dtoa_r+0x5d4>)
 80078fa:	2000      	movs	r0, #0
 80078fc:	f7f8 ffa6 	bl	800084c <__aeabi_ddiv>
 8007900:	4633      	mov	r3, r6
 8007902:	462a      	mov	r2, r5
 8007904:	f7f8 fcc0 	bl	8000288 <__aeabi_dsub>
 8007908:	e9cd 0110 	strd	r0, r1, [sp, #64]	@ 0x40
 800790c:	4656      	mov	r6, sl
 800790e:	e9dd 0102 	ldrd	r0, r1, [sp, #8]
 8007912:	f7f9 f921 	bl	8000b58 <__aeabi_d2iz>
 8007916:	4605      	mov	r5, r0
 8007918:	f7f8 fe04 	bl	8000524 <__aeabi_i2d>
 800791c:	4602      	mov	r2, r0
 800791e:	460b      	mov	r3, r1
 8007920:	e9dd 0102 	ldrd	r0, r1, [sp, #8]
 8007924:	f7f8 fcb0 	bl	8000288 <__aeabi_dsub>
 8007928:	3530      	adds	r5, #48	@ 0x30
 800792a:	4602      	mov	r2, r0
 800792c:	460b      	mov	r3, r1
 800792e:	e9cd 2302 	strd	r2, r3, [sp, #8]
 8007932:	f806 5b01 	strb.w	r5, [r6], #1
 8007936:	e9dd 2310 	ldrd	r2, r3, [sp, #64]	@ 0x40
 800793a:	f7f9 f8cf 	bl	8000adc <__aeabi_dcmplt>
 800793e:	2800      	cmp	r0, #0
 8007940:	d171      	bne.n	8007a26 <_dtoa_r+0x65e>
 8007942:	e9dd 2302 	ldrd	r2, r3, [sp, #8]
 8007946:	4911      	ldr	r1, [pc, #68]	@ (800798c <_dtoa_r+0x5c4>)
 8007948:	2000      	movs	r0, #0
 800794a:	f7f8 fc9d 	bl	8000288 <__aeabi_dsub>
 800794e:	e9dd 2310 	ldrd	r2, r3, [sp, #64]	@ 0x40
 8007952:	f7f9 f8c3 	bl	8000adc <__aeabi_dcmplt>
 8007956:	2800      	cmp	r0, #0
 8007958:	f040 8095 	bne.w	8007a86 <_dtoa_r+0x6be>
 800795c:	42a6      	cmp	r6, r4
 800795e:	f43f af50 	beq.w	8007802 <_dtoa_r+0x43a>
 8007962:	e9dd 0110 	ldrd	r0, r1, [sp, #64]	@ 0x40
 8007966:	4b0a      	ldr	r3, [pc, #40]	@ (8007990 <_dtoa_r+0x5c8>)
 8007968:	2200      	movs	r2, #0
 800796a:	f7f8 fe45 	bl	80005f8 <__aeabi_dmul>
 800796e:	4b08      	ldr	r3, [pc, #32]	@ (8007990 <_dtoa_r+0x5c8>)
 8007970:	e9cd 0110 	strd	r0, r1, [sp, #64]	@ 0x40
 8007974:	2200      	movs	r2, #0
 8007976:	e9dd 0102 	ldrd	r0, r1, [sp, #8]
 800797a:	f7f8 fe3d 	bl	80005f8 <__aeabi_dmul>
 800797e:	e9cd 0102 	strd	r0, r1, [sp, #8]
 8007982:	e7c4      	b.n	800790e <_dtoa_r+0x546>
 8007984:	08009518 	.word	0x08009518
 8007988:	080094f0 	.word	0x080094f0
 800798c:	3ff00000 	.word	0x3ff00000
 8007990:	40240000 	.word	0x40240000
 8007994:	401c0000 	.word	0x401c0000
 8007998:	40140000 	.word	0x40140000
 800799c:	3fe00000 	.word	0x3fe00000
 80079a0:	4631      	mov	r1, r6
 80079a2:	4628      	mov	r0, r5
 80079a4:	f7f8 fe28 	bl	80005f8 <__aeabi_dmul>
 80079a8:	e9cd 0110 	strd	r0, r1, [sp, #64]	@ 0x40
 80079ac:	9415      	str	r4, [sp, #84]	@ 0x54
 80079ae:	4656      	mov	r6, sl
 80079b0:	e9dd 0102 	ldrd	r0, r1, [sp, #8]
 80079b4:	f7f9 f8d0 	bl	8000b58 <__aeabi_d2iz>
 80079b8:	4605      	mov	r5, r0
 80079ba:	f7f8 fdb3 	bl	8000524 <__aeabi_i2d>
 80079be:	4602      	mov	r2, r0
 80079c0:	460b      	mov	r3, r1
 80079c2:	e9dd 0102 	ldrd	r0, r1, [sp, #8]
 80079c6:	f7f8 fc5f 	bl	8000288 <__aeabi_dsub>
 80079ca:	3530      	adds	r5, #48	@ 0x30
 80079cc:	f806 5b01 	strb.w	r5, [r6], #1
 80079d0:	4602      	mov	r2, r0
 80079d2:	460b      	mov	r3, r1
 80079d4:	42a6      	cmp	r6, r4
 80079d6:	e9cd 2302 	strd	r2, r3, [sp, #8]
 80079da:	f04f 0200 	mov.w	r2, #0
 80079de:	d124      	bne.n	8007a2a <_dtoa_r+0x662>
 80079e0:	4bac      	ldr	r3, [pc, #688]	@ (8007c94 <_dtoa_r+0x8cc>)
 80079e2:	e9dd 0110 	ldrd	r0, r1, [sp, #64]	@ 0x40
 80079e6:	f7f8 fc51 	bl	800028c <__adddf3>
 80079ea:	4602      	mov	r2, r0
 80079ec:	460b      	mov	r3, r1
 80079ee:	e9dd 0102 	ldrd	r0, r1, [sp, #8]
 80079f2:	f7f9 f891 	bl	8000b18 <__aeabi_dcmpgt>
 80079f6:	2800      	cmp	r0, #0
 80079f8:	d145      	bne.n	8007a86 <_dtoa_r+0x6be>
 80079fa:	e9dd 2310 	ldrd	r2, r3, [sp, #64]	@ 0x40
 80079fe:	49a5      	ldr	r1, [pc, #660]	@ (8007c94 <_dtoa_r+0x8cc>)
 8007a00:	2000      	movs	r0, #0
 8007a02:	f7f8 fc41 	bl	8000288 <__aeabi_dsub>
 8007a06:	4602      	mov	r2, r0
 8007a08:	460b      	mov	r3, r1
 8007a0a:	e9dd 0102 	ldrd	r0, r1, [sp, #8]
 8007a0e:	f7f9 f865 	bl	8000adc <__aeabi_dcmplt>
 8007a12:	2800      	cmp	r0, #0
 8007a14:	f43f aef5 	beq.w	8007802 <_dtoa_r+0x43a>
 8007a18:	9e15      	ldr	r6, [sp, #84]	@ 0x54
 8007a1a:	1e73      	subs	r3, r6, #1
 8007a1c:	9315      	str	r3, [sp, #84]	@ 0x54
 8007a1e:	f816 3c01 	ldrb.w	r3, [r6, #-1]
 8007a22:	2b30      	cmp	r3, #48	@ 0x30
 8007a24:	d0f8      	beq.n	8007a18 <_dtoa_r+0x650>
 8007a26:	9f04      	ldr	r7, [sp, #16]
 8007a28:	e73e      	b.n	80078a8 <_dtoa_r+0x4e0>
 8007a2a:	4b9b      	ldr	r3, [pc, #620]	@ (8007c98 <_dtoa_r+0x8d0>)
 8007a2c:	f7f8 fde4 	bl	80005f8 <__aeabi_dmul>
 8007a30:	e9cd 0102 	strd	r0, r1, [sp, #8]
 8007a34:	e7bc      	b.n	80079b0 <_dtoa_r+0x5e8>
 8007a36:	d10c      	bne.n	8007a52 <_dtoa_r+0x68a>
 8007a38:	4b98      	ldr	r3, [pc, #608]	@ (8007c9c <_dtoa_r+0x8d4>)
 8007a3a:	2200      	movs	r2, #0
 8007a3c:	e9dd 0100 	ldrd	r0, r1, [sp]
 8007a40:	f7f8 fdda 	bl	80005f8 <__aeabi_dmul>
 8007a44:	e9dd 2302 	ldrd	r2, r3, [sp, #8]
 8007a48:	f7f9 f85c 	bl	8000b04 <__aeabi_dcmpge>
 8007a4c:	2800      	cmp	r0, #0
 8007a4e:	f000 8157 	beq.w	8007d00 <_dtoa_r+0x938>
 8007a52:	2400      	movs	r4, #0
 8007a54:	4625      	mov	r5, r4
 8007a56:	9b0e      	ldr	r3, [sp, #56]	@ 0x38
 8007a58:	43db      	mvns	r3, r3
 8007a5a:	9304      	str	r3, [sp, #16]
 8007a5c:	4656      	mov	r6, sl
 8007a5e:	2700      	movs	r7, #0
 8007a60:	4621      	mov	r1, r4
 8007a62:	4658      	mov	r0, fp
 8007a64:	f000 fbb4 	bl	80081d0 <_Bfree>
 8007a68:	2d00      	cmp	r5, #0
 8007a6a:	d0dc      	beq.n	8007a26 <_dtoa_r+0x65e>
 8007a6c:	b12f      	cbz	r7, 8007a7a <_dtoa_r+0x6b2>
 8007a6e:	42af      	cmp	r7, r5
 8007a70:	d003      	beq.n	8007a7a <_dtoa_r+0x6b2>
 8007a72:	4639      	mov	r1, r7
 8007a74:	4658      	mov	r0, fp
 8007a76:	f000 fbab 	bl	80081d0 <_Bfree>
 8007a7a:	4629      	mov	r1, r5
 8007a7c:	4658      	mov	r0, fp
 8007a7e:	f000 fba7 	bl	80081d0 <_Bfree>
 8007a82:	e7d0      	b.n	8007a26 <_dtoa_r+0x65e>
 8007a84:	9704      	str	r7, [sp, #16]
 8007a86:	4633      	mov	r3, r6
 8007a88:	461e      	mov	r6, r3
 8007a8a:	f813 2d01 	ldrb.w	r2, [r3, #-1]!
 8007a8e:	2a39      	cmp	r2, #57	@ 0x39
 8007a90:	d107      	bne.n	8007aa2 <_dtoa_r+0x6da>
 8007a92:	459a      	cmp	sl, r3
 8007a94:	d1f8      	bne.n	8007a88 <_dtoa_r+0x6c0>
 8007a96:	9a04      	ldr	r2, [sp, #16]
 8007a98:	3201      	adds	r2, #1
 8007a9a:	9204      	str	r2, [sp, #16]
 8007a9c:	2230      	movs	r2, #48	@ 0x30
 8007a9e:	f88a 2000 	strb.w	r2, [sl]
 8007aa2:	781a      	ldrb	r2, [r3, #0]
 8007aa4:	3201      	adds	r2, #1
 8007aa6:	701a      	strb	r2, [r3, #0]
 8007aa8:	e7bd      	b.n	8007a26 <_dtoa_r+0x65e>
 8007aaa:	4b7b      	ldr	r3, [pc, #492]	@ (8007c98 <_dtoa_r+0x8d0>)
 8007aac:	2200      	movs	r2, #0
 8007aae:	f7f8 fda3 	bl	80005f8 <__aeabi_dmul>
 8007ab2:	2200      	movs	r2, #0
 8007ab4:	2300      	movs	r3, #0
 8007ab6:	4604      	mov	r4, r0
 8007ab8:	460d      	mov	r5, r1
 8007aba:	f7f9 f805 	bl	8000ac8 <__aeabi_dcmpeq>
 8007abe:	2800      	cmp	r0, #0
 8007ac0:	f43f aebb 	beq.w	800783a <_dtoa_r+0x472>
 8007ac4:	e6f0      	b.n	80078a8 <_dtoa_r+0x4e0>
 8007ac6:	9a0b      	ldr	r2, [sp, #44]	@ 0x2c
 8007ac8:	2a00      	cmp	r2, #0
 8007aca:	f000 80db 	beq.w	8007c84 <_dtoa_r+0x8bc>
 8007ace:	9a09      	ldr	r2, [sp, #36]	@ 0x24
 8007ad0:	2a01      	cmp	r2, #1
 8007ad2:	f300 80bf 	bgt.w	8007c54 <_dtoa_r+0x88c>
 8007ad6:	9a14      	ldr	r2, [sp, #80]	@ 0x50
 8007ad8:	2a00      	cmp	r2, #0
 8007ada:	f000 80b7 	beq.w	8007c4c <_dtoa_r+0x884>
 8007ade:	f203 4333 	addw	r3, r3, #1075	@ 0x433
 8007ae2:	9c0a      	ldr	r4, [sp, #40]	@ 0x28
 8007ae4:	4646      	mov	r6, r8
 8007ae6:	9a08      	ldr	r2, [sp, #32]
 8007ae8:	2101      	movs	r1, #1
 8007aea:	441a      	add	r2, r3
 8007aec:	4658      	mov	r0, fp
 8007aee:	4498      	add	r8, r3
 8007af0:	9208      	str	r2, [sp, #32]
 8007af2:	f000 fc21 	bl	8008338 <__i2b>
 8007af6:	4605      	mov	r5, r0
 8007af8:	b15e      	cbz	r6, 8007b12 <_dtoa_r+0x74a>
 8007afa:	9b08      	ldr	r3, [sp, #32]
 8007afc:	2b00      	cmp	r3, #0
 8007afe:	dd08      	ble.n	8007b12 <_dtoa_r+0x74a>
 8007b00:	42b3      	cmp	r3, r6
 8007b02:	9a08      	ldr	r2, [sp, #32]
 8007b04:	bfa8      	it	ge
 8007b06:	4633      	movge	r3, r6
 8007b08:	eba8 0803 	sub.w	r8, r8, r3
 8007b0c:	1af6      	subs	r6, r6, r3
 8007b0e:	1ad3      	subs	r3, r2, r3
 8007b10:	9308      	str	r3, [sp, #32]
 8007b12:	9b0a      	ldr	r3, [sp, #40]	@ 0x28
 8007b14:	b1f3      	cbz	r3, 8007b54 <_dtoa_r+0x78c>
 8007b16:	9b0b      	ldr	r3, [sp, #44]	@ 0x2c
 8007b18:	2b00      	cmp	r3, #0
 8007b1a:	f000 80b7 	beq.w	8007c8c <_dtoa_r+0x8c4>
 8007b1e:	b18c      	cbz	r4, 8007b44 <_dtoa_r+0x77c>
 8007b20:	4629      	mov	r1, r5
 8007b22:	4622      	mov	r2, r4
 8007b24:	4658      	mov	r0, fp
 8007b26:	f000 fcc7 	bl	80084b8 <__pow5mult>
 8007b2a:	464a      	mov	r2, r9
 8007b2c:	4601      	mov	r1, r0
 8007b2e:	4605      	mov	r5, r0
 8007b30:	4658      	mov	r0, fp
 8007b32:	f000 fc17 	bl	8008364 <__multiply>
 8007b36:	4649      	mov	r1, r9
 8007b38:	9004      	str	r0, [sp, #16]
 8007b3a:	4658      	mov	r0, fp
 8007b3c:	f000 fb48 	bl	80081d0 <_Bfree>
 8007b40:	9b04      	ldr	r3, [sp, #16]
 8007b42:	4699      	mov	r9, r3
 8007b44:	9b0a      	ldr	r3, [sp, #40]	@ 0x28
 8007b46:	1b1a      	subs	r2, r3, r4
 8007b48:	d004      	beq.n	8007b54 <_dtoa_r+0x78c>
 8007b4a:	4649      	mov	r1, r9
 8007b4c:	4658      	mov	r0, fp
 8007b4e:	f000 fcb3 	bl	80084b8 <__pow5mult>
 8007b52:	4681      	mov	r9, r0
 8007b54:	2101      	movs	r1, #1
 8007b56:	4658      	mov	r0, fp
 8007b58:	f000 fbee 	bl	8008338 <__i2b>
 8007b5c:	9b0f      	ldr	r3, [sp, #60]	@ 0x3c
 8007b5e:	4604      	mov	r4, r0
 8007b60:	2b00      	cmp	r3, #0
 8007b62:	f000 81cf 	beq.w	8007f04 <_dtoa_r+0xb3c>
 8007b66:	461a      	mov	r2, r3
 8007b68:	4601      	mov	r1, r0
 8007b6a:	4658      	mov	r0, fp
 8007b6c:	f000 fca4 	bl	80084b8 <__pow5mult>
 8007b70:	9b09      	ldr	r3, [sp, #36]	@ 0x24
 8007b72:	2b01      	cmp	r3, #1
 8007b74:	4604      	mov	r4, r0
 8007b76:	f300 8095 	bgt.w	8007ca4 <_dtoa_r+0x8dc>
 8007b7a:	9b02      	ldr	r3, [sp, #8]
 8007b7c:	2b00      	cmp	r3, #0
 8007b7e:	f040 8087 	bne.w	8007c90 <_dtoa_r+0x8c8>
 8007b82:	9b03      	ldr	r3, [sp, #12]
 8007b84:	f3c3 0313 	ubfx	r3, r3, #0, #20
 8007b88:	2b00      	cmp	r3, #0
 8007b8a:	f040 8089 	bne.w	8007ca0 <_dtoa_r+0x8d8>
 8007b8e:	9b03      	ldr	r3, [sp, #12]
 8007b90:	f023 4300 	bic.w	r3, r3, #2147483648	@ 0x80000000
 8007b94:	0d1b      	lsrs	r3, r3, #20
 8007b96:	051b      	lsls	r3, r3, #20
 8007b98:	b12b      	cbz	r3, 8007ba6 <_dtoa_r+0x7de>
 8007b9a:	9b08      	ldr	r3, [sp, #32]
 8007b9c:	3301      	adds	r3, #1
 8007b9e:	9308      	str	r3, [sp, #32]
 8007ba0:	f108 0801 	add.w	r8, r8, #1
 8007ba4:	2301      	movs	r3, #1
 8007ba6:	930a      	str	r3, [sp, #40]	@ 0x28
 8007ba8:	9b0f      	ldr	r3, [sp, #60]	@ 0x3c
 8007baa:	2b00      	cmp	r3, #0
 8007bac:	f000 81b0 	beq.w	8007f10 <_dtoa_r+0xb48>
 8007bb0:	6923      	ldr	r3, [r4, #16]
 8007bb2:	eb04 0383 	add.w	r3, r4, r3, lsl #2
 8007bb6:	6918      	ldr	r0, [r3, #16]
 8007bb8:	f000 fb72 	bl	80082a0 <__hi0bits>
 8007bbc:	f1c0 0020 	rsb	r0, r0, #32
 8007bc0:	9b08      	ldr	r3, [sp, #32]
 8007bc2:	4418      	add	r0, r3
 8007bc4:	f010 001f 	ands.w	r0, r0, #31
 8007bc8:	d077      	beq.n	8007cba <_dtoa_r+0x8f2>
 8007bca:	f1c0 0320 	rsb	r3, r0, #32
 8007bce:	2b04      	cmp	r3, #4
 8007bd0:	dd6b      	ble.n	8007caa <_dtoa_r+0x8e2>
 8007bd2:	9b08      	ldr	r3, [sp, #32]
 8007bd4:	f1c0 001c 	rsb	r0, r0, #28
 8007bd8:	4403      	add	r3, r0
 8007bda:	4480      	add	r8, r0
 8007bdc:	4406      	add	r6, r0
 8007bde:	9308      	str	r3, [sp, #32]
 8007be0:	f1b8 0f00 	cmp.w	r8, #0
 8007be4:	dd05      	ble.n	8007bf2 <_dtoa_r+0x82a>
 8007be6:	4649      	mov	r1, r9
 8007be8:	4642      	mov	r2, r8
 8007bea:	4658      	mov	r0, fp
 8007bec:	f000 fcbe 	bl	800856c <__lshift>
 8007bf0:	4681      	mov	r9, r0
 8007bf2:	9b08      	ldr	r3, [sp, #32]
 8007bf4:	2b00      	cmp	r3, #0
 8007bf6:	dd05      	ble.n	8007c04 <_dtoa_r+0x83c>
 8007bf8:	4621      	mov	r1, r4
 8007bfa:	461a      	mov	r2, r3
 8007bfc:	4658      	mov	r0, fp
 8007bfe:	f000 fcb5 	bl	800856c <__lshift>
 8007c02:	4604      	mov	r4, r0
 8007c04:	9b12      	ldr	r3, [sp, #72]	@ 0x48
 8007c06:	2b00      	cmp	r3, #0
 8007c08:	d059      	beq.n	8007cbe <_dtoa_r+0x8f6>
 8007c0a:	4621      	mov	r1, r4
 8007c0c:	4648      	mov	r0, r9
 8007c0e:	f000 fd19 	bl	8008644 <__mcmp>
 8007c12:	2800      	cmp	r0, #0
 8007c14:	da53      	bge.n	8007cbe <_dtoa_r+0x8f6>
 8007c16:	1e7b      	subs	r3, r7, #1
 8007c18:	9304      	str	r3, [sp, #16]
 8007c1a:	4649      	mov	r1, r9
 8007c1c:	2300      	movs	r3, #0
 8007c1e:	220a      	movs	r2, #10
 8007c20:	4658      	mov	r0, fp
 8007c22:	f000 faf7 	bl	8008214 <__multadd>
 8007c26:	9b0b      	ldr	r3, [sp, #44]	@ 0x2c
 8007c28:	4681      	mov	r9, r0
 8007c2a:	2b00      	cmp	r3, #0
 8007c2c:	f000 8172 	beq.w	8007f14 <_dtoa_r+0xb4c>
 8007c30:	2300      	movs	r3, #0
 8007c32:	4629      	mov	r1, r5
 8007c34:	220a      	movs	r2, #10
 8007c36:	4658      	mov	r0, fp
 8007c38:	f000 faec 	bl	8008214 <__multadd>
 8007c3c:	9b00      	ldr	r3, [sp, #0]
 8007c3e:	2b00      	cmp	r3, #0
 8007c40:	4605      	mov	r5, r0
 8007c42:	dc67      	bgt.n	8007d14 <_dtoa_r+0x94c>
 8007c44:	9b09      	ldr	r3, [sp, #36]	@ 0x24
 8007c46:	2b02      	cmp	r3, #2
 8007c48:	dc41      	bgt.n	8007cce <_dtoa_r+0x906>
 8007c4a:	e063      	b.n	8007d14 <_dtoa_r+0x94c>
 8007c4c:	9b16      	ldr	r3, [sp, #88]	@ 0x58
 8007c4e:	f1c3 0336 	rsb	r3, r3, #54	@ 0x36
 8007c52:	e746      	b.n	8007ae2 <_dtoa_r+0x71a>
 8007c54:	9b07      	ldr	r3, [sp, #28]
 8007c56:	1e5c      	subs	r4, r3, #1
 8007c58:	9b0a      	ldr	r3, [sp, #40]	@ 0x28
 8007c5a:	42a3      	cmp	r3, r4
 8007c5c:	bfbf      	itttt	lt
 8007c5e:	9b0a      	ldrlt	r3, [sp, #40]	@ 0x28
 8007c60:	9a0f      	ldrlt	r2, [sp, #60]	@ 0x3c
 8007c62:	940a      	strlt	r4, [sp, #40]	@ 0x28
 8007c64:	1ae3      	sublt	r3, r4, r3
 8007c66:	bfb4      	ite	lt
 8007c68:	18d2      	addlt	r2, r2, r3
 8007c6a:	1b1c      	subge	r4, r3, r4
 8007c6c:	9b07      	ldr	r3, [sp, #28]
 8007c6e:	bfbc      	itt	lt
 8007c70:	920f      	strlt	r2, [sp, #60]	@ 0x3c
 8007c72:	2400      	movlt	r4, #0
 8007c74:	2b00      	cmp	r3, #0
 8007c76:	bfb5      	itete	lt
 8007c78:	eba8 0603 	sublt.w	r6, r8, r3
 8007c7c:	9b07      	ldrge	r3, [sp, #28]
 8007c7e:	2300      	movlt	r3, #0
 8007c80:	4646      	movge	r6, r8
 8007c82:	e730      	b.n	8007ae6 <_dtoa_r+0x71e>
 8007c84:	9c0a      	ldr	r4, [sp, #40]	@ 0x28
 8007c86:	9d0b      	ldr	r5, [sp, #44]	@ 0x2c
 8007c88:	4646      	mov	r6, r8
 8007c8a:	e735      	b.n	8007af8 <_dtoa_r+0x730>
 8007c8c:	9a0a      	ldr	r2, [sp, #40]	@ 0x28
 8007c8e:	e75c      	b.n	8007b4a <_dtoa_r+0x782>
 8007c90:	2300      	movs	r3, #0
 8007c92:	e788      	b.n	8007ba6 <_dtoa_r+0x7de>
 8007c94:	3fe00000 	.word	0x3fe00000
 8007c98:	40240000 	.word	0x40240000
 8007c9c:	40140000 	.word	0x40140000
 8007ca0:	9b02      	ldr	r3, [sp, #8]
 8007ca2:	e780      	b.n	8007ba6 <_dtoa_r+0x7de>
 8007ca4:	2300      	movs	r3, #0
 8007ca6:	930a      	str	r3, [sp, #40]	@ 0x28
 8007ca8:	e782      	b.n	8007bb0 <_dtoa_r+0x7e8>
 8007caa:	d099      	beq.n	8007be0 <_dtoa_r+0x818>
 8007cac:	9a08      	ldr	r2, [sp, #32]
 8007cae:	331c      	adds	r3, #28
 8007cb0:	441a      	add	r2, r3
 8007cb2:	4498      	add	r8, r3
 8007cb4:	441e      	add	r6, r3
 8007cb6:	9208      	str	r2, [sp, #32]
 8007cb8:	e792      	b.n	8007be0 <_dtoa_r+0x818>
 8007cba:	4603      	mov	r3, r0
 8007cbc:	e7f6      	b.n	8007cac <_dtoa_r+0x8e4>
 8007cbe:	9b07      	ldr	r3, [sp, #28]
 8007cc0:	9704      	str	r7, [sp, #16]
 8007cc2:	2b00      	cmp	r3, #0
 8007cc4:	dc20      	bgt.n	8007d08 <_dtoa_r+0x940>
 8007cc6:	9300      	str	r3, [sp, #0]
 8007cc8:	9b09      	ldr	r3, [sp, #36]	@ 0x24
 8007cca:	2b02      	cmp	r3, #2
 8007ccc:	dd1e      	ble.n	8007d0c <_dtoa_r+0x944>
 8007cce:	9b00      	ldr	r3, [sp, #0]
 8007cd0:	2b00      	cmp	r3, #0
 8007cd2:	f47f aec0 	bne.w	8007a56 <_dtoa_r+0x68e>
 8007cd6:	4621      	mov	r1, r4
 8007cd8:	2205      	movs	r2, #5
 8007cda:	4658      	mov	r0, fp
 8007cdc:	f000 fa9a 	bl	8008214 <__multadd>
 8007ce0:	4601      	mov	r1, r0
 8007ce2:	4604      	mov	r4, r0
 8007ce4:	4648      	mov	r0, r9
 8007ce6:	f000 fcad 	bl	8008644 <__mcmp>
 8007cea:	2800      	cmp	r0, #0
 8007cec:	f77f aeb3 	ble.w	8007a56 <_dtoa_r+0x68e>
 8007cf0:	4656      	mov	r6, sl
 8007cf2:	2331      	movs	r3, #49	@ 0x31
 8007cf4:	f806 3b01 	strb.w	r3, [r6], #1
 8007cf8:	9b04      	ldr	r3, [sp, #16]
 8007cfa:	3301      	adds	r3, #1
 8007cfc:	9304      	str	r3, [sp, #16]
 8007cfe:	e6ae      	b.n	8007a5e <_dtoa_r+0x696>
 8007d00:	9c07      	ldr	r4, [sp, #28]
 8007d02:	9704      	str	r7, [sp, #16]
 8007d04:	4625      	mov	r5, r4
 8007d06:	e7f3      	b.n	8007cf0 <_dtoa_r+0x928>
 8007d08:	9b07      	ldr	r3, [sp, #28]
 8007d0a:	9300      	str	r3, [sp, #0]
 8007d0c:	9b0b      	ldr	r3, [sp, #44]	@ 0x2c
 8007d0e:	2b00      	cmp	r3, #0
 8007d10:	f000 8104 	beq.w	8007f1c <_dtoa_r+0xb54>
 8007d14:	2e00      	cmp	r6, #0
 8007d16:	dd05      	ble.n	8007d24 <_dtoa_r+0x95c>
 8007d18:	4629      	mov	r1, r5
 8007d1a:	4632      	mov	r2, r6
 8007d1c:	4658      	mov	r0, fp
 8007d1e:	f000 fc25 	bl	800856c <__lshift>
 8007d22:	4605      	mov	r5, r0
 8007d24:	9b0a      	ldr	r3, [sp, #40]	@ 0x28
 8007d26:	2b00      	cmp	r3, #0
 8007d28:	d05a      	beq.n	8007de0 <_dtoa_r+0xa18>
 8007d2a:	6869      	ldr	r1, [r5, #4]
 8007d2c:	4658      	mov	r0, fp
 8007d2e:	f000 fa0f 	bl	8008150 <_Balloc>
 8007d32:	4606      	mov	r6, r0
 8007d34:	b928      	cbnz	r0, 8007d42 <_dtoa_r+0x97a>
 8007d36:	4b84      	ldr	r3, [pc, #528]	@ (8007f48 <_dtoa_r+0xb80>)
 8007d38:	4602      	mov	r2, r0
 8007d3a:	f240 21ef 	movw	r1, #751	@ 0x2ef
 8007d3e:	f7ff bb5a 	b.w	80073f6 <_dtoa_r+0x2e>
 8007d42:	692a      	ldr	r2, [r5, #16]
 8007d44:	3202      	adds	r2, #2
 8007d46:	0092      	lsls	r2, r2, #2
 8007d48:	f105 010c 	add.w	r1, r5, #12
 8007d4c:	300c      	adds	r0, #12
 8007d4e:	f000 ffaf 	bl	8008cb0 <memcpy>
 8007d52:	2201      	movs	r2, #1
 8007d54:	4631      	mov	r1, r6
 8007d56:	4658      	mov	r0, fp
 8007d58:	f000 fc08 	bl	800856c <__lshift>
 8007d5c:	f10a 0301 	add.w	r3, sl, #1
 8007d60:	9307      	str	r3, [sp, #28]
 8007d62:	9b00      	ldr	r3, [sp, #0]
 8007d64:	4453      	add	r3, sl
 8007d66:	930b      	str	r3, [sp, #44]	@ 0x2c
 8007d68:	9b02      	ldr	r3, [sp, #8]
 8007d6a:	f003 0301 	and.w	r3, r3, #1
 8007d6e:	462f      	mov	r7, r5
 8007d70:	930a      	str	r3, [sp, #40]	@ 0x28
 8007d72:	4605      	mov	r5, r0
 8007d74:	9b07      	ldr	r3, [sp, #28]
 8007d76:	4621      	mov	r1, r4
 8007d78:	3b01      	subs	r3, #1
 8007d7a:	4648      	mov	r0, r9
 8007d7c:	9300      	str	r3, [sp, #0]
 8007d7e:	f7ff fa98 	bl	80072b2 <quorem>
 8007d82:	4639      	mov	r1, r7
 8007d84:	9002      	str	r0, [sp, #8]
 8007d86:	f100 0830 	add.w	r8, r0, #48	@ 0x30
 8007d8a:	4648      	mov	r0, r9
 8007d8c:	f000 fc5a 	bl	8008644 <__mcmp>
 8007d90:	462a      	mov	r2, r5
 8007d92:	9008      	str	r0, [sp, #32]
 8007d94:	4621      	mov	r1, r4
 8007d96:	4658      	mov	r0, fp
 8007d98:	f000 fc70 	bl	800867c <__mdiff>
 8007d9c:	68c2      	ldr	r2, [r0, #12]
 8007d9e:	4606      	mov	r6, r0
 8007da0:	bb02      	cbnz	r2, 8007de4 <_dtoa_r+0xa1c>
 8007da2:	4601      	mov	r1, r0
 8007da4:	4648      	mov	r0, r9
 8007da6:	f000 fc4d 	bl	8008644 <__mcmp>
 8007daa:	4602      	mov	r2, r0
 8007dac:	4631      	mov	r1, r6
 8007dae:	4658      	mov	r0, fp
 8007db0:	920e      	str	r2, [sp, #56]	@ 0x38
 8007db2:	f000 fa0d 	bl	80081d0 <_Bfree>
 8007db6:	9b09      	ldr	r3, [sp, #36]	@ 0x24
 8007db8:	9a0e      	ldr	r2, [sp, #56]	@ 0x38
 8007dba:	9e07      	ldr	r6, [sp, #28]
 8007dbc:	ea43 0102 	orr.w	r1, r3, r2
 8007dc0:	9b0a      	ldr	r3, [sp, #40]	@ 0x28
 8007dc2:	4319      	orrs	r1, r3
 8007dc4:	d110      	bne.n	8007de8 <_dtoa_r+0xa20>
 8007dc6:	f1b8 0f39 	cmp.w	r8, #57	@ 0x39
 8007dca:	d029      	beq.n	8007e20 <_dtoa_r+0xa58>
 8007dcc:	9b08      	ldr	r3, [sp, #32]
 8007dce:	2b00      	cmp	r3, #0
 8007dd0:	dd02      	ble.n	8007dd8 <_dtoa_r+0xa10>
 8007dd2:	9b02      	ldr	r3, [sp, #8]
 8007dd4:	f103 0831 	add.w	r8, r3, #49	@ 0x31
 8007dd8:	9b00      	ldr	r3, [sp, #0]
 8007dda:	f883 8000 	strb.w	r8, [r3]
 8007dde:	e63f      	b.n	8007a60 <_dtoa_r+0x698>
 8007de0:	4628      	mov	r0, r5
 8007de2:	e7bb      	b.n	8007d5c <_dtoa_r+0x994>
 8007de4:	2201      	movs	r2, #1
 8007de6:	e7e1      	b.n	8007dac <_dtoa_r+0x9e4>
 8007de8:	9b08      	ldr	r3, [sp, #32]
 8007dea:	2b00      	cmp	r3, #0
 8007dec:	db04      	blt.n	8007df8 <_dtoa_r+0xa30>
 8007dee:	9909      	ldr	r1, [sp, #36]	@ 0x24
 8007df0:	430b      	orrs	r3, r1
 8007df2:	990a      	ldr	r1, [sp, #40]	@ 0x28
 8007df4:	430b      	orrs	r3, r1
 8007df6:	d120      	bne.n	8007e3a <_dtoa_r+0xa72>
 8007df8:	2a00      	cmp	r2, #0
 8007dfa:	dded      	ble.n	8007dd8 <_dtoa_r+0xa10>
 8007dfc:	4649      	mov	r1, r9
 8007dfe:	2201      	movs	r2, #1
 8007e00:	4658      	mov	r0, fp
 8007e02:	f000 fbb3 	bl	800856c <__lshift>
 8007e06:	4621      	mov	r1, r4
 8007e08:	4681      	mov	r9, r0
 8007e0a:	f000 fc1b 	bl	8008644 <__mcmp>
 8007e0e:	2800      	cmp	r0, #0
 8007e10:	dc03      	bgt.n	8007e1a <_dtoa_r+0xa52>
 8007e12:	d1e1      	bne.n	8007dd8 <_dtoa_r+0xa10>
 8007e14:	f018 0f01 	tst.w	r8, #1
 8007e18:	d0de      	beq.n	8007dd8 <_dtoa_r+0xa10>
 8007e1a:	f1b8 0f39 	cmp.w	r8, #57	@ 0x39
 8007e1e:	d1d8      	bne.n	8007dd2 <_dtoa_r+0xa0a>
 8007e20:	9a00      	ldr	r2, [sp, #0]
 8007e22:	2339      	movs	r3, #57	@ 0x39
 8007e24:	7013      	strb	r3, [r2, #0]
 8007e26:	4633      	mov	r3, r6
 8007e28:	461e      	mov	r6, r3
 8007e2a:	3b01      	subs	r3, #1
 8007e2c:	f816 2c01 	ldrb.w	r2, [r6, #-1]
 8007e30:	2a39      	cmp	r2, #57	@ 0x39
 8007e32:	d052      	beq.n	8007eda <_dtoa_r+0xb12>
 8007e34:	3201      	adds	r2, #1
 8007e36:	701a      	strb	r2, [r3, #0]
 8007e38:	e612      	b.n	8007a60 <_dtoa_r+0x698>
 8007e3a:	2a00      	cmp	r2, #0
 8007e3c:	dd07      	ble.n	8007e4e <_dtoa_r+0xa86>
 8007e3e:	f1b8 0f39 	cmp.w	r8, #57	@ 0x39
 8007e42:	d0ed      	beq.n	8007e20 <_dtoa_r+0xa58>
 8007e44:	9a00      	ldr	r2, [sp, #0]
 8007e46:	f108 0301 	add.w	r3, r8, #1
 8007e4a:	7013      	strb	r3, [r2, #0]
 8007e4c:	e608      	b.n	8007a60 <_dtoa_r+0x698>
 8007e4e:	9b07      	ldr	r3, [sp, #28]
 8007e50:	9a07      	ldr	r2, [sp, #28]
 8007e52:	f803 8c01 	strb.w	r8, [r3, #-1]
 8007e56:	9b0b      	ldr	r3, [sp, #44]	@ 0x2c
 8007e58:	4293      	cmp	r3, r2
 8007e5a:	d028      	beq.n	8007eae <_dtoa_r+0xae6>
 8007e5c:	4649      	mov	r1, r9
 8007e5e:	2300      	movs	r3, #0
 8007e60:	220a      	movs	r2, #10
 8007e62:	4658      	mov	r0, fp
 8007e64:	f000 f9d6 	bl	8008214 <__multadd>
 8007e68:	42af      	cmp	r7, r5
 8007e6a:	4681      	mov	r9, r0
 8007e6c:	f04f 0300 	mov.w	r3, #0
 8007e70:	f04f 020a 	mov.w	r2, #10
 8007e74:	4639      	mov	r1, r7
 8007e76:	4658      	mov	r0, fp
 8007e78:	d107      	bne.n	8007e8a <_dtoa_r+0xac2>
 8007e7a:	f000 f9cb 	bl	8008214 <__multadd>
 8007e7e:	4607      	mov	r7, r0
 8007e80:	4605      	mov	r5, r0
 8007e82:	9b07      	ldr	r3, [sp, #28]
 8007e84:	3301      	adds	r3, #1
 8007e86:	9307      	str	r3, [sp, #28]
 8007e88:	e774      	b.n	8007d74 <_dtoa_r+0x9ac>
 8007e8a:	f000 f9c3 	bl	8008214 <__multadd>
 8007e8e:	4629      	mov	r1, r5
 8007e90:	4607      	mov	r7, r0
 8007e92:	2300      	movs	r3, #0
 8007e94:	220a      	movs	r2, #10
 8007e96:	4658      	mov	r0, fp
 8007e98:	f000 f9bc 	bl	8008214 <__multadd>
 8007e9c:	4605      	mov	r5, r0
 8007e9e:	e7f0      	b.n	8007e82 <_dtoa_r+0xaba>
 8007ea0:	9b00      	ldr	r3, [sp, #0]
 8007ea2:	2b00      	cmp	r3, #0
 8007ea4:	bfcc      	ite	gt
 8007ea6:	461e      	movgt	r6, r3
 8007ea8:	2601      	movle	r6, #1
 8007eaa:	4456      	add	r6, sl
 8007eac:	2700      	movs	r7, #0
 8007eae:	4649      	mov	r1, r9
 8007eb0:	2201      	movs	r2, #1
 8007eb2:	4658      	mov	r0, fp
 8007eb4:	f000 fb5a 	bl	800856c <__lshift>
 8007eb8:	4621      	mov	r1, r4
 8007eba:	4681      	mov	r9, r0
 8007ebc:	f000 fbc2 	bl	8008644 <__mcmp>
 8007ec0:	2800      	cmp	r0, #0
 8007ec2:	dcb0      	bgt.n	8007e26 <_dtoa_r+0xa5e>
 8007ec4:	d102      	bne.n	8007ecc <_dtoa_r+0xb04>
 8007ec6:	f018 0f01 	tst.w	r8, #1
 8007eca:	d1ac      	bne.n	8007e26 <_dtoa_r+0xa5e>
 8007ecc:	4633      	mov	r3, r6
 8007ece:	461e      	mov	r6, r3
 8007ed0:	f813 2d01 	ldrb.w	r2, [r3, #-1]!
 8007ed4:	2a30      	cmp	r2, #48	@ 0x30
 8007ed6:	d0fa      	beq.n	8007ece <_dtoa_r+0xb06>
 8007ed8:	e5c2      	b.n	8007a60 <_dtoa_r+0x698>
 8007eda:	459a      	cmp	sl, r3
 8007edc:	d1a4      	bne.n	8007e28 <_dtoa_r+0xa60>
 8007ede:	9b04      	ldr	r3, [sp, #16]
 8007ee0:	3301      	adds	r3, #1
 8007ee2:	9304      	str	r3, [sp, #16]
 8007ee4:	2331      	movs	r3, #49	@ 0x31
 8007ee6:	f88a 3000 	strb.w	r3, [sl]
 8007eea:	e5b9      	b.n	8007a60 <_dtoa_r+0x698>
 8007eec:	9b23      	ldr	r3, [sp, #140]	@ 0x8c
 8007eee:	f8df a05c 	ldr.w	sl, [pc, #92]	@ 8007f4c <_dtoa_r+0xb84>
 8007ef2:	b11b      	cbz	r3, 8007efc <_dtoa_r+0xb34>
 8007ef4:	f10a 0308 	add.w	r3, sl, #8
 8007ef8:	9a23      	ldr	r2, [sp, #140]	@ 0x8c
 8007efa:	6013      	str	r3, [r2, #0]
 8007efc:	4650      	mov	r0, sl
 8007efe:	b019      	add	sp, #100	@ 0x64
 8007f00:	e8bd 8ff0 	ldmia.w	sp!, {r4, r5, r6, r7, r8, r9, sl, fp, pc}
 8007f04:	9b09      	ldr	r3, [sp, #36]	@ 0x24
 8007f06:	2b01      	cmp	r3, #1
 8007f08:	f77f ae37 	ble.w	8007b7a <_dtoa_r+0x7b2>
 8007f0c:	9b0f      	ldr	r3, [sp, #60]	@ 0x3c
 8007f0e:	930a      	str	r3, [sp, #40]	@ 0x28
 8007f10:	2001      	movs	r0, #1
 8007f12:	e655      	b.n	8007bc0 <_dtoa_r+0x7f8>
 8007f14:	9b00      	ldr	r3, [sp, #0]
 8007f16:	2b00      	cmp	r3, #0
 8007f18:	f77f aed6 	ble.w	8007cc8 <_dtoa_r+0x900>
 8007f1c:	4656      	mov	r6, sl
 8007f1e:	4621      	mov	r1, r4
 8007f20:	4648      	mov	r0, r9
 8007f22:	f7ff f9c6 	bl	80072b2 <quorem>
 8007f26:	f100 0830 	add.w	r8, r0, #48	@ 0x30
 8007f2a:	f806 8b01 	strb.w	r8, [r6], #1
 8007f2e:	9b00      	ldr	r3, [sp, #0]
 8007f30:	eba6 020a 	sub.w	r2, r6, sl
 8007f34:	4293      	cmp	r3, r2
 8007f36:	ddb3      	ble.n	8007ea0 <_dtoa_r+0xad8>
 8007f38:	4649      	mov	r1, r9
 8007f3a:	2300      	movs	r3, #0
 8007f3c:	220a      	movs	r2, #10
 8007f3e:	4658      	mov	r0, fp
 8007f40:	f000 f968 	bl	8008214 <__multadd>
 8007f44:	4681      	mov	r9, r0
 8007f46:	e7ea      	b.n	8007f1e <_dtoa_r+0xb56>
 8007f48:	08009478 	.word	0x08009478
 8007f4c:	080093fc 	.word	0x080093fc

08007f50 <_free_r>:
 8007f50:	b538      	push	{r3, r4, r5, lr}
 8007f52:	4605      	mov	r5, r0
 8007f54:	2900      	cmp	r1, #0
 8007f56:	d041      	beq.n	8007fdc <_free_r+0x8c>
 8007f58:	f851 3c04 	ldr.w	r3, [r1, #-4]
 8007f5c:	1f0c      	subs	r4, r1, #4
 8007f5e:	2b00      	cmp	r3, #0
 8007f60:	bfb8      	it	lt
 8007f62:	18e4      	addlt	r4, r4, r3
 8007f64:	f000 f8e8 	bl	8008138 <__malloc_lock>
 8007f68:	4a1d      	ldr	r2, [pc, #116]	@ (8007fe0 <_free_r+0x90>)
 8007f6a:	6813      	ldr	r3, [r2, #0]
 8007f6c:	b933      	cbnz	r3, 8007f7c <_free_r+0x2c>
 8007f6e:	6063      	str	r3, [r4, #4]
 8007f70:	6014      	str	r4, [r2, #0]
 8007f72:	4628      	mov	r0, r5
 8007f74:	e8bd 4038 	ldmia.w	sp!, {r3, r4, r5, lr}
 8007f78:	f000 b8e4 	b.w	8008144 <__malloc_unlock>
 8007f7c:	42a3      	cmp	r3, r4
 8007f7e:	d908      	bls.n	8007f92 <_free_r+0x42>
 8007f80:	6820      	ldr	r0, [r4, #0]
 8007f82:	1821      	adds	r1, r4, r0
 8007f84:	428b      	cmp	r3, r1
 8007f86:	bf01      	itttt	eq
 8007f88:	6819      	ldreq	r1, [r3, #0]
 8007f8a:	685b      	ldreq	r3, [r3, #4]
 8007f8c:	1809      	addeq	r1, r1, r0
 8007f8e:	6021      	streq	r1, [r4, #0]
 8007f90:	e7ed      	b.n	8007f6e <_free_r+0x1e>
 8007f92:	461a      	mov	r2, r3
 8007f94:	685b      	ldr	r3, [r3, #4]
 8007f96:	b10b      	cbz	r3, 8007f9c <_free_r+0x4c>
 8007f98:	42a3      	cmp	r3, r4
 8007f9a:	d9fa      	bls.n	8007f92 <_free_r+0x42>
 8007f9c:	6811      	ldr	r1, [r2, #0]
 8007f9e:	1850      	adds	r0, r2, r1
 8007fa0:	42a0      	cmp	r0, r4
 8007fa2:	d10b      	bne.n	8007fbc <_free_r+0x6c>
 8007fa4:	6820      	ldr	r0, [r4, #0]
 8007fa6:	4401      	add	r1, r0
 8007fa8:	1850      	adds	r0, r2, r1
 8007faa:	4283      	cmp	r3, r0
 8007fac:	6011      	str	r1, [r2, #0]
 8007fae:	d1e0      	bne.n	8007f72 <_free_r+0x22>
 8007fb0:	6818      	ldr	r0, [r3, #0]
 8007fb2:	685b      	ldr	r3, [r3, #4]
 8007fb4:	6053      	str	r3, [r2, #4]
 8007fb6:	4408      	add	r0, r1
 8007fb8:	6010      	str	r0, [r2, #0]
 8007fba:	e7da      	b.n	8007f72 <_free_r+0x22>
 8007fbc:	d902      	bls.n	8007fc4 <_free_r+0x74>
 8007fbe:	230c      	movs	r3, #12
 8007fc0:	602b      	str	r3, [r5, #0]
 8007fc2:	e7d6      	b.n	8007f72 <_free_r+0x22>
 8007fc4:	6820      	ldr	r0, [r4, #0]
 8007fc6:	1821      	adds	r1, r4, r0
 8007fc8:	428b      	cmp	r3, r1
 8007fca:	bf04      	itt	eq
 8007fcc:	6819      	ldreq	r1, [r3, #0]
 8007fce:	685b      	ldreq	r3, [r3, #4]
 8007fd0:	6063      	str	r3, [r4, #4]
 8007fd2:	bf04      	itt	eq
 8007fd4:	1809      	addeq	r1, r1, r0
 8007fd6:	6021      	streq	r1, [r4, #0]
 8007fd8:	6054      	str	r4, [r2, #4]
 8007fda:	e7ca      	b.n	8007f72 <_free_r+0x22>
 8007fdc:	bd38      	pop	{r3, r4, r5, pc}
 8007fde:	bf00      	nop
 8007fe0:	20000514 	.word	0x20000514

08007fe4 <malloc>:
 8007fe4:	4b02      	ldr	r3, [pc, #8]	@ (8007ff0 <malloc+0xc>)
 8007fe6:	4601      	mov	r1, r0
 8007fe8:	6818      	ldr	r0, [r3, #0]
 8007fea:	f000 b825 	b.w	8008038 <_malloc_r>
 8007fee:	bf00      	nop
 8007ff0:	20000020 	.word	0x20000020

08007ff4 <sbrk_aligned>:
 8007ff4:	b570      	push	{r4, r5, r6, lr}
 8007ff6:	4e0f      	ldr	r6, [pc, #60]	@ (8008034 <sbrk_aligned+0x40>)
 8007ff8:	460c      	mov	r4, r1
 8007ffa:	6831      	ldr	r1, [r6, #0]
 8007ffc:	4605      	mov	r5, r0
 8007ffe:	b911      	cbnz	r1, 8008006 <sbrk_aligned+0x12>
 8008000:	f000 fe46 	bl	8008c90 <_sbrk_r>
 8008004:	6030      	str	r0, [r6, #0]
 8008006:	4621      	mov	r1, r4
 8008008:	4628      	mov	r0, r5
 800800a:	f000 fe41 	bl	8008c90 <_sbrk_r>
 800800e:	1c43      	adds	r3, r0, #1
 8008010:	d103      	bne.n	800801a <sbrk_aligned+0x26>
 8008012:	f04f 34ff 	mov.w	r4, #4294967295
 8008016:	4620      	mov	r0, r4
 8008018:	bd70      	pop	{r4, r5, r6, pc}
 800801a:	1cc4      	adds	r4, r0, #3
 800801c:	f024 0403 	bic.w	r4, r4, #3
 8008020:	42a0      	cmp	r0, r4
 8008022:	d0f8      	beq.n	8008016 <sbrk_aligned+0x22>
 8008024:	1a21      	subs	r1, r4, r0
 8008026:	4628      	mov	r0, r5
 8008028:	f000 fe32 	bl	8008c90 <_sbrk_r>
 800802c:	3001      	adds	r0, #1
 800802e:	d1f2      	bne.n	8008016 <sbrk_aligned+0x22>
 8008030:	e7ef      	b.n	8008012 <sbrk_aligned+0x1e>
 8008032:	bf00      	nop
 8008034:	20000510 	.word	0x20000510

08008038 <_malloc_r>:
 8008038:	e92d 43f8 	stmdb	sp!, {r3, r4, r5, r6, r7, r8, r9, lr}
 800803c:	1ccd      	adds	r5, r1, #3
 800803e:	f025 0503 	bic.w	r5, r5, #3
 8008042:	3508      	adds	r5, #8
 8008044:	2d0c      	cmp	r5, #12
 8008046:	bf38      	it	cc
 8008048:	250c      	movcc	r5, #12
 800804a:	2d00      	cmp	r5, #0
 800804c:	4606      	mov	r6, r0
 800804e:	db01      	blt.n	8008054 <_malloc_r+0x1c>
 8008050:	42a9      	cmp	r1, r5
 8008052:	d904      	bls.n	800805e <_malloc_r+0x26>
 8008054:	230c      	movs	r3, #12
 8008056:	6033      	str	r3, [r6, #0]
 8008058:	2000      	movs	r0, #0
 800805a:	e8bd 83f8 	ldmia.w	sp!, {r3, r4, r5, r6, r7, r8, r9, pc}
 800805e:	f8df 80d4 	ldr.w	r8, [pc, #212]	@ 8008134 <_malloc_r+0xfc>
 8008062:	f000 f869 	bl	8008138 <__malloc_lock>
 8008066:	f8d8 3000 	ldr.w	r3, [r8]
 800806a:	461c      	mov	r4, r3
 800806c:	bb44      	cbnz	r4, 80080c0 <_malloc_r+0x88>
 800806e:	4629      	mov	r1, r5
 8008070:	4630      	mov	r0, r6
 8008072:	f7ff ffbf 	bl	8007ff4 <sbrk_aligned>
 8008076:	1c43      	adds	r3, r0, #1
 8008078:	4604      	mov	r4, r0
 800807a:	d158      	bne.n	800812e <_malloc_r+0xf6>
 800807c:	f8d8 4000 	ldr.w	r4, [r8]
 8008080:	4627      	mov	r7, r4
 8008082:	2f00      	cmp	r7, #0
 8008084:	d143      	bne.n	800810e <_malloc_r+0xd6>
 8008086:	2c00      	cmp	r4, #0
 8008088:	d04b      	beq.n	8008122 <_malloc_r+0xea>
 800808a:	6823      	ldr	r3, [r4, #0]
 800808c:	4639      	mov	r1, r7
 800808e:	4630      	mov	r0, r6
 8008090:	eb04 0903 	add.w	r9, r4, r3
 8008094:	f000 fdfc 	bl	8008c90 <_sbrk_r>
 8008098:	4581      	cmp	r9, r0
 800809a:	d142      	bne.n	8008122 <_malloc_r+0xea>
 800809c:	6821      	ldr	r1, [r4, #0]
 800809e:	1a6d      	subs	r5, r5, r1
 80080a0:	4629      	mov	r1, r5
 80080a2:	4630      	mov	r0, r6
 80080a4:	f7ff ffa6 	bl	8007ff4 <sbrk_aligned>
 80080a8:	3001      	adds	r0, #1
 80080aa:	d03a      	beq.n	8008122 <_malloc_r+0xea>
 80080ac:	6823      	ldr	r3, [r4, #0]
 80080ae:	442b      	add	r3, r5
 80080b0:	6023      	str	r3, [r4, #0]
 80080b2:	f8d8 3000 	ldr.w	r3, [r8]
 80080b6:	685a      	ldr	r2, [r3, #4]
 80080b8:	bb62      	cbnz	r2, 8008114 <_malloc_r+0xdc>
 80080ba:	f8c8 7000 	str.w	r7, [r8]
 80080be:	e00f      	b.n	80080e0 <_malloc_r+0xa8>
 80080c0:	6822      	ldr	r2, [r4, #0]
 80080c2:	1b52      	subs	r2, r2, r5
 80080c4:	d420      	bmi.n	8008108 <_malloc_r+0xd0>
 80080c6:	2a0b      	cmp	r2, #11
 80080c8:	d917      	bls.n	80080fa <_malloc_r+0xc2>
 80080ca:	1961      	adds	r1, r4, r5
 80080cc:	42a3      	cmp	r3, r4
 80080ce:	6025      	str	r5, [r4, #0]
 80080d0:	bf18      	it	ne
 80080d2:	6059      	strne	r1, [r3, #4]
 80080d4:	6863      	ldr	r3, [r4, #4]
 80080d6:	bf08      	it	eq
 80080d8:	f8c8 1000 	streq.w	r1, [r8]
 80080dc:	5162      	str	r2, [r4, r5]
 80080de:	604b      	str	r3, [r1, #4]
 80080e0:	4630      	mov	r0, r6
 80080e2:	f000 f82f 	bl	8008144 <__malloc_unlock>
 80080e6:	f104 000b 	add.w	r0, r4, #11
 80080ea:	1d23      	adds	r3, r4, #4
 80080ec:	f020 0007 	bic.w	r0, r0, #7
 80080f0:	1ac2      	subs	r2, r0, r3
 80080f2:	bf1c      	itt	ne
 80080f4:	1a1b      	subne	r3, r3, r0
 80080f6:	50a3      	strne	r3, [r4, r2]
 80080f8:	e7af      	b.n	800805a <_malloc_r+0x22>
 80080fa:	6862      	ldr	r2, [r4, #4]
 80080fc:	42a3      	cmp	r3, r4
 80080fe:	bf0c      	ite	eq
 8008100:	f8c8 2000 	streq.w	r2, [r8]
 8008104:	605a      	strne	r2, [r3, #4]
 8008106:	e7eb      	b.n	80080e0 <_malloc_r+0xa8>
 8008108:	4623      	mov	r3, r4
 800810a:	6864      	ldr	r4, [r4, #4]
 800810c:	e7ae      	b.n	800806c <_malloc_r+0x34>
 800810e:	463c      	mov	r4, r7
 8008110:	687f      	ldr	r7, [r7, #4]
 8008112:	e7b6      	b.n	8008082 <_malloc_r+0x4a>
 8008114:	461a      	mov	r2, r3
 8008116:	685b      	ldr	r3, [r3, #4]
 8008118:	42a3      	cmp	r3, r4
 800811a:	d1fb      	bne.n	8008114 <_malloc_r+0xdc>
 800811c:	2300      	movs	r3, #0
 800811e:	6053      	str	r3, [r2, #4]
 8008120:	e7de      	b.n	80080e0 <_malloc_r+0xa8>
 8008122:	230c      	movs	r3, #12
 8008124:	6033      	str	r3, [r6, #0]
 8008126:	4630      	mov	r0, r6
 8008128:	f000 f80c 	bl	8008144 <__malloc_unlock>
 800812c:	e794      	b.n	8008058 <_malloc_r+0x20>
 800812e:	6005      	str	r5, [r0, #0]
 8008130:	e7d6      	b.n	80080e0 <_malloc_r+0xa8>
 8008132:	bf00      	nop
 8008134:	20000514 	.word	0x20000514

08008138 <__malloc_lock>:
 8008138:	4801      	ldr	r0, [pc, #4]	@ (8008140 <__malloc_lock+0x8>)
 800813a:	f7ff b8b8 	b.w	80072ae <__retarget_lock_acquire_recursive>
 800813e:	bf00      	nop
 8008140:	2000050c 	.word	0x2000050c

08008144 <__malloc_unlock>:
 8008144:	4801      	ldr	r0, [pc, #4]	@ (800814c <__malloc_unlock+0x8>)
 8008146:	f7ff b8b3 	b.w	80072b0 <__retarget_lock_release_recursive>
 800814a:	bf00      	nop
 800814c:	2000050c 	.word	0x2000050c

08008150 <_Balloc>:
 8008150:	b570      	push	{r4, r5, r6, lr}
 8008152:	69c6      	ldr	r6, [r0, #28]
 8008154:	4604      	mov	r4, r0
 8008156:	460d      	mov	r5, r1
 8008158:	b976      	cbnz	r6, 8008178 <_Balloc+0x28>
 800815a:	2010      	movs	r0, #16
 800815c:	f7ff ff42 	bl	8007fe4 <malloc>
 8008160:	4602      	mov	r2, r0
 8008162:	61e0      	str	r0, [r4, #28]
 8008164:	b920      	cbnz	r0, 8008170 <_Balloc+0x20>
 8008166:	4b18      	ldr	r3, [pc, #96]	@ (80081c8 <_Balloc+0x78>)
 8008168:	4818      	ldr	r0, [pc, #96]	@ (80081cc <_Balloc+0x7c>)
 800816a:	216b      	movs	r1, #107	@ 0x6b
 800816c:	f000 fdae 	bl	8008ccc <__assert_func>
 8008170:	e9c0 6601 	strd	r6, r6, [r0, #4]
 8008174:	6006      	str	r6, [r0, #0]
 8008176:	60c6      	str	r6, [r0, #12]
 8008178:	69e6      	ldr	r6, [r4, #28]
 800817a:	68f3      	ldr	r3, [r6, #12]
 800817c:	b183      	cbz	r3, 80081a0 <_Balloc+0x50>
 800817e:	69e3      	ldr	r3, [r4, #28]
 8008180:	68db      	ldr	r3, [r3, #12]
 8008182:	f853 0025 	ldr.w	r0, [r3, r5, lsl #2]
 8008186:	b9b8      	cbnz	r0, 80081b8 <_Balloc+0x68>
 8008188:	2101      	movs	r1, #1
 800818a:	fa01 f605 	lsl.w	r6, r1, r5
 800818e:	1d72      	adds	r2, r6, #5
 8008190:	0092      	lsls	r2, r2, #2
 8008192:	4620      	mov	r0, r4
 8008194:	f000 fdb8 	bl	8008d08 <_calloc_r>
 8008198:	b160      	cbz	r0, 80081b4 <_Balloc+0x64>
 800819a:	e9c0 5601 	strd	r5, r6, [r0, #4]
 800819e:	e00e      	b.n	80081be <_Balloc+0x6e>
 80081a0:	2221      	movs	r2, #33	@ 0x21
 80081a2:	2104      	movs	r1, #4
 80081a4:	4620      	mov	r0, r4
 80081a6:	f000 fdaf 	bl	8008d08 <_calloc_r>
 80081aa:	69e3      	ldr	r3, [r4, #28]
 80081ac:	60f0      	str	r0, [r6, #12]
 80081ae:	68db      	ldr	r3, [r3, #12]
 80081b0:	2b00      	cmp	r3, #0
 80081b2:	d1e4      	bne.n	800817e <_Balloc+0x2e>
 80081b4:	2000      	movs	r0, #0
 80081b6:	bd70      	pop	{r4, r5, r6, pc}
 80081b8:	6802      	ldr	r2, [r0, #0]
 80081ba:	f843 2025 	str.w	r2, [r3, r5, lsl #2]
 80081be:	2300      	movs	r3, #0
 80081c0:	e9c0 3303 	strd	r3, r3, [r0, #12]
 80081c4:	e7f7      	b.n	80081b6 <_Balloc+0x66>
 80081c6:	bf00      	nop
 80081c8:	08009409 	.word	0x08009409
 80081cc:	08009489 	.word	0x08009489

080081d0 <_Bfree>:
 80081d0:	b570      	push	{r4, r5, r6, lr}
 80081d2:	69c6      	ldr	r6, [r0, #28]
 80081d4:	4605      	mov	r5, r0
 80081d6:	460c      	mov	r4, r1
 80081d8:	b976      	cbnz	r6, 80081f8 <_Bfree+0x28>
 80081da:	2010      	movs	r0, #16
 80081dc:	f7ff ff02 	bl	8007fe4 <malloc>
 80081e0:	4602      	mov	r2, r0
 80081e2:	61e8      	str	r0, [r5, #28]
 80081e4:	b920      	cbnz	r0, 80081f0 <_Bfree+0x20>
 80081e6:	4b09      	ldr	r3, [pc, #36]	@ (800820c <_Bfree+0x3c>)
 80081e8:	4809      	ldr	r0, [pc, #36]	@ (8008210 <_Bfree+0x40>)
 80081ea:	218f      	movs	r1, #143	@ 0x8f
 80081ec:	f000 fd6e 	bl	8008ccc <__assert_func>
 80081f0:	e9c0 6601 	strd	r6, r6, [r0, #4]
 80081f4:	6006      	str	r6, [r0, #0]
 80081f6:	60c6      	str	r6, [r0, #12]
 80081f8:	b13c      	cbz	r4, 800820a <_Bfree+0x3a>
 80081fa:	69eb      	ldr	r3, [r5, #28]
 80081fc:	6862      	ldr	r2, [r4, #4]
 80081fe:	68db      	ldr	r3, [r3, #12]
 8008200:	f853 1022 	ldr.w	r1, [r3, r2, lsl #2]
 8008204:	6021      	str	r1, [r4, #0]
 8008206:	f843 4022 	str.w	r4, [r3, r2, lsl #2]
 800820a:	bd70      	pop	{r4, r5, r6, pc}
 800820c:	08009409 	.word	0x08009409
 8008210:	08009489 	.word	0x08009489

08008214 <__multadd>:
 8008214:	e92d 41f0 	stmdb	sp!, {r4, r5, r6, r7, r8, lr}
 8008218:	690d      	ldr	r5, [r1, #16]
 800821a:	4607      	mov	r7, r0
 800821c:	460c      	mov	r4, r1
 800821e:	461e      	mov	r6, r3
 8008220:	f101 0c14 	add.w	ip, r1, #20
 8008224:	2000      	movs	r0, #0
 8008226:	f8dc 3000 	ldr.w	r3, [ip]
 800822a:	b299      	uxth	r1, r3
 800822c:	fb02 6101 	mla	r1, r2, r1, r6
 8008230:	0c1e      	lsrs	r6, r3, #16
 8008232:	0c0b      	lsrs	r3, r1, #16
 8008234:	fb02 3306 	mla	r3, r2, r6, r3
 8008238:	b289      	uxth	r1, r1
 800823a:	3001      	adds	r0, #1
 800823c:	eb01 4103 	add.w	r1, r1, r3, lsl #16
 8008240:	4285      	cmp	r5, r0
 8008242:	f84c 1b04 	str.w	r1, [ip], #4
 8008246:	ea4f 4613 	mov.w	r6, r3, lsr #16
 800824a:	dcec      	bgt.n	8008226 <__multadd+0x12>
 800824c:	b30e      	cbz	r6, 8008292 <__multadd+0x7e>
 800824e:	68a3      	ldr	r3, [r4, #8]
 8008250:	42ab      	cmp	r3, r5
 8008252:	dc19      	bgt.n	8008288 <__multadd+0x74>
 8008254:	6861      	ldr	r1, [r4, #4]
 8008256:	4638      	mov	r0, r7
 8008258:	3101      	adds	r1, #1
 800825a:	f7ff ff79 	bl	8008150 <_Balloc>
 800825e:	4680      	mov	r8, r0
 8008260:	b928      	cbnz	r0, 800826e <__multadd+0x5a>
 8008262:	4602      	mov	r2, r0
 8008264:	4b0c      	ldr	r3, [pc, #48]	@ (8008298 <__multadd+0x84>)
 8008266:	480d      	ldr	r0, [pc, #52]	@ (800829c <__multadd+0x88>)
 8008268:	21ba      	movs	r1, #186	@ 0xba
 800826a:	f000 fd2f 	bl	8008ccc <__assert_func>
 800826e:	6922      	ldr	r2, [r4, #16]
 8008270:	3202      	adds	r2, #2
 8008272:	f104 010c 	add.w	r1, r4, #12
 8008276:	0092      	lsls	r2, r2, #2
 8008278:	300c      	adds	r0, #12
 800827a:	f000 fd19 	bl	8008cb0 <memcpy>
 800827e:	4621      	mov	r1, r4
 8008280:	4638      	mov	r0, r7
 8008282:	f7ff ffa5 	bl	80081d0 <_Bfree>
 8008286:	4644      	mov	r4, r8
 8008288:	eb04 0385 	add.w	r3, r4, r5, lsl #2
 800828c:	3501      	adds	r5, #1
 800828e:	615e      	str	r6, [r3, #20]
 8008290:	6125      	str	r5, [r4, #16]
 8008292:	4620      	mov	r0, r4
 8008294:	e8bd 81f0 	ldmia.w	sp!, {r4, r5, r6, r7, r8, pc}
 8008298:	08009478 	.word	0x08009478
 800829c:	08009489 	.word	0x08009489

080082a0 <__hi0bits>:
 80082a0:	f5b0 3f80 	cmp.w	r0, #65536	@ 0x10000
 80082a4:	4603      	mov	r3, r0
 80082a6:	bf36      	itet	cc
 80082a8:	0403      	lslcc	r3, r0, #16
 80082aa:	2000      	movcs	r0, #0
 80082ac:	2010      	movcc	r0, #16
 80082ae:	f1b3 7f80 	cmp.w	r3, #16777216	@ 0x1000000
 80082b2:	bf3c      	itt	cc
 80082b4:	021b      	lslcc	r3, r3, #8
 80082b6:	3008      	addcc	r0, #8
 80082b8:	f1b3 5f80 	cmp.w	r3, #268435456	@ 0x10000000
 80082bc:	bf3c      	itt	cc
 80082be:	011b      	lslcc	r3, r3, #4
 80082c0:	3004      	addcc	r0, #4
 80082c2:	f1b3 4f80 	cmp.w	r3, #1073741824	@ 0x40000000
 80082c6:	bf3c      	itt	cc
 80082c8:	009b      	lslcc	r3, r3, #2
 80082ca:	3002      	addcc	r0, #2
 80082cc:	2b00      	cmp	r3, #0
 80082ce:	db05      	blt.n	80082dc <__hi0bits+0x3c>
 80082d0:	f013 4f80 	tst.w	r3, #1073741824	@ 0x40000000
 80082d4:	f100 0001 	add.w	r0, r0, #1
 80082d8:	bf08      	it	eq
 80082da:	2020      	moveq	r0, #32
 80082dc:	4770      	bx	lr

080082de <__lo0bits>:
 80082de:	6803      	ldr	r3, [r0, #0]
 80082e0:	4602      	mov	r2, r0
 80082e2:	f013 0007 	ands.w	r0, r3, #7
 80082e6:	d00b      	beq.n	8008300 <__lo0bits+0x22>
 80082e8:	07d9      	lsls	r1, r3, #31
 80082ea:	d421      	bmi.n	8008330 <__lo0bits+0x52>
 80082ec:	0798      	lsls	r0, r3, #30
 80082ee:	bf49      	itett	mi
 80082f0:	085b      	lsrmi	r3, r3, #1
 80082f2:	089b      	lsrpl	r3, r3, #2
 80082f4:	2001      	movmi	r0, #1
 80082f6:	6013      	strmi	r3, [r2, #0]
 80082f8:	bf5c      	itt	pl
 80082fa:	6013      	strpl	r3, [r2, #0]
 80082fc:	2002      	movpl	r0, #2
 80082fe:	4770      	bx	lr
 8008300:	b299      	uxth	r1, r3
 8008302:	b909      	cbnz	r1, 8008308 <__lo0bits+0x2a>
 8008304:	0c1b      	lsrs	r3, r3, #16
 8008306:	2010      	movs	r0, #16
 8008308:	b2d9      	uxtb	r1, r3
 800830a:	b909      	cbnz	r1, 8008310 <__lo0bits+0x32>
 800830c:	3008      	adds	r0, #8
 800830e:	0a1b      	lsrs	r3, r3, #8
 8008310:	0719      	lsls	r1, r3, #28
 8008312:	bf04      	itt	eq
 8008314:	091b      	lsreq	r3, r3, #4
 8008316:	3004      	addeq	r0, #4
 8008318:	0799      	lsls	r1, r3, #30
 800831a:	bf04      	itt	eq
 800831c:	089b      	lsreq	r3, r3, #2
 800831e:	3002      	addeq	r0, #2
 8008320:	07d9      	lsls	r1, r3, #31
 8008322:	d403      	bmi.n	800832c <__lo0bits+0x4e>
 8008324:	085b      	lsrs	r3, r3, #1
 8008326:	f100 0001 	add.w	r0, r0, #1
 800832a:	d003      	beq.n	8008334 <__lo0bits+0x56>
 800832c:	6013      	str	r3, [r2, #0]
 800832e:	4770      	bx	lr
 8008330:	2000      	movs	r0, #0
 8008332:	4770      	bx	lr
 8008334:	2020      	movs	r0, #32
 8008336:	4770      	bx	lr

08008338 <__i2b>:
 8008338:	b510      	push	{r4, lr}
 800833a:	460c      	mov	r4, r1
 800833c:	2101      	movs	r1, #1
 800833e:	f7ff ff07 	bl	8008150 <_Balloc>
 8008342:	4602      	mov	r2, r0
 8008344:	b928      	cbnz	r0, 8008352 <__i2b+0x1a>
 8008346:	4b05      	ldr	r3, [pc, #20]	@ (800835c <__i2b+0x24>)
 8008348:	4805      	ldr	r0, [pc, #20]	@ (8008360 <__i2b+0x28>)
 800834a:	f240 1145 	movw	r1, #325	@ 0x145
 800834e:	f000 fcbd 	bl	8008ccc <__assert_func>
 8008352:	2301      	movs	r3, #1
 8008354:	6144      	str	r4, [r0, #20]
 8008356:	6103      	str	r3, [r0, #16]
 8008358:	bd10      	pop	{r4, pc}
 800835a:	bf00      	nop
 800835c:	08009478 	.word	0x08009478
 8008360:	08009489 	.word	0x08009489

08008364 <__multiply>:
 8008364:	e92d 4ff0 	stmdb	sp!, {r4, r5, r6, r7, r8, r9, sl, fp, lr}
 8008368:	4614      	mov	r4, r2
 800836a:	690a      	ldr	r2, [r1, #16]
 800836c:	6923      	ldr	r3, [r4, #16]
 800836e:	429a      	cmp	r2, r3
 8008370:	bfa8      	it	ge
 8008372:	4623      	movge	r3, r4
 8008374:	460f      	mov	r7, r1
 8008376:	bfa4      	itt	ge
 8008378:	460c      	movge	r4, r1
 800837a:	461f      	movge	r7, r3
 800837c:	f8d4 a010 	ldr.w	sl, [r4, #16]
 8008380:	f8d7 9010 	ldr.w	r9, [r7, #16]
 8008384:	68a3      	ldr	r3, [r4, #8]
 8008386:	6861      	ldr	r1, [r4, #4]
 8008388:	eb0a 0609 	add.w	r6, sl, r9
 800838c:	42b3      	cmp	r3, r6
 800838e:	b085      	sub	sp, #20
 8008390:	bfb8      	it	lt
 8008392:	3101      	addlt	r1, #1
 8008394:	f7ff fedc 	bl	8008150 <_Balloc>
 8008398:	b930      	cbnz	r0, 80083a8 <__multiply+0x44>
 800839a:	4602      	mov	r2, r0
 800839c:	4b44      	ldr	r3, [pc, #272]	@ (80084b0 <__multiply+0x14c>)
 800839e:	4845      	ldr	r0, [pc, #276]	@ (80084b4 <__multiply+0x150>)
 80083a0:	f44f 71b1 	mov.w	r1, #354	@ 0x162
 80083a4:	f000 fc92 	bl	8008ccc <__assert_func>
 80083a8:	f100 0514 	add.w	r5, r0, #20
 80083ac:	eb05 0886 	add.w	r8, r5, r6, lsl #2
 80083b0:	462b      	mov	r3, r5
 80083b2:	2200      	movs	r2, #0
 80083b4:	4543      	cmp	r3, r8
 80083b6:	d321      	bcc.n	80083fc <__multiply+0x98>
 80083b8:	f107 0114 	add.w	r1, r7, #20
 80083bc:	f104 0214 	add.w	r2, r4, #20
 80083c0:	eb02 028a 	add.w	r2, r2, sl, lsl #2
 80083c4:	eb01 0389 	add.w	r3, r1, r9, lsl #2
 80083c8:	9302      	str	r3, [sp, #8]
 80083ca:	1b13      	subs	r3, r2, r4
 80083cc:	3b15      	subs	r3, #21
 80083ce:	f023 0303 	bic.w	r3, r3, #3
 80083d2:	3304      	adds	r3, #4
 80083d4:	f104 0715 	add.w	r7, r4, #21
 80083d8:	42ba      	cmp	r2, r7
 80083da:	bf38      	it	cc
 80083dc:	2304      	movcc	r3, #4
 80083de:	9301      	str	r3, [sp, #4]
 80083e0:	9b02      	ldr	r3, [sp, #8]
 80083e2:	9103      	str	r1, [sp, #12]
 80083e4:	428b      	cmp	r3, r1
 80083e6:	d80c      	bhi.n	8008402 <__multiply+0x9e>
 80083e8:	2e00      	cmp	r6, #0
 80083ea:	dd03      	ble.n	80083f4 <__multiply+0x90>
 80083ec:	f858 3d04 	ldr.w	r3, [r8, #-4]!
 80083f0:	2b00      	cmp	r3, #0
 80083f2:	d05b      	beq.n	80084ac <__multiply+0x148>
 80083f4:	6106      	str	r6, [r0, #16]
 80083f6:	b005      	add	sp, #20
 80083f8:	e8bd 8ff0 	ldmia.w	sp!, {r4, r5, r6, r7, r8, r9, sl, fp, pc}
 80083fc:	f843 2b04 	str.w	r2, [r3], #4
 8008400:	e7d8      	b.n	80083b4 <__multiply+0x50>
 8008402:	f8b1 a000 	ldrh.w	sl, [r1]
 8008406:	f1ba 0f00 	cmp.w	sl, #0
 800840a:	d024      	beq.n	8008456 <__multiply+0xf2>
 800840c:	f104 0e14 	add.w	lr, r4, #20
 8008410:	46a9      	mov	r9, r5
 8008412:	f04f 0c00 	mov.w	ip, #0
 8008416:	f85e 7b04 	ldr.w	r7, [lr], #4
 800841a:	f8d9 3000 	ldr.w	r3, [r9]
 800841e:	fa1f fb87 	uxth.w	fp, r7
 8008422:	b29b      	uxth	r3, r3
 8008424:	fb0a 330b 	mla	r3, sl, fp, r3
 8008428:	ea4f 4b17 	mov.w	fp, r7, lsr #16
 800842c:	f8d9 7000 	ldr.w	r7, [r9]
 8008430:	4463      	add	r3, ip
 8008432:	ea4f 4c17 	mov.w	ip, r7, lsr #16
 8008436:	fb0a c70b 	mla	r7, sl, fp, ip
 800843a:	eb07 4713 	add.w	r7, r7, r3, lsr #16
 800843e:	b29b      	uxth	r3, r3
 8008440:	ea43 4307 	orr.w	r3, r3, r7, lsl #16
 8008444:	4572      	cmp	r2, lr
 8008446:	f849 3b04 	str.w	r3, [r9], #4
 800844a:	ea4f 4c17 	mov.w	ip, r7, lsr #16
 800844e:	d8e2      	bhi.n	8008416 <__multiply+0xb2>
 8008450:	9b01      	ldr	r3, [sp, #4]
 8008452:	f845 c003 	str.w	ip, [r5, r3]
 8008456:	9b03      	ldr	r3, [sp, #12]
 8008458:	f8b3 9002 	ldrh.w	r9, [r3, #2]
 800845c:	3104      	adds	r1, #4
 800845e:	f1b9 0f00 	cmp.w	r9, #0
 8008462:	d021      	beq.n	80084a8 <__multiply+0x144>
 8008464:	682b      	ldr	r3, [r5, #0]
 8008466:	f104 0c14 	add.w	ip, r4, #20
 800846a:	46ae      	mov	lr, r5
 800846c:	f04f 0a00 	mov.w	sl, #0
 8008470:	f8bc b000 	ldrh.w	fp, [ip]
 8008474:	f8be 7002 	ldrh.w	r7, [lr, #2]
 8008478:	fb09 770b 	mla	r7, r9, fp, r7
 800847c:	4457      	add	r7, sl
 800847e:	b29b      	uxth	r3, r3
 8008480:	ea43 4307 	orr.w	r3, r3, r7, lsl #16
 8008484:	f84e 3b04 	str.w	r3, [lr], #4
 8008488:	f85c 3b04 	ldr.w	r3, [ip], #4
 800848c:	ea4f 4a13 	mov.w	sl, r3, lsr #16
 8008490:	f8be 3000 	ldrh.w	r3, [lr]
 8008494:	fb09 330a 	mla	r3, r9, sl, r3
 8008498:	eb03 4317 	add.w	r3, r3, r7, lsr #16
 800849c:	4562      	cmp	r2, ip
 800849e:	ea4f 4a13 	mov.w	sl, r3, lsr #16
 80084a2:	d8e5      	bhi.n	8008470 <__multiply+0x10c>
 80084a4:	9f01      	ldr	r7, [sp, #4]
 80084a6:	51eb      	str	r3, [r5, r7]
 80084a8:	3504      	adds	r5, #4
 80084aa:	e799      	b.n	80083e0 <__multiply+0x7c>
 80084ac:	3e01      	subs	r6, #1
 80084ae:	e79b      	b.n	80083e8 <__multiply+0x84>
 80084b0:	08009478 	.word	0x08009478
 80084b4:	08009489 	.word	0x08009489

080084b8 <__pow5mult>:
 80084b8:	e92d 43f8 	stmdb	sp!, {r3, r4, r5, r6, r7, r8, r9, lr}
 80084bc:	4615      	mov	r5, r2
 80084be:	f012 0203 	ands.w	r2, r2, #3
 80084c2:	4607      	mov	r7, r0
 80084c4:	460e      	mov	r6, r1
 80084c6:	d007      	beq.n	80084d8 <__pow5mult+0x20>
 80084c8:	4c25      	ldr	r4, [pc, #148]	@ (8008560 <__pow5mult+0xa8>)
 80084ca:	3a01      	subs	r2, #1
 80084cc:	2300      	movs	r3, #0
 80084ce:	f854 2022 	ldr.w	r2, [r4, r2, lsl #2]
 80084d2:	f7ff fe9f 	bl	8008214 <__multadd>
 80084d6:	4606      	mov	r6, r0
 80084d8:	10ad      	asrs	r5, r5, #2
 80084da:	d03d      	beq.n	8008558 <__pow5mult+0xa0>
 80084dc:	69fc      	ldr	r4, [r7, #28]
 80084de:	b97c      	cbnz	r4, 8008500 <__pow5mult+0x48>
 80084e0:	2010      	movs	r0, #16
 80084e2:	f7ff fd7f 	bl	8007fe4 <malloc>
 80084e6:	4602      	mov	r2, r0
 80084e8:	61f8      	str	r0, [r7, #28]
 80084ea:	b928      	cbnz	r0, 80084f8 <__pow5mult+0x40>
 80084ec:	4b1d      	ldr	r3, [pc, #116]	@ (8008564 <__pow5mult+0xac>)
 80084ee:	481e      	ldr	r0, [pc, #120]	@ (8008568 <__pow5mult+0xb0>)
 80084f0:	f240 11b3 	movw	r1, #435	@ 0x1b3
 80084f4:	f000 fbea 	bl	8008ccc <__assert_func>
 80084f8:	e9c0 4401 	strd	r4, r4, [r0, #4]
 80084fc:	6004      	str	r4, [r0, #0]
 80084fe:	60c4      	str	r4, [r0, #12]
 8008500:	f8d7 801c 	ldr.w	r8, [r7, #28]
 8008504:	f8d8 4008 	ldr.w	r4, [r8, #8]
 8008508:	b94c      	cbnz	r4, 800851e <__pow5mult+0x66>
 800850a:	f240 2171 	movw	r1, #625	@ 0x271
 800850e:	4638      	mov	r0, r7
 8008510:	f7ff ff12 	bl	8008338 <__i2b>
 8008514:	2300      	movs	r3, #0
 8008516:	f8c8 0008 	str.w	r0, [r8, #8]
 800851a:	4604      	mov	r4, r0
 800851c:	6003      	str	r3, [r0, #0]
 800851e:	f04f 0900 	mov.w	r9, #0
 8008522:	07eb      	lsls	r3, r5, #31
 8008524:	d50a      	bpl.n	800853c <__pow5mult+0x84>
 8008526:	4631      	mov	r1, r6
 8008528:	4622      	mov	r2, r4
 800852a:	4638      	mov	r0, r7
 800852c:	f7ff ff1a 	bl	8008364 <__multiply>
 8008530:	4631      	mov	r1, r6
 8008532:	4680      	mov	r8, r0
 8008534:	4638      	mov	r0, r7
 8008536:	f7ff fe4b 	bl	80081d0 <_Bfree>
 800853a:	4646      	mov	r6, r8
 800853c:	106d      	asrs	r5, r5, #1
 800853e:	d00b      	beq.n	8008558 <__pow5mult+0xa0>
 8008540:	6820      	ldr	r0, [r4, #0]
 8008542:	b938      	cbnz	r0, 8008554 <__pow5mult+0x9c>
 8008544:	4622      	mov	r2, r4
 8008546:	4621      	mov	r1, r4
 8008548:	4638      	mov	r0, r7
 800854a:	f7ff ff0b 	bl	8008364 <__multiply>
 800854e:	6020      	str	r0, [r4, #0]
 8008550:	f8c0 9000 	str.w	r9, [r0]
 8008554:	4604      	mov	r4, r0
 8008556:	e7e4      	b.n	8008522 <__pow5mult+0x6a>
 8008558:	4630      	mov	r0, r6
 800855a:	e8bd 83f8 	ldmia.w	sp!, {r3, r4, r5, r6, r7, r8, r9, pc}
 800855e:	bf00      	nop
 8008560:	080094e4 	.word	0x080094e4
 8008564:	08009409 	.word	0x08009409
 8008568:	08009489 	.word	0x08009489

0800856c <__lshift>:
 800856c:	e92d 47f0 	stmdb	sp!, {r4, r5, r6, r7, r8, r9, sl, lr}
 8008570:	460c      	mov	r4, r1
 8008572:	6849      	ldr	r1, [r1, #4]
 8008574:	6923      	ldr	r3, [r4, #16]
 8008576:	eb03 1862 	add.w	r8, r3, r2, asr #5
 800857a:	68a3      	ldr	r3, [r4, #8]
 800857c:	4607      	mov	r7, r0
 800857e:	4691      	mov	r9, r2
 8008580:	ea4f 1a62 	mov.w	sl, r2, asr #5
 8008584:	f108 0601 	add.w	r6, r8, #1
 8008588:	42b3      	cmp	r3, r6
 800858a:	db0b      	blt.n	80085a4 <__lshift+0x38>
 800858c:	4638      	mov	r0, r7
 800858e:	f7ff fddf 	bl	8008150 <_Balloc>
 8008592:	4605      	mov	r5, r0
 8008594:	b948      	cbnz	r0, 80085aa <__lshift+0x3e>
 8008596:	4602      	mov	r2, r0
 8008598:	4b28      	ldr	r3, [pc, #160]	@ (800863c <__lshift+0xd0>)
 800859a:	4829      	ldr	r0, [pc, #164]	@ (8008640 <__lshift+0xd4>)
 800859c:	f44f 71ef 	mov.w	r1, #478	@ 0x1de
 80085a0:	f000 fb94 	bl	8008ccc <__assert_func>
 80085a4:	3101      	adds	r1, #1
 80085a6:	005b      	lsls	r3, r3, #1
 80085a8:	e7ee      	b.n	8008588 <__lshift+0x1c>
 80085aa:	2300      	movs	r3, #0
 80085ac:	f100 0114 	add.w	r1, r0, #20
 80085b0:	f100 0210 	add.w	r2, r0, #16
 80085b4:	4618      	mov	r0, r3
 80085b6:	4553      	cmp	r3, sl
 80085b8:	db33      	blt.n	8008622 <__lshift+0xb6>
 80085ba:	6920      	ldr	r0, [r4, #16]
 80085bc:	ea2a 7aea 	bic.w	sl, sl, sl, asr #31
 80085c0:	f104 0314 	add.w	r3, r4, #20
 80085c4:	f019 091f 	ands.w	r9, r9, #31
 80085c8:	eb01 018a 	add.w	r1, r1, sl, lsl #2
 80085cc:	eb03 0c80 	add.w	ip, r3, r0, lsl #2
 80085d0:	d02b      	beq.n	800862a <__lshift+0xbe>
 80085d2:	f1c9 0e20 	rsb	lr, r9, #32
 80085d6:	468a      	mov	sl, r1
 80085d8:	2200      	movs	r2, #0
 80085da:	6818      	ldr	r0, [r3, #0]
 80085dc:	fa00 f009 	lsl.w	r0, r0, r9
 80085e0:	4310      	orrs	r0, r2
 80085e2:	f84a 0b04 	str.w	r0, [sl], #4
 80085e6:	f853 2b04 	ldr.w	r2, [r3], #4
 80085ea:	459c      	cmp	ip, r3
 80085ec:	fa22 f20e 	lsr.w	r2, r2, lr
 80085f0:	d8f3      	bhi.n	80085da <__lshift+0x6e>
 80085f2:	ebac 0304 	sub.w	r3, ip, r4
 80085f6:	3b15      	subs	r3, #21
 80085f8:	f023 0303 	bic.w	r3, r3, #3
 80085fc:	3304      	adds	r3, #4
 80085fe:	f104 0015 	add.w	r0, r4, #21
 8008602:	4584      	cmp	ip, r0
 8008604:	bf38      	it	cc
 8008606:	2304      	movcc	r3, #4
 8008608:	50ca      	str	r2, [r1, r3]
 800860a:	b10a      	cbz	r2, 8008610 <__lshift+0xa4>
 800860c:	f108 0602 	add.w	r6, r8, #2
 8008610:	3e01      	subs	r6, #1
 8008612:	4638      	mov	r0, r7
 8008614:	612e      	str	r6, [r5, #16]
 8008616:	4621      	mov	r1, r4
 8008618:	f7ff fdda 	bl	80081d0 <_Bfree>
 800861c:	4628      	mov	r0, r5
 800861e:	e8bd 87f0 	ldmia.w	sp!, {r4, r5, r6, r7, r8, r9, sl, pc}
 8008622:	f842 0f04 	str.w	r0, [r2, #4]!
 8008626:	3301      	adds	r3, #1
 8008628:	e7c5      	b.n	80085b6 <__lshift+0x4a>
 800862a:	3904      	subs	r1, #4
 800862c:	f853 2b04 	ldr.w	r2, [r3], #4
 8008630:	f841 2f04 	str.w	r2, [r1, #4]!
 8008634:	459c      	cmp	ip, r3
 8008636:	d8f9      	bhi.n	800862c <__lshift+0xc0>
 8008638:	e7ea      	b.n	8008610 <__lshift+0xa4>
 800863a:	bf00      	nop
 800863c:	08009478 	.word	0x08009478
 8008640:	08009489 	.word	0x08009489

08008644 <__mcmp>:
 8008644:	690a      	ldr	r2, [r1, #16]
 8008646:	4603      	mov	r3, r0
 8008648:	6900      	ldr	r0, [r0, #16]
 800864a:	1a80      	subs	r0, r0, r2
 800864c:	b530      	push	{r4, r5, lr}
 800864e:	d10e      	bne.n	800866e <__mcmp+0x2a>
 8008650:	3314      	adds	r3, #20
 8008652:	3114      	adds	r1, #20
 8008654:	eb03 0482 	add.w	r4, r3, r2, lsl #2
 8008658:	eb01 0182 	add.w	r1, r1, r2, lsl #2
 800865c:	f854 5d04 	ldr.w	r5, [r4, #-4]!
 8008660:	f851 2d04 	ldr.w	r2, [r1, #-4]!
 8008664:	4295      	cmp	r5, r2
 8008666:	d003      	beq.n	8008670 <__mcmp+0x2c>
 8008668:	d205      	bcs.n	8008676 <__mcmp+0x32>
 800866a:	f04f 30ff 	mov.w	r0, #4294967295
 800866e:	bd30      	pop	{r4, r5, pc}
 8008670:	42a3      	cmp	r3, r4
 8008672:	d3f3      	bcc.n	800865c <__mcmp+0x18>
 8008674:	e7fb      	b.n	800866e <__mcmp+0x2a>
 8008676:	2001      	movs	r0, #1
 8008678:	e7f9      	b.n	800866e <__mcmp+0x2a>
	...

0800867c <__mdiff>:
 800867c:	e92d 4ff7 	stmdb	sp!, {r0, r1, r2, r4, r5, r6, r7, r8, r9, sl, fp, lr}
 8008680:	4689      	mov	r9, r1
 8008682:	4606      	mov	r6, r0
 8008684:	4611      	mov	r1, r2
 8008686:	4648      	mov	r0, r9
 8008688:	4614      	mov	r4, r2
 800868a:	f7ff ffdb 	bl	8008644 <__mcmp>
 800868e:	1e05      	subs	r5, r0, #0
 8008690:	d112      	bne.n	80086b8 <__mdiff+0x3c>
 8008692:	4629      	mov	r1, r5
 8008694:	4630      	mov	r0, r6
 8008696:	f7ff fd5b 	bl	8008150 <_Balloc>
 800869a:	4602      	mov	r2, r0
 800869c:	b928      	cbnz	r0, 80086aa <__mdiff+0x2e>
 800869e:	4b3f      	ldr	r3, [pc, #252]	@ (800879c <__mdiff+0x120>)
 80086a0:	f240 2137 	movw	r1, #567	@ 0x237
 80086a4:	483e      	ldr	r0, [pc, #248]	@ (80087a0 <__mdiff+0x124>)
 80086a6:	f000 fb11 	bl	8008ccc <__assert_func>
 80086aa:	2301      	movs	r3, #1
 80086ac:	e9c0 3504 	strd	r3, r5, [r0, #16]
 80086b0:	4610      	mov	r0, r2
 80086b2:	b003      	add	sp, #12
 80086b4:	e8bd 8ff0 	ldmia.w	sp!, {r4, r5, r6, r7, r8, r9, sl, fp, pc}
 80086b8:	bfbc      	itt	lt
 80086ba:	464b      	movlt	r3, r9
 80086bc:	46a1      	movlt	r9, r4
 80086be:	4630      	mov	r0, r6
 80086c0:	f8d9 1004 	ldr.w	r1, [r9, #4]
 80086c4:	bfba      	itte	lt
 80086c6:	461c      	movlt	r4, r3
 80086c8:	2501      	movlt	r5, #1
 80086ca:	2500      	movge	r5, #0
 80086cc:	f7ff fd40 	bl	8008150 <_Balloc>
 80086d0:	4602      	mov	r2, r0
 80086d2:	b918      	cbnz	r0, 80086dc <__mdiff+0x60>
 80086d4:	4b31      	ldr	r3, [pc, #196]	@ (800879c <__mdiff+0x120>)
 80086d6:	f240 2145 	movw	r1, #581	@ 0x245
 80086da:	e7e3      	b.n	80086a4 <__mdiff+0x28>
 80086dc:	f8d9 7010 	ldr.w	r7, [r9, #16]
 80086e0:	6926      	ldr	r6, [r4, #16]
 80086e2:	60c5      	str	r5, [r0, #12]
 80086e4:	f109 0310 	add.w	r3, r9, #16
 80086e8:	f109 0514 	add.w	r5, r9, #20
 80086ec:	f104 0e14 	add.w	lr, r4, #20
 80086f0:	f100 0b14 	add.w	fp, r0, #20
 80086f4:	eb05 0887 	add.w	r8, r5, r7, lsl #2
 80086f8:	eb0e 0686 	add.w	r6, lr, r6, lsl #2
 80086fc:	9301      	str	r3, [sp, #4]
 80086fe:	46d9      	mov	r9, fp
 8008700:	f04f 0c00 	mov.w	ip, #0
 8008704:	9b01      	ldr	r3, [sp, #4]
 8008706:	f85e 0b04 	ldr.w	r0, [lr], #4
 800870a:	f853 af04 	ldr.w	sl, [r3, #4]!
 800870e:	9301      	str	r3, [sp, #4]
 8008710:	fa1f f38a 	uxth.w	r3, sl
 8008714:	4619      	mov	r1, r3
 8008716:	b283      	uxth	r3, r0
 8008718:	1acb      	subs	r3, r1, r3
 800871a:	0c00      	lsrs	r0, r0, #16
 800871c:	4463      	add	r3, ip
 800871e:	ebc0 401a 	rsb	r0, r0, sl, lsr #16
 8008722:	eb00 4023 	add.w	r0, r0, r3, asr #16
 8008726:	b29b      	uxth	r3, r3
 8008728:	ea43 4300 	orr.w	r3, r3, r0, lsl #16
 800872c:	4576      	cmp	r6, lr
 800872e:	f849 3b04 	str.w	r3, [r9], #4
 8008732:	ea4f 4c20 	mov.w	ip, r0, asr #16
 8008736:	d8e5      	bhi.n	8008704 <__mdiff+0x88>
 8008738:	1b33      	subs	r3, r6, r4
 800873a:	3b15      	subs	r3, #21
 800873c:	f023 0303 	bic.w	r3, r3, #3
 8008740:	3415      	adds	r4, #21
 8008742:	3304      	adds	r3, #4
 8008744:	42a6      	cmp	r6, r4
 8008746:	bf38      	it	cc
 8008748:	2304      	movcc	r3, #4
 800874a:	441d      	add	r5, r3
 800874c:	445b      	add	r3, fp
 800874e:	461e      	mov	r6, r3
 8008750:	462c      	mov	r4, r5
 8008752:	4544      	cmp	r4, r8
 8008754:	d30e      	bcc.n	8008774 <__mdiff+0xf8>
 8008756:	f108 0103 	add.w	r1, r8, #3
 800875a:	1b49      	subs	r1, r1, r5
 800875c:	f021 0103 	bic.w	r1, r1, #3
 8008760:	3d03      	subs	r5, #3
 8008762:	45a8      	cmp	r8, r5
 8008764:	bf38      	it	cc
 8008766:	2100      	movcc	r1, #0
 8008768:	440b      	add	r3, r1
 800876a:	f853 1d04 	ldr.w	r1, [r3, #-4]!
 800876e:	b191      	cbz	r1, 8008796 <__mdiff+0x11a>
 8008770:	6117      	str	r7, [r2, #16]
 8008772:	e79d      	b.n	80086b0 <__mdiff+0x34>
 8008774:	f854 1b04 	ldr.w	r1, [r4], #4
 8008778:	46e6      	mov	lr, ip
 800877a:	0c08      	lsrs	r0, r1, #16
 800877c:	fa1c fc81 	uxtah	ip, ip, r1
 8008780:	4471      	add	r1, lr
 8008782:	eb00 402c 	add.w	r0, r0, ip, asr #16
 8008786:	b289      	uxth	r1, r1
 8008788:	ea41 4100 	orr.w	r1, r1, r0, lsl #16
 800878c:	f846 1b04 	str.w	r1, [r6], #4
 8008790:	ea4f 4c20 	mov.w	ip, r0, asr #16
 8008794:	e7dd      	b.n	8008752 <__mdiff+0xd6>
 8008796:	3f01      	subs	r7, #1
 8008798:	e7e7      	b.n	800876a <__mdiff+0xee>
 800879a:	bf00      	nop
 800879c:	08009478 	.word	0x08009478
 80087a0:	08009489 	.word	0x08009489

080087a4 <__d2b>:
 80087a4:	e92d 43f7 	stmdb	sp!, {r0, r1, r2, r4, r5, r6, r7, r8, r9, lr}
 80087a8:	460f      	mov	r7, r1
 80087aa:	2101      	movs	r1, #1
 80087ac:	ec59 8b10 	vmov	r8, r9, d0
 80087b0:	4616      	mov	r6, r2
 80087b2:	f7ff fccd 	bl	8008150 <_Balloc>
 80087b6:	4604      	mov	r4, r0
 80087b8:	b930      	cbnz	r0, 80087c8 <__d2b+0x24>
 80087ba:	4602      	mov	r2, r0
 80087bc:	4b23      	ldr	r3, [pc, #140]	@ (800884c <__d2b+0xa8>)
 80087be:	4824      	ldr	r0, [pc, #144]	@ (8008850 <__d2b+0xac>)
 80087c0:	f240 310f 	movw	r1, #783	@ 0x30f
 80087c4:	f000 fa82 	bl	8008ccc <__assert_func>
 80087c8:	f3c9 550a 	ubfx	r5, r9, #20, #11
 80087cc:	f3c9 0313 	ubfx	r3, r9, #0, #20
 80087d0:	b10d      	cbz	r5, 80087d6 <__d2b+0x32>
 80087d2:	f443 1380 	orr.w	r3, r3, #1048576	@ 0x100000
 80087d6:	9301      	str	r3, [sp, #4]
 80087d8:	f1b8 0300 	subs.w	r3, r8, #0
 80087dc:	d023      	beq.n	8008826 <__d2b+0x82>
 80087de:	4668      	mov	r0, sp
 80087e0:	9300      	str	r3, [sp, #0]
 80087e2:	f7ff fd7c 	bl	80082de <__lo0bits>
 80087e6:	e9dd 1200 	ldrd	r1, r2, [sp]
 80087ea:	b1d0      	cbz	r0, 8008822 <__d2b+0x7e>
 80087ec:	f1c0 0320 	rsb	r3, r0, #32
 80087f0:	fa02 f303 	lsl.w	r3, r2, r3
 80087f4:	430b      	orrs	r3, r1
 80087f6:	40c2      	lsrs	r2, r0
 80087f8:	6163      	str	r3, [r4, #20]
 80087fa:	9201      	str	r2, [sp, #4]
 80087fc:	9b01      	ldr	r3, [sp, #4]
 80087fe:	61a3      	str	r3, [r4, #24]
 8008800:	2b00      	cmp	r3, #0
 8008802:	bf0c      	ite	eq
 8008804:	2201      	moveq	r2, #1
 8008806:	2202      	movne	r2, #2
 8008808:	6122      	str	r2, [r4, #16]
 800880a:	b1a5      	cbz	r5, 8008836 <__d2b+0x92>
 800880c:	f2a5 4533 	subw	r5, r5, #1075	@ 0x433
 8008810:	4405      	add	r5, r0
 8008812:	603d      	str	r5, [r7, #0]
 8008814:	f1c0 0035 	rsb	r0, r0, #53	@ 0x35
 8008818:	6030      	str	r0, [r6, #0]
 800881a:	4620      	mov	r0, r4
 800881c:	b003      	add	sp, #12
 800881e:	e8bd 83f0 	ldmia.w	sp!, {r4, r5, r6, r7, r8, r9, pc}
 8008822:	6161      	str	r1, [r4, #20]
 8008824:	e7ea      	b.n	80087fc <__d2b+0x58>
 8008826:	a801      	add	r0, sp, #4
 8008828:	f7ff fd59 	bl	80082de <__lo0bits>
 800882c:	9b01      	ldr	r3, [sp, #4]
 800882e:	6163      	str	r3, [r4, #20]
 8008830:	3020      	adds	r0, #32
 8008832:	2201      	movs	r2, #1
 8008834:	e7e8      	b.n	8008808 <__d2b+0x64>
 8008836:	eb04 0382 	add.w	r3, r4, r2, lsl #2
 800883a:	f2a0 4032 	subw	r0, r0, #1074	@ 0x432
 800883e:	6038      	str	r0, [r7, #0]
 8008840:	6918      	ldr	r0, [r3, #16]
 8008842:	f7ff fd2d 	bl	80082a0 <__hi0bits>
 8008846:	ebc0 1042 	rsb	r0, r0, r2, lsl #5
 800884a:	e7e5      	b.n	8008818 <__d2b+0x74>
 800884c:	08009478 	.word	0x08009478
 8008850:	08009489 	.word	0x08009489

08008854 <__ssputs_r>:
 8008854:	e92d 47f0 	stmdb	sp!, {r4, r5, r6, r7, r8, r9, sl, lr}
 8008858:	688e      	ldr	r6, [r1, #8]
 800885a:	461f      	mov	r7, r3
 800885c:	42be      	cmp	r6, r7
 800885e:	680b      	ldr	r3, [r1, #0]
 8008860:	4682      	mov	sl, r0
 8008862:	460c      	mov	r4, r1
 8008864:	4690      	mov	r8, r2
 8008866:	d82d      	bhi.n	80088c4 <__ssputs_r+0x70>
 8008868:	f9b1 200c 	ldrsh.w	r2, [r1, #12]
 800886c:	f412 6f90 	tst.w	r2, #1152	@ 0x480
 8008870:	d026      	beq.n	80088c0 <__ssputs_r+0x6c>
 8008872:	6965      	ldr	r5, [r4, #20]
 8008874:	6909      	ldr	r1, [r1, #16]
 8008876:	eb05 0545 	add.w	r5, r5, r5, lsl #1
 800887a:	eba3 0901 	sub.w	r9, r3, r1
 800887e:	eb05 75d5 	add.w	r5, r5, r5, lsr #31
 8008882:	1c7b      	adds	r3, r7, #1
 8008884:	444b      	add	r3, r9
 8008886:	106d      	asrs	r5, r5, #1
 8008888:	429d      	cmp	r5, r3
 800888a:	bf38      	it	cc
 800888c:	461d      	movcc	r5, r3
 800888e:	0553      	lsls	r3, r2, #21
 8008890:	d527      	bpl.n	80088e2 <__ssputs_r+0x8e>
 8008892:	4629      	mov	r1, r5
 8008894:	f7ff fbd0 	bl	8008038 <_malloc_r>
 8008898:	4606      	mov	r6, r0
 800889a:	b360      	cbz	r0, 80088f6 <__ssputs_r+0xa2>
 800889c:	6921      	ldr	r1, [r4, #16]
 800889e:	464a      	mov	r2, r9
 80088a0:	f000 fa06 	bl	8008cb0 <memcpy>
 80088a4:	89a3      	ldrh	r3, [r4, #12]
 80088a6:	f423 6390 	bic.w	r3, r3, #1152	@ 0x480
 80088aa:	f043 0380 	orr.w	r3, r3, #128	@ 0x80
 80088ae:	81a3      	strh	r3, [r4, #12]
 80088b0:	6126      	str	r6, [r4, #16]
 80088b2:	6165      	str	r5, [r4, #20]
 80088b4:	444e      	add	r6, r9
 80088b6:	eba5 0509 	sub.w	r5, r5, r9
 80088ba:	6026      	str	r6, [r4, #0]
 80088bc:	60a5      	str	r5, [r4, #8]
 80088be:	463e      	mov	r6, r7
 80088c0:	42be      	cmp	r6, r7
 80088c2:	d900      	bls.n	80088c6 <__ssputs_r+0x72>
 80088c4:	463e      	mov	r6, r7
 80088c6:	6820      	ldr	r0, [r4, #0]
 80088c8:	4632      	mov	r2, r6
 80088ca:	4641      	mov	r1, r8
 80088cc:	f000 f9c6 	bl	8008c5c <memmove>
 80088d0:	68a3      	ldr	r3, [r4, #8]
 80088d2:	1b9b      	subs	r3, r3, r6
 80088d4:	60a3      	str	r3, [r4, #8]
 80088d6:	6823      	ldr	r3, [r4, #0]
 80088d8:	4433      	add	r3, r6
 80088da:	6023      	str	r3, [r4, #0]
 80088dc:	2000      	movs	r0, #0
 80088de:	e8bd 87f0 	ldmia.w	sp!, {r4, r5, r6, r7, r8, r9, sl, pc}
 80088e2:	462a      	mov	r2, r5
 80088e4:	f000 fa36 	bl	8008d54 <_realloc_r>
 80088e8:	4606      	mov	r6, r0
 80088ea:	2800      	cmp	r0, #0
 80088ec:	d1e0      	bne.n	80088b0 <__ssputs_r+0x5c>
 80088ee:	6921      	ldr	r1, [r4, #16]
 80088f0:	4650      	mov	r0, sl
 80088f2:	f7ff fb2d 	bl	8007f50 <_free_r>
 80088f6:	230c      	movs	r3, #12
 80088f8:	f8ca 3000 	str.w	r3, [sl]
 80088fc:	89a3      	ldrh	r3, [r4, #12]
 80088fe:	f043 0340 	orr.w	r3, r3, #64	@ 0x40
 8008902:	81a3      	strh	r3, [r4, #12]
 8008904:	f04f 30ff 	mov.w	r0, #4294967295
 8008908:	e7e9      	b.n	80088de <__ssputs_r+0x8a>
	...

0800890c <_svfiprintf_r>:
 800890c:	e92d 4ff0 	stmdb	sp!, {r4, r5, r6, r7, r8, r9, sl, fp, lr}
 8008910:	4698      	mov	r8, r3
 8008912:	898b      	ldrh	r3, [r1, #12]
 8008914:	061b      	lsls	r3, r3, #24
 8008916:	b09d      	sub	sp, #116	@ 0x74
 8008918:	4607      	mov	r7, r0
 800891a:	460d      	mov	r5, r1
 800891c:	4614      	mov	r4, r2
 800891e:	d510      	bpl.n	8008942 <_svfiprintf_r+0x36>
 8008920:	690b      	ldr	r3, [r1, #16]
 8008922:	b973      	cbnz	r3, 8008942 <_svfiprintf_r+0x36>
 8008924:	2140      	movs	r1, #64	@ 0x40
 8008926:	f7ff fb87 	bl	8008038 <_malloc_r>
 800892a:	6028      	str	r0, [r5, #0]
 800892c:	6128      	str	r0, [r5, #16]
 800892e:	b930      	cbnz	r0, 800893e <_svfiprintf_r+0x32>
 8008930:	230c      	movs	r3, #12
 8008932:	603b      	str	r3, [r7, #0]
 8008934:	f04f 30ff 	mov.w	r0, #4294967295
 8008938:	b01d      	add	sp, #116	@ 0x74
 800893a:	e8bd 8ff0 	ldmia.w	sp!, {r4, r5, r6, r7, r8, r9, sl, fp, pc}
 800893e:	2340      	movs	r3, #64	@ 0x40
 8008940:	616b      	str	r3, [r5, #20]
 8008942:	2300      	movs	r3, #0
 8008944:	9309      	str	r3, [sp, #36]	@ 0x24
 8008946:	2320      	movs	r3, #32
 8008948:	f88d 3029 	strb.w	r3, [sp, #41]	@ 0x29
 800894c:	f8cd 800c 	str.w	r8, [sp, #12]
 8008950:	2330      	movs	r3, #48	@ 0x30
 8008952:	f8df 819c 	ldr.w	r8, [pc, #412]	@ 8008af0 <_svfiprintf_r+0x1e4>
 8008956:	f88d 302a 	strb.w	r3, [sp, #42]	@ 0x2a
 800895a:	f04f 0901 	mov.w	r9, #1
 800895e:	4623      	mov	r3, r4
 8008960:	469a      	mov	sl, r3
 8008962:	f813 2b01 	ldrb.w	r2, [r3], #1
 8008966:	b10a      	cbz	r2, 800896c <_svfiprintf_r+0x60>
 8008968:	2a25      	cmp	r2, #37	@ 0x25
 800896a:	d1f9      	bne.n	8008960 <_svfiprintf_r+0x54>
 800896c:	ebba 0b04 	subs.w	fp, sl, r4
 8008970:	d00b      	beq.n	800898a <_svfiprintf_r+0x7e>
 8008972:	465b      	mov	r3, fp
 8008974:	4622      	mov	r2, r4
 8008976:	4629      	mov	r1, r5
 8008978:	4638      	mov	r0, r7
 800897a:	f7ff ff6b 	bl	8008854 <__ssputs_r>
 800897e:	3001      	adds	r0, #1
 8008980:	f000 80a7 	beq.w	8008ad2 <_svfiprintf_r+0x1c6>
 8008984:	9a09      	ldr	r2, [sp, #36]	@ 0x24
 8008986:	445a      	add	r2, fp
 8008988:	9209      	str	r2, [sp, #36]	@ 0x24
 800898a:	f89a 3000 	ldrb.w	r3, [sl]
 800898e:	2b00      	cmp	r3, #0
 8008990:	f000 809f 	beq.w	8008ad2 <_svfiprintf_r+0x1c6>
 8008994:	2300      	movs	r3, #0
 8008996:	f04f 32ff 	mov.w	r2, #4294967295
 800899a:	e9cd 2305 	strd	r2, r3, [sp, #20]
 800899e:	f10a 0a01 	add.w	sl, sl, #1
 80089a2:	9304      	str	r3, [sp, #16]
 80089a4:	9307      	str	r3, [sp, #28]
 80089a6:	f88d 3053 	strb.w	r3, [sp, #83]	@ 0x53
 80089aa:	931a      	str	r3, [sp, #104]	@ 0x68
 80089ac:	4654      	mov	r4, sl
 80089ae:	2205      	movs	r2, #5
 80089b0:	f814 1b01 	ldrb.w	r1, [r4], #1
 80089b4:	484e      	ldr	r0, [pc, #312]	@ (8008af0 <_svfiprintf_r+0x1e4>)
 80089b6:	f7f7 fc0b 	bl	80001d0 <memchr>
 80089ba:	9a04      	ldr	r2, [sp, #16]
 80089bc:	b9d8      	cbnz	r0, 80089f6 <_svfiprintf_r+0xea>
 80089be:	06d0      	lsls	r0, r2, #27
 80089c0:	bf44      	itt	mi
 80089c2:	2320      	movmi	r3, #32
 80089c4:	f88d 3053 	strbmi.w	r3, [sp, #83]	@ 0x53
 80089c8:	0711      	lsls	r1, r2, #28
 80089ca:	bf44      	itt	mi
 80089cc:	232b      	movmi	r3, #43	@ 0x2b
 80089ce:	f88d 3053 	strbmi.w	r3, [sp, #83]	@ 0x53
 80089d2:	f89a 3000 	ldrb.w	r3, [sl]
 80089d6:	2b2a      	cmp	r3, #42	@ 0x2a
 80089d8:	d015      	beq.n	8008a06 <_svfiprintf_r+0xfa>
 80089da:	9a07      	ldr	r2, [sp, #28]
 80089dc:	4654      	mov	r4, sl
 80089de:	2000      	movs	r0, #0
 80089e0:	f04f 0c0a 	mov.w	ip, #10
 80089e4:	4621      	mov	r1, r4
 80089e6:	f811 3b01 	ldrb.w	r3, [r1], #1
 80089ea:	3b30      	subs	r3, #48	@ 0x30
 80089ec:	2b09      	cmp	r3, #9
 80089ee:	d94b      	bls.n	8008a88 <_svfiprintf_r+0x17c>
 80089f0:	b1b0      	cbz	r0, 8008a20 <_svfiprintf_r+0x114>
 80089f2:	9207      	str	r2, [sp, #28]
 80089f4:	e014      	b.n	8008a20 <_svfiprintf_r+0x114>
 80089f6:	eba0 0308 	sub.w	r3, r0, r8
 80089fa:	fa09 f303 	lsl.w	r3, r9, r3
 80089fe:	4313      	orrs	r3, r2
 8008a00:	9304      	str	r3, [sp, #16]
 8008a02:	46a2      	mov	sl, r4
 8008a04:	e7d2      	b.n	80089ac <_svfiprintf_r+0xa0>
 8008a06:	9b03      	ldr	r3, [sp, #12]
 8008a08:	1d19      	adds	r1, r3, #4
 8008a0a:	681b      	ldr	r3, [r3, #0]
 8008a0c:	9103      	str	r1, [sp, #12]
 8008a0e:	2b00      	cmp	r3, #0
 8008a10:	bfbb      	ittet	lt
 8008a12:	425b      	neglt	r3, r3
 8008a14:	f042 0202 	orrlt.w	r2, r2, #2
 8008a18:	9307      	strge	r3, [sp, #28]
 8008a1a:	9307      	strlt	r3, [sp, #28]
 8008a1c:	bfb8      	it	lt
 8008a1e:	9204      	strlt	r2, [sp, #16]
 8008a20:	7823      	ldrb	r3, [r4, #0]
 8008a22:	2b2e      	cmp	r3, #46	@ 0x2e
 8008a24:	d10a      	bne.n	8008a3c <_svfiprintf_r+0x130>
 8008a26:	7863      	ldrb	r3, [r4, #1]
 8008a28:	2b2a      	cmp	r3, #42	@ 0x2a
 8008a2a:	d132      	bne.n	8008a92 <_svfiprintf_r+0x186>
 8008a2c:	9b03      	ldr	r3, [sp, #12]
 8008a2e:	1d1a      	adds	r2, r3, #4
 8008a30:	681b      	ldr	r3, [r3, #0]
 8008a32:	9203      	str	r2, [sp, #12]
 8008a34:	ea43 73e3 	orr.w	r3, r3, r3, asr #31
 8008a38:	3402      	adds	r4, #2
 8008a3a:	9305      	str	r3, [sp, #20]
 8008a3c:	f8df a0c0 	ldr.w	sl, [pc, #192]	@ 8008b00 <_svfiprintf_r+0x1f4>
 8008a40:	7821      	ldrb	r1, [r4, #0]
 8008a42:	2203      	movs	r2, #3
 8008a44:	4650      	mov	r0, sl
 8008a46:	f7f7 fbc3 	bl	80001d0 <memchr>
 8008a4a:	b138      	cbz	r0, 8008a5c <_svfiprintf_r+0x150>
 8008a4c:	9b04      	ldr	r3, [sp, #16]
 8008a4e:	eba0 000a 	sub.w	r0, r0, sl
 8008a52:	2240      	movs	r2, #64	@ 0x40
 8008a54:	4082      	lsls	r2, r0
 8008a56:	4313      	orrs	r3, r2
 8008a58:	3401      	adds	r4, #1
 8008a5a:	9304      	str	r3, [sp, #16]
 8008a5c:	f814 1b01 	ldrb.w	r1, [r4], #1
 8008a60:	4824      	ldr	r0, [pc, #144]	@ (8008af4 <_svfiprintf_r+0x1e8>)
 8008a62:	f88d 1028 	strb.w	r1, [sp, #40]	@ 0x28
 8008a66:	2206      	movs	r2, #6
 8008a68:	f7f7 fbb2 	bl	80001d0 <memchr>
 8008a6c:	2800      	cmp	r0, #0
 8008a6e:	d036      	beq.n	8008ade <_svfiprintf_r+0x1d2>
 8008a70:	4b21      	ldr	r3, [pc, #132]	@ (8008af8 <_svfiprintf_r+0x1ec>)
 8008a72:	bb1b      	cbnz	r3, 8008abc <_svfiprintf_r+0x1b0>
 8008a74:	9b03      	ldr	r3, [sp, #12]
 8008a76:	3307      	adds	r3, #7
 8008a78:	f023 0307 	bic.w	r3, r3, #7
 8008a7c:	3308      	adds	r3, #8
 8008a7e:	9303      	str	r3, [sp, #12]
 8008a80:	9b09      	ldr	r3, [sp, #36]	@ 0x24
 8008a82:	4433      	add	r3, r6
 8008a84:	9309      	str	r3, [sp, #36]	@ 0x24
 8008a86:	e76a      	b.n	800895e <_svfiprintf_r+0x52>
 8008a88:	fb0c 3202 	mla	r2, ip, r2, r3
 8008a8c:	460c      	mov	r4, r1
 8008a8e:	2001      	movs	r0, #1
 8008a90:	e7a8      	b.n	80089e4 <_svfiprintf_r+0xd8>
 8008a92:	2300      	movs	r3, #0
 8008a94:	3401      	adds	r4, #1
 8008a96:	9305      	str	r3, [sp, #20]
 8008a98:	4619      	mov	r1, r3
 8008a9a:	f04f 0c0a 	mov.w	ip, #10
 8008a9e:	4620      	mov	r0, r4
 8008aa0:	f810 2b01 	ldrb.w	r2, [r0], #1
 8008aa4:	3a30      	subs	r2, #48	@ 0x30
 8008aa6:	2a09      	cmp	r2, #9
 8008aa8:	d903      	bls.n	8008ab2 <_svfiprintf_r+0x1a6>
 8008aaa:	2b00      	cmp	r3, #0
 8008aac:	d0c6      	beq.n	8008a3c <_svfiprintf_r+0x130>
 8008aae:	9105      	str	r1, [sp, #20]
 8008ab0:	e7c4      	b.n	8008a3c <_svfiprintf_r+0x130>
 8008ab2:	fb0c 2101 	mla	r1, ip, r1, r2
 8008ab6:	4604      	mov	r4, r0
 8008ab8:	2301      	movs	r3, #1
 8008aba:	e7f0      	b.n	8008a9e <_svfiprintf_r+0x192>
 8008abc:	ab03      	add	r3, sp, #12
 8008abe:	9300      	str	r3, [sp, #0]
 8008ac0:	462a      	mov	r2, r5
 8008ac2:	4b0e      	ldr	r3, [pc, #56]	@ (8008afc <_svfiprintf_r+0x1f0>)
 8008ac4:	a904      	add	r1, sp, #16
 8008ac6:	4638      	mov	r0, r7
 8008ac8:	f7fd fe62 	bl	8006790 <_printf_float>
 8008acc:	1c42      	adds	r2, r0, #1
 8008ace:	4606      	mov	r6, r0
 8008ad0:	d1d6      	bne.n	8008a80 <_svfiprintf_r+0x174>
 8008ad2:	89ab      	ldrh	r3, [r5, #12]
 8008ad4:	065b      	lsls	r3, r3, #25
 8008ad6:	f53f af2d 	bmi.w	8008934 <_svfiprintf_r+0x28>
 8008ada:	9809      	ldr	r0, [sp, #36]	@ 0x24
 8008adc:	e72c      	b.n	8008938 <_svfiprintf_r+0x2c>
 8008ade:	ab03      	add	r3, sp, #12
 8008ae0:	9300      	str	r3, [sp, #0]
 8008ae2:	462a      	mov	r2, r5
 8008ae4:	4b05      	ldr	r3, [pc, #20]	@ (8008afc <_svfiprintf_r+0x1f0>)
 8008ae6:	a904      	add	r1, sp, #16
 8008ae8:	4638      	mov	r0, r7
 8008aea:	f7fe f8e9 	bl	8006cc0 <_printf_i>
 8008aee:	e7ed      	b.n	8008acc <_svfiprintf_r+0x1c0>
 8008af0:	080095e0 	.word	0x080095e0
 8008af4:	080095ea 	.word	0x080095ea
 8008af8:	08006791 	.word	0x08006791
 8008afc:	08008855 	.word	0x08008855
 8008b00:	080095e6 	.word	0x080095e6

08008b04 <__sflush_r>:
 8008b04:	f9b1 200c 	ldrsh.w	r2, [r1, #12]
 8008b08:	e92d 41f0 	stmdb	sp!, {r4, r5, r6, r7, r8, lr}
 8008b0c:	0716      	lsls	r6, r2, #28
 8008b0e:	4605      	mov	r5, r0
 8008b10:	460c      	mov	r4, r1
 8008b12:	d454      	bmi.n	8008bbe <__sflush_r+0xba>
 8008b14:	684b      	ldr	r3, [r1, #4]
 8008b16:	2b00      	cmp	r3, #0
 8008b18:	dc02      	bgt.n	8008b20 <__sflush_r+0x1c>
 8008b1a:	6c0b      	ldr	r3, [r1, #64]	@ 0x40
 8008b1c:	2b00      	cmp	r3, #0
 8008b1e:	dd48      	ble.n	8008bb2 <__sflush_r+0xae>
 8008b20:	6ae6      	ldr	r6, [r4, #44]	@ 0x2c
 8008b22:	2e00      	cmp	r6, #0
 8008b24:	d045      	beq.n	8008bb2 <__sflush_r+0xae>
 8008b26:	2300      	movs	r3, #0
 8008b28:	f412 5280 	ands.w	r2, r2, #4096	@ 0x1000
 8008b2c:	682f      	ldr	r7, [r5, #0]
 8008b2e:	6a21      	ldr	r1, [r4, #32]
 8008b30:	602b      	str	r3, [r5, #0]
 8008b32:	d030      	beq.n	8008b96 <__sflush_r+0x92>
 8008b34:	6d62      	ldr	r2, [r4, #84]	@ 0x54
 8008b36:	89a3      	ldrh	r3, [r4, #12]
 8008b38:	0759      	lsls	r1, r3, #29
 8008b3a:	d505      	bpl.n	8008b48 <__sflush_r+0x44>
 8008b3c:	6863      	ldr	r3, [r4, #4]
 8008b3e:	1ad2      	subs	r2, r2, r3
 8008b40:	6b63      	ldr	r3, [r4, #52]	@ 0x34
 8008b42:	b10b      	cbz	r3, 8008b48 <__sflush_r+0x44>
 8008b44:	6c23      	ldr	r3, [r4, #64]	@ 0x40
 8008b46:	1ad2      	subs	r2, r2, r3
 8008b48:	2300      	movs	r3, #0
 8008b4a:	6ae6      	ldr	r6, [r4, #44]	@ 0x2c
 8008b4c:	6a21      	ldr	r1, [r4, #32]
 8008b4e:	4628      	mov	r0, r5
 8008b50:	47b0      	blx	r6
 8008b52:	1c43      	adds	r3, r0, #1
 8008b54:	89a3      	ldrh	r3, [r4, #12]
 8008b56:	d106      	bne.n	8008b66 <__sflush_r+0x62>
 8008b58:	6829      	ldr	r1, [r5, #0]
 8008b5a:	291d      	cmp	r1, #29
 8008b5c:	d82b      	bhi.n	8008bb6 <__sflush_r+0xb2>
 8008b5e:	4a2a      	ldr	r2, [pc, #168]	@ (8008c08 <__sflush_r+0x104>)
 8008b60:	410a      	asrs	r2, r1
 8008b62:	07d6      	lsls	r6, r2, #31
 8008b64:	d427      	bmi.n	8008bb6 <__sflush_r+0xb2>
 8008b66:	2200      	movs	r2, #0
 8008b68:	6062      	str	r2, [r4, #4]
 8008b6a:	04d9      	lsls	r1, r3, #19
 8008b6c:	6922      	ldr	r2, [r4, #16]
 8008b6e:	6022      	str	r2, [r4, #0]
 8008b70:	d504      	bpl.n	8008b7c <__sflush_r+0x78>
 8008b72:	1c42      	adds	r2, r0, #1
 8008b74:	d101      	bne.n	8008b7a <__sflush_r+0x76>
 8008b76:	682b      	ldr	r3, [r5, #0]
 8008b78:	b903      	cbnz	r3, 8008b7c <__sflush_r+0x78>
 8008b7a:	6560      	str	r0, [r4, #84]	@ 0x54
 8008b7c:	6b61      	ldr	r1, [r4, #52]	@ 0x34
 8008b7e:	602f      	str	r7, [r5, #0]
 8008b80:	b1b9      	cbz	r1, 8008bb2 <__sflush_r+0xae>
 8008b82:	f104 0344 	add.w	r3, r4, #68	@ 0x44
 8008b86:	4299      	cmp	r1, r3
 8008b88:	d002      	beq.n	8008b90 <__sflush_r+0x8c>
 8008b8a:	4628      	mov	r0, r5
 8008b8c:	f7ff f9e0 	bl	8007f50 <_free_r>
 8008b90:	2300      	movs	r3, #0
 8008b92:	6363      	str	r3, [r4, #52]	@ 0x34
 8008b94:	e00d      	b.n	8008bb2 <__sflush_r+0xae>
 8008b96:	2301      	movs	r3, #1
 8008b98:	4628      	mov	r0, r5
 8008b9a:	47b0      	blx	r6
 8008b9c:	4602      	mov	r2, r0
 8008b9e:	1c50      	adds	r0, r2, #1
 8008ba0:	d1c9      	bne.n	8008b36 <__sflush_r+0x32>
 8008ba2:	682b      	ldr	r3, [r5, #0]
 8008ba4:	2b00      	cmp	r3, #0
 8008ba6:	d0c6      	beq.n	8008b36 <__sflush_r+0x32>
 8008ba8:	2b1d      	cmp	r3, #29
 8008baa:	d001      	beq.n	8008bb0 <__sflush_r+0xac>
 8008bac:	2b16      	cmp	r3, #22
 8008bae:	d11e      	bne.n	8008bee <__sflush_r+0xea>
 8008bb0:	602f      	str	r7, [r5, #0]
 8008bb2:	2000      	movs	r0, #0
 8008bb4:	e022      	b.n	8008bfc <__sflush_r+0xf8>
 8008bb6:	f043 0340 	orr.w	r3, r3, #64	@ 0x40
 8008bba:	b21b      	sxth	r3, r3
 8008bbc:	e01b      	b.n	8008bf6 <__sflush_r+0xf2>
 8008bbe:	690f      	ldr	r7, [r1, #16]
 8008bc0:	2f00      	cmp	r7, #0
 8008bc2:	d0f6      	beq.n	8008bb2 <__sflush_r+0xae>
 8008bc4:	0793      	lsls	r3, r2, #30
 8008bc6:	680e      	ldr	r6, [r1, #0]
 8008bc8:	bf08      	it	eq
 8008bca:	694b      	ldreq	r3, [r1, #20]
 8008bcc:	600f      	str	r7, [r1, #0]
 8008bce:	bf18      	it	ne
 8008bd0:	2300      	movne	r3, #0
 8008bd2:	eba6 0807 	sub.w	r8, r6, r7
 8008bd6:	608b      	str	r3, [r1, #8]
 8008bd8:	f1b8 0f00 	cmp.w	r8, #0
 8008bdc:	dde9      	ble.n	8008bb2 <__sflush_r+0xae>
 8008bde:	6a21      	ldr	r1, [r4, #32]
 8008be0:	6aa6      	ldr	r6, [r4, #40]	@ 0x28
 8008be2:	4643      	mov	r3, r8
 8008be4:	463a      	mov	r2, r7
 8008be6:	4628      	mov	r0, r5
 8008be8:	47b0      	blx	r6
 8008bea:	2800      	cmp	r0, #0
 8008bec:	dc08      	bgt.n	8008c00 <__sflush_r+0xfc>
 8008bee:	f9b4 300c 	ldrsh.w	r3, [r4, #12]
 8008bf2:	f043 0340 	orr.w	r3, r3, #64	@ 0x40
 8008bf6:	81a3      	strh	r3, [r4, #12]
 8008bf8:	f04f 30ff 	mov.w	r0, #4294967295
 8008bfc:	e8bd 81f0 	ldmia.w	sp!, {r4, r5, r6, r7, r8, pc}
 8008c00:	4407      	add	r7, r0
 8008c02:	eba8 0800 	sub.w	r8, r8, r0
 8008c06:	e7e7      	b.n	8008bd8 <__sflush_r+0xd4>
 8008c08:	dfbffffe 	.word	0xdfbffffe

08008c0c <_fflush_r>:
 8008c0c:	b538      	push	{r3, r4, r5, lr}
 8008c0e:	690b      	ldr	r3, [r1, #16]
 8008c10:	4605      	mov	r5, r0
 8008c12:	460c      	mov	r4, r1
 8008c14:	b913      	cbnz	r3, 8008c1c <_fflush_r+0x10>
 8008c16:	2500      	movs	r5, #0
 8008c18:	4628      	mov	r0, r5
 8008c1a:	bd38      	pop	{r3, r4, r5, pc}
 8008c1c:	b118      	cbz	r0, 8008c26 <_fflush_r+0x1a>
 8008c1e:	6a03      	ldr	r3, [r0, #32]
 8008c20:	b90b      	cbnz	r3, 8008c26 <_fflush_r+0x1a>
 8008c22:	f7fe f9f9 	bl	8007018 <__sinit>
 8008c26:	f9b4 300c 	ldrsh.w	r3, [r4, #12]
 8008c2a:	2b00      	cmp	r3, #0
 8008c2c:	d0f3      	beq.n	8008c16 <_fflush_r+0xa>
 8008c2e:	6e62      	ldr	r2, [r4, #100]	@ 0x64
 8008c30:	07d0      	lsls	r0, r2, #31
 8008c32:	d404      	bmi.n	8008c3e <_fflush_r+0x32>
 8008c34:	0599      	lsls	r1, r3, #22
 8008c36:	d402      	bmi.n	8008c3e <_fflush_r+0x32>
 8008c38:	6da0      	ldr	r0, [r4, #88]	@ 0x58
 8008c3a:	f7fe fb38 	bl	80072ae <__retarget_lock_acquire_recursive>
 8008c3e:	4628      	mov	r0, r5
 8008c40:	4621      	mov	r1, r4
 8008c42:	f7ff ff5f 	bl	8008b04 <__sflush_r>
 8008c46:	6e63      	ldr	r3, [r4, #100]	@ 0x64
 8008c48:	07da      	lsls	r2, r3, #31
 8008c4a:	4605      	mov	r5, r0
 8008c4c:	d4e4      	bmi.n	8008c18 <_fflush_r+0xc>
 8008c4e:	89a3      	ldrh	r3, [r4, #12]
 8008c50:	059b      	lsls	r3, r3, #22
 8008c52:	d4e1      	bmi.n	8008c18 <_fflush_r+0xc>
 8008c54:	6da0      	ldr	r0, [r4, #88]	@ 0x58
 8008c56:	f7fe fb2b 	bl	80072b0 <__retarget_lock_release_recursive>
 8008c5a:	e7dd      	b.n	8008c18 <_fflush_r+0xc>

08008c5c <memmove>:
 8008c5c:	4288      	cmp	r0, r1
 8008c5e:	b510      	push	{r4, lr}
 8008c60:	eb01 0402 	add.w	r4, r1, r2
 8008c64:	d902      	bls.n	8008c6c <memmove+0x10>
 8008c66:	4284      	cmp	r4, r0
 8008c68:	4623      	mov	r3, r4
 8008c6a:	d807      	bhi.n	8008c7c <memmove+0x20>
 8008c6c:	1e43      	subs	r3, r0, #1
 8008c6e:	42a1      	cmp	r1, r4
 8008c70:	d008      	beq.n	8008c84 <memmove+0x28>
 8008c72:	f811 2b01 	ldrb.w	r2, [r1], #1
 8008c76:	f803 2f01 	strb.w	r2, [r3, #1]!
 8008c7a:	e7f8      	b.n	8008c6e <memmove+0x12>
 8008c7c:	4402      	add	r2, r0
 8008c7e:	4601      	mov	r1, r0
 8008c80:	428a      	cmp	r2, r1
 8008c82:	d100      	bne.n	8008c86 <memmove+0x2a>
 8008c84:	bd10      	pop	{r4, pc}
 8008c86:	f813 4d01 	ldrb.w	r4, [r3, #-1]!
 8008c8a:	f802 4d01 	strb.w	r4, [r2, #-1]!
 8008c8e:	e7f7      	b.n	8008c80 <memmove+0x24>

08008c90 <_sbrk_r>:
 8008c90:	b538      	push	{r3, r4, r5, lr}
 8008c92:	4d06      	ldr	r5, [pc, #24]	@ (8008cac <_sbrk_r+0x1c>)
 8008c94:	2300      	movs	r3, #0
 8008c96:	4604      	mov	r4, r0
 8008c98:	4608      	mov	r0, r1
 8008c9a:	602b      	str	r3, [r5, #0]
 8008c9c:	f7f9 fcf8 	bl	8002690 <_sbrk>
 8008ca0:	1c43      	adds	r3, r0, #1
 8008ca2:	d102      	bne.n	8008caa <_sbrk_r+0x1a>
 8008ca4:	682b      	ldr	r3, [r5, #0]
 8008ca6:	b103      	cbz	r3, 8008caa <_sbrk_r+0x1a>
 8008ca8:	6023      	str	r3, [r4, #0]
 8008caa:	bd38      	pop	{r3, r4, r5, pc}
 8008cac:	20000508 	.word	0x20000508

08008cb0 <memcpy>:
 8008cb0:	440a      	add	r2, r1
 8008cb2:	4291      	cmp	r1, r2
 8008cb4:	f100 33ff 	add.w	r3, r0, #4294967295
 8008cb8:	d100      	bne.n	8008cbc <memcpy+0xc>
 8008cba:	4770      	bx	lr
 8008cbc:	b510      	push	{r4, lr}
 8008cbe:	f811 4b01 	ldrb.w	r4, [r1], #1
 8008cc2:	f803 4f01 	strb.w	r4, [r3, #1]!
 8008cc6:	4291      	cmp	r1, r2
 8008cc8:	d1f9      	bne.n	8008cbe <memcpy+0xe>
 8008cca:	bd10      	pop	{r4, pc}

08008ccc <__assert_func>:
 8008ccc:	b51f      	push	{r0, r1, r2, r3, r4, lr}
 8008cce:	4614      	mov	r4, r2
 8008cd0:	461a      	mov	r2, r3
 8008cd2:	4b09      	ldr	r3, [pc, #36]	@ (8008cf8 <__assert_func+0x2c>)
 8008cd4:	681b      	ldr	r3, [r3, #0]
 8008cd6:	4605      	mov	r5, r0
 8008cd8:	68d8      	ldr	r0, [r3, #12]
 8008cda:	b954      	cbnz	r4, 8008cf2 <__assert_func+0x26>
 8008cdc:	4b07      	ldr	r3, [pc, #28]	@ (8008cfc <__assert_func+0x30>)
 8008cde:	461c      	mov	r4, r3
 8008ce0:	e9cd 3401 	strd	r3, r4, [sp, #4]
 8008ce4:	9100      	str	r1, [sp, #0]
 8008ce6:	462b      	mov	r3, r5
 8008ce8:	4905      	ldr	r1, [pc, #20]	@ (8008d00 <__assert_func+0x34>)
 8008cea:	f000 f86f 	bl	8008dcc <fiprintf>
 8008cee:	f000 f87f 	bl	8008df0 <abort>
 8008cf2:	4b04      	ldr	r3, [pc, #16]	@ (8008d04 <__assert_func+0x38>)
 8008cf4:	e7f4      	b.n	8008ce0 <__assert_func+0x14>
 8008cf6:	bf00      	nop
 8008cf8:	20000020 	.word	0x20000020
 8008cfc:	08009636 	.word	0x08009636
 8008d00:	08009608 	.word	0x08009608
 8008d04:	080095fb 	.word	0x080095fb

08008d08 <_calloc_r>:
 8008d08:	b570      	push	{r4, r5, r6, lr}
 8008d0a:	fba1 5402 	umull	r5, r4, r1, r2
 8008d0e:	b93c      	cbnz	r4, 8008d20 <_calloc_r+0x18>
 8008d10:	4629      	mov	r1, r5
 8008d12:	f7ff f991 	bl	8008038 <_malloc_r>
 8008d16:	4606      	mov	r6, r0
 8008d18:	b928      	cbnz	r0, 8008d26 <_calloc_r+0x1e>
 8008d1a:	2600      	movs	r6, #0
 8008d1c:	4630      	mov	r0, r6
 8008d1e:	bd70      	pop	{r4, r5, r6, pc}
 8008d20:	220c      	movs	r2, #12
 8008d22:	6002      	str	r2, [r0, #0]
 8008d24:	e7f9      	b.n	8008d1a <_calloc_r+0x12>
 8008d26:	462a      	mov	r2, r5
 8008d28:	4621      	mov	r1, r4
 8008d2a:	f7fe fa42 	bl	80071b2 <memset>
 8008d2e:	e7f5      	b.n	8008d1c <_calloc_r+0x14>

08008d30 <__ascii_mbtowc>:
 8008d30:	b082      	sub	sp, #8
 8008d32:	b901      	cbnz	r1, 8008d36 <__ascii_mbtowc+0x6>
 8008d34:	a901      	add	r1, sp, #4
 8008d36:	b142      	cbz	r2, 8008d4a <__ascii_mbtowc+0x1a>
 8008d38:	b14b      	cbz	r3, 8008d4e <__ascii_mbtowc+0x1e>
 8008d3a:	7813      	ldrb	r3, [r2, #0]
 8008d3c:	600b      	str	r3, [r1, #0]
 8008d3e:	7812      	ldrb	r2, [r2, #0]
 8008d40:	1e10      	subs	r0, r2, #0
 8008d42:	bf18      	it	ne
 8008d44:	2001      	movne	r0, #1
 8008d46:	b002      	add	sp, #8
 8008d48:	4770      	bx	lr
 8008d4a:	4610      	mov	r0, r2
 8008d4c:	e7fb      	b.n	8008d46 <__ascii_mbtowc+0x16>
 8008d4e:	f06f 0001 	mvn.w	r0, #1
 8008d52:	e7f8      	b.n	8008d46 <__ascii_mbtowc+0x16>

08008d54 <_realloc_r>:
 8008d54:	e92d 41f0 	stmdb	sp!, {r4, r5, r6, r7, r8, lr}
 8008d58:	4680      	mov	r8, r0
 8008d5a:	4615      	mov	r5, r2
 8008d5c:	460c      	mov	r4, r1
 8008d5e:	b921      	cbnz	r1, 8008d6a <_realloc_r+0x16>
 8008d60:	e8bd 41f0 	ldmia.w	sp!, {r4, r5, r6, r7, r8, lr}
 8008d64:	4611      	mov	r1, r2
 8008d66:	f7ff b967 	b.w	8008038 <_malloc_r>
 8008d6a:	b92a      	cbnz	r2, 8008d78 <_realloc_r+0x24>
 8008d6c:	f7ff f8f0 	bl	8007f50 <_free_r>
 8008d70:	2400      	movs	r4, #0
 8008d72:	4620      	mov	r0, r4
 8008d74:	e8bd 81f0 	ldmia.w	sp!, {r4, r5, r6, r7, r8, pc}
 8008d78:	f000 f841 	bl	8008dfe <_malloc_usable_size_r>
 8008d7c:	4285      	cmp	r5, r0
 8008d7e:	4606      	mov	r6, r0
 8008d80:	d802      	bhi.n	8008d88 <_realloc_r+0x34>
 8008d82:	ebb5 0f50 	cmp.w	r5, r0, lsr #1
 8008d86:	d8f4      	bhi.n	8008d72 <_realloc_r+0x1e>
 8008d88:	4629      	mov	r1, r5
 8008d8a:	4640      	mov	r0, r8
 8008d8c:	f7ff f954 	bl	8008038 <_malloc_r>
 8008d90:	4607      	mov	r7, r0
 8008d92:	2800      	cmp	r0, #0
 8008d94:	d0ec      	beq.n	8008d70 <_realloc_r+0x1c>
 8008d96:	42b5      	cmp	r5, r6
 8008d98:	462a      	mov	r2, r5
 8008d9a:	4621      	mov	r1, r4
 8008d9c:	bf28      	it	cs
 8008d9e:	4632      	movcs	r2, r6
 8008da0:	f7ff ff86 	bl	8008cb0 <memcpy>
 8008da4:	4621      	mov	r1, r4
 8008da6:	4640      	mov	r0, r8
 8008da8:	f7ff f8d2 	bl	8007f50 <_free_r>
 8008dac:	463c      	mov	r4, r7
 8008dae:	e7e0      	b.n	8008d72 <_realloc_r+0x1e>

08008db0 <__ascii_wctomb>:
 8008db0:	4603      	mov	r3, r0
 8008db2:	4608      	mov	r0, r1
 8008db4:	b141      	cbz	r1, 8008dc8 <__ascii_wctomb+0x18>
 8008db6:	2aff      	cmp	r2, #255	@ 0xff
 8008db8:	d904      	bls.n	8008dc4 <__ascii_wctomb+0x14>
 8008dba:	228a      	movs	r2, #138	@ 0x8a
 8008dbc:	601a      	str	r2, [r3, #0]
 8008dbe:	f04f 30ff 	mov.w	r0, #4294967295
 8008dc2:	4770      	bx	lr
 8008dc4:	700a      	strb	r2, [r1, #0]
 8008dc6:	2001      	movs	r0, #1
 8008dc8:	4770      	bx	lr
	...

08008dcc <fiprintf>:
 8008dcc:	b40e      	push	{r1, r2, r3}
 8008dce:	b503      	push	{r0, r1, lr}
 8008dd0:	4601      	mov	r1, r0
 8008dd2:	ab03      	add	r3, sp, #12
 8008dd4:	4805      	ldr	r0, [pc, #20]	@ (8008dec <fiprintf+0x20>)
 8008dd6:	f853 2b04 	ldr.w	r2, [r3], #4
 8008dda:	6800      	ldr	r0, [r0, #0]
 8008ddc:	9301      	str	r3, [sp, #4]
 8008dde:	f000 f83f 	bl	8008e60 <_vfiprintf_r>
 8008de2:	b002      	add	sp, #8
 8008de4:	f85d eb04 	ldr.w	lr, [sp], #4
 8008de8:	b003      	add	sp, #12
 8008dea:	4770      	bx	lr
 8008dec:	20000020 	.word	0x20000020

08008df0 <abort>:
 8008df0:	b508      	push	{r3, lr}
 8008df2:	2006      	movs	r0, #6
 8008df4:	f000 fa08 	bl	8009208 <raise>
 8008df8:	2001      	movs	r0, #1
 8008dfa:	f7f9 fbd1 	bl	80025a0 <_exit>

08008dfe <_malloc_usable_size_r>:
 8008dfe:	f851 3c04 	ldr.w	r3, [r1, #-4]
 8008e02:	1f18      	subs	r0, r3, #4
 8008e04:	2b00      	cmp	r3, #0
 8008e06:	bfbc      	itt	lt
 8008e08:	580b      	ldrlt	r3, [r1, r0]
 8008e0a:	18c0      	addlt	r0, r0, r3
 8008e0c:	4770      	bx	lr

08008e0e <__sfputc_r>:
 8008e0e:	6893      	ldr	r3, [r2, #8]
 8008e10:	3b01      	subs	r3, #1
 8008e12:	2b00      	cmp	r3, #0
 8008e14:	b410      	push	{r4}
 8008e16:	6093      	str	r3, [r2, #8]
 8008e18:	da08      	bge.n	8008e2c <__sfputc_r+0x1e>
 8008e1a:	6994      	ldr	r4, [r2, #24]
 8008e1c:	42a3      	cmp	r3, r4
 8008e1e:	db01      	blt.n	8008e24 <__sfputc_r+0x16>
 8008e20:	290a      	cmp	r1, #10
 8008e22:	d103      	bne.n	8008e2c <__sfputc_r+0x1e>
 8008e24:	f85d 4b04 	ldr.w	r4, [sp], #4
 8008e28:	f000 b932 	b.w	8009090 <__swbuf_r>
 8008e2c:	6813      	ldr	r3, [r2, #0]
 8008e2e:	1c58      	adds	r0, r3, #1
 8008e30:	6010      	str	r0, [r2, #0]
 8008e32:	7019      	strb	r1, [r3, #0]
 8008e34:	4608      	mov	r0, r1
 8008e36:	f85d 4b04 	ldr.w	r4, [sp], #4
 8008e3a:	4770      	bx	lr

08008e3c <__sfputs_r>:
 8008e3c:	b5f8      	push	{r3, r4, r5, r6, r7, lr}
 8008e3e:	4606      	mov	r6, r0
 8008e40:	460f      	mov	r7, r1
 8008e42:	4614      	mov	r4, r2
 8008e44:	18d5      	adds	r5, r2, r3
 8008e46:	42ac      	cmp	r4, r5
 8008e48:	d101      	bne.n	8008e4e <__sfputs_r+0x12>
 8008e4a:	2000      	movs	r0, #0
 8008e4c:	e007      	b.n	8008e5e <__sfputs_r+0x22>
 8008e4e:	f814 1b01 	ldrb.w	r1, [r4], #1
 8008e52:	463a      	mov	r2, r7
 8008e54:	4630      	mov	r0, r6
 8008e56:	f7ff ffda 	bl	8008e0e <__sfputc_r>
 8008e5a:	1c43      	adds	r3, r0, #1
 8008e5c:	d1f3      	bne.n	8008e46 <__sfputs_r+0xa>
 8008e5e:	bdf8      	pop	{r3, r4, r5, r6, r7, pc}

08008e60 <_vfiprintf_r>:
 8008e60:	e92d 4ff0 	stmdb	sp!, {r4, r5, r6, r7, r8, r9, sl, fp, lr}
 8008e64:	460d      	mov	r5, r1
 8008e66:	b09d      	sub	sp, #116	@ 0x74
 8008e68:	4614      	mov	r4, r2
 8008e6a:	4698      	mov	r8, r3
 8008e6c:	4606      	mov	r6, r0
 8008e6e:	b118      	cbz	r0, 8008e78 <_vfiprintf_r+0x18>
 8008e70:	6a03      	ldr	r3, [r0, #32]
 8008e72:	b90b      	cbnz	r3, 8008e78 <_vfiprintf_r+0x18>
 8008e74:	f7fe f8d0 	bl	8007018 <__sinit>
 8008e78:	6e6b      	ldr	r3, [r5, #100]	@ 0x64
 8008e7a:	07d9      	lsls	r1, r3, #31
 8008e7c:	d405      	bmi.n	8008e8a <_vfiprintf_r+0x2a>
 8008e7e:	89ab      	ldrh	r3, [r5, #12]
 8008e80:	059a      	lsls	r2, r3, #22
 8008e82:	d402      	bmi.n	8008e8a <_vfiprintf_r+0x2a>
 8008e84:	6da8      	ldr	r0, [r5, #88]	@ 0x58
 8008e86:	f7fe fa12 	bl	80072ae <__retarget_lock_acquire_recursive>
 8008e8a:	89ab      	ldrh	r3, [r5, #12]
 8008e8c:	071b      	lsls	r3, r3, #28
 8008e8e:	d501      	bpl.n	8008e94 <_vfiprintf_r+0x34>
 8008e90:	692b      	ldr	r3, [r5, #16]
 8008e92:	b99b      	cbnz	r3, 8008ebc <_vfiprintf_r+0x5c>
 8008e94:	4629      	mov	r1, r5
 8008e96:	4630      	mov	r0, r6
 8008e98:	f000 f938 	bl	800910c <__swsetup_r>
 8008e9c:	b170      	cbz	r0, 8008ebc <_vfiprintf_r+0x5c>
 8008e9e:	6e6b      	ldr	r3, [r5, #100]	@ 0x64
 8008ea0:	07dc      	lsls	r4, r3, #31
 8008ea2:	d504      	bpl.n	8008eae <_vfiprintf_r+0x4e>
 8008ea4:	f04f 30ff 	mov.w	r0, #4294967295
 8008ea8:	b01d      	add	sp, #116	@ 0x74
 8008eaa:	e8bd 8ff0 	ldmia.w	sp!, {r4, r5, r6, r7, r8, r9, sl, fp, pc}
 8008eae:	89ab      	ldrh	r3, [r5, #12]
 8008eb0:	0598      	lsls	r0, r3, #22
 8008eb2:	d4f7      	bmi.n	8008ea4 <_vfiprintf_r+0x44>
 8008eb4:	6da8      	ldr	r0, [r5, #88]	@ 0x58
 8008eb6:	f7fe f9fb 	bl	80072b0 <__retarget_lock_release_recursive>
 8008eba:	e7f3      	b.n	8008ea4 <_vfiprintf_r+0x44>
 8008ebc:	2300      	movs	r3, #0
 8008ebe:	9309      	str	r3, [sp, #36]	@ 0x24
 8008ec0:	2320      	movs	r3, #32
 8008ec2:	f88d 3029 	strb.w	r3, [sp, #41]	@ 0x29
 8008ec6:	f8cd 800c 	str.w	r8, [sp, #12]
 8008eca:	2330      	movs	r3, #48	@ 0x30
 8008ecc:	f8df 81ac 	ldr.w	r8, [pc, #428]	@ 800907c <_vfiprintf_r+0x21c>
 8008ed0:	f88d 302a 	strb.w	r3, [sp, #42]	@ 0x2a
 8008ed4:	f04f 0901 	mov.w	r9, #1
 8008ed8:	4623      	mov	r3, r4
 8008eda:	469a      	mov	sl, r3
 8008edc:	f813 2b01 	ldrb.w	r2, [r3], #1
 8008ee0:	b10a      	cbz	r2, 8008ee6 <_vfiprintf_r+0x86>
 8008ee2:	2a25      	cmp	r2, #37	@ 0x25
 8008ee4:	d1f9      	bne.n	8008eda <_vfiprintf_r+0x7a>
 8008ee6:	ebba 0b04 	subs.w	fp, sl, r4
 8008eea:	d00b      	beq.n	8008f04 <_vfiprintf_r+0xa4>
 8008eec:	465b      	mov	r3, fp
 8008eee:	4622      	mov	r2, r4
 8008ef0:	4629      	mov	r1, r5
 8008ef2:	4630      	mov	r0, r6
 8008ef4:	f7ff ffa2 	bl	8008e3c <__sfputs_r>
 8008ef8:	3001      	adds	r0, #1
 8008efa:	f000 80a7 	beq.w	800904c <_vfiprintf_r+0x1ec>
 8008efe:	9a09      	ldr	r2, [sp, #36]	@ 0x24
 8008f00:	445a      	add	r2, fp
 8008f02:	9209      	str	r2, [sp, #36]	@ 0x24
 8008f04:	f89a 3000 	ldrb.w	r3, [sl]
 8008f08:	2b00      	cmp	r3, #0
 8008f0a:	f000 809f 	beq.w	800904c <_vfiprintf_r+0x1ec>
 8008f0e:	2300      	movs	r3, #0
 8008f10:	f04f 32ff 	mov.w	r2, #4294967295
 8008f14:	e9cd 2305 	strd	r2, r3, [sp, #20]
 8008f18:	f10a 0a01 	add.w	sl, sl, #1
 8008f1c:	9304      	str	r3, [sp, #16]
 8008f1e:	9307      	str	r3, [sp, #28]
 8008f20:	f88d 3053 	strb.w	r3, [sp, #83]	@ 0x53
 8008f24:	931a      	str	r3, [sp, #104]	@ 0x68
 8008f26:	4654      	mov	r4, sl
 8008f28:	2205      	movs	r2, #5
 8008f2a:	f814 1b01 	ldrb.w	r1, [r4], #1
 8008f2e:	4853      	ldr	r0, [pc, #332]	@ (800907c <_vfiprintf_r+0x21c>)
 8008f30:	f7f7 f94e 	bl	80001d0 <memchr>
 8008f34:	9a04      	ldr	r2, [sp, #16]
 8008f36:	b9d8      	cbnz	r0, 8008f70 <_vfiprintf_r+0x110>
 8008f38:	06d1      	lsls	r1, r2, #27
 8008f3a:	bf44      	itt	mi
 8008f3c:	2320      	movmi	r3, #32
 8008f3e:	f88d 3053 	strbmi.w	r3, [sp, #83]	@ 0x53
 8008f42:	0713      	lsls	r3, r2, #28
 8008f44:	bf44      	itt	mi
 8008f46:	232b      	movmi	r3, #43	@ 0x2b
 8008f48:	f88d 3053 	strbmi.w	r3, [sp, #83]	@ 0x53
 8008f4c:	f89a 3000 	ldrb.w	r3, [sl]
 8008f50:	2b2a      	cmp	r3, #42	@ 0x2a
 8008f52:	d015      	beq.n	8008f80 <_vfiprintf_r+0x120>
 8008f54:	9a07      	ldr	r2, [sp, #28]
 8008f56:	4654      	mov	r4, sl
 8008f58:	2000      	movs	r0, #0
 8008f5a:	f04f 0c0a 	mov.w	ip, #10
 8008f5e:	4621      	mov	r1, r4
 8008f60:	f811 3b01 	ldrb.w	r3, [r1], #1
 8008f64:	3b30      	subs	r3, #48	@ 0x30
 8008f66:	2b09      	cmp	r3, #9
 8008f68:	d94b      	bls.n	8009002 <_vfiprintf_r+0x1a2>
 8008f6a:	b1b0      	cbz	r0, 8008f9a <_vfiprintf_r+0x13a>
 8008f6c:	9207      	str	r2, [sp, #28]
 8008f6e:	e014      	b.n	8008f9a <_vfiprintf_r+0x13a>
 8008f70:	eba0 0308 	sub.w	r3, r0, r8
 8008f74:	fa09 f303 	lsl.w	r3, r9, r3
 8008f78:	4313      	orrs	r3, r2
 8008f7a:	9304      	str	r3, [sp, #16]
 8008f7c:	46a2      	mov	sl, r4
 8008f7e:	e7d2      	b.n	8008f26 <_vfiprintf_r+0xc6>
 8008f80:	9b03      	ldr	r3, [sp, #12]
 8008f82:	1d19      	adds	r1, r3, #4
 8008f84:	681b      	ldr	r3, [r3, #0]
 8008f86:	9103      	str	r1, [sp, #12]
 8008f88:	2b00      	cmp	r3, #0
 8008f8a:	bfbb      	ittet	lt
 8008f8c:	425b      	neglt	r3, r3
 8008f8e:	f042 0202 	orrlt.w	r2, r2, #2
 8008f92:	9307      	strge	r3, [sp, #28]
 8008f94:	9307      	strlt	r3, [sp, #28]
 8008f96:	bfb8      	it	lt
 8008f98:	9204      	strlt	r2, [sp, #16]
 8008f9a:	7823      	ldrb	r3, [r4, #0]
 8008f9c:	2b2e      	cmp	r3, #46	@ 0x2e
 8008f9e:	d10a      	bne.n	8008fb6 <_vfiprintf_r+0x156>
 8008fa0:	7863      	ldrb	r3, [r4, #1]
 8008fa2:	2b2a      	cmp	r3, #42	@ 0x2a
 8008fa4:	d132      	bne.n	800900c <_vfiprintf_r+0x1ac>
 8008fa6:	9b03      	ldr	r3, [sp, #12]
 8008fa8:	1d1a      	adds	r2, r3, #4
 8008faa:	681b      	ldr	r3, [r3, #0]
 8008fac:	9203      	str	r2, [sp, #12]
 8008fae:	ea43 73e3 	orr.w	r3, r3, r3, asr #31
 8008fb2:	3402      	adds	r4, #2
 8008fb4:	9305      	str	r3, [sp, #20]
 8008fb6:	f8df a0d4 	ldr.w	sl, [pc, #212]	@ 800908c <_vfiprintf_r+0x22c>
 8008fba:	7821      	ldrb	r1, [r4, #0]
 8008fbc:	2203      	movs	r2, #3
 8008fbe:	4650      	mov	r0, sl
 8008fc0:	f7f7 f906 	bl	80001d0 <memchr>
 8008fc4:	b138      	cbz	r0, 8008fd6 <_vfiprintf_r+0x176>
 8008fc6:	9b04      	ldr	r3, [sp, #16]
 8008fc8:	eba0 000a 	sub.w	r0, r0, sl
 8008fcc:	2240      	movs	r2, #64	@ 0x40
 8008fce:	4082      	lsls	r2, r0
 8008fd0:	4313      	orrs	r3, r2
 8008fd2:	3401      	adds	r4, #1
 8008fd4:	9304      	str	r3, [sp, #16]
 8008fd6:	f814 1b01 	ldrb.w	r1, [r4], #1
 8008fda:	4829      	ldr	r0, [pc, #164]	@ (8009080 <_vfiprintf_r+0x220>)
 8008fdc:	f88d 1028 	strb.w	r1, [sp, #40]	@ 0x28
 8008fe0:	2206      	movs	r2, #6
 8008fe2:	f7f7 f8f5 	bl	80001d0 <memchr>
 8008fe6:	2800      	cmp	r0, #0
 8008fe8:	d03f      	beq.n	800906a <_vfiprintf_r+0x20a>
 8008fea:	4b26      	ldr	r3, [pc, #152]	@ (8009084 <_vfiprintf_r+0x224>)
 8008fec:	bb1b      	cbnz	r3, 8009036 <_vfiprintf_r+0x1d6>
 8008fee:	9b03      	ldr	r3, [sp, #12]
 8008ff0:	3307      	adds	r3, #7
 8008ff2:	f023 0307 	bic.w	r3, r3, #7
 8008ff6:	3308      	adds	r3, #8
 8008ff8:	9303      	str	r3, [sp, #12]
 8008ffa:	9b09      	ldr	r3, [sp, #36]	@ 0x24
 8008ffc:	443b      	add	r3, r7
 8008ffe:	9309      	str	r3, [sp, #36]	@ 0x24
 8009000:	e76a      	b.n	8008ed8 <_vfiprintf_r+0x78>
 8009002:	fb0c 3202 	mla	r2, ip, r2, r3
 8009006:	460c      	mov	r4, r1
 8009008:	2001      	movs	r0, #1
 800900a:	e7a8      	b.n	8008f5e <_vfiprintf_r+0xfe>
 800900c:	2300      	movs	r3, #0
 800900e:	3401      	adds	r4, #1
 8009010:	9305      	str	r3, [sp, #20]
 8009012:	4619      	mov	r1, r3
 8009014:	f04f 0c0a 	mov.w	ip, #10
 8009018:	4620      	mov	r0, r4
 800901a:	f810 2b01 	ldrb.w	r2, [r0], #1
 800901e:	3a30      	subs	r2, #48	@ 0x30
 8009020:	2a09      	cmp	r2, #9
 8009022:	d903      	bls.n	800902c <_vfiprintf_r+0x1cc>
 8009024:	2b00      	cmp	r3, #0
 8009026:	d0c6      	beq.n	8008fb6 <_vfiprintf_r+0x156>
 8009028:	9105      	str	r1, [sp, #20]
 800902a:	e7c4      	b.n	8008fb6 <_vfiprintf_r+0x156>
 800902c:	fb0c 2101 	mla	r1, ip, r1, r2
 8009030:	4604      	mov	r4, r0
 8009032:	2301      	movs	r3, #1
 8009034:	e7f0      	b.n	8009018 <_vfiprintf_r+0x1b8>
 8009036:	ab03      	add	r3, sp, #12
 8009038:	9300      	str	r3, [sp, #0]
 800903a:	462a      	mov	r2, r5
 800903c:	4b12      	ldr	r3, [pc, #72]	@ (8009088 <_vfiprintf_r+0x228>)
 800903e:	a904      	add	r1, sp, #16
 8009040:	4630      	mov	r0, r6
 8009042:	f7fd fba5 	bl	8006790 <_printf_float>
 8009046:	4607      	mov	r7, r0
 8009048:	1c78      	adds	r0, r7, #1
 800904a:	d1d6      	bne.n	8008ffa <_vfiprintf_r+0x19a>
 800904c:	6e6b      	ldr	r3, [r5, #100]	@ 0x64
 800904e:	07d9      	lsls	r1, r3, #31
 8009050:	d405      	bmi.n	800905e <_vfiprintf_r+0x1fe>
 8009052:	89ab      	ldrh	r3, [r5, #12]
 8009054:	059a      	lsls	r2, r3, #22
 8009056:	d402      	bmi.n	800905e <_vfiprintf_r+0x1fe>
 8009058:	6da8      	ldr	r0, [r5, #88]	@ 0x58
 800905a:	f7fe f929 	bl	80072b0 <__retarget_lock_release_recursive>
 800905e:	89ab      	ldrh	r3, [r5, #12]
 8009060:	065b      	lsls	r3, r3, #25
 8009062:	f53f af1f 	bmi.w	8008ea4 <_vfiprintf_r+0x44>
 8009066:	9809      	ldr	r0, [sp, #36]	@ 0x24
 8009068:	e71e      	b.n	8008ea8 <_vfiprintf_r+0x48>
 800906a:	ab03      	add	r3, sp, #12
 800906c:	9300      	str	r3, [sp, #0]
 800906e:	462a      	mov	r2, r5
 8009070:	4b05      	ldr	r3, [pc, #20]	@ (8009088 <_vfiprintf_r+0x228>)
 8009072:	a904      	add	r1, sp, #16
 8009074:	4630      	mov	r0, r6
 8009076:	f7fd fe23 	bl	8006cc0 <_printf_i>
 800907a:	e7e4      	b.n	8009046 <_vfiprintf_r+0x1e6>
 800907c:	080095e0 	.word	0x080095e0
 8009080:	080095ea 	.word	0x080095ea
 8009084:	08006791 	.word	0x08006791
 8009088:	08008e3d 	.word	0x08008e3d
 800908c:	080095e6 	.word	0x080095e6

08009090 <__swbuf_r>:
 8009090:	b5f8      	push	{r3, r4, r5, r6, r7, lr}
 8009092:	460e      	mov	r6, r1
 8009094:	4614      	mov	r4, r2
 8009096:	4605      	mov	r5, r0
 8009098:	b118      	cbz	r0, 80090a2 <__swbuf_r+0x12>
 800909a:	6a03      	ldr	r3, [r0, #32]
 800909c:	b90b      	cbnz	r3, 80090a2 <__swbuf_r+0x12>
 800909e:	f7fd ffbb 	bl	8007018 <__sinit>
 80090a2:	69a3      	ldr	r3, [r4, #24]
 80090a4:	60a3      	str	r3, [r4, #8]
 80090a6:	89a3      	ldrh	r3, [r4, #12]
 80090a8:	071a      	lsls	r2, r3, #28
 80090aa:	d501      	bpl.n	80090b0 <__swbuf_r+0x20>
 80090ac:	6923      	ldr	r3, [r4, #16]
 80090ae:	b943      	cbnz	r3, 80090c2 <__swbuf_r+0x32>
 80090b0:	4621      	mov	r1, r4
 80090b2:	4628      	mov	r0, r5
 80090b4:	f000 f82a 	bl	800910c <__swsetup_r>
 80090b8:	b118      	cbz	r0, 80090c2 <__swbuf_r+0x32>
 80090ba:	f04f 37ff 	mov.w	r7, #4294967295
 80090be:	4638      	mov	r0, r7
 80090c0:	bdf8      	pop	{r3, r4, r5, r6, r7, pc}
 80090c2:	6823      	ldr	r3, [r4, #0]
 80090c4:	6922      	ldr	r2, [r4, #16]
 80090c6:	1a98      	subs	r0, r3, r2
 80090c8:	6963      	ldr	r3, [r4, #20]
 80090ca:	b2f6      	uxtb	r6, r6
 80090cc:	4283      	cmp	r3, r0
 80090ce:	4637      	mov	r7, r6
 80090d0:	dc05      	bgt.n	80090de <__swbuf_r+0x4e>
 80090d2:	4621      	mov	r1, r4
 80090d4:	4628      	mov	r0, r5
 80090d6:	f7ff fd99 	bl	8008c0c <_fflush_r>
 80090da:	2800      	cmp	r0, #0
 80090dc:	d1ed      	bne.n	80090ba <__swbuf_r+0x2a>
 80090de:	68a3      	ldr	r3, [r4, #8]
 80090e0:	3b01      	subs	r3, #1
 80090e2:	60a3      	str	r3, [r4, #8]
 80090e4:	6823      	ldr	r3, [r4, #0]
 80090e6:	1c5a      	adds	r2, r3, #1
 80090e8:	6022      	str	r2, [r4, #0]
 80090ea:	701e      	strb	r6, [r3, #0]
 80090ec:	6962      	ldr	r2, [r4, #20]
 80090ee:	1c43      	adds	r3, r0, #1
 80090f0:	429a      	cmp	r2, r3
 80090f2:	d004      	beq.n	80090fe <__swbuf_r+0x6e>
 80090f4:	89a3      	ldrh	r3, [r4, #12]
 80090f6:	07db      	lsls	r3, r3, #31
 80090f8:	d5e1      	bpl.n	80090be <__swbuf_r+0x2e>
 80090fa:	2e0a      	cmp	r6, #10
 80090fc:	d1df      	bne.n	80090be <__swbuf_r+0x2e>
 80090fe:	4621      	mov	r1, r4
 8009100:	4628      	mov	r0, r5
 8009102:	f7ff fd83 	bl	8008c0c <_fflush_r>
 8009106:	2800      	cmp	r0, #0
 8009108:	d0d9      	beq.n	80090be <__swbuf_r+0x2e>
 800910a:	e7d6      	b.n	80090ba <__swbuf_r+0x2a>

0800910c <__swsetup_r>:
 800910c:	b538      	push	{r3, r4, r5, lr}
 800910e:	4b29      	ldr	r3, [pc, #164]	@ (80091b4 <__swsetup_r+0xa8>)
 8009110:	4605      	mov	r5, r0
 8009112:	6818      	ldr	r0, [r3, #0]
 8009114:	460c      	mov	r4, r1
 8009116:	b118      	cbz	r0, 8009120 <__swsetup_r+0x14>
 8009118:	6a03      	ldr	r3, [r0, #32]
 800911a:	b90b      	cbnz	r3, 8009120 <__swsetup_r+0x14>
 800911c:	f7fd ff7c 	bl	8007018 <__sinit>
 8009120:	f9b4 300c 	ldrsh.w	r3, [r4, #12]
 8009124:	0719      	lsls	r1, r3, #28
 8009126:	d422      	bmi.n	800916e <__swsetup_r+0x62>
 8009128:	06da      	lsls	r2, r3, #27
 800912a:	d407      	bmi.n	800913c <__swsetup_r+0x30>
 800912c:	2209      	movs	r2, #9
 800912e:	602a      	str	r2, [r5, #0]
 8009130:	f043 0340 	orr.w	r3, r3, #64	@ 0x40
 8009134:	81a3      	strh	r3, [r4, #12]
 8009136:	f04f 30ff 	mov.w	r0, #4294967295
 800913a:	e033      	b.n	80091a4 <__swsetup_r+0x98>
 800913c:	0758      	lsls	r0, r3, #29
 800913e:	d512      	bpl.n	8009166 <__swsetup_r+0x5a>
 8009140:	6b61      	ldr	r1, [r4, #52]	@ 0x34
 8009142:	b141      	cbz	r1, 8009156 <__swsetup_r+0x4a>
 8009144:	f104 0344 	add.w	r3, r4, #68	@ 0x44
 8009148:	4299      	cmp	r1, r3
 800914a:	d002      	beq.n	8009152 <__swsetup_r+0x46>
 800914c:	4628      	mov	r0, r5
 800914e:	f7fe feff 	bl	8007f50 <_free_r>
 8009152:	2300      	movs	r3, #0
 8009154:	6363      	str	r3, [r4, #52]	@ 0x34
 8009156:	89a3      	ldrh	r3, [r4, #12]
 8009158:	f023 0324 	bic.w	r3, r3, #36	@ 0x24
 800915c:	81a3      	strh	r3, [r4, #12]
 800915e:	2300      	movs	r3, #0
 8009160:	6063      	str	r3, [r4, #4]
 8009162:	6923      	ldr	r3, [r4, #16]
 8009164:	6023      	str	r3, [r4, #0]
 8009166:	89a3      	ldrh	r3, [r4, #12]
 8009168:	f043 0308 	orr.w	r3, r3, #8
 800916c:	81a3      	strh	r3, [r4, #12]
 800916e:	6923      	ldr	r3, [r4, #16]
 8009170:	b94b      	cbnz	r3, 8009186 <__swsetup_r+0x7a>
 8009172:	89a3      	ldrh	r3, [r4, #12]
 8009174:	f403 7320 	and.w	r3, r3, #640	@ 0x280
 8009178:	f5b3 7f00 	cmp.w	r3, #512	@ 0x200
 800917c:	d003      	beq.n	8009186 <__swsetup_r+0x7a>
 800917e:	4621      	mov	r1, r4
 8009180:	4628      	mov	r0, r5
 8009182:	f000 f883 	bl	800928c <__smakebuf_r>
 8009186:	f9b4 300c 	ldrsh.w	r3, [r4, #12]
 800918a:	f013 0201 	ands.w	r2, r3, #1
 800918e:	d00a      	beq.n	80091a6 <__swsetup_r+0x9a>
 8009190:	2200      	movs	r2, #0
 8009192:	60a2      	str	r2, [r4, #8]
 8009194:	6962      	ldr	r2, [r4, #20]
 8009196:	4252      	negs	r2, r2
 8009198:	61a2      	str	r2, [r4, #24]
 800919a:	6922      	ldr	r2, [r4, #16]
 800919c:	b942      	cbnz	r2, 80091b0 <__swsetup_r+0xa4>
 800919e:	f013 0080 	ands.w	r0, r3, #128	@ 0x80
 80091a2:	d1c5      	bne.n	8009130 <__swsetup_r+0x24>
 80091a4:	bd38      	pop	{r3, r4, r5, pc}
 80091a6:	0799      	lsls	r1, r3, #30
 80091a8:	bf58      	it	pl
 80091aa:	6962      	ldrpl	r2, [r4, #20]
 80091ac:	60a2      	str	r2, [r4, #8]
 80091ae:	e7f4      	b.n	800919a <__swsetup_r+0x8e>
 80091b0:	2000      	movs	r0, #0
 80091b2:	e7f7      	b.n	80091a4 <__swsetup_r+0x98>
 80091b4:	20000020 	.word	0x20000020

080091b8 <_raise_r>:
 80091b8:	291f      	cmp	r1, #31
 80091ba:	b538      	push	{r3, r4, r5, lr}
 80091bc:	4605      	mov	r5, r0
 80091be:	460c      	mov	r4, r1
 80091c0:	d904      	bls.n	80091cc <_raise_r+0x14>
 80091c2:	2316      	movs	r3, #22
 80091c4:	6003      	str	r3, [r0, #0]
 80091c6:	f04f 30ff 	mov.w	r0, #4294967295
 80091ca:	bd38      	pop	{r3, r4, r5, pc}
 80091cc:	6bc2      	ldr	r2, [r0, #60]	@ 0x3c
 80091ce:	b112      	cbz	r2, 80091d6 <_raise_r+0x1e>
 80091d0:	f852 3021 	ldr.w	r3, [r2, r1, lsl #2]
 80091d4:	b94b      	cbnz	r3, 80091ea <_raise_r+0x32>
 80091d6:	4628      	mov	r0, r5
 80091d8:	f000 f830 	bl	800923c <_getpid_r>
 80091dc:	4622      	mov	r2, r4
 80091de:	4601      	mov	r1, r0
 80091e0:	4628      	mov	r0, r5
 80091e2:	e8bd 4038 	ldmia.w	sp!, {r3, r4, r5, lr}
 80091e6:	f000 b817 	b.w	8009218 <_kill_r>
 80091ea:	2b01      	cmp	r3, #1
 80091ec:	d00a      	beq.n	8009204 <_raise_r+0x4c>
 80091ee:	1c59      	adds	r1, r3, #1
 80091f0:	d103      	bne.n	80091fa <_raise_r+0x42>
 80091f2:	2316      	movs	r3, #22
 80091f4:	6003      	str	r3, [r0, #0]
 80091f6:	2001      	movs	r0, #1
 80091f8:	e7e7      	b.n	80091ca <_raise_r+0x12>
 80091fa:	2100      	movs	r1, #0
 80091fc:	f842 1024 	str.w	r1, [r2, r4, lsl #2]
 8009200:	4620      	mov	r0, r4
 8009202:	4798      	blx	r3
 8009204:	2000      	movs	r0, #0
 8009206:	e7e0      	b.n	80091ca <_raise_r+0x12>

08009208 <raise>:
 8009208:	4b02      	ldr	r3, [pc, #8]	@ (8009214 <raise+0xc>)
 800920a:	4601      	mov	r1, r0
 800920c:	6818      	ldr	r0, [r3, #0]
 800920e:	f7ff bfd3 	b.w	80091b8 <_raise_r>
 8009212:	bf00      	nop
 8009214:	20000020 	.word	0x20000020

08009218 <_kill_r>:
 8009218:	b538      	push	{r3, r4, r5, lr}
 800921a:	4d07      	ldr	r5, [pc, #28]	@ (8009238 <_kill_r+0x20>)
 800921c:	2300      	movs	r3, #0
 800921e:	4604      	mov	r4, r0
 8009220:	4608      	mov	r0, r1
 8009222:	4611      	mov	r1, r2
 8009224:	602b      	str	r3, [r5, #0]
 8009226:	f7f9 f9ab 	bl	8002580 <_kill>
 800922a:	1c43      	adds	r3, r0, #1
 800922c:	d102      	bne.n	8009234 <_kill_r+0x1c>
 800922e:	682b      	ldr	r3, [r5, #0]
 8009230:	b103      	cbz	r3, 8009234 <_kill_r+0x1c>
 8009232:	6023      	str	r3, [r4, #0]
 8009234:	bd38      	pop	{r3, r4, r5, pc}
 8009236:	bf00      	nop
 8009238:	20000508 	.word	0x20000508

0800923c <_getpid_r>:
 800923c:	f7f9 b998 	b.w	8002570 <_getpid>

08009240 <__swhatbuf_r>:
 8009240:	b570      	push	{r4, r5, r6, lr}
 8009242:	460c      	mov	r4, r1
 8009244:	f9b1 100e 	ldrsh.w	r1, [r1, #14]
 8009248:	2900      	cmp	r1, #0
 800924a:	b096      	sub	sp, #88	@ 0x58
 800924c:	4615      	mov	r5, r2
 800924e:	461e      	mov	r6, r3
 8009250:	da0d      	bge.n	800926e <__swhatbuf_r+0x2e>
 8009252:	89a3      	ldrh	r3, [r4, #12]
 8009254:	f013 0f80 	tst.w	r3, #128	@ 0x80
 8009258:	f04f 0100 	mov.w	r1, #0
 800925c:	bf14      	ite	ne
 800925e:	2340      	movne	r3, #64	@ 0x40
 8009260:	f44f 6380 	moveq.w	r3, #1024	@ 0x400
 8009264:	2000      	movs	r0, #0
 8009266:	6031      	str	r1, [r6, #0]
 8009268:	602b      	str	r3, [r5, #0]
 800926a:	b016      	add	sp, #88	@ 0x58
 800926c:	bd70      	pop	{r4, r5, r6, pc}
 800926e:	466a      	mov	r2, sp
 8009270:	f000 f848 	bl	8009304 <_fstat_r>
 8009274:	2800      	cmp	r0, #0
 8009276:	dbec      	blt.n	8009252 <__swhatbuf_r+0x12>
 8009278:	9901      	ldr	r1, [sp, #4]
 800927a:	f401 4170 	and.w	r1, r1, #61440	@ 0xf000
 800927e:	f5a1 5300 	sub.w	r3, r1, #8192	@ 0x2000
 8009282:	4259      	negs	r1, r3
 8009284:	4159      	adcs	r1, r3
 8009286:	f44f 6380 	mov.w	r3, #1024	@ 0x400
 800928a:	e7eb      	b.n	8009264 <__swhatbuf_r+0x24>

0800928c <__smakebuf_r>:
 800928c:	898b      	ldrh	r3, [r1, #12]
 800928e:	b5f7      	push	{r0, r1, r2, r4, r5, r6, r7, lr}
 8009290:	079d      	lsls	r5, r3, #30
 8009292:	4606      	mov	r6, r0
 8009294:	460c      	mov	r4, r1
 8009296:	d507      	bpl.n	80092a8 <__smakebuf_r+0x1c>
 8009298:	f104 0347 	add.w	r3, r4, #71	@ 0x47
 800929c:	6023      	str	r3, [r4, #0]
 800929e:	6123      	str	r3, [r4, #16]
 80092a0:	2301      	movs	r3, #1
 80092a2:	6163      	str	r3, [r4, #20]
 80092a4:	b003      	add	sp, #12
 80092a6:	bdf0      	pop	{r4, r5, r6, r7, pc}
 80092a8:	ab01      	add	r3, sp, #4
 80092aa:	466a      	mov	r2, sp
 80092ac:	f7ff ffc8 	bl	8009240 <__swhatbuf_r>
 80092b0:	9f00      	ldr	r7, [sp, #0]
 80092b2:	4605      	mov	r5, r0
 80092b4:	4639      	mov	r1, r7
 80092b6:	4630      	mov	r0, r6
 80092b8:	f7fe febe 	bl	8008038 <_malloc_r>
 80092bc:	b948      	cbnz	r0, 80092d2 <__smakebuf_r+0x46>
 80092be:	f9b4 300c 	ldrsh.w	r3, [r4, #12]
 80092c2:	059a      	lsls	r2, r3, #22
 80092c4:	d4ee      	bmi.n	80092a4 <__smakebuf_r+0x18>
 80092c6:	f023 0303 	bic.w	r3, r3, #3
 80092ca:	f043 0302 	orr.w	r3, r3, #2
 80092ce:	81a3      	strh	r3, [r4, #12]
 80092d0:	e7e2      	b.n	8009298 <__smakebuf_r+0xc>
 80092d2:	89a3      	ldrh	r3, [r4, #12]
 80092d4:	6020      	str	r0, [r4, #0]
 80092d6:	f043 0380 	orr.w	r3, r3, #128	@ 0x80
 80092da:	81a3      	strh	r3, [r4, #12]
 80092dc:	9b01      	ldr	r3, [sp, #4]
 80092de:	e9c4 0704 	strd	r0, r7, [r4, #16]
 80092e2:	b15b      	cbz	r3, 80092fc <__smakebuf_r+0x70>
 80092e4:	f9b4 100e 	ldrsh.w	r1, [r4, #14]
 80092e8:	4630      	mov	r0, r6
 80092ea:	f000 f81d 	bl	8009328 <_isatty_r>
 80092ee:	b128      	cbz	r0, 80092fc <__smakebuf_r+0x70>
 80092f0:	89a3      	ldrh	r3, [r4, #12]
 80092f2:	f023 0303 	bic.w	r3, r3, #3
 80092f6:	f043 0301 	orr.w	r3, r3, #1
 80092fa:	81a3      	strh	r3, [r4, #12]
 80092fc:	89a3      	ldrh	r3, [r4, #12]
 80092fe:	431d      	orrs	r5, r3
 8009300:	81a5      	strh	r5, [r4, #12]
 8009302:	e7cf      	b.n	80092a4 <__smakebuf_r+0x18>

08009304 <_fstat_r>:
 8009304:	b538      	push	{r3, r4, r5, lr}
 8009306:	4d07      	ldr	r5, [pc, #28]	@ (8009324 <_fstat_r+0x20>)
 8009308:	2300      	movs	r3, #0
 800930a:	4604      	mov	r4, r0
 800930c:	4608      	mov	r0, r1
 800930e:	4611      	mov	r1, r2
 8009310:	602b      	str	r3, [r5, #0]
 8009312:	f7f9 f995 	bl	8002640 <_fstat>
 8009316:	1c43      	adds	r3, r0, #1
 8009318:	d102      	bne.n	8009320 <_fstat_r+0x1c>
 800931a:	682b      	ldr	r3, [r5, #0]
 800931c:	b103      	cbz	r3, 8009320 <_fstat_r+0x1c>
 800931e:	6023      	str	r3, [r4, #0]
 8009320:	bd38      	pop	{r3, r4, r5, pc}
 8009322:	bf00      	nop
 8009324:	20000508 	.word	0x20000508

08009328 <_isatty_r>:
 8009328:	b538      	push	{r3, r4, r5, lr}
 800932a:	4d06      	ldr	r5, [pc, #24]	@ (8009344 <_isatty_r+0x1c>)
 800932c:	2300      	movs	r3, #0
 800932e:	4604      	mov	r4, r0
 8009330:	4608      	mov	r0, r1
 8009332:	602b      	str	r3, [r5, #0]
 8009334:	f7f9 f994 	bl	8002660 <_isatty>
 8009338:	1c43      	adds	r3, r0, #1
 800933a:	d102      	bne.n	8009342 <_isatty_r+0x1a>
 800933c:	682b      	ldr	r3, [r5, #0]
 800933e:	b103      	cbz	r3, 8009342 <_isatty_r+0x1a>
 8009340:	6023      	str	r3, [r4, #0]
 8009342:	bd38      	pop	{r3, r4, r5, pc}
 8009344:	20000508 	.word	0x20000508

08009348 <_init>:
 8009348:	b5f8      	push	{r3, r4, r5, r6, r7, lr}
 800934a:	bf00      	nop
 800934c:	bcf8      	pop	{r3, r4, r5, r6, r7}
 800934e:	bc08      	pop	{r3}
 8009350:	469e      	mov	lr, r3
 8009352:	4770      	bx	lr

08009354 <_fini>:
 8009354:	b5f8      	push	{r3, r4, r5, r6, r7, lr}
 8009356:	bf00      	nop
 8009358:	bcf8      	pop	{r3, r4, r5, r6, r7}
 800935a:	bc08      	pop	{r3}
 800935c:	469e      	mov	lr, r3
 800935e:	4770      	bx	lr
