
Test.elf:     file format elf32-littlearm

Sections:
Idx Name          Size      VMA       LMA       File off  Algn
  0 .isr_vector   00000188  08000000  08000000  00001000  2**0
                  CONTENTS, ALLOC, LOAD, READONLY, DATA
  1 .text         00005680  08000188  08000188  00001188  2**3
                  CONTENTS, ALLOC, LOAD, READONLY, CODE
  2 .rodata       00000034  08005808  08005808  00006808  2**2
                  CONTENTS, ALLOC, LOAD, READONLY, DATA
  3 .ARM.extab    00000000  0800583c  0800583c  00007014  2**0
                  CONTENTS
  4 .ARM          00000008  0800583c  0800583c  0000683c  2**2
                  CONTENTS, ALLOC, LOAD, READONLY, DATA
  5 .preinit_array 00000000  08005844  08005844  00007014  2**0
                  CONTENTS, ALLOC, LOAD, DATA
  6 .init_array   00000004  08005844  08005844  00006844  2**2
                  CONTENTS, ALLOC, LOAD, DATA
  7 .fini_array   00000004  08005848  08005848  00006848  2**2
                  CONTENTS, ALLOC, LOAD, DATA
  8 .data         00000014  20000000  0800584c  00007000  2**2
                  CONTENTS, ALLOC, LOAD, DATA
  9 .ccmram       00000000  10000000  10000000  00007014  2**0
                  CONTENTS
 10 .bss          00000158  20000014  20000014  00007014  2**2
                  ALLOC
 11 ._user_heap_stack 00000604  2000016c  2000016c  00007014  2**0
                  ALLOC
 12 .ARM.attributes 00000030  00000000  00000000  00007014  2**0
                  CONTENTS, READONLY
 13 .debug_info   0000e7ea  00000000  00000000  00007044  2**0
                  CONTENTS, READONLY, DEBUGGING, OCTETS
 14 .debug_abbrev 0000224c  00000000  00000000  0001582e  2**0
                  CONTENTS, READONLY, DEBUGGING, OCTETS
 15 .debug_aranges 00000f18  00000000  00000000  00017a80  2**3
                  CONTENTS, READONLY, DEBUGGING, OCTETS
 16 .debug_rnglists 00000bd1  00000000  00000000  00018998  2**0
                  CONTENTS, READONLY, DEBUGGING, OCTETS
 17 .debug_macro  0000230f  00000000  00000000  00019569  2**0
                  CONTENTS, READONLY, DEBUGGING, OCTETS
 18 .debug_line   00011275  00000000  00000000  0001b878  2**0
                  CONTENTS, READONLY, DEBUGGING, OCTETS
 19 .debug_str    000d4ec5  00000000  00000000  0002caed  2**0
                  CONTENTS, READONLY, DEBUGGING, OCTETS
 20 .comment      00000043  00000000  00000000  001019b2  2**0
                  CONTENTS, READONLY
 21 .debug_frame  00004158  00000000  00000000  001019f8  2**2
                  CONTENTS, READONLY, DEBUGGING, OCTETS
 22 .debug_line_str 00000065  00000000  00000000  00105b50  2**0
                  CONTENTS, READONLY, DEBUGGING, OCTETS

Disassembly of section .text:

08000188 <__do_global_dtors_aux>:
 8000188:	b510      	push	{r4, lr}
 800018a:	4c05      	ldr	r4, [pc, #20]	@ (80001a0 <__do_global_dtors_aux+0x18>)
 800018c:	7823      	ldrb	r3, [r4, #0]
 800018e:	b933      	cbnz	r3, 800019e <__do_global_dtors_aux+0x16>
 8000190:	4b04      	ldr	r3, [pc, #16]	@ (80001a4 <__do_global_dtors_aux+0x1c>)
 8000192:	b113      	cbz	r3, 800019a <__do_global_dtors_aux+0x12>
 8000194:	4804      	ldr	r0, [pc, #16]	@ (80001a8 <__do_global_dtors_aux+0x20>)
 8000196:	f3af 8000 	nop.w
 800019a:	2301      	movs	r3, #1
 800019c:	7023      	strb	r3, [r4, #0]
 800019e:	bd10      	pop	{r4, pc}
 80001a0:	20000014 	.word	0x20000014
 80001a4:	00000000 	.word	0x00000000
 80001a8:	080057f0 	.word	0x080057f0

080001ac <frame_dummy>:
 80001ac:	b508      	push	{r3, lr}
 80001ae:	4b03      	ldr	r3, [pc, #12]	@ (80001bc <frame_dummy+0x10>)
 80001b0:	b11b      	cbz	r3, 80001ba <frame_dummy+0xe>
 80001b2:	4903      	ldr	r1, [pc, #12]	@ (80001c0 <frame_dummy+0x14>)
 80001b4:	4803      	ldr	r0, [pc, #12]	@ (80001c4 <frame_dummy+0x18>)
 80001b6:	f3af 8000 	nop.w
 80001ba:	bd08      	pop	{r3, pc}
 80001bc:	00000000 	.word	0x00000000
 80001c0:	20000018 	.word	0x20000018
 80001c4:	080057f0 	.word	0x080057f0

080001c8 <__aeabi_drsub>:
 80001c8:	f081 4100 	eor.w	r1, r1, #2147483648	@ 0x80000000
 80001cc:	e002      	b.n	80001d4 <__adddf3>
 80001ce:	bf00      	nop

080001d0 <__aeabi_dsub>:
 80001d0:	f083 4300 	eor.w	r3, r3, #2147483648	@ 0x80000000

080001d4 <__adddf3>:
 80001d4:	b530      	push	{r4, r5, lr}
 80001d6:	ea4f 0441 	mov.w	r4, r1, lsl #1
 80001da:	ea4f 0543 	mov.w	r5, r3, lsl #1
 80001de:	ea94 0f05 	teq	r4, r5
 80001e2:	bf08      	it	eq
 80001e4:	ea90 0f02 	teqeq	r0, r2
 80001e8:	bf1f      	itttt	ne
 80001ea:	ea54 0c00 	orrsne.w	ip, r4, r0
 80001ee:	ea55 0c02 	orrsne.w	ip, r5, r2
 80001f2:	ea7f 5c64 	mvnsne.w	ip, r4, asr #21
 80001f6:	ea7f 5c65 	mvnsne.w	ip, r5, asr #21
 80001fa:	f000 80e2 	beq.w	80003c2 <__adddf3+0x1ee>
 80001fe:	ea4f 5454 	mov.w	r4, r4, lsr #21
 8000202:	ebd4 5555 	rsbs	r5, r4, r5, lsr #21
 8000206:	bfb8      	it	lt
 8000208:	426d      	neglt	r5, r5
 800020a:	dd0c      	ble.n	8000226 <__adddf3+0x52>
 800020c:	442c      	add	r4, r5
 800020e:	ea80 0202 	eor.w	r2, r0, r2
 8000212:	ea81 0303 	eor.w	r3, r1, r3
 8000216:	ea82 0000 	eor.w	r0, r2, r0
 800021a:	ea83 0101 	eor.w	r1, r3, r1
 800021e:	ea80 0202 	eor.w	r2, r0, r2
 8000222:	ea81 0303 	eor.w	r3, r1, r3
 8000226:	2d36      	cmp	r5, #54	@ 0x36
 8000228:	bf88      	it	hi
 800022a:	bd30      	pophi	{r4, r5, pc}
 800022c:	f011 4f00 	tst.w	r1, #2147483648	@ 0x80000000
 8000230:	ea4f 3101 	mov.w	r1, r1, lsl #12
 8000234:	f44f 1c80 	mov.w	ip, #1048576	@ 0x100000
 8000238:	ea4c 3111 	orr.w	r1, ip, r1, lsr #12
 800023c:	d002      	beq.n	8000244 <__adddf3+0x70>
 800023e:	4240      	negs	r0, r0
 8000240:	eb61 0141 	sbc.w	r1, r1, r1, lsl #1
 8000244:	f013 4f00 	tst.w	r3, #2147483648	@ 0x80000000
 8000248:	ea4f 3303 	mov.w	r3, r3, lsl #12
 800024c:	ea4c 3313 	orr.w	r3, ip, r3, lsr #12
 8000250:	d002      	beq.n	8000258 <__adddf3+0x84>
 8000252:	4252      	negs	r2, r2
 8000254:	eb63 0343 	sbc.w	r3, r3, r3, lsl #1
 8000258:	ea94 0f05 	teq	r4, r5
 800025c:	f000 80a7 	beq.w	80003ae <__adddf3+0x1da>
 8000260:	f1a4 0401 	sub.w	r4, r4, #1
 8000264:	f1d5 0e20 	rsbs	lr, r5, #32
 8000268:	db0d      	blt.n	8000286 <__adddf3+0xb2>
 800026a:	fa02 fc0e 	lsl.w	ip, r2, lr
 800026e:	fa22 f205 	lsr.w	r2, r2, r5
 8000272:	1880      	adds	r0, r0, r2
 8000274:	f141 0100 	adc.w	r1, r1, #0
 8000278:	fa03 f20e 	lsl.w	r2, r3, lr
 800027c:	1880      	adds	r0, r0, r2
 800027e:	fa43 f305 	asr.w	r3, r3, r5
 8000282:	4159      	adcs	r1, r3
 8000284:	e00e      	b.n	80002a4 <__adddf3+0xd0>
 8000286:	f1a5 0520 	sub.w	r5, r5, #32
 800028a:	f10e 0e20 	add.w	lr, lr, #32
 800028e:	2a01      	cmp	r2, #1
 8000290:	fa03 fc0e 	lsl.w	ip, r3, lr
 8000294:	bf28      	it	cs
 8000296:	f04c 0c02 	orrcs.w	ip, ip, #2
 800029a:	fa43 f305 	asr.w	r3, r3, r5
 800029e:	18c0      	adds	r0, r0, r3
 80002a0:	eb51 71e3 	adcs.w	r1, r1, r3, asr #31
 80002a4:	f001 4500 	and.w	r5, r1, #2147483648	@ 0x80000000
 80002a8:	d507      	bpl.n	80002ba <__adddf3+0xe6>
 80002aa:	f04f 0e00 	mov.w	lr, #0
 80002ae:	f1dc 0c00 	rsbs	ip, ip, #0
 80002b2:	eb7e 0000 	sbcs.w	r0, lr, r0
 80002b6:	eb6e 0101 	sbc.w	r1, lr, r1
 80002ba:	f5b1 1f80 	cmp.w	r1, #1048576	@ 0x100000
 80002be:	d31b      	bcc.n	80002f8 <__adddf3+0x124>
 80002c0:	f5b1 1f00 	cmp.w	r1, #2097152	@ 0x200000
 80002c4:	d30c      	bcc.n	80002e0 <__adddf3+0x10c>
 80002c6:	0849      	lsrs	r1, r1, #1
 80002c8:	ea5f 0030 	movs.w	r0, r0, rrx
 80002cc:	ea4f 0c3c 	mov.w	ip, ip, rrx
 80002d0:	f104 0401 	add.w	r4, r4, #1
 80002d4:	ea4f 5244 	mov.w	r2, r4, lsl #21
 80002d8:	f512 0f80 	cmn.w	r2, #4194304	@ 0x400000
 80002dc:	f080 809a 	bcs.w	8000414 <__adddf3+0x240>
 80002e0:	f1bc 4f00 	cmp.w	ip, #2147483648	@ 0x80000000
 80002e4:	bf08      	it	eq
 80002e6:	ea5f 0c50 	movseq.w	ip, r0, lsr #1
 80002ea:	f150 0000 	adcs.w	r0, r0, #0
 80002ee:	eb41 5104 	adc.w	r1, r1, r4, lsl #20
 80002f2:	ea41 0105 	orr.w	r1, r1, r5
 80002f6:	bd30      	pop	{r4, r5, pc}
 80002f8:	ea5f 0c4c 	movs.w	ip, ip, lsl #1
 80002fc:	4140      	adcs	r0, r0
 80002fe:	eb41 0101 	adc.w	r1, r1, r1
 8000302:	3c01      	subs	r4, #1
 8000304:	bf28      	it	cs
 8000306:	f5b1 1f80 	cmpcs.w	r1, #1048576	@ 0x100000
 800030a:	d2e9      	bcs.n	80002e0 <__adddf3+0x10c>
 800030c:	f091 0f00 	teq	r1, #0
 8000310:	bf04      	itt	eq
 8000312:	4601      	moveq	r1, r0
 8000314:	2000      	moveq	r0, #0
 8000316:	fab1 f381 	clz	r3, r1
 800031a:	bf08      	it	eq
 800031c:	3320      	addeq	r3, #32
 800031e:	f1a3 030b 	sub.w	r3, r3, #11
 8000322:	f1b3 0220 	subs.w	r2, r3, #32
 8000326:	da0c      	bge.n	8000342 <__adddf3+0x16e>
 8000328:	320c      	adds	r2, #12
 800032a:	dd08      	ble.n	800033e <__adddf3+0x16a>
 800032c:	f102 0c14 	add.w	ip, r2, #20
 8000330:	f1c2 020c 	rsb	r2, r2, #12
 8000334:	fa01 f00c 	lsl.w	r0, r1, ip
 8000338:	fa21 f102 	lsr.w	r1, r1, r2
 800033c:	e00c      	b.n	8000358 <__adddf3+0x184>
 800033e:	f102 0214 	add.w	r2, r2, #20
 8000342:	bfd8      	it	le
 8000344:	f1c2 0c20 	rsble	ip, r2, #32
 8000348:	fa01 f102 	lsl.w	r1, r1, r2
 800034c:	fa20 fc0c 	lsr.w	ip, r0, ip
 8000350:	bfdc      	itt	le
 8000352:	ea41 010c 	orrle.w	r1, r1, ip
 8000356:	4090      	lslle	r0, r2
 8000358:	1ae4      	subs	r4, r4, r3
 800035a:	bfa2      	ittt	ge
 800035c:	eb01 5104 	addge.w	r1, r1, r4, lsl #20
 8000360:	4329      	orrge	r1, r5
 8000362:	bd30      	popge	{r4, r5, pc}
 8000364:	ea6f 0404 	mvn.w	r4, r4
 8000368:	3c1f      	subs	r4, #31
 800036a:	da1c      	bge.n	80003a6 <__adddf3+0x1d2>
 800036c:	340c      	adds	r4, #12
 800036e:	dc0e      	bgt.n	800038e <__adddf3+0x1ba>
 8000370:	f104 0414 	add.w	r4, r4, #20
 8000374:	f1c4 0220 	rsb	r2, r4, #32
 8000378:	fa20 f004 	lsr.w	r0, r0, r4
 800037c:	fa01 f302 	lsl.w	r3, r1, r2
 8000380:	ea40 0003 	orr.w	r0, r0, r3
 8000384:	fa21 f304 	lsr.w	r3, r1, r4
 8000388:	ea45 0103 	orr.w	r1, r5, r3
 800038c:	bd30      	pop	{r4, r5, pc}
 800038e:	f1c4 040c 	rsb	r4, r4, #12
 8000392:	f1c4 0220 	rsb	r2, r4, #32
 8000396:	fa20 f002 	lsr.w	r0, r0, r2
 800039a:	fa01 f304 	lsl.w	r3, r1, r4
 800039e:	ea40 0003 	orr.w	r0, r0, r3
 80003a2:	4629      	mov	r1, r5
 80003a4:	bd30      	pop	{r4, r5, pc}
 80003a6:	fa21 f004 	lsr.w	r0, r1, r4
 80003aa:	4629      	mov	r1, r5
 80003ac:	bd30      	pop	{r4, r5, pc}
 80003ae:	f094 0f00 	teq	r4, #0
 80003b2:	f483 1380 	eor.w	r3, r3, #1048576	@ 0x100000
 80003b6:	bf06      	itte	eq
 80003b8:	f481 1180 	eoreq.w	r1, r1, #1048576	@ 0x100000
 80003bc:	3401      	addeq	r4, #1
 80003be:	3d01      	subne	r5, #1
 80003c0:	e74e      	b.n	8000260 <__adddf3+0x8c>
 80003c2:	ea7f 5c64 	mvns.w	ip, r4, asr #21
 80003c6:	bf18      	it	ne
 80003c8:	ea7f 5c65 	mvnsne.w	ip, r5, asr #21
 80003cc:	d029      	beq.n	8000422 <__adddf3+0x24e>
 80003ce:	ea94 0f05 	teq	r4, r5
 80003d2:	bf08      	it	eq
 80003d4:	ea90 0f02 	teqeq	r0, r2
 80003d8:	d005      	beq.n	80003e6 <__adddf3+0x212>
 80003da:	ea54 0c00 	orrs.w	ip, r4, r0
 80003de:	bf04      	itt	eq
 80003e0:	4619      	moveq	r1, r3
 80003e2:	4610      	moveq	r0, r2
 80003e4:	bd30      	pop	{r4, r5, pc}
 80003e6:	ea91 0f03 	teq	r1, r3
 80003ea:	bf1e      	ittt	ne
 80003ec:	2100      	movne	r1, #0
 80003ee:	2000      	movne	r0, #0
 80003f0:	bd30      	popne	{r4, r5, pc}
 80003f2:	ea5f 5c54 	movs.w	ip, r4, lsr #21
 80003f6:	d105      	bne.n	8000404 <__adddf3+0x230>
 80003f8:	0040      	lsls	r0, r0, #1
 80003fa:	4149      	adcs	r1, r1
 80003fc:	bf28      	it	cs
 80003fe:	f041 4100 	orrcs.w	r1, r1, #2147483648	@ 0x80000000
 8000402:	bd30      	pop	{r4, r5, pc}
 8000404:	f514 0480 	adds.w	r4, r4, #4194304	@ 0x400000
 8000408:	bf3c      	itt	cc
 800040a:	f501 1180 	addcc.w	r1, r1, #1048576	@ 0x100000
 800040e:	bd30      	popcc	{r4, r5, pc}
 8000410:	f001 4500 	and.w	r5, r1, #2147483648	@ 0x80000000
 8000414:	f045 41fe 	orr.w	r1, r5, #2130706432	@ 0x7f000000
 8000418:	f441 0170 	orr.w	r1, r1, #15728640	@ 0xf00000
 800041c:	f04f 0000 	mov.w	r0, #0
 8000420:	bd30      	pop	{r4, r5, pc}
 8000422:	ea7f 5c64 	mvns.w	ip, r4, asr #21
 8000426:	bf1a      	itte	ne
 8000428:	4619      	movne	r1, r3
 800042a:	4610      	movne	r0, r2
 800042c:	ea7f 5c65 	mvnseq.w	ip, r5, asr #21
 8000430:	bf1c      	itt	ne
 8000432:	460b      	movne	r3, r1
 8000434:	4602      	movne	r2, r0
 8000436:	ea50 3401 	orrs.w	r4, r0, r1, lsl #12
 800043a:	bf06      	itte	eq
 800043c:	ea52 3503 	orrseq.w	r5, r2, r3, lsl #12
 8000440:	ea91 0f03 	teqeq	r1, r3
 8000444:	f441 2100 	orrne.w	r1, r1, #524288	@ 0x80000
 8000448:	bd30      	pop	{r4, r5, pc}
 800044a:	bf00      	nop

0800044c <__aeabi_ui2d>:
 800044c:	f090 0f00 	teq	r0, #0
 8000450:	bf04      	itt	eq
 8000452:	2100      	moveq	r1, #0
 8000454:	4770      	bxeq	lr
 8000456:	b530      	push	{r4, r5, lr}
 8000458:	f44f 6480 	mov.w	r4, #1024	@ 0x400
 800045c:	f104 0432 	add.w	r4, r4, #50	@ 0x32
 8000460:	f04f 0500 	mov.w	r5, #0
 8000464:	f04f 0100 	mov.w	r1, #0
 8000468:	e750      	b.n	800030c <__adddf3+0x138>
 800046a:	bf00      	nop

0800046c <__aeabi_i2d>:
 800046c:	f090 0f00 	teq	r0, #0
 8000470:	bf04      	itt	eq
 8000472:	2100      	moveq	r1, #0
 8000474:	4770      	bxeq	lr
 8000476:	b530      	push	{r4, r5, lr}
 8000478:	f44f 6480 	mov.w	r4, #1024	@ 0x400
 800047c:	f104 0432 	add.w	r4, r4, #50	@ 0x32
 8000480:	f010 4500 	ands.w	r5, r0, #2147483648	@ 0x80000000
 8000484:	bf48      	it	mi
 8000486:	4240      	negmi	r0, r0
 8000488:	f04f 0100 	mov.w	r1, #0
 800048c:	e73e      	b.n	800030c <__adddf3+0x138>
 800048e:	bf00      	nop

08000490 <__aeabi_f2d>:
 8000490:	0042      	lsls	r2, r0, #1
 8000492:	ea4f 01e2 	mov.w	r1, r2, asr #3
 8000496:	ea4f 0131 	mov.w	r1, r1, rrx
 800049a:	ea4f 7002 	mov.w	r0, r2, lsl #28
 800049e:	bf1f      	itttt	ne
 80004a0:	f012 437f 	andsne.w	r3, r2, #4278190080	@ 0xff000000
 80004a4:	f093 4f7f 	teqne	r3, #4278190080	@ 0xff000000
 80004a8:	f081 5160 	eorne.w	r1, r1, #939524096	@ 0x38000000
 80004ac:	4770      	bxne	lr
 80004ae:	f032 427f 	bics.w	r2, r2, #4278190080	@ 0xff000000
 80004b2:	bf08      	it	eq
 80004b4:	4770      	bxeq	lr
 80004b6:	f093 4f7f 	teq	r3, #4278190080	@ 0xff000000
 80004ba:	bf04      	itt	eq
 80004bc:	f441 2100 	orreq.w	r1, r1, #524288	@ 0x80000
 80004c0:	4770      	bxeq	lr
 80004c2:	b530      	push	{r4, r5, lr}
 80004c4:	f44f 7460 	mov.w	r4, #896	@ 0x380
 80004c8:	f001 4500 	and.w	r5, r1, #2147483648	@ 0x80000000
 80004cc:	f021 4100 	bic.w	r1, r1, #2147483648	@ 0x80000000
 80004d0:	e71c      	b.n	800030c <__adddf3+0x138>
 80004d2:	bf00      	nop

080004d4 <__aeabi_ul2d>:
 80004d4:	ea50 0201 	orrs.w	r2, r0, r1
 80004d8:	bf08      	it	eq
 80004da:	4770      	bxeq	lr
 80004dc:	b530      	push	{r4, r5, lr}
 80004de:	f04f 0500 	mov.w	r5, #0
 80004e2:	e00a      	b.n	80004fa <__aeabi_l2d+0x16>

080004e4 <__aeabi_l2d>:
 80004e4:	ea50 0201 	orrs.w	r2, r0, r1
 80004e8:	bf08      	it	eq
 80004ea:	4770      	bxeq	lr
 80004ec:	b530      	push	{r4, r5, lr}
 80004ee:	f011 4500 	ands.w	r5, r1, #2147483648	@ 0x80000000
 80004f2:	d502      	bpl.n	80004fa <__aeabi_l2d+0x16>
 80004f4:	4240      	negs	r0, r0
 80004f6:	eb61 0141 	sbc.w	r1, r1, r1, lsl #1
 80004fa:	f44f 6480 	mov.w	r4, #1024	@ 0x400
 80004fe:	f104 0432 	add.w	r4, r4, #50	@ 0x32
 8000502:	ea5f 5c91 	movs.w	ip, r1, lsr #22
 8000506:	f43f aed8 	beq.w	80002ba <__adddf3+0xe6>
 800050a:	f04f 0203 	mov.w	r2, #3
 800050e:	ea5f 0cdc 	movs.w	ip, ip, lsr #3
 8000512:	bf18      	it	ne
 8000514:	3203      	addne	r2, #3
 8000516:	ea5f 0cdc 	movs.w	ip, ip, lsr #3
 800051a:	bf18      	it	ne
 800051c:	3203      	addne	r2, #3
 800051e:	eb02 02dc 	add.w	r2, r2, ip, lsr #3
 8000522:	f1c2 0320 	rsb	r3, r2, #32
 8000526:	fa00 fc03 	lsl.w	ip, r0, r3
 800052a:	fa20 f002 	lsr.w	r0, r0, r2
 800052e:	fa01 fe03 	lsl.w	lr, r1, r3
 8000532:	ea40 000e 	orr.w	r0, r0, lr
 8000536:	fa21 f102 	lsr.w	r1, r1, r2
 800053a:	4414      	add	r4, r2
 800053c:	e6bd      	b.n	80002ba <__adddf3+0xe6>
 800053e:	bf00      	nop

08000540 <__aeabi_dmul>:
 8000540:	b570      	push	{r4, r5, r6, lr}
 8000542:	f04f 0cff 	mov.w	ip, #255	@ 0xff
 8000546:	f44c 6ce0 	orr.w	ip, ip, #1792	@ 0x700
 800054a:	ea1c 5411 	ands.w	r4, ip, r1, lsr #20
 800054e:	bf1d      	ittte	ne
 8000550:	ea1c 5513 	andsne.w	r5, ip, r3, lsr #20
 8000554:	ea94 0f0c 	teqne	r4, ip
 8000558:	ea95 0f0c 	teqne	r5, ip
 800055c:	f000 f8de 	bleq	800071c <__aeabi_dmul+0x1dc>
 8000560:	442c      	add	r4, r5
 8000562:	ea81 0603 	eor.w	r6, r1, r3
 8000566:	ea21 514c 	bic.w	r1, r1, ip, lsl #21
 800056a:	ea23 534c 	bic.w	r3, r3, ip, lsl #21
 800056e:	ea50 3501 	orrs.w	r5, r0, r1, lsl #12
 8000572:	bf18      	it	ne
 8000574:	ea52 3503 	orrsne.w	r5, r2, r3, lsl #12
 8000578:	f441 1180 	orr.w	r1, r1, #1048576	@ 0x100000
 800057c:	f443 1380 	orr.w	r3, r3, #1048576	@ 0x100000
 8000580:	d038      	beq.n	80005f4 <__aeabi_dmul+0xb4>
 8000582:	fba0 ce02 	umull	ip, lr, r0, r2
 8000586:	f04f 0500 	mov.w	r5, #0
 800058a:	fbe1 e502 	umlal	lr, r5, r1, r2
 800058e:	f006 4200 	and.w	r2, r6, #2147483648	@ 0x80000000
 8000592:	fbe0 e503 	umlal	lr, r5, r0, r3
 8000596:	f04f 0600 	mov.w	r6, #0
 800059a:	fbe1 5603 	umlal	r5, r6, r1, r3
 800059e:	f09c 0f00 	teq	ip, #0
 80005a2:	bf18      	it	ne
 80005a4:	f04e 0e01 	orrne.w	lr, lr, #1
 80005a8:	f1a4 04ff 	sub.w	r4, r4, #255	@ 0xff
 80005ac:	f5b6 7f00 	cmp.w	r6, #512	@ 0x200
 80005b0:	f564 7440 	sbc.w	r4, r4, #768	@ 0x300
 80005b4:	d204      	bcs.n	80005c0 <__aeabi_dmul+0x80>
 80005b6:	ea5f 0e4e 	movs.w	lr, lr, lsl #1
 80005ba:	416d      	adcs	r5, r5
 80005bc:	eb46 0606 	adc.w	r6, r6, r6
 80005c0:	ea42 21c6 	orr.w	r1, r2, r6, lsl #11
 80005c4:	ea41 5155 	orr.w	r1, r1, r5, lsr #21
 80005c8:	ea4f 20c5 	mov.w	r0, r5, lsl #11
 80005cc:	ea40 505e 	orr.w	r0, r0, lr, lsr #21
 80005d0:	ea4f 2ece 	mov.w	lr, lr, lsl #11
 80005d4:	f1b4 0cfd 	subs.w	ip, r4, #253	@ 0xfd
 80005d8:	bf88      	it	hi
 80005da:	f5bc 6fe0 	cmphi.w	ip, #1792	@ 0x700
 80005de:	d81e      	bhi.n	800061e <__aeabi_dmul+0xde>
 80005e0:	f1be 4f00 	cmp.w	lr, #2147483648	@ 0x80000000
 80005e4:	bf08      	it	eq
 80005e6:	ea5f 0e50 	movseq.w	lr, r0, lsr #1
 80005ea:	f150 0000 	adcs.w	r0, r0, #0
 80005ee:	eb41 5104 	adc.w	r1, r1, r4, lsl #20
 80005f2:	bd70      	pop	{r4, r5, r6, pc}
 80005f4:	f006 4600 	and.w	r6, r6, #2147483648	@ 0x80000000
 80005f8:	ea46 0101 	orr.w	r1, r6, r1
 80005fc:	ea40 0002 	orr.w	r0, r0, r2
 8000600:	ea81 0103 	eor.w	r1, r1, r3
 8000604:	ebb4 045c 	subs.w	r4, r4, ip, lsr #1
 8000608:	bfc2      	ittt	gt
 800060a:	ebd4 050c 	rsbsgt	r5, r4, ip
 800060e:	ea41 5104 	orrgt.w	r1, r1, r4, lsl #20
 8000612:	bd70      	popgt	{r4, r5, r6, pc}
 8000614:	f441 1180 	orr.w	r1, r1, #1048576	@ 0x100000
 8000618:	f04f 0e00 	mov.w	lr, #0
 800061c:	3c01      	subs	r4, #1
 800061e:	f300 80ab 	bgt.w	8000778 <__aeabi_dmul+0x238>
 8000622:	f114 0f36 	cmn.w	r4, #54	@ 0x36
 8000626:	bfde      	ittt	le
 8000628:	2000      	movle	r0, #0
 800062a:	f001 4100 	andle.w	r1, r1, #2147483648	@ 0x80000000
 800062e:	bd70      	pople	{r4, r5, r6, pc}
 8000630:	f1c4 0400 	rsb	r4, r4, #0
 8000634:	3c20      	subs	r4, #32
 8000636:	da35      	bge.n	80006a4 <__aeabi_dmul+0x164>
 8000638:	340c      	adds	r4, #12
 800063a:	dc1b      	bgt.n	8000674 <__aeabi_dmul+0x134>
 800063c:	f104 0414 	add.w	r4, r4, #20
 8000640:	f1c4 0520 	rsb	r5, r4, #32
 8000644:	fa00 f305 	lsl.w	r3, r0, r5
 8000648:	fa20 f004 	lsr.w	r0, r0, r4
 800064c:	fa01 f205 	lsl.w	r2, r1, r5
 8000650:	ea40 0002 	orr.w	r0, r0, r2
 8000654:	f001 4200 	and.w	r2, r1, #2147483648	@ 0x80000000
 8000658:	f021 4100 	bic.w	r1, r1, #2147483648	@ 0x80000000
 800065c:	eb10 70d3 	adds.w	r0, r0, r3, lsr #31
 8000660:	fa21 f604 	lsr.w	r6, r1, r4
 8000664:	eb42 0106 	adc.w	r1, r2, r6
 8000668:	ea5e 0e43 	orrs.w	lr, lr, r3, lsl #1
 800066c:	bf08      	it	eq
 800066e:	ea20 70d3 	biceq.w	r0, r0, r3, lsr #31
 8000672:	bd70      	pop	{r4, r5, r6, pc}
 8000674:	f1c4 040c 	rsb	r4, r4, #12
 8000678:	f1c4 0520 	rsb	r5, r4, #32
 800067c:	fa00 f304 	lsl.w	r3, r0, r4
 8000680:	fa20 f005 	lsr.w	r0, r0, r5
 8000684:	fa01 f204 	lsl.w	r2, r1, r4
 8000688:	ea40 0002 	orr.w	r0, r0, r2
 800068c:	f001 4100 	and.w	r1, r1, #2147483648	@ 0x80000000
 8000690:	eb10 70d3 	adds.w	r0, r0, r3, lsr #31
 8000694:	f141 0100 	adc.w	r1, r1, #0
 8000698:	ea5e 0e43 	orrs.w	lr, lr, r3, lsl #1
 800069c:	bf08      	it	eq
 800069e:	ea20 70d3 	biceq.w	r0, r0, r3, lsr #31
 80006a2:	bd70      	pop	{r4, r5, r6, pc}
 80006a4:	f1c4 0520 	rsb	r5, r4, #32
 80006a8:	fa00 f205 	lsl.w	r2, r0, r5
 80006ac:	ea4e 0e02 	orr.w	lr, lr, r2
 80006b0:	fa20 f304 	lsr.w	r3, r0, r4
 80006b4:	fa01 f205 	lsl.w	r2, r1, r5
 80006b8:	ea43 0302 	orr.w	r3, r3, r2
 80006bc:	fa21 f004 	lsr.w	r0, r1, r4
 80006c0:	f001 4100 	and.w	r1, r1, #2147483648	@ 0x80000000
 80006c4:	fa21 f204 	lsr.w	r2, r1, r4
 80006c8:	ea20 0002 	bic.w	r0, r0, r2
 80006cc:	eb00 70d3 	add.w	r0, r0, r3, lsr #31
 80006d0:	ea5e 0e43 	orrs.w	lr, lr, r3, lsl #1
 80006d4:	bf08      	it	eq
 80006d6:	ea20 70d3 	biceq.w	r0, r0, r3, lsr #31
 80006da:	bd70      	pop	{r4, r5, r6, pc}
 80006dc:	f094 0f00 	teq	r4, #0
 80006e0:	d10f      	bne.n	8000702 <__aeabi_dmul+0x1c2>
 80006e2:	f001 4600 	and.w	r6, r1, #2147483648	@ 0x80000000
 80006e6:	0040      	lsls	r0, r0, #1
 80006e8:	eb41 0101 	adc.w	r1, r1, r1
 80006ec:	f411 1f80 	tst.w	r1, #1048576	@ 0x100000
 80006f0:	bf08      	it	eq
 80006f2:	3c01      	subeq	r4, #1
 80006f4:	d0f7      	beq.n	80006e6 <__aeabi_dmul+0x1a6>
 80006f6:	ea41 0106 	orr.w	r1, r1, r6
 80006fa:	f095 0f00 	teq	r5, #0
 80006fe:	bf18      	it	ne
 8000700:	4770      	bxne	lr
 8000702:	f003 4600 	and.w	r6, r3, #2147483648	@ 0x80000000
 8000706:	0052      	lsls	r2, r2, #1
 8000708:	eb43 0303 	adc.w	r3, r3, r3
 800070c:	f413 1f80 	tst.w	r3, #1048576	@ 0x100000
 8000710:	bf08      	it	eq
 8000712:	3d01      	subeq	r5, #1
 8000714:	d0f7      	beq.n	8000706 <__aeabi_dmul+0x1c6>
 8000716:	ea43 0306 	orr.w	r3, r3, r6
 800071a:	4770      	bx	lr
 800071c:	ea94 0f0c 	teq	r4, ip
 8000720:	ea0c 5513 	and.w	r5, ip, r3, lsr #20
 8000724:	bf18      	it	ne
 8000726:	ea95 0f0c 	teqne	r5, ip
 800072a:	d00c      	beq.n	8000746 <__aeabi_dmul+0x206>
 800072c:	ea50 0641 	orrs.w	r6, r0, r1, lsl #1
 8000730:	bf18      	it	ne
 8000732:	ea52 0643 	orrsne.w	r6, r2, r3, lsl #1
 8000736:	d1d1      	bne.n	80006dc <__aeabi_dmul+0x19c>
 8000738:	ea81 0103 	eor.w	r1, r1, r3
 800073c:	f001 4100 	and.w	r1, r1, #2147483648	@ 0x80000000
 8000740:	f04f 0000 	mov.w	r0, #0
 8000744:	bd70      	pop	{r4, r5, r6, pc}
 8000746:	ea50 0641 	orrs.w	r6, r0, r1, lsl #1
 800074a:	bf06      	itte	eq
 800074c:	4610      	moveq	r0, r2
 800074e:	4619      	moveq	r1, r3
 8000750:	ea52 0643 	orrsne.w	r6, r2, r3, lsl #1
 8000754:	d019      	beq.n	800078a <__aeabi_dmul+0x24a>
 8000756:	ea94 0f0c 	teq	r4, ip
 800075a:	d102      	bne.n	8000762 <__aeabi_dmul+0x222>
 800075c:	ea50 3601 	orrs.w	r6, r0, r1, lsl #12
 8000760:	d113      	bne.n	800078a <__aeabi_dmul+0x24a>
 8000762:	ea95 0f0c 	teq	r5, ip
 8000766:	d105      	bne.n	8000774 <__aeabi_dmul+0x234>
 8000768:	ea52 3603 	orrs.w	r6, r2, r3, lsl #12
 800076c:	bf1c      	itt	ne
 800076e:	4610      	movne	r0, r2
 8000770:	4619      	movne	r1, r3
 8000772:	d10a      	bne.n	800078a <__aeabi_dmul+0x24a>
 8000774:	ea81 0103 	eor.w	r1, r1, r3
 8000778:	f001 4100 	and.w	r1, r1, #2147483648	@ 0x80000000
 800077c:	f041 41fe 	orr.w	r1, r1, #2130706432	@ 0x7f000000
 8000780:	f441 0170 	orr.w	r1, r1, #15728640	@ 0xf00000
 8000784:	f04f 0000 	mov.w	r0, #0
 8000788:	bd70      	pop	{r4, r5, r6, pc}
 800078a:	f041 41fe 	orr.w	r1, r1, #2130706432	@ 0x7f000000
 800078e:	f441 0178 	orr.w	r1, r1, #16252928	@ 0xf80000
 8000792:	bd70      	pop	{r4, r5, r6, pc}

08000794 <__aeabi_ddiv>:
 8000794:	b570      	push	{r4, r5, r6, lr}
 8000796:	f04f 0cff 	mov.w	ip, #255	@ 0xff
 800079a:	f44c 6ce0 	orr.w	ip, ip, #1792	@ 0x700
 800079e:	ea1c 5411 	ands.w	r4, ip, r1, lsr #20
 80007a2:	bf1d      	ittte	ne
 80007a4:	ea1c 5513 	andsne.w	r5, ip, r3, lsr #20
 80007a8:	ea94 0f0c 	teqne	r4, ip
 80007ac:	ea95 0f0c 	teqne	r5, ip
 80007b0:	f000 f8a7 	bleq	8000902 <__aeabi_ddiv+0x16e>
 80007b4:	eba4 0405 	sub.w	r4, r4, r5
 80007b8:	ea81 0e03 	eor.w	lr, r1, r3
 80007bc:	ea52 3503 	orrs.w	r5, r2, r3, lsl #12
 80007c0:	ea4f 3101 	mov.w	r1, r1, lsl #12
 80007c4:	f000 8088 	beq.w	80008d8 <__aeabi_ddiv+0x144>
 80007c8:	ea4f 3303 	mov.w	r3, r3, lsl #12
 80007cc:	f04f 5580 	mov.w	r5, #268435456	@ 0x10000000
 80007d0:	ea45 1313 	orr.w	r3, r5, r3, lsr #4
 80007d4:	ea43 6312 	orr.w	r3, r3, r2, lsr #24
 80007d8:	ea4f 2202 	mov.w	r2, r2, lsl #8
 80007dc:	ea45 1511 	orr.w	r5, r5, r1, lsr #4
 80007e0:	ea45 6510 	orr.w	r5, r5, r0, lsr #24
 80007e4:	ea4f 2600 	mov.w	r6, r0, lsl #8
 80007e8:	f00e 4100 	and.w	r1, lr, #2147483648	@ 0x80000000
 80007ec:	429d      	cmp	r5, r3
 80007ee:	bf08      	it	eq
 80007f0:	4296      	cmpeq	r6, r2
 80007f2:	f144 04fd 	adc.w	r4, r4, #253	@ 0xfd
 80007f6:	f504 7440 	add.w	r4, r4, #768	@ 0x300
 80007fa:	d202      	bcs.n	8000802 <__aeabi_ddiv+0x6e>
 80007fc:	085b      	lsrs	r3, r3, #1
 80007fe:	ea4f 0232 	mov.w	r2, r2, rrx
 8000802:	1ab6      	subs	r6, r6, r2
 8000804:	eb65 0503 	sbc.w	r5, r5, r3
 8000808:	085b      	lsrs	r3, r3, #1
 800080a:	ea4f 0232 	mov.w	r2, r2, rrx
 800080e:	f44f 1080 	mov.w	r0, #1048576	@ 0x100000
 8000812:	f44f 2c00 	mov.w	ip, #524288	@ 0x80000
 8000816:	ebb6 0e02 	subs.w	lr, r6, r2
 800081a:	eb75 0e03 	sbcs.w	lr, r5, r3
 800081e:	bf22      	ittt	cs
 8000820:	1ab6      	subcs	r6, r6, r2
 8000822:	4675      	movcs	r5, lr
 8000824:	ea40 000c 	orrcs.w	r0, r0, ip
 8000828:	085b      	lsrs	r3, r3, #1
 800082a:	ea4f 0232 	mov.w	r2, r2, rrx
 800082e:	ebb6 0e02 	subs.w	lr, r6, r2
 8000832:	eb75 0e03 	sbcs.w	lr, r5, r3
 8000836:	bf22      	ittt	cs
 8000838:	1ab6      	subcs	r6, r6, r2
 800083a:	4675      	movcs	r5, lr
 800083c:	ea40 005c 	orrcs.w	r0, r0, ip, lsr #1
 8000840:	085b      	lsrs	r3, r3, #1
 8000842:	ea4f 0232 	mov.w	r2, r2, rrx
 8000846:	ebb6 0e02 	subs.w	lr, r6, r2
 800084a:	eb75 0e03 	sbcs.w	lr, r5, r3
 800084e:	bf22      	ittt	cs
 8000850:	1ab6      	subcs	r6, r6, r2
 8000852:	4675      	movcs	r5, lr
 8000854:	ea40 009c 	orrcs.w	r0, r0, ip, lsr #2
 8000858:	085b      	lsrs	r3, r3, #1
 800085a:	ea4f 0232 	mov.w	r2, r2, rrx
 800085e:	ebb6 0e02 	subs.w	lr, r6, r2
 8000862:	eb75 0e03 	sbcs.w	lr, r5, r3
 8000866:	bf22      	ittt	cs
 8000868:	1ab6      	subcs	r6, r6, r2
 800086a:	4675      	movcs	r5, lr
 800086c:	ea40 00dc 	orrcs.w	r0, r0, ip, lsr #3
 8000870:	ea55 0e06 	orrs.w	lr, r5, r6
 8000874:	d018      	beq.n	80008a8 <__aeabi_ddiv+0x114>
 8000876:	ea4f 1505 	mov.w	r5, r5, lsl #4
 800087a:	ea45 7516 	orr.w	r5, r5, r6, lsr #28
 800087e:	ea4f 1606 	mov.w	r6, r6, lsl #4
 8000882:	ea4f 03c3 	mov.w	r3, r3, lsl #3
 8000886:	ea43 7352 	orr.w	r3, r3, r2, lsr #29
 800088a:	ea4f 02c2 	mov.w	r2, r2, lsl #3
 800088e:	ea5f 1c1c 	movs.w	ip, ip, lsr #4
 8000892:	d1c0      	bne.n	8000816 <__aeabi_ddiv+0x82>
 8000894:	f411 1f80 	tst.w	r1, #1048576	@ 0x100000
 8000898:	d10b      	bne.n	80008b2 <__aeabi_ddiv+0x11e>
 800089a:	ea41 0100 	orr.w	r1, r1, r0
 800089e:	f04f 0000 	mov.w	r0, #0
 80008a2:	f04f 4c00 	mov.w	ip, #2147483648	@ 0x80000000
 80008a6:	e7b6      	b.n	8000816 <__aeabi_ddiv+0x82>
 80008a8:	f411 1f80 	tst.w	r1, #1048576	@ 0x100000
 80008ac:	bf04      	itt	eq
 80008ae:	4301      	orreq	r1, r0
 80008b0:	2000      	moveq	r0, #0
 80008b2:	f1b4 0cfd 	subs.w	ip, r4, #253	@ 0xfd
 80008b6:	bf88      	it	hi
 80008b8:	f5bc 6fe0 	cmphi.w	ip, #1792	@ 0x700
 80008bc:	f63f aeaf 	bhi.w	800061e <__aeabi_dmul+0xde>
 80008c0:	ebb5 0c03 	subs.w	ip, r5, r3
 80008c4:	bf04      	itt	eq
 80008c6:	ebb6 0c02 	subseq.w	ip, r6, r2
 80008ca:	ea5f 0c50 	movseq.w	ip, r0, lsr #1
 80008ce:	f150 0000 	adcs.w	r0, r0, #0
 80008d2:	eb41 5104 	adc.w	r1, r1, r4, lsl #20
 80008d6:	bd70      	pop	{r4, r5, r6, pc}
 80008d8:	f00e 4e00 	and.w	lr, lr, #2147483648	@ 0x80000000
 80008dc:	ea4e 3111 	orr.w	r1, lr, r1, lsr #12
 80008e0:	eb14 045c 	adds.w	r4, r4, ip, lsr #1
 80008e4:	bfc2      	ittt	gt
 80008e6:	ebd4 050c 	rsbsgt	r5, r4, ip
 80008ea:	ea41 5104 	orrgt.w	r1, r1, r4, lsl #20
 80008ee:	bd70      	popgt	{r4, r5, r6, pc}
 80008f0:	f441 1180 	orr.w	r1, r1, #1048576	@ 0x100000
 80008f4:	f04f 0e00 	mov.w	lr, #0
 80008f8:	3c01      	subs	r4, #1
 80008fa:	e690      	b.n	800061e <__aeabi_dmul+0xde>
 80008fc:	ea45 0e06 	orr.w	lr, r5, r6
 8000900:	e68d      	b.n	800061e <__aeabi_dmul+0xde>
 8000902:	ea0c 5513 	and.w	r5, ip, r3, lsr #20
 8000906:	ea94 0f0c 	teq	r4, ip
 800090a:	bf08      	it	eq
 800090c:	ea95 0f0c 	teqeq	r5, ip
 8000910:	f43f af3b 	beq.w	800078a <__aeabi_dmul+0x24a>
 8000914:	ea94 0f0c 	teq	r4, ip
 8000918:	d10a      	bne.n	8000930 <__aeabi_ddiv+0x19c>
 800091a:	ea50 3401 	orrs.w	r4, r0, r1, lsl #12
 800091e:	f47f af34 	bne.w	800078a <__aeabi_dmul+0x24a>
 8000922:	ea95 0f0c 	teq	r5, ip
 8000926:	f47f af25 	bne.w	8000774 <__aeabi_dmul+0x234>
 800092a:	4610      	mov	r0, r2
 800092c:	4619      	mov	r1, r3
 800092e:	e72c      	b.n	800078a <__aeabi_dmul+0x24a>
 8000930:	ea95 0f0c 	teq	r5, ip
 8000934:	d106      	bne.n	8000944 <__aeabi_ddiv+0x1b0>
 8000936:	ea52 3503 	orrs.w	r5, r2, r3, lsl #12
 800093a:	f43f aefd 	beq.w	8000738 <__aeabi_dmul+0x1f8>
 800093e:	4610      	mov	r0, r2
 8000940:	4619      	mov	r1, r3
 8000942:	e722      	b.n	800078a <__aeabi_dmul+0x24a>
 8000944:	ea50 0641 	orrs.w	r6, r0, r1, lsl #1
 8000948:	bf18      	it	ne
 800094a:	ea52 0643 	orrsne.w	r6, r2, r3, lsl #1
 800094e:	f47f aec5 	bne.w	80006dc <__aeabi_dmul+0x19c>
 8000952:	ea50 0441 	orrs.w	r4, r0, r1, lsl #1
 8000956:	f47f af0d 	bne.w	8000774 <__aeabi_dmul+0x234>
 800095a:	ea52 0543 	orrs.w	r5, r2, r3, lsl #1
 800095e:	f47f aeeb 	bne.w	8000738 <__aeabi_dmul+0x1f8>
 8000962:	e712      	b.n	800078a <__aeabi_dmul+0x24a>

08000964 <__aeabi_d2f>:
 8000964:	ea4f 0241 	mov.w	r2, r1, lsl #1
 8000968:	f1b2 43e0 	subs.w	r3, r2, #1879048192	@ 0x70000000
 800096c:	bf24      	itt	cs
 800096e:	f5b3 1c00 	subscs.w	ip, r3, #2097152	@ 0x200000
 8000972:	f1dc 5cfe 	rsbscs	ip, ip, #532676608	@ 0x1fc00000
 8000976:	d90d      	bls.n	8000994 <__aeabi_d2f+0x30>
 8000978:	f001 4c00 	and.w	ip, r1, #2147483648	@ 0x80000000
 800097c:	ea4f 02c0 	mov.w	r2, r0, lsl #3
 8000980:	ea4c 7050 	orr.w	r0, ip, r0, lsr #29
 8000984:	f1b2 4f00 	cmp.w	r2, #2147483648	@ 0x80000000
 8000988:	eb40 0083 	adc.w	r0, r0, r3, lsl #2
 800098c:	bf08      	it	eq
 800098e:	f020 0001 	biceq.w	r0, r0, #1
 8000992:	4770      	bx	lr
 8000994:	f011 4f80 	tst.w	r1, #1073741824	@ 0x40000000
 8000998:	d121      	bne.n	80009de <__aeabi_d2f+0x7a>
 800099a:	f113 7238 	adds.w	r2, r3, #48234496	@ 0x2e00000
 800099e:	bfbc      	itt	lt
 80009a0:	f001 4000 	andlt.w	r0, r1, #2147483648	@ 0x80000000
 80009a4:	4770      	bxlt	lr
 80009a6:	f441 1180 	orr.w	r1, r1, #1048576	@ 0x100000
 80009aa:	ea4f 5252 	mov.w	r2, r2, lsr #21
 80009ae:	f1c2 0218 	rsb	r2, r2, #24
 80009b2:	f1c2 0c20 	rsb	ip, r2, #32
 80009b6:	fa10 f30c 	lsls.w	r3, r0, ip
 80009ba:	fa20 f002 	lsr.w	r0, r0, r2
 80009be:	bf18      	it	ne
 80009c0:	f040 0001 	orrne.w	r0, r0, #1
 80009c4:	ea4f 23c1 	mov.w	r3, r1, lsl #11
 80009c8:	ea4f 23d3 	mov.w	r3, r3, lsr #11
 80009cc:	fa03 fc0c 	lsl.w	ip, r3, ip
 80009d0:	ea40 000c 	orr.w	r0, r0, ip
 80009d4:	fa23 f302 	lsr.w	r3, r3, r2
 80009d8:	ea4f 0343 	mov.w	r3, r3, lsl #1
 80009dc:	e7cc      	b.n	8000978 <__aeabi_d2f+0x14>
 80009de:	ea7f 5362 	mvns.w	r3, r2, asr #21
 80009e2:	d107      	bne.n	80009f4 <__aeabi_d2f+0x90>
 80009e4:	ea50 3301 	orrs.w	r3, r0, r1, lsl #12
 80009e8:	bf1e      	ittt	ne
 80009ea:	f04f 40fe 	movne.w	r0, #2130706432	@ 0x7f000000
 80009ee:	f440 0040 	orrne.w	r0, r0, #12582912	@ 0xc00000
 80009f2:	4770      	bxne	lr
 80009f4:	f001 4000 	and.w	r0, r1, #2147483648	@ 0x80000000
 80009f8:	f040 40fe 	orr.w	r0, r0, #2130706432	@ 0x7f000000
 80009fc:	f440 0000 	orr.w	r0, r0, #8388608	@ 0x800000
 8000a00:	4770      	bx	lr
 8000a02:	bf00      	nop

08000a04 <__aeabi_uldivmod>:
 8000a04:	b953      	cbnz	r3, 8000a1c <__aeabi_uldivmod+0x18>
 8000a06:	b94a      	cbnz	r2, 8000a1c <__aeabi_uldivmod+0x18>
 8000a08:	2900      	cmp	r1, #0
 8000a0a:	bf08      	it	eq
 8000a0c:	2800      	cmpeq	r0, #0
 8000a0e:	bf1c      	itt	ne
 8000a10:	f04f 31ff 	movne.w	r1, #4294967295	@ 0xffffffff
 8000a14:	f04f 30ff 	movne.w	r0, #4294967295	@ 0xffffffff
 8000a18:	f000 b96a 	b.w	8000cf0 <__aeabi_idiv0>
 8000a1c:	f1ad 0c08 	sub.w	ip, sp, #8
 8000a20:	e96d ce04 	strd	ip, lr, [sp, #-16]!
 8000a24:	f000 f806 	bl	8000a34 <__udivmoddi4>
 8000a28:	f8dd e004 	ldr.w	lr, [sp, #4]
 8000a2c:	e9dd 2302 	ldrd	r2, r3, [sp, #8]
 8000a30:	b004      	add	sp, #16
 8000a32:	4770      	bx	lr

08000a34 <__udivmoddi4>:
 8000a34:	e92d 47f0 	stmdb	sp!, {r4, r5, r6, r7, r8, r9, sl, lr}
 8000a38:	9d08      	ldr	r5, [sp, #32]
 8000a3a:	460c      	mov	r4, r1
 8000a3c:	2b00      	cmp	r3, #0
 8000a3e:	d14e      	bne.n	8000ade <__udivmoddi4+0xaa>
 8000a40:	4694      	mov	ip, r2
 8000a42:	458c      	cmp	ip, r1
 8000a44:	4686      	mov	lr, r0
 8000a46:	fab2 f282 	clz	r2, r2
 8000a4a:	d962      	bls.n	8000b12 <__udivmoddi4+0xde>
 8000a4c:	b14a      	cbz	r2, 8000a62 <__udivmoddi4+0x2e>
 8000a4e:	f1c2 0320 	rsb	r3, r2, #32
 8000a52:	4091      	lsls	r1, r2
 8000a54:	fa20 f303 	lsr.w	r3, r0, r3
 8000a58:	fa0c fc02 	lsl.w	ip, ip, r2
 8000a5c:	4319      	orrs	r1, r3
 8000a5e:	fa00 fe02 	lsl.w	lr, r0, r2
 8000a62:	ea4f 471c 	mov.w	r7, ip, lsr #16
 8000a66:	fa1f f68c 	uxth.w	r6, ip
 8000a6a:	fbb1 f4f7 	udiv	r4, r1, r7
 8000a6e:	ea4f 431e 	mov.w	r3, lr, lsr #16
 8000a72:	fb07 1114 	mls	r1, r7, r4, r1
 8000a76:	ea43 4301 	orr.w	r3, r3, r1, lsl #16
 8000a7a:	fb04 f106 	mul.w	r1, r4, r6
 8000a7e:	4299      	cmp	r1, r3
 8000a80:	d90a      	bls.n	8000a98 <__udivmoddi4+0x64>
 8000a82:	eb1c 0303 	adds.w	r3, ip, r3
 8000a86:	f104 30ff 	add.w	r0, r4, #4294967295	@ 0xffffffff
 8000a8a:	f080 8112 	bcs.w	8000cb2 <__udivmoddi4+0x27e>
 8000a8e:	4299      	cmp	r1, r3
 8000a90:	f240 810f 	bls.w	8000cb2 <__udivmoddi4+0x27e>
 8000a94:	3c02      	subs	r4, #2
 8000a96:	4463      	add	r3, ip
 8000a98:	1a59      	subs	r1, r3, r1
 8000a9a:	fa1f f38e 	uxth.w	r3, lr
 8000a9e:	fbb1 f0f7 	udiv	r0, r1, r7
 8000aa2:	fb07 1110 	mls	r1, r7, r0, r1
 8000aa6:	ea43 4301 	orr.w	r3, r3, r1, lsl #16
 8000aaa:	fb00 f606 	mul.w	r6, r0, r6
 8000aae:	429e      	cmp	r6, r3
 8000ab0:	d90a      	bls.n	8000ac8 <__udivmoddi4+0x94>
 8000ab2:	eb1c 0303 	adds.w	r3, ip, r3
 8000ab6:	f100 31ff 	add.w	r1, r0, #4294967295	@ 0xffffffff
 8000aba:	f080 80fc 	bcs.w	8000cb6 <__udivmoddi4+0x282>
 8000abe:	429e      	cmp	r6, r3
 8000ac0:	f240 80f9 	bls.w	8000cb6 <__udivmoddi4+0x282>
 8000ac4:	4463      	add	r3, ip
 8000ac6:	3802      	subs	r0, #2
 8000ac8:	1b9b      	subs	r3, r3, r6
 8000aca:	ea40 4004 	orr.w	r0, r0, r4, lsl #16
 8000ace:	2100      	movs	r1, #0
 8000ad0:	b11d      	cbz	r5, 8000ada <__udivmoddi4+0xa6>
 8000ad2:	40d3      	lsrs	r3, r2
 8000ad4:	2200      	movs	r2, #0
 8000ad6:	e9c5 3200 	strd	r3, r2, [r5]
 8000ada:	e8bd 87f0 	ldmia.w	sp!, {r4, r5, r6, r7, r8, r9, sl, pc}
 8000ade:	428b      	cmp	r3, r1
 8000ae0:	d905      	bls.n	8000aee <__udivmoddi4+0xba>
 8000ae2:	b10d      	cbz	r5, 8000ae8 <__udivmoddi4+0xb4>
 8000ae4:	e9c5 0100 	strd	r0, r1, [r5]
 8000ae8:	2100      	movs	r1, #0
 8000aea:	4608      	mov	r0, r1
 8000aec:	e7f5      	b.n	8000ada <__udivmoddi4+0xa6>
 8000aee:	fab3 f183 	clz	r1, r3
 8000af2:	2900      	cmp	r1, #0
 8000af4:	d146      	bne.n	8000b84 <__udivmoddi4+0x150>
 8000af6:	42a3      	cmp	r3, r4
 8000af8:	d302      	bcc.n	8000b00 <__udivmoddi4+0xcc>
 8000afa:	4290      	cmp	r0, r2
 8000afc:	f0c0 80f0 	bcc.w	8000ce0 <__udivmoddi4+0x2ac>
 8000b00:	1a86      	subs	r6, r0, r2
 8000b02:	eb64 0303 	sbc.w	r3, r4, r3
 8000b06:	2001      	movs	r0, #1
 8000b08:	2d00      	cmp	r5, #0
 8000b0a:	d0e6      	beq.n	8000ada <__udivmoddi4+0xa6>
 8000b0c:	e9c5 6300 	strd	r6, r3, [r5]
 8000b10:	e7e3      	b.n	8000ada <__udivmoddi4+0xa6>
 8000b12:	2a00      	cmp	r2, #0
 8000b14:	f040 8090 	bne.w	8000c38 <__udivmoddi4+0x204>
 8000b18:	eba1 040c 	sub.w	r4, r1, ip
 8000b1c:	ea4f 481c 	mov.w	r8, ip, lsr #16
 8000b20:	fa1f f78c 	uxth.w	r7, ip
 8000b24:	2101      	movs	r1, #1
 8000b26:	fbb4 f6f8 	udiv	r6, r4, r8
 8000b2a:	ea4f 431e 	mov.w	r3, lr, lsr #16
 8000b2e:	fb08 4416 	mls	r4, r8, r6, r4
 8000b32:	ea43 4304 	orr.w	r3, r3, r4, lsl #16
 8000b36:	fb07 f006 	mul.w	r0, r7, r6
 8000b3a:	4298      	cmp	r0, r3
 8000b3c:	d908      	bls.n	8000b50 <__udivmoddi4+0x11c>
 8000b3e:	eb1c 0303 	adds.w	r3, ip, r3
 8000b42:	f106 34ff 	add.w	r4, r6, #4294967295	@ 0xffffffff
 8000b46:	d202      	bcs.n	8000b4e <__udivmoddi4+0x11a>
 8000b48:	4298      	cmp	r0, r3
 8000b4a:	f200 80cd 	bhi.w	8000ce8 <__udivmoddi4+0x2b4>
 8000b4e:	4626      	mov	r6, r4
 8000b50:	1a1c      	subs	r4, r3, r0
 8000b52:	fa1f f38e 	uxth.w	r3, lr
 8000b56:	fbb4 f0f8 	udiv	r0, r4, r8
 8000b5a:	fb08 4410 	mls	r4, r8, r0, r4
 8000b5e:	ea43 4304 	orr.w	r3, r3, r4, lsl #16
 8000b62:	fb00 f707 	mul.w	r7, r0, r7
 8000b66:	429f      	cmp	r7, r3
 8000b68:	d908      	bls.n	8000b7c <__udivmoddi4+0x148>
 8000b6a:	eb1c 0303 	adds.w	r3, ip, r3
 8000b6e:	f100 34ff 	add.w	r4, r0, #4294967295	@ 0xffffffff
 8000b72:	d202      	bcs.n	8000b7a <__udivmoddi4+0x146>
 8000b74:	429f      	cmp	r7, r3
 8000b76:	f200 80b0 	bhi.w	8000cda <__udivmoddi4+0x2a6>
 8000b7a:	4620      	mov	r0, r4
 8000b7c:	1bdb      	subs	r3, r3, r7
 8000b7e:	ea40 4006 	orr.w	r0, r0, r6, lsl #16
 8000b82:	e7a5      	b.n	8000ad0 <__udivmoddi4+0x9c>
 8000b84:	f1c1 0620 	rsb	r6, r1, #32
 8000b88:	408b      	lsls	r3, r1
 8000b8a:	fa22 f706 	lsr.w	r7, r2, r6
 8000b8e:	431f      	orrs	r7, r3
 8000b90:	fa20 fc06 	lsr.w	ip, r0, r6
 8000b94:	fa04 f301 	lsl.w	r3, r4, r1
 8000b98:	ea43 030c 	orr.w	r3, r3, ip
 8000b9c:	40f4      	lsrs	r4, r6
 8000b9e:	fa00 f801 	lsl.w	r8, r0, r1
 8000ba2:	0c38      	lsrs	r0, r7, #16
 8000ba4:	ea4f 4913 	mov.w	r9, r3, lsr #16
 8000ba8:	fbb4 fef0 	udiv	lr, r4, r0
 8000bac:	fa1f fc87 	uxth.w	ip, r7
 8000bb0:	fb00 441e 	mls	r4, r0, lr, r4
 8000bb4:	ea49 4404 	orr.w	r4, r9, r4, lsl #16
 8000bb8:	fb0e f90c 	mul.w	r9, lr, ip
 8000bbc:	45a1      	cmp	r9, r4
 8000bbe:	fa02 f201 	lsl.w	r2, r2, r1
 8000bc2:	d90a      	bls.n	8000bda <__udivmoddi4+0x1a6>
 8000bc4:	193c      	adds	r4, r7, r4
 8000bc6:	f10e 3aff 	add.w	sl, lr, #4294967295	@ 0xffffffff
 8000bca:	f080 8084 	bcs.w	8000cd6 <__udivmoddi4+0x2a2>
 8000bce:	45a1      	cmp	r9, r4
 8000bd0:	f240 8081 	bls.w	8000cd6 <__udivmoddi4+0x2a2>
 8000bd4:	f1ae 0e02 	sub.w	lr, lr, #2
 8000bd8:	443c      	add	r4, r7
 8000bda:	eba4 0409 	sub.w	r4, r4, r9
 8000bde:	fa1f f983 	uxth.w	r9, r3
 8000be2:	fbb4 f3f0 	udiv	r3, r4, r0
 8000be6:	fb00 4413 	mls	r4, r0, r3, r4
 8000bea:	ea49 4404 	orr.w	r4, r9, r4, lsl #16
 8000bee:	fb03 fc0c 	mul.w	ip, r3, ip
 8000bf2:	45a4      	cmp	ip, r4
 8000bf4:	d907      	bls.n	8000c06 <__udivmoddi4+0x1d2>
 8000bf6:	193c      	adds	r4, r7, r4
 8000bf8:	f103 30ff 	add.w	r0, r3, #4294967295	@ 0xffffffff
 8000bfc:	d267      	bcs.n	8000cce <__udivmoddi4+0x29a>
 8000bfe:	45a4      	cmp	ip, r4
 8000c00:	d965      	bls.n	8000cce <__udivmoddi4+0x29a>
 8000c02:	3b02      	subs	r3, #2
 8000c04:	443c      	add	r4, r7
 8000c06:	ea43 400e 	orr.w	r0, r3, lr, lsl #16
 8000c0a:	fba0 9302 	umull	r9, r3, r0, r2
 8000c0e:	eba4 040c 	sub.w	r4, r4, ip
 8000c12:	429c      	cmp	r4, r3
 8000c14:	46ce      	mov	lr, r9
 8000c16:	469c      	mov	ip, r3
 8000c18:	d351      	bcc.n	8000cbe <__udivmoddi4+0x28a>
 8000c1a:	d04e      	beq.n	8000cba <__udivmoddi4+0x286>
 8000c1c:	b155      	cbz	r5, 8000c34 <__udivmoddi4+0x200>
 8000c1e:	ebb8 030e 	subs.w	r3, r8, lr
 8000c22:	eb64 040c 	sbc.w	r4, r4, ip
 8000c26:	fa04 f606 	lsl.w	r6, r4, r6
 8000c2a:	40cb      	lsrs	r3, r1
 8000c2c:	431e      	orrs	r6, r3
 8000c2e:	40cc      	lsrs	r4, r1
 8000c30:	e9c5 6400 	strd	r6, r4, [r5]
 8000c34:	2100      	movs	r1, #0
 8000c36:	e750      	b.n	8000ada <__udivmoddi4+0xa6>
 8000c38:	f1c2 0320 	rsb	r3, r2, #32
 8000c3c:	fa20 f103 	lsr.w	r1, r0, r3
 8000c40:	fa0c fc02 	lsl.w	ip, ip, r2
 8000c44:	fa24 f303 	lsr.w	r3, r4, r3
 8000c48:	4094      	lsls	r4, r2
 8000c4a:	430c      	orrs	r4, r1
 8000c4c:	ea4f 481c 	mov.w	r8, ip, lsr #16
 8000c50:	fa00 fe02 	lsl.w	lr, r0, r2
 8000c54:	fa1f f78c 	uxth.w	r7, ip
 8000c58:	fbb3 f0f8 	udiv	r0, r3, r8
 8000c5c:	fb08 3110 	mls	r1, r8, r0, r3
 8000c60:	0c23      	lsrs	r3, r4, #16
 8000c62:	ea43 4301 	orr.w	r3, r3, r1, lsl #16
 8000c66:	fb00 f107 	mul.w	r1, r0, r7
 8000c6a:	4299      	cmp	r1, r3
 8000c6c:	d908      	bls.n	8000c80 <__udivmoddi4+0x24c>
 8000c6e:	eb1c 0303 	adds.w	r3, ip, r3
 8000c72:	f100 36ff 	add.w	r6, r0, #4294967295	@ 0xffffffff
 8000c76:	d22c      	bcs.n	8000cd2 <__udivmoddi4+0x29e>
 8000c78:	4299      	cmp	r1, r3
 8000c7a:	d92a      	bls.n	8000cd2 <__udivmoddi4+0x29e>
 8000c7c:	3802      	subs	r0, #2
 8000c7e:	4463      	add	r3, ip
 8000c80:	1a5b      	subs	r3, r3, r1
 8000c82:	b2a4      	uxth	r4, r4
 8000c84:	fbb3 f1f8 	udiv	r1, r3, r8
 8000c88:	fb08 3311 	mls	r3, r8, r1, r3
 8000c8c:	ea44 4403 	orr.w	r4, r4, r3, lsl #16
 8000c90:	fb01 f307 	mul.w	r3, r1, r7
 8000c94:	42a3      	cmp	r3, r4
 8000c96:	d908      	bls.n	8000caa <__udivmoddi4+0x276>
 8000c98:	eb1c 0404 	adds.w	r4, ip, r4
 8000c9c:	f101 36ff 	add.w	r6, r1, #4294967295	@ 0xffffffff
 8000ca0:	d213      	bcs.n	8000cca <__udivmoddi4+0x296>
 8000ca2:	42a3      	cmp	r3, r4
 8000ca4:	d911      	bls.n	8000cca <__udivmoddi4+0x296>
 8000ca6:	3902      	subs	r1, #2
 8000ca8:	4464      	add	r4, ip
 8000caa:	1ae4      	subs	r4, r4, r3
 8000cac:	ea41 4100 	orr.w	r1, r1, r0, lsl #16
 8000cb0:	e739      	b.n	8000b26 <__udivmoddi4+0xf2>
 8000cb2:	4604      	mov	r4, r0
 8000cb4:	e6f0      	b.n	8000a98 <__udivmoddi4+0x64>
 8000cb6:	4608      	mov	r0, r1
 8000cb8:	e706      	b.n	8000ac8 <__udivmoddi4+0x94>
 8000cba:	45c8      	cmp	r8, r9
 8000cbc:	d2ae      	bcs.n	8000c1c <__udivmoddi4+0x1e8>
 8000cbe:	ebb9 0e02 	subs.w	lr, r9, r2
 8000cc2:	eb63 0c07 	sbc.w	ip, r3, r7
 8000cc6:	3801      	subs	r0, #1
 8000cc8:	e7a8      	b.n	8000c1c <__udivmoddi4+0x1e8>
 8000cca:	4631      	mov	r1, r6
 8000ccc:	e7ed      	b.n	8000caa <__udivmoddi4+0x276>
 8000cce:	4603      	mov	r3, r0
 8000cd0:	e799      	b.n	8000c06 <__udivmoddi4+0x1d2>
 8000cd2:	4630      	mov	r0, r6
 8000cd4:	e7d4      	b.n	8000c80 <__udivmoddi4+0x24c>
 8000cd6:	46d6      	mov	lr, sl
 8000cd8:	e77f      	b.n	8000bda <__udivmoddi4+0x1a6>
 8000cda:	4463      	add	r3, ip
 8000cdc:	3802      	subs	r0, #2
 8000cde:	e74d      	b.n	8000b7c <__udivmoddi4+0x148>
 8000ce0:	4606      	mov	r6, r0
 8000ce2:	4623      	mov	r3, r4
 8000ce4:	4608      	mov	r0, r1
 8000ce6:	e70f      	b.n	8000b08 <__udivmoddi4+0xd4>
 8000ce8:	3e02      	subs	r6, #2
 8000cea:	4463      	add	r3, ip
 8000cec:	e730      	b.n	8000b50 <__udivmoddi4+0x11c>
 8000cee:	bf00      	nop

08000cf0 <__aeabi_idiv0>:
 8000cf0:	4770      	bx	lr
 8000cf2:	bf00      	nop

08000cf4 <lcd10usDelay>:
}
#endif /* USE_BUSY_FLAG */

/*!	\brief	Creates delay multiples of 10us. */
static void lcd10usDelay(volatile uint32_t us)
{
 8000cf4:	b480      	push	{r7}
 8000cf6:	b083      	sub	sp, #12
 8000cf8:	af00      	add	r7, sp, #0
 8000cfa:	6078      	str	r0, [r7, #4]
	/* Ñonversion to us */
	us *= MCU_FREQ_VALUE;
 8000cfc:	4b0b      	ldr	r3, [pc, #44]	@ (8000d2c <lcd10usDelay+0x38>)
 8000cfe:	681b      	ldr	r3, [r3, #0]
 8000d00:	4a0b      	ldr	r2, [pc, #44]	@ (8000d30 <lcd10usDelay+0x3c>)
 8000d02:	fba2 2303 	umull	r2, r3, r2, r3
 8000d06:	0c9b      	lsrs	r3, r3, #18
 8000d08:	687a      	ldr	r2, [r7, #4]
 8000d0a:	fb02 f303 	mul.w	r3, r2, r3
 8000d0e:	607b      	str	r3, [r7, #4]
	/* Wait */
	while (us > 0u)
 8000d10:	e002      	b.n	8000d18 <lcd10usDelay+0x24>
	{
		us--;
 8000d12:	687b      	ldr	r3, [r7, #4]
 8000d14:	3b01      	subs	r3, #1
 8000d16:	607b      	str	r3, [r7, #4]
	while (us > 0u)
 8000d18:	687b      	ldr	r3, [r7, #4]
 8000d1a:	2b00      	cmp	r3, #0
 8000d1c:	d1f9      	bne.n	8000d12 <lcd10usDelay+0x1e>
	}
}
 8000d1e:	bf00      	nop
 8000d20:	bf00      	nop
 8000d22:	370c      	adds	r7, #12
 8000d24:	46bd      	mov	sp, r7
 8000d26:	f85d 7b04 	ldr.w	r7, [sp], #4
 8000d2a:	4770      	bx	lr
 8000d2c:	20000008 	.word	0x20000008
 8000d30:	431bde83 	.word	0x431bde83

08000d34 <lcdStrobe>:

/*!	\brief	Initiate the transfer of data/commands to LCD. */
static void lcdStrobe(void)
{/* Low level function. */
 8000d34:	b580      	push	{r7, lr}
 8000d36:	af00      	add	r7, sp, #0
	SET(LCD_E_OUT, LCD_E);
 8000d38:	4b08      	ldr	r3, [pc, #32]	@ (8000d5c <lcdStrobe+0x28>)
 8000d3a:	695b      	ldr	r3, [r3, #20]
 8000d3c:	4a07      	ldr	r2, [pc, #28]	@ (8000d5c <lcdStrobe+0x28>)
 8000d3e:	f443 6300 	orr.w	r3, r3, #2048	@ 0x800
 8000d42:	6153      	str	r3, [r2, #20]
	lcd10usDelay(ENABLE_CYCLE_TIME);
 8000d44:	2001      	movs	r0, #1
 8000d46:	f7ff ffd5 	bl	8000cf4 <lcd10usDelay>
	CLR(LCD_E_OUT, LCD_E);	/* Enable strobe */
 8000d4a:	4b04      	ldr	r3, [pc, #16]	@ (8000d5c <lcdStrobe+0x28>)
 8000d4c:	695b      	ldr	r3, [r3, #20]
 8000d4e:	4a03      	ldr	r2, [pc, #12]	@ (8000d5c <lcdStrobe+0x28>)
 8000d50:	f423 6300 	bic.w	r3, r3, #2048	@ 0x800
 8000d54:	6153      	str	r3, [r2, #20]
}
 8000d56:	bf00      	nop
 8000d58:	bd80      	pop	{r7, pc}
 8000d5a:	bf00      	nop
 8000d5c:	40021000 	.word	0x40021000

08000d60 <lcdHigh>:

/*!	\brief	Send the msb nibble of the data / command to LCD. */
static void lcdHigh(uint8_t data)
{/* Low level function. */
 8000d60:	b480      	push	{r7}
 8000d62:	b083      	sub	sp, #12
 8000d64:	af00      	add	r7, sp, #0
 8000d66:	4603      	mov	r3, r0
 8000d68:	71fb      	strb	r3, [r7, #7]
	if(data & LCD_D7_MASK) SET(LCD_D7_OUT, LCD_D7); else CLR(LCD_D7_OUT, LCD_D7);
 8000d6a:	f997 3007 	ldrsb.w	r3, [r7, #7]
 8000d6e:	2b00      	cmp	r3, #0
 8000d70:	da06      	bge.n	8000d80 <lcdHigh+0x20>
 8000d72:	4b24      	ldr	r3, [pc, #144]	@ (8000e04 <lcdHigh+0xa4>)
 8000d74:	695b      	ldr	r3, [r3, #20]
 8000d76:	4a23      	ldr	r2, [pc, #140]	@ (8000e04 <lcdHigh+0xa4>)
 8000d78:	f443 4300 	orr.w	r3, r3, #32768	@ 0x8000
 8000d7c:	6153      	str	r3, [r2, #20]
 8000d7e:	e005      	b.n	8000d8c <lcdHigh+0x2c>
 8000d80:	4b20      	ldr	r3, [pc, #128]	@ (8000e04 <lcdHigh+0xa4>)
 8000d82:	695b      	ldr	r3, [r3, #20]
 8000d84:	4a1f      	ldr	r2, [pc, #124]	@ (8000e04 <lcdHigh+0xa4>)
 8000d86:	f423 4300 	bic.w	r3, r3, #32768	@ 0x8000
 8000d8a:	6153      	str	r3, [r2, #20]
	if(data & LCD_D6_MASK) SET(LCD_D6_OUT, LCD_D6); else CLR(LCD_D6_OUT, LCD_D6);
 8000d8c:	79fb      	ldrb	r3, [r7, #7]
 8000d8e:	f003 0340 	and.w	r3, r3, #64	@ 0x40
 8000d92:	2b00      	cmp	r3, #0
 8000d94:	d006      	beq.n	8000da4 <lcdHigh+0x44>
 8000d96:	4b1b      	ldr	r3, [pc, #108]	@ (8000e04 <lcdHigh+0xa4>)
 8000d98:	695b      	ldr	r3, [r3, #20]
 8000d9a:	4a1a      	ldr	r2, [pc, #104]	@ (8000e04 <lcdHigh+0xa4>)
 8000d9c:	f443 4380 	orr.w	r3, r3, #16384	@ 0x4000
 8000da0:	6153      	str	r3, [r2, #20]
 8000da2:	e005      	b.n	8000db0 <lcdHigh+0x50>
 8000da4:	4b17      	ldr	r3, [pc, #92]	@ (8000e04 <lcdHigh+0xa4>)
 8000da6:	695b      	ldr	r3, [r3, #20]
 8000da8:	4a16      	ldr	r2, [pc, #88]	@ (8000e04 <lcdHigh+0xa4>)
 8000daa:	f423 4380 	bic.w	r3, r3, #16384	@ 0x4000
 8000dae:	6153      	str	r3, [r2, #20]
	if(data & LCD_D5_MASK) SET(LCD_D5_OUT, LCD_D5); else CLR(LCD_D5_OUT, LCD_D5);
 8000db0:	79fb      	ldrb	r3, [r7, #7]
 8000db2:	f003 0320 	and.w	r3, r3, #32
 8000db6:	2b00      	cmp	r3, #0
 8000db8:	d006      	beq.n	8000dc8 <lcdHigh+0x68>
 8000dba:	4b12      	ldr	r3, [pc, #72]	@ (8000e04 <lcdHigh+0xa4>)
 8000dbc:	695b      	ldr	r3, [r3, #20]
 8000dbe:	4a11      	ldr	r2, [pc, #68]	@ (8000e04 <lcdHigh+0xa4>)
 8000dc0:	f443 5300 	orr.w	r3, r3, #8192	@ 0x2000
 8000dc4:	6153      	str	r3, [r2, #20]
 8000dc6:	e005      	b.n	8000dd4 <lcdHigh+0x74>
 8000dc8:	4b0e      	ldr	r3, [pc, #56]	@ (8000e04 <lcdHigh+0xa4>)
 8000dca:	695b      	ldr	r3, [r3, #20]
 8000dcc:	4a0d      	ldr	r2, [pc, #52]	@ (8000e04 <lcdHigh+0xa4>)
 8000dce:	f423 5300 	bic.w	r3, r3, #8192	@ 0x2000
 8000dd2:	6153      	str	r3, [r2, #20]
	if(data & LCD_D4_MASK) SET(LCD_D4_OUT, LCD_D4); else CLR(LCD_D4_OUT, LCD_D4);
 8000dd4:	79fb      	ldrb	r3, [r7, #7]
 8000dd6:	f003 0310 	and.w	r3, r3, #16
 8000dda:	2b00      	cmp	r3, #0
 8000ddc:	d006      	beq.n	8000dec <lcdHigh+0x8c>
 8000dde:	4b09      	ldr	r3, [pc, #36]	@ (8000e04 <lcdHigh+0xa4>)
 8000de0:	695b      	ldr	r3, [r3, #20]
 8000de2:	4a08      	ldr	r2, [pc, #32]	@ (8000e04 <lcdHigh+0xa4>)
 8000de4:	f443 5380 	orr.w	r3, r3, #4096	@ 0x1000
 8000de8:	6153      	str	r3, [r2, #20]
}
 8000dea:	e005      	b.n	8000df8 <lcdHigh+0x98>
	if(data & LCD_D4_MASK) SET(LCD_D4_OUT, LCD_D4); else CLR(LCD_D4_OUT, LCD_D4);
 8000dec:	4b05      	ldr	r3, [pc, #20]	@ (8000e04 <lcdHigh+0xa4>)
 8000dee:	695b      	ldr	r3, [r3, #20]
 8000df0:	4a04      	ldr	r2, [pc, #16]	@ (8000e04 <lcdHigh+0xa4>)
 8000df2:	f423 5380 	bic.w	r3, r3, #4096	@ 0x1000
 8000df6:	6153      	str	r3, [r2, #20]
}
 8000df8:	bf00      	nop
 8000dfa:	370c      	adds	r7, #12
 8000dfc:	46bd      	mov	sp, r7
 8000dfe:	f85d 7b04 	ldr.w	r7, [sp], #4
 8000e02:	4770      	bx	lr
 8000e04:	40021000 	.word	0x40021000

08000e08 <lcdLow>:

/*!	\brief	Send the lsb nibble of the data / command to LCD. */
static void lcdLow(uint8_t data)
{/* Low level function. */
 8000e08:	b480      	push	{r7}
 8000e0a:	b083      	sub	sp, #12
 8000e0c:	af00      	add	r7, sp, #0
 8000e0e:	4603      	mov	r3, r0
 8000e10:	71fb      	strb	r3, [r7, #7]
	if(data & LCD_D3_MASK) SET(LCD_D7_OUT, LCD_D7); else CLR(LCD_D7_OUT, LCD_D7);
 8000e12:	79fb      	ldrb	r3, [r7, #7]
 8000e14:	f003 0308 	and.w	r3, r3, #8
 8000e18:	2b00      	cmp	r3, #0
 8000e1a:	d006      	beq.n	8000e2a <lcdLow+0x22>
 8000e1c:	4b24      	ldr	r3, [pc, #144]	@ (8000eb0 <lcdLow+0xa8>)
 8000e1e:	695b      	ldr	r3, [r3, #20]
 8000e20:	4a23      	ldr	r2, [pc, #140]	@ (8000eb0 <lcdLow+0xa8>)
 8000e22:	f443 4300 	orr.w	r3, r3, #32768	@ 0x8000
 8000e26:	6153      	str	r3, [r2, #20]
 8000e28:	e005      	b.n	8000e36 <lcdLow+0x2e>
 8000e2a:	4b21      	ldr	r3, [pc, #132]	@ (8000eb0 <lcdLow+0xa8>)
 8000e2c:	695b      	ldr	r3, [r3, #20]
 8000e2e:	4a20      	ldr	r2, [pc, #128]	@ (8000eb0 <lcdLow+0xa8>)
 8000e30:	f423 4300 	bic.w	r3, r3, #32768	@ 0x8000
 8000e34:	6153      	str	r3, [r2, #20]
	if(data & LCD_D2_MASK) SET(LCD_D6_OUT, LCD_D6); else CLR(LCD_D6_OUT, LCD_D6);
 8000e36:	79fb      	ldrb	r3, [r7, #7]
 8000e38:	f003 0304 	and.w	r3, r3, #4
 8000e3c:	2b00      	cmp	r3, #0
 8000e3e:	d006      	beq.n	8000e4e <lcdLow+0x46>
 8000e40:	4b1b      	ldr	r3, [pc, #108]	@ (8000eb0 <lcdLow+0xa8>)
 8000e42:	695b      	ldr	r3, [r3, #20]
 8000e44:	4a1a      	ldr	r2, [pc, #104]	@ (8000eb0 <lcdLow+0xa8>)
 8000e46:	f443 4380 	orr.w	r3, r3, #16384	@ 0x4000
 8000e4a:	6153      	str	r3, [r2, #20]
 8000e4c:	e005      	b.n	8000e5a <lcdLow+0x52>
 8000e4e:	4b18      	ldr	r3, [pc, #96]	@ (8000eb0 <lcdLow+0xa8>)
 8000e50:	695b      	ldr	r3, [r3, #20]
 8000e52:	4a17      	ldr	r2, [pc, #92]	@ (8000eb0 <lcdLow+0xa8>)
 8000e54:	f423 4380 	bic.w	r3, r3, #16384	@ 0x4000
 8000e58:	6153      	str	r3, [r2, #20]
	if(data & LCD_D1_MASK) SET(LCD_D5_OUT, LCD_D5); else CLR(LCD_D5_OUT, LCD_D5);
 8000e5a:	79fb      	ldrb	r3, [r7, #7]
 8000e5c:	f003 0302 	and.w	r3, r3, #2
 8000e60:	2b00      	cmp	r3, #0
 8000e62:	d006      	beq.n	8000e72 <lcdLow+0x6a>
 8000e64:	4b12      	ldr	r3, [pc, #72]	@ (8000eb0 <lcdLow+0xa8>)
 8000e66:	695b      	ldr	r3, [r3, #20]
 8000e68:	4a11      	ldr	r2, [pc, #68]	@ (8000eb0 <lcdLow+0xa8>)
 8000e6a:	f443 5300 	orr.w	r3, r3, #8192	@ 0x2000
 8000e6e:	6153      	str	r3, [r2, #20]
 8000e70:	e005      	b.n	8000e7e <lcdLow+0x76>
 8000e72:	4b0f      	ldr	r3, [pc, #60]	@ (8000eb0 <lcdLow+0xa8>)
 8000e74:	695b      	ldr	r3, [r3, #20]
 8000e76:	4a0e      	ldr	r2, [pc, #56]	@ (8000eb0 <lcdLow+0xa8>)
 8000e78:	f423 5300 	bic.w	r3, r3, #8192	@ 0x2000
 8000e7c:	6153      	str	r3, [r2, #20]
	if(data & LCD_D0_MASK) SET(LCD_D4_OUT, LCD_D4); else CLR(LCD_D4_OUT, LCD_D4);
 8000e7e:	79fb      	ldrb	r3, [r7, #7]
 8000e80:	f003 0301 	and.w	r3, r3, #1
 8000e84:	2b00      	cmp	r3, #0
 8000e86:	d006      	beq.n	8000e96 <lcdLow+0x8e>
 8000e88:	4b09      	ldr	r3, [pc, #36]	@ (8000eb0 <lcdLow+0xa8>)
 8000e8a:	695b      	ldr	r3, [r3, #20]
 8000e8c:	4a08      	ldr	r2, [pc, #32]	@ (8000eb0 <lcdLow+0xa8>)
 8000e8e:	f443 5380 	orr.w	r3, r3, #4096	@ 0x1000
 8000e92:	6153      	str	r3, [r2, #20]
}
 8000e94:	e005      	b.n	8000ea2 <lcdLow+0x9a>
	if(data & LCD_D0_MASK) SET(LCD_D4_OUT, LCD_D4); else CLR(LCD_D4_OUT, LCD_D4);
 8000e96:	4b06      	ldr	r3, [pc, #24]	@ (8000eb0 <lcdLow+0xa8>)
 8000e98:	695b      	ldr	r3, [r3, #20]
 8000e9a:	4a05      	ldr	r2, [pc, #20]	@ (8000eb0 <lcdLow+0xa8>)
 8000e9c:	f423 5380 	bic.w	r3, r3, #4096	@ 0x1000
 8000ea0:	6153      	str	r3, [r2, #20]
}
 8000ea2:	bf00      	nop
 8000ea4:	370c      	adds	r7, #12
 8000ea6:	46bd      	mov	sp, r7
 8000ea8:	f85d 7b04 	ldr.w	r7, [sp], #4
 8000eac:	4770      	bx	lr
 8000eae:	bf00      	nop
 8000eb0:	40021000 	.word	0x40021000

08000eb4 <lcdWrite>:

/*!	\brief	Send data/commands to the display. */
static void lcdWrite(uint8_t data)
{/* Low level function. */
 8000eb4:	b580      	push	{r7, lr}
 8000eb6:	b082      	sub	sp, #8
 8000eb8:	af00      	add	r7, sp, #0
 8000eba:	4603      	mov	r3, r0
 8000ebc:	71fb      	strb	r3, [r7, #7]
#if (USE_BUSY_FLAG)
	/* Write data/commands to LCD. */
	CLR(LCD_RW_OUT, LCD_RW);
#endif /* USE_BUSY_FLAG */

	lcdHigh(data);
 8000ebe:	79fb      	ldrb	r3, [r7, #7]
 8000ec0:	4618      	mov	r0, r3
 8000ec2:	f7ff ff4d 	bl	8000d60 <lcdHigh>
	lcdStrobe();
 8000ec6:	f7ff ff35 	bl	8000d34 <lcdStrobe>
	lcdLow(data);
 8000eca:	79fb      	ldrb	r3, [r7, #7]
 8000ecc:	4618      	mov	r0, r3
 8000ece:	f7ff ff9b 	bl	8000e08 <lcdLow>
	lcdStrobe();
 8000ed2:	f7ff ff2f 	bl	8000d34 <lcdStrobe>

	/* The busy flag must be checked after the 4-bit data has been transferred twice. */
#if (USE_BUSY_FLAG)
	lcd_busy_delay();
#else
	lcd10usDelay(BUSY_CYCLE_TIME);
 8000ed6:	2005      	movs	r0, #5
 8000ed8:	f7ff ff0c 	bl	8000cf4 <lcd10usDelay>
#endif /* USE_BUSY_FLAG */
}
 8000edc:	bf00      	nop
 8000ede:	3708      	adds	r7, #8
 8000ee0:	46bd      	mov	sp, r7
 8000ee2:	bd80      	pop	{r7, pc}

08000ee4 <lcdConfig>:

/*!	\brief	Initializing by instruction. 4-bit interface initialization. */
static void lcdConfig(uint8_t param)
{/* Low level function. */
 8000ee4:	b580      	push	{r7, lr}
 8000ee6:	b082      	sub	sp, #8
 8000ee8:	af00      	add	r7, sp, #0
 8000eea:	4603      	mov	r3, r0
 8000eec:	71fb      	strb	r3, [r7, #7]
	/* Send commands to LCD. */
	CLR(LCD_RS_OUT, LCD_RS);
 8000eee:	4b10      	ldr	r3, [pc, #64]	@ (8000f30 <lcdConfig+0x4c>)
 8000ef0:	695b      	ldr	r3, [r3, #20]
 8000ef2:	4a0f      	ldr	r2, [pc, #60]	@ (8000f30 <lcdConfig+0x4c>)
 8000ef4:	f023 0380 	bic.w	r3, r3, #128	@ 0x80
 8000ef8:	6153      	str	r3, [r2, #20]
#if (USE_BUSY_FLAG)
	/* Write data/commands to LCD. */
	CLR(LCD_RW_OUT, LCD_RW);
#endif /* USE_BUSY_FLAG */

	lcdHigh(param);
 8000efa:	79fb      	ldrb	r3, [r7, #7]
 8000efc:	4618      	mov	r0, r3
 8000efe:	f7ff ff2f 	bl	8000d60 <lcdHigh>
	lcdStrobe();		// Change 8-bit interface to 4-bit interface
 8000f02:	f7ff ff17 	bl	8000d34 <lcdStrobe>
	lcd10usDelay(BUSY_CYCLE_TIME);
 8000f06:	2005      	movs	r0, #5
 8000f08:	f7ff fef4 	bl	8000cf4 <lcd10usDelay>
	lcdStrobe();		/* DB7 to DB4 of the "Function set" instruction is written twice. */
 8000f0c:	f7ff ff12 	bl	8000d34 <lcdStrobe>
	lcd10usDelay(BUSY_CYCLE_TIME);
 8000f10:	2005      	movs	r0, #5
 8000f12:	f7ff feef 	bl	8000cf4 <lcd10usDelay>
	lcdLow(param);
 8000f16:	79fb      	ldrb	r3, [r7, #7]
 8000f18:	4618      	mov	r0, r3
 8000f1a:	f7ff ff75 	bl	8000e08 <lcdLow>
	lcdStrobe();		// 4-bit, two lines, 5x8 pixel
 8000f1e:	f7ff ff09 	bl	8000d34 <lcdStrobe>
	lcd10usDelay(BUSY_CYCLE_TIME);
 8000f22:	2005      	movs	r0, #5
 8000f24:	f7ff fee6 	bl	8000cf4 <lcd10usDelay>
	/* Note: The number of display lines and character font cannot be changed after this point. */
}
 8000f28:	bf00      	nop
 8000f2a:	3708      	adds	r7, #8
 8000f2c:	46bd      	mov	sp, r7
 8000f2e:	bd80      	pop	{r7, pc}
 8000f30:	40021000 	.word	0x40021000

08000f34 <lcdClrScr>:
 * 				and returns the display to its original status if it was shifted.
 * 				In other words, the display disappears and the cursor
 * 				or blinking goes to the left edge of the display (in the first line if 2 lines are displayed).
 * 				It also sets I/D to 1 (increment mode) in entry mode (S of entry mode does not change). */
void lcdClrScr(void)
{
 8000f34:	b580      	push	{r7, lr}
 8000f36:	af00      	add	r7, sp, #0
	/* Send a command to LCD. */
	CLR(LCD_RS_OUT, LCD_RS);
 8000f38:	4b06      	ldr	r3, [pc, #24]	@ (8000f54 <lcdClrScr+0x20>)
 8000f3a:	695b      	ldr	r3, [r3, #20]
 8000f3c:	4a05      	ldr	r2, [pc, #20]	@ (8000f54 <lcdClrScr+0x20>)
 8000f3e:	f023 0380 	bic.w	r3, r3, #128	@ 0x80
 8000f42:	6153      	str	r3, [r2, #20]
	/* Clear screen */
	lcdWrite(0x01u);
 8000f44:	2001      	movs	r0, #1
 8000f46:	f7ff ffb5 	bl	8000eb4 <lcdWrite>
	/* Busy delay */
#if (USE_BUSY_FLAG)
	lcd_busy_delay();
#else
	lcd10usDelay(CLRSCR_CYCLE_TIME);
 8000f4a:	20c8      	movs	r0, #200	@ 0xc8
 8000f4c:	f7ff fed2 	bl	8000cf4 <lcd10usDelay>
#endif /* USE_BUSY_FLAG */
}
 8000f50:	bf00      	nop
 8000f52:	bd80      	pop	{r7, pc}
 8000f54:	40021000 	.word	0x40021000

08000f58 <lcdReturn>:
 * 				and returns the display to its original status if it was shifted.
 * 				The DDRAM contents do not change.
 * 				The cursor or blinking go to the left edge of the display
 * 				(in the first line if 2 lines are displayed). */
void lcdReturn(void)
{
 8000f58:	b580      	push	{r7, lr}
 8000f5a:	af00      	add	r7, sp, #0
	/* Send a command to LCD. */
	CLR(LCD_RS_OUT, LCD_RS);
 8000f5c:	4b06      	ldr	r3, [pc, #24]	@ (8000f78 <lcdReturn+0x20>)
 8000f5e:	695b      	ldr	r3, [r3, #20]
 8000f60:	4a05      	ldr	r2, [pc, #20]	@ (8000f78 <lcdReturn+0x20>)
 8000f62:	f023 0380 	bic.w	r3, r3, #128	@ 0x80
 8000f66:	6153      	str	r3, [r2, #20]
	/* Return home */
	lcdWrite(0x02u);
 8000f68:	2002      	movs	r0, #2
 8000f6a:	f7ff ffa3 	bl	8000eb4 <lcdWrite>
	/* Busy delay */
#if (USE_BUSY_FLAG)
	lcd_busy_delay();
#else
	lcd10usDelay(RETHOME_CYCLE_TIME);
 8000f6e:	20c8      	movs	r0, #200	@ 0xc8
 8000f70:	f7ff fec0 	bl	8000cf4 <lcd10usDelay>
#endif /* USE_BUSY_FLAG */
}
 8000f74:	bf00      	nop
 8000f76:	bd80      	pop	{r7, pc}
 8000f78:	40021000 	.word	0x40021000

08000f7c <cursorShift>:
 * 				without writing or reading display data.
 * 				This function is used to correct or search the display.
 * 				In a 2-line display, the cursor moves to the second line
 * 				when it passes the 40th digit of the first line. */
void cursorShift(uint8_t direction)
{
 8000f7c:	b580      	push	{r7, lr}
 8000f7e:	b082      	sub	sp, #8
 8000f80:	af00      	add	r7, sp, #0
 8000f82:	4603      	mov	r3, r0
 8000f84:	71fb      	strb	r3, [r7, #7]
	/* Send a command to LCD. */
	CLR(LCD_RS_OUT, LCD_RS);
 8000f86:	4b0c      	ldr	r3, [pc, #48]	@ (8000fb8 <cursorShift+0x3c>)
 8000f88:	695b      	ldr	r3, [r3, #20]
 8000f8a:	4a0b      	ldr	r2, [pc, #44]	@ (8000fb8 <cursorShift+0x3c>)
 8000f8c:	f023 0380 	bic.w	r3, r3, #128	@ 0x80
 8000f90:	6153      	str	r3, [r2, #20]
	/* Shift cursor */
	switch (direction)
 8000f92:	79fb      	ldrb	r3, [r7, #7]
 8000f94:	2b3c      	cmp	r3, #60	@ 0x3c
 8000f96:	d002      	beq.n	8000f9e <cursorShift+0x22>
 8000f98:	2b3e      	cmp	r3, #62	@ 0x3e
 8000f9a:	d004      	beq.n	8000fa6 <cursorShift+0x2a>
			lcdWrite(0x14u);
			break;

		default:
			/* Ignore this command */
			break;
 8000f9c:	e007      	b.n	8000fae <cursorShift+0x32>
			lcdWrite(0x10u);
 8000f9e:	2010      	movs	r0, #16
 8000fa0:	f7ff ff88 	bl	8000eb4 <lcdWrite>
			break;
 8000fa4:	e003      	b.n	8000fae <cursorShift+0x32>
			lcdWrite(0x14u);
 8000fa6:	2014      	movs	r0, #20
 8000fa8:	f7ff ff84 	bl	8000eb4 <lcdWrite>
			break;
 8000fac:	bf00      	nop
	}
}
 8000fae:	bf00      	nop
 8000fb0:	3708      	adds	r7, #8
 8000fb2:	46bd      	mov	sp, r7
 8000fb4:	bd80      	pop	{r7, pc}
 8000fb6:	bf00      	nop
 8000fb8:	40021000 	.word	0x40021000

08000fbc <lcdGoto>:

/*!	\details	Go to the specified (DDRAM/CGRAM) memory address.*/
void lcdGoto(uint8_t line, uint8_t address)
{
 8000fbc:	b580      	push	{r7, lr}
 8000fbe:	b082      	sub	sp, #8
 8000fc0:	af00      	add	r7, sp, #0
 8000fc2:	4603      	mov	r3, r0
 8000fc4:	460a      	mov	r2, r1
 8000fc6:	71fb      	strb	r3, [r7, #7]
 8000fc8:	4613      	mov	r3, r2
 8000fca:	71bb      	strb	r3, [r7, #6]
	/* Send a command to LCD. */
	CLR(LCD_RS_OUT, LCD_RS);
 8000fcc:	4b22      	ldr	r3, [pc, #136]	@ (8001058 <lcdGoto+0x9c>)
 8000fce:	695b      	ldr	r3, [r3, #20]
 8000fd0:	4a21      	ldr	r2, [pc, #132]	@ (8001058 <lcdGoto+0x9c>)
 8000fd2:	f023 0380 	bic.w	r3, r3, #128	@ 0x80
 8000fd6:	6153      	str	r3, [r2, #20]
	/* Set DDRAM/CGRAM address. */
	switch (line)
 8000fd8:	79fb      	ldrb	r3, [r7, #7]
 8000fda:	3b01      	subs	r3, #1
 8000fdc:	2b04      	cmp	r3, #4
 8000fde:	d835      	bhi.n	800104c <lcdGoto+0x90>
 8000fe0:	a201      	add	r2, pc, #4	@ (adr r2, 8000fe8 <lcdGoto+0x2c>)
 8000fe2:	f852 f023 	ldr.w	pc, [r2, r3, lsl #2]
 8000fe6:	bf00      	nop
 8000fe8:	08000ffd 	.word	0x08000ffd
 8000fec:	0800100d 	.word	0x0800100d
 8000ff0:	0800101d 	.word	0x0800101d
 8000ff4:	0800102d 	.word	0x0800102d
 8000ff8:	0800103d 	.word	0x0800103d
	{
		/* Set DDRAM address. */
		case LCD_1st_LINE: lcdWrite(0x80u | START_ADDRESS_1st_LINE | address); break;
 8000ffc:	79bb      	ldrb	r3, [r7, #6]
 8000ffe:	f063 037f 	orn	r3, r3, #127	@ 0x7f
 8001002:	b2db      	uxtb	r3, r3
 8001004:	4618      	mov	r0, r3
 8001006:	f7ff ff55 	bl	8000eb4 <lcdWrite>
 800100a:	e020      	b.n	800104e <lcdGoto+0x92>
		case LCD_2nd_LINE: lcdWrite(0x80u | START_ADDRESS_2nd_LINE | address); break;
 800100c:	79bb      	ldrb	r3, [r7, #6]
 800100e:	f063 033f 	orn	r3, r3, #63	@ 0x3f
 8001012:	b2db      	uxtb	r3, r3
 8001014:	4618      	mov	r0, r3
 8001016:	f7ff ff4d 	bl	8000eb4 <lcdWrite>
 800101a:	e018      	b.n	800104e <lcdGoto+0x92>
		case LCD_3rd_LINE: lcdWrite(0x80u | START_ADDRESS_3rd_LINE | address); break;
 800101c:	79bb      	ldrb	r3, [r7, #6]
 800101e:	f063 036f 	orn	r3, r3, #111	@ 0x6f
 8001022:	b2db      	uxtb	r3, r3
 8001024:	4618      	mov	r0, r3
 8001026:	f7ff ff45 	bl	8000eb4 <lcdWrite>
 800102a:	e010      	b.n	800104e <lcdGoto+0x92>
		case LCD_4th_LINE: lcdWrite(0x80u | START_ADDRESS_4th_LINE | address); break;
 800102c:	79bb      	ldrb	r3, [r7, #6]
 800102e:	f063 032f 	orn	r3, r3, #47	@ 0x2f
 8001032:	b2db      	uxtb	r3, r3
 8001034:	4618      	mov	r0, r3
 8001036:	f7ff ff3d 	bl	8000eb4 <lcdWrite>
 800103a:	e008      	b.n	800104e <lcdGoto+0x92>
		/* Set CGRAM address. */
		case CGRAM : lcdWrite(0x40u | address); break;
 800103c:	79bb      	ldrb	r3, [r7, #6]
 800103e:	f043 0340 	orr.w	r3, r3, #64	@ 0x40
 8001042:	b2db      	uxtb	r3, r3
 8001044:	4618      	mov	r0, r3
 8001046:	f7ff ff35 	bl	8000eb4 <lcdWrite>
 800104a:	e000      	b.n	800104e <lcdGoto+0x92>

		default:
			/* Ignore this command */
			break;
 800104c:	bf00      	nop
	}
}
 800104e:	bf00      	nop
 8001050:	3708      	adds	r7, #8
 8001052:	46bd      	mov	sp, r7
 8001054:	bd80      	pop	{r7, pc}
 8001056:	bf00      	nop
 8001058:	40021000 	.word	0x40021000

0800105c <lcdSetMode>:

/*!	\details	Change LCD settings. */
void lcdSetMode(uint8_t param)
{
 800105c:	b580      	push	{r7, lr}
 800105e:	b082      	sub	sp, #8
 8001060:	af00      	add	r7, sp, #0
 8001062:	4603      	mov	r3, r0
 8001064:	71fb      	strb	r3, [r7, #7]
	/* Send a command to LCD. */
	CLR(LCD_RS_OUT, LCD_RS);
 8001066:	4b07      	ldr	r3, [pc, #28]	@ (8001084 <lcdSetMode+0x28>)
 8001068:	695b      	ldr	r3, [r3, #20]
 800106a:	4a06      	ldr	r2, [pc, #24]	@ (8001084 <lcdSetMode+0x28>)
 800106c:	f023 0380 	bic.w	r3, r3, #128	@ 0x80
 8001070:	6153      	str	r3, [r2, #20]
	lcdWrite(param);
 8001072:	79fb      	ldrb	r3, [r7, #7]
 8001074:	4618      	mov	r0, r3
 8001076:	f7ff ff1d 	bl	8000eb4 <lcdWrite>
}
 800107a:	bf00      	nop
 800107c:	3708      	adds	r7, #8
 800107e:	46bd      	mov	sp, r7
 8001080:	bd80      	pop	{r7, pc}
 8001082:	bf00      	nop
 8001084:	40021000 	.word	0x40021000

08001088 <lcdPutc>:

/*!	\details	Write a single char to the current memory space (DDRAM/CGRAM). */
void lcdPutc(uint8_t data)
{
 8001088:	b580      	push	{r7, lr}
 800108a:	b082      	sub	sp, #8
 800108c:	af00      	add	r7, sp, #0
 800108e:	4603      	mov	r3, r0
 8001090:	71fb      	strb	r3, [r7, #7]
	/* Send data to LCD. */
	SET(LCD_RS_OUT, LCD_RS);
 8001092:	4b08      	ldr	r3, [pc, #32]	@ (80010b4 <lcdPutc+0x2c>)
 8001094:	695b      	ldr	r3, [r3, #20]
 8001096:	4a07      	ldr	r2, [pc, #28]	@ (80010b4 <lcdPutc+0x2c>)
 8001098:	f043 0380 	orr.w	r3, r3, #128	@ 0x80
 800109c:	6153      	str	r3, [r2, #20]
	lcdWrite(data);
 800109e:	79fb      	ldrb	r3, [r7, #7]
 80010a0:	4618      	mov	r0, r3
 80010a2:	f7ff ff07 	bl	8000eb4 <lcdWrite>
	/* Note:
	 * After execution of the CGRAM/DDRAM data write/read instruction, the RAM address counter is incremented
	 * or decremented by 1. The RAM address counter is updated after the busy flag turns off.
	 * tADD is the time elapsed after the busy flag turns off until the address counter is updated. */
	lcd10usDelay(AC_UPDATE_TIME);	/* Update RAM address counter delay. */
 80010a6:	2001      	movs	r0, #1
 80010a8:	f7ff fe24 	bl	8000cf4 <lcd10usDelay>
}
 80010ac:	bf00      	nop
 80010ae:	3708      	adds	r7, #8
 80010b0:	46bd      	mov	sp, r7
 80010b2:	bd80      	pop	{r7, pc}
 80010b4:	40021000 	.word	0x40021000

080010b8 <lcdPuts>:

/*!	\details	Writes ANSI-C string to LCD (DDRAM memory space). */
//void lcdPuts(const uint8_t *str)
void lcdPuts(const char *str)
{
 80010b8:	b580      	push	{r7, lr}
 80010ba:	b084      	sub	sp, #16
 80010bc:	af00      	add	r7, sp, #0
 80010be:	6078      	str	r0, [r7, #4]
	/* Send a ANSI-C string to LCD. */
	while ('\0' != *str)
 80010c0:	e028      	b.n	8001114 <lcdPuts+0x5c>
	{
#if ( USE_FORMATTED_OUTPUT )
		if(('\n' == *str))
 80010c2:	687b      	ldr	r3, [r7, #4]
 80010c4:	781b      	ldrb	r3, [r3, #0]
 80010c6:	2b0a      	cmp	r3, #10
 80010c8:	d104      	bne.n	80010d4 <lcdPuts+0x1c>
		{/*New line */
			lcdGoto(LCD_2nd_LINE, 0u);
 80010ca:	2100      	movs	r1, #0
 80010cc:	2002      	movs	r0, #2
 80010ce:	f7ff ff75 	bl	8000fbc <lcdGoto>
 80010d2:	e01c      	b.n	800110e <lcdPuts+0x56>
		}
		else if(('\r' == *str))
 80010d4:	687b      	ldr	r3, [r7, #4]
 80010d6:	781b      	ldrb	r3, [r3, #0]
 80010d8:	2b0d      	cmp	r3, #13
 80010da:	d102      	bne.n	80010e2 <lcdPuts+0x2a>
		{/* Return home */
			lcdReturn();
 80010dc:	f7ff ff3c 	bl	8000f58 <lcdReturn>
 80010e0:	e015      	b.n	800110e <lcdPuts+0x56>
		}
		else if(('\t' == *str))
 80010e2:	687b      	ldr	r3, [r7, #4]
 80010e4:	781b      	ldrb	r3, [r3, #0]
 80010e6:	2b09      	cmp	r3, #9
 80010e8:	d10c      	bne.n	8001104 <lcdPuts+0x4c>
		{/* Tab space */
			uint8_t i;

			for(i=0u; i<TAB_SPACE; i++)
 80010ea:	2300      	movs	r3, #0
 80010ec:	73fb      	strb	r3, [r7, #15]
 80010ee:	e005      	b.n	80010fc <lcdPuts+0x44>
			{/* Shift cursor to the right. */
				cursorShift(RIGHT);
 80010f0:	203e      	movs	r0, #62	@ 0x3e
 80010f2:	f7ff ff43 	bl	8000f7c <cursorShift>
			for(i=0u; i<TAB_SPACE; i++)
 80010f6:	7bfb      	ldrb	r3, [r7, #15]
 80010f8:	3301      	adds	r3, #1
 80010fa:	73fb      	strb	r3, [r7, #15]
 80010fc:	7bfb      	ldrb	r3, [r7, #15]
 80010fe:	2b03      	cmp	r3, #3
 8001100:	d9f6      	bls.n	80010f0 <lcdPuts+0x38>
 8001102:	e004      	b.n	800110e <lcdPuts+0x56>
		}
		else
#endif
		{
			/* Display a symbol. */
			lcdPutc(*str);
 8001104:	687b      	ldr	r3, [r7, #4]
 8001106:	781b      	ldrb	r3, [r3, #0]
 8001108:	4618      	mov	r0, r3
 800110a:	f7ff ffbd 	bl	8001088 <lcdPutc>
		}
		/* Get the next symbol. */
		str++;
 800110e:	687b      	ldr	r3, [r7, #4]
 8001110:	3301      	adds	r3, #1
 8001112:	607b      	str	r3, [r7, #4]
	while ('\0' != *str)
 8001114:	687b      	ldr	r3, [r7, #4]
 8001116:	781b      	ldrb	r3, [r3, #0]
 8001118:	2b00      	cmp	r3, #0
 800111a:	d1d2      	bne.n	80010c2 <lcdPuts+0xa>
	}
}
 800111c:	bf00      	nop
 800111e:	bf00      	nop
 8001120:	3710      	adds	r7, #16
 8001122:	46bd      	mov	sp, r7
 8001124:	bd80      	pop	{r7, pc}

08001126 <lcdLoadChar>:

/*!	\details	Load the user-defined symbol into the CGRAM memory. */
void lcdLoadChar(uint8_t* vector, uint8_t position)
{
 8001126:	b580      	push	{r7, lr}
 8001128:	b084      	sub	sp, #16
 800112a:	af00      	add	r7, sp, #0
 800112c:	6078      	str	r0, [r7, #4]
 800112e:	460b      	mov	r3, r1
 8001130:	70fb      	strb	r3, [r7, #3]
	uint8_t i;
	/* Go to the CGRAM memory space: 0 to 7 */
	lcdGoto(CGRAM, (position * FONT_HEIGHT));
 8001132:	78fb      	ldrb	r3, [r7, #3]
 8001134:	00db      	lsls	r3, r3, #3
 8001136:	b2db      	uxtb	r3, r3
 8001138:	4619      	mov	r1, r3
 800113a:	2005      	movs	r0, #5
 800113c:	f7ff ff3e 	bl	8000fbc <lcdGoto>

	for(i = 0u; i < FONT_HEIGHT; i++)
 8001140:	2300      	movs	r3, #0
 8001142:	73fb      	strb	r3, [r7, #15]
 8001144:	e009      	b.n	800115a <lcdLoadChar+0x34>
	{/* Load one row of pixels into the CGRAM register. */
		lcdPutc(vector[i]);
 8001146:	7bfb      	ldrb	r3, [r7, #15]
 8001148:	687a      	ldr	r2, [r7, #4]
 800114a:	4413      	add	r3, r2
 800114c:	781b      	ldrb	r3, [r3, #0]
 800114e:	4618      	mov	r0, r3
 8001150:	f7ff ff9a 	bl	8001088 <lcdPutc>
	for(i = 0u; i < FONT_HEIGHT; i++)
 8001154:	7bfb      	ldrb	r3, [r7, #15]
 8001156:	3301      	adds	r3, #1
 8001158:	73fb      	strb	r3, [r7, #15]
 800115a:	7bfb      	ldrb	r3, [r7, #15]
 800115c:	2b07      	cmp	r3, #7
 800115e:	d9f2      	bls.n	8001146 <lcdLoadChar+0x20>
	}

	/* Return to the DDRAM memory space. */
	lcdGoto(LCD_1st_LINE, 0u);
 8001160:	2100      	movs	r1, #0
 8001162:	2001      	movs	r0, #1
 8001164:	f7ff ff2a 	bl	8000fbc <lcdGoto>
}
 8001168:	bf00      	nop
 800116a:	3710      	adds	r7, #16
 800116c:	46bd      	mov	sp, r7
 800116e:	bd80      	pop	{r7, pc}

08001170 <lcdPow10>:
	cursorShift(LEFT);		// Ðóõàºìî êóðñîð íà îäíó ïîçèö³þ âë³âî
}

/*!	\brief	Returns 10^n value. */
static uint32_t lcdPow10(uint8_t n)
{
 8001170:	b480      	push	{r7}
 8001172:	b085      	sub	sp, #20
 8001174:	af00      	add	r7, sp, #0
 8001176:	4603      	mov	r3, r0
 8001178:	71fb      	strb	r3, [r7, #7]
	uint32_t retval = 1u;
 800117a:	2301      	movs	r3, #1
 800117c:	60fb      	str	r3, [r7, #12]

	while (n > 0u)
 800117e:	e008      	b.n	8001192 <lcdPow10+0x22>
	{
		retval *= 10u;
 8001180:	68fa      	ldr	r2, [r7, #12]
 8001182:	4613      	mov	r3, r2
 8001184:	009b      	lsls	r3, r3, #2
 8001186:	4413      	add	r3, r2
 8001188:	005b      	lsls	r3, r3, #1
 800118a:	60fb      	str	r3, [r7, #12]
		n--;
 800118c:	79fb      	ldrb	r3, [r7, #7]
 800118e:	3b01      	subs	r3, #1
 8001190:	71fb      	strb	r3, [r7, #7]
	while (n > 0u)
 8001192:	79fb      	ldrb	r3, [r7, #7]
 8001194:	2b00      	cmp	r3, #0
 8001196:	d1f3      	bne.n	8001180 <lcdPow10+0x10>
	}

	return retval;
 8001198:	68fb      	ldr	r3, [r7, #12]
}
 800119a:	4618      	mov	r0, r3
 800119c:	3714      	adds	r7, #20
 800119e:	46bd      	mov	sp, r7
 80011a0:	f85d 7b04 	ldr.w	r7, [sp], #4
 80011a4:	4770      	bx	lr
	...

080011a8 <lcdItos>:

/*!	\brief	Display a integer number: +/- 2147483647. */
void lcdItos(int32_t value)
{
 80011a8:	b580      	push	{r7, lr}
 80011aa:	b084      	sub	sp, #16
 80011ac:	af00      	add	r7, sp, #0
 80011ae:	6078      	str	r0, [r7, #4]
	int32_t i;

	if (value < 0)
 80011b0:	687b      	ldr	r3, [r7, #4]
 80011b2:	2b00      	cmp	r3, #0
 80011b4:	da05      	bge.n	80011c2 <lcdItos+0x1a>
	{
		lcdPutc('-');
 80011b6:	202d      	movs	r0, #45	@ 0x2d
 80011b8:	f7ff ff66 	bl	8001088 <lcdPutc>
		value = -value;
 80011bc:	687b      	ldr	r3, [r7, #4]
 80011be:	425b      	negs	r3, r3
 80011c0:	607b      	str	r3, [r7, #4]
	}

	i = 1;
 80011c2:	2301      	movs	r3, #1
 80011c4:	60fb      	str	r3, [r7, #12]
	while ((value / i) > 9)
 80011c6:	e005      	b.n	80011d4 <lcdItos+0x2c>
	{
		i *= 10;
 80011c8:	68fa      	ldr	r2, [r7, #12]
 80011ca:	4613      	mov	r3, r2
 80011cc:	009b      	lsls	r3, r3, #2
 80011ce:	4413      	add	r3, r2
 80011d0:	005b      	lsls	r3, r3, #1
 80011d2:	60fb      	str	r3, [r7, #12]
	while ((value / i) > 9)
 80011d4:	687a      	ldr	r2, [r7, #4]
 80011d6:	68fb      	ldr	r3, [r7, #12]
 80011d8:	fb92 f3f3 	sdiv	r3, r2, r3
 80011dc:	2b09      	cmp	r3, #9
 80011de:	dcf3      	bgt.n	80011c8 <lcdItos+0x20>
	}

	lcdPutc(value/i + '0');	/* Display at least one symbol */
 80011e0:	687a      	ldr	r2, [r7, #4]
 80011e2:	68fb      	ldr	r3, [r7, #12]
 80011e4:	fb92 f3f3 	sdiv	r3, r2, r3
 80011e8:	b2db      	uxtb	r3, r3
 80011ea:	3330      	adds	r3, #48	@ 0x30
 80011ec:	b2db      	uxtb	r3, r3
 80011ee:	4618      	mov	r0, r3
 80011f0:	f7ff ff4a 	bl	8001088 <lcdPutc>
	i /= 10;
 80011f4:	68fb      	ldr	r3, [r7, #12]
 80011f6:	4a16      	ldr	r2, [pc, #88]	@ (8001250 <lcdItos+0xa8>)
 80011f8:	fb82 1203 	smull	r1, r2, r2, r3
 80011fc:	1092      	asrs	r2, r2, #2
 80011fe:	17db      	asrs	r3, r3, #31
 8001200:	1ad3      	subs	r3, r2, r3
 8001202:	60fb      	str	r3, [r7, #12]

	while (i > 0)
 8001204:	e01c      	b.n	8001240 <lcdItos+0x98>
	{
		lcdPutc('0' + ((value % (i*10)) / i));
 8001206:	68fa      	ldr	r2, [r7, #12]
 8001208:	4613      	mov	r3, r2
 800120a:	009b      	lsls	r3, r3, #2
 800120c:	4413      	add	r3, r2
 800120e:	005b      	lsls	r3, r3, #1
 8001210:	461a      	mov	r2, r3
 8001212:	687b      	ldr	r3, [r7, #4]
 8001214:	fb93 f1f2 	sdiv	r1, r3, r2
 8001218:	fb01 f202 	mul.w	r2, r1, r2
 800121c:	1a9a      	subs	r2, r3, r2
 800121e:	68fb      	ldr	r3, [r7, #12]
 8001220:	fb92 f3f3 	sdiv	r3, r2, r3
 8001224:	b2db      	uxtb	r3, r3
 8001226:	3330      	adds	r3, #48	@ 0x30
 8001228:	b2db      	uxtb	r3, r3
 800122a:	4618      	mov	r0, r3
 800122c:	f7ff ff2c 	bl	8001088 <lcdPutc>
		i /= 10;
 8001230:	68fb      	ldr	r3, [r7, #12]
 8001232:	4a07      	ldr	r2, [pc, #28]	@ (8001250 <lcdItos+0xa8>)
 8001234:	fb82 1203 	smull	r1, r2, r2, r3
 8001238:	1092      	asrs	r2, r2, #2
 800123a:	17db      	asrs	r3, r3, #31
 800123c:	1ad3      	subs	r3, r2, r3
 800123e:	60fb      	str	r3, [r7, #12]
	while (i > 0)
 8001240:	68fb      	ldr	r3, [r7, #12]
 8001242:	2b00      	cmp	r3, #0
 8001244:	dcdf      	bgt.n	8001206 <lcdItos+0x5e>
	}
}
 8001246:	bf00      	nop
 8001248:	bf00      	nop
 800124a:	3710      	adds	r7, #16
 800124c:	46bd      	mov	sp, r7
 800124e:	bd80      	pop	{r7, pc}
 8001250:	66666667 	.word	0x66666667

08001254 <lcdFtos>:

/*!	\brief	Display a floating point number. */
void lcdFtos(float value, uint8_t n)
{
 8001254:	b580      	push	{r7, lr}
 8001256:	b082      	sub	sp, #8
 8001258:	af00      	add	r7, sp, #0
 800125a:	ed87 0a01 	vstr	s0, [r7, #4]
 800125e:	4603      	mov	r3, r0
 8001260:	70fb      	strb	r3, [r7, #3]
	if (value < 0.0)
 8001262:	edd7 7a01 	vldr	s15, [r7, #4]
 8001266:	eef5 7ac0 	vcmpe.f32	s15, #0.0
 800126a:	eef1 fa10 	vmrs	APSR_nzcv, fpscr
 800126e:	d508      	bpl.n	8001282 <lcdFtos+0x2e>
	{
		lcdPutc('-');
 8001270:	202d      	movs	r0, #45	@ 0x2d
 8001272:	f7ff ff09 	bl	8001088 <lcdPutc>
		value = -value;
 8001276:	edd7 7a01 	vldr	s15, [r7, #4]
 800127a:	eef1 7a67 	vneg.f32	s15, s15
 800127e:	edc7 7a01 	vstr	s15, [r7, #4]
	}

	lcdItos((int32_t)value); // Âèâ³ä ö³ëî¿ ÷àñòèíè
 8001282:	edd7 7a01 	vldr	s15, [r7, #4]
 8001286:	eefd 7ae7 	vcvt.s32.f32	s15, s15
 800128a:	ee17 0a90 	vmov	r0, s15
 800128e:	f7ff ff8b 	bl	80011a8 <lcdItos>

	if (n > 0u)
 8001292:	78fb      	ldrb	r3, [r7, #3]
 8001294:	2b00      	cmp	r3, #0
 8001296:	d016      	beq.n	80012c6 <lcdFtos+0x72>
	{
		lcdPutc('.'); // Êðàïêà
 8001298:	202e      	movs	r0, #46	@ 0x2e
 800129a:	f7ff fef5 	bl	8001088 <lcdPutc>

		lcdNtos((uint32_t)(value * (float)lcdPow10(n)), n); // Âèâ³ä äðîáîâî¿ ÷àñòèíè
 800129e:	78fb      	ldrb	r3, [r7, #3]
 80012a0:	4618      	mov	r0, r3
 80012a2:	f7ff ff65 	bl	8001170 <lcdPow10>
 80012a6:	ee07 0a90 	vmov	s15, r0
 80012aa:	eeb8 7a67 	vcvt.f32.u32	s14, s15
 80012ae:	edd7 7a01 	vldr	s15, [r7, #4]
 80012b2:	ee67 7a27 	vmul.f32	s15, s14, s15
 80012b6:	eefc 7ae7 	vcvt.u32.f32	s15, s15
 80012ba:	78fb      	ldrb	r3, [r7, #3]
 80012bc:	4619      	mov	r1, r3
 80012be:	ee17 0a90 	vmov	r0, s15
 80012c2:	f000 f805 	bl	80012d0 <lcdNtos>
	}
}
 80012c6:	bf00      	nop
 80012c8:	3708      	adds	r7, #8
 80012ca:	46bd      	mov	sp, r7
 80012cc:	bd80      	pop	{r7, pc}
	...

080012d0 <lcdNtos>:

/*!	\brief	Display "n" right digits of "value". */
void lcdNtos(uint32_t value, uint8_t n)
{
 80012d0:	b580      	push	{r7, lr}
 80012d2:	b084      	sub	sp, #16
 80012d4:	af00      	add	r7, sp, #0
 80012d6:	6078      	str	r0, [r7, #4]
 80012d8:	460b      	mov	r3, r1
 80012da:	70fb      	strb	r3, [r7, #3]
	if (n > 0u)
 80012dc:	78fb      	ldrb	r3, [r7, #3]
 80012de:	2b00      	cmp	r3, #0
 80012e0:	d023      	beq.n	800132a <lcdNtos+0x5a>
	{
		uint32_t i = lcdPow10(n - 1u);
 80012e2:	78fb      	ldrb	r3, [r7, #3]
 80012e4:	3b01      	subs	r3, #1
 80012e6:	b2db      	uxtb	r3, r3
 80012e8:	4618      	mov	r0, r3
 80012ea:	f7ff ff41 	bl	8001170 <lcdPow10>
 80012ee:	60f8      	str	r0, [r7, #12]

		while (i > 0u)	/* Display at least one symbol */
 80012f0:	e018      	b.n	8001324 <lcdNtos+0x54>
		{
			lcdPutc('0' + ((value/i) % 10u));
 80012f2:	687a      	ldr	r2, [r7, #4]
 80012f4:	68fb      	ldr	r3, [r7, #12]
 80012f6:	fbb2 f1f3 	udiv	r1, r2, r3
 80012fa:	4b0e      	ldr	r3, [pc, #56]	@ (8001334 <lcdNtos+0x64>)
 80012fc:	fba3 2301 	umull	r2, r3, r3, r1
 8001300:	08da      	lsrs	r2, r3, #3
 8001302:	4613      	mov	r3, r2
 8001304:	009b      	lsls	r3, r3, #2
 8001306:	4413      	add	r3, r2
 8001308:	005b      	lsls	r3, r3, #1
 800130a:	1aca      	subs	r2, r1, r3
 800130c:	b2d3      	uxtb	r3, r2
 800130e:	3330      	adds	r3, #48	@ 0x30
 8001310:	b2db      	uxtb	r3, r3
 8001312:	4618      	mov	r0, r3
 8001314:	f7ff feb8 	bl	8001088 <lcdPutc>

			i /= 10u;
 8001318:	68fb      	ldr	r3, [r7, #12]
 800131a:	4a06      	ldr	r2, [pc, #24]	@ (8001334 <lcdNtos+0x64>)
 800131c:	fba2 2303 	umull	r2, r3, r2, r3
 8001320:	08db      	lsrs	r3, r3, #3
 8001322:	60fb      	str	r3, [r7, #12]
		while (i > 0u)	/* Display at least one symbol */
 8001324:	68fb      	ldr	r3, [r7, #12]
 8001326:	2b00      	cmp	r3, #0
 8001328:	d1e3      	bne.n	80012f2 <lcdNtos+0x22>
		}
	}
}
 800132a:	bf00      	nop
 800132c:	3710      	adds	r7, #16
 800132e:	46bd      	mov	sp, r7
 8001330:	bd80      	pop	{r7, pc}
 8001332:	bf00      	nop
 8001334:	cccccccd 	.word	0xcccccccd

08001338 <lcdInit>:
#endif

/*!	\brief	Initialize the LCD.
 * 	\note	This library use the 4-bit interface. */
void lcdInit(void)
{
 8001338:	b580      	push	{r7, lr}
 800133a:	af00      	add	r7, sp, #0
	/* GPIO initialization. */
	setAllPinsAsOutputs();
 800133c:	f000 f81d 	bl	800137a <lcdGpioInit>
	/* LCD initialization. */
	lcdWrite(0x30);
 8001340:	2030      	movs	r0, #48	@ 0x30
 8001342:	f7ff fdb7 	bl	8000eb4 <lcdWrite>
	lcd10usDelay(INIT_CYCLE_TIME);
 8001346:	f44f 70c8 	mov.w	r0, #400	@ 0x190
 800134a:	f7ff fcd3 	bl	8000cf4 <lcd10usDelay>
	lcdWrite(0x30);
 800134e:	2030      	movs	r0, #48	@ 0x30
 8001350:	f7ff fdb0 	bl	8000eb4 <lcdWrite>
	lcd10usDelay(INIT_CYCLE_TIME);
 8001354:	f44f 70c8 	mov.w	r0, #400	@ 0x190
 8001358:	f7ff fccc 	bl	8000cf4 <lcd10usDelay>
	lcdConfig(DEFAULT_DISPLAY_CONFIG);
 800135c:	2028      	movs	r0, #40	@ 0x28
 800135e:	f7ff fdc1 	bl	8000ee4 <lcdConfig>
	lcdSetMode(DEFAULT_VIEW_MODE);
 8001362:	200c      	movs	r0, #12
 8001364:	f7ff fe7a 	bl	800105c <lcdSetMode>
	lcdSetMode(DEFAULT_ENTRY_MODE);
 8001368:	2006      	movs	r0, #6
 800136a:	f7ff fe77 	bl	800105c <lcdSetMode>
	lcdClrScr();
 800136e:	f7ff fde1 	bl	8000f34 <lcdClrScr>
	lcdReturn();
 8001372:	f7ff fdf1 	bl	8000f58 <lcdReturn>
	#if (USE_PROGRESS_BAR)
		lcdInitBar();
	#endif
}
 8001376:	bf00      	nop
 8001378:	bd80      	pop	{r7, pc}

0800137a <lcdGpioInit>:

void lcdGpioInit(void)
{
 800137a:	b480      	push	{r7}
 800137c:	af00      	add	r7, sp, #0
  	 GPIO_InitStruct.Speed = GPIO_SPEED_FREQ_LOW;
  	 HAL_GPIO_Init(GPIOC, &GPIO_InitStruct);

  	 HAL_GPIO_WritePin(GPIOC, GPIO_PIN_0|GPIO_PIN_1|GPIO_PIN_4|GPIO_PIN_5|GPIO_PIN_6|GPIO_PIN_7, GPIO_PIN_RESET);
	 */
}
 800137e:	bf00      	nop
 8001380:	46bd      	mov	sp, r7
 8001382:	f85d 7b04 	ldr.w	r7, [sp], #4
 8001386:	4770      	bx	lr

08001388 <main>:
/**
  * @brief  The application entry point.
  * @retval int
  */
int main(void)
{
 8001388:	b580      	push	{r7, lr}
 800138a:	b088      	sub	sp, #32
 800138c:	af00      	add	r7, sp, #0
  /* USER CODE END 1 */

  /* MCU Configuration--------------------------------------------------------*/

  /* Reset of all peripherals, Initializes the Flash interface and the Systick. */
  HAL_Init();
 800138e:	f000 fe47 	bl	8002020 <HAL_Init>
  /* USER CODE BEGIN Init */

  /* USER CODE END Init */

  /* Configure the system clock */
  SystemClock_Config();
 8001392:	f000 f8e9 	bl	8001568 <SystemClock_Config>
  /* USER CODE BEGIN SysInit */

  /* USER CODE END SysInit */

  /* Initialize all configured peripherals */
  MX_GPIO_Init();
 8001396:	f000 faa3 	bl	80018e0 <MX_GPIO_Init>
  MX_I2C1_Init();
 800139a:	f000 f9e7 	bl	800176c <MX_I2C1_Init>
  MX_ADC1_Init();
 800139e:	f000 f941 	bl	8001624 <MX_ADC1_Init>
  MX_TIM4_Init();
 80013a2:	f000 fa11 	bl	80017c8 <MX_TIM4_Init>
  MX_ADC2_Init();
 80013a6:	f000 f98f 	bl	80016c8 <MX_ADC2_Init>
  /* USER CODE BEGIN 2 */
  // temperature-humidity sensor
  SHT2x_Init(&hi2c1);
 80013aa:	485d      	ldr	r0, [pc, #372]	@ (8001520 <main+0x198>)
 80013ac:	f000 fb3a 	bl	8001a24 <SHT2x_Init>
  SHT2x_SetResolution(RES_14_12);
 80013b0:	2000      	movs	r0, #0
 80013b2:	f000 fc33 	bl	8001c1c <SHT2x_SetResolution>
  SHT2x_SoftReset();
 80013b6:	f000 fb45 	bl	8001a44 <SHT2x_SoftReset>
  // LCD display
  lcdInit();
 80013ba:	f7ff ffbd 	bl	8001338 <lcdInit>
  // load degree symbol
  lcdLoadChar(deg_sym,6);
 80013be:	2106      	movs	r1, #6
 80013c0:	4858      	ldr	r0, [pc, #352]	@ (8001524 <main+0x19c>)
 80013c2:	f7ff feb0 	bl	8001126 <lcdLoadChar>
  //PWM timer
  HAL_TIM_PWM_Start(&htim4, TIM_CHANNEL_1);
 80013c6:	2100      	movs	r1, #0
 80013c8:	4857      	ldr	r0, [pc, #348]	@ (8001528 <main+0x1a0>)
 80013ca:	f003 fac5 	bl	8004958 <HAL_TIM_PWM_Start>
  HAL_TIM_PWM_Start(&htim4, TIM_CHANNEL_3);
 80013ce:	2108      	movs	r1, #8
 80013d0:	4855      	ldr	r0, [pc, #340]	@ (8001528 <main+0x1a0>)
 80013d2:	f003 fac1 	bl	8004958 <HAL_TIM_PWM_Start>
  HAL_TIM_PWM_Start(&htim4, TIM_CHANNEL_4);
 80013d6:	210c      	movs	r1, #12
 80013d8:	4853      	ldr	r0, [pc, #332]	@ (8001528 <main+0x1a0>)
 80013da:	f003 fabd 	bl	8004958 <HAL_TIM_PWM_Start>
  /* USER CODE END 2 */

  /* Infinite loop */
  /* USER CODE BEGIN WHILE */

  HAL_ADC_Start_IT(&hadc1);
 80013de:	4853      	ldr	r0, [pc, #332]	@ (800152c <main+0x1a4>)
 80013e0:	f000 fed4 	bl	800218c <HAL_ADC_Start_IT>
  HAL_ADC_Start_IT(&hadc2);
 80013e4:	4852      	ldr	r0, [pc, #328]	@ (8001530 <main+0x1a8>)
 80013e6:	f000 fed1 	bl	800218c <HAL_ADC_Start_IT>
  while (1)
  {
	  uint32_t adcValue;


	    if(adc1Flag)
 80013ea:	4b52      	ldr	r3, [pc, #328]	@ (8001534 <main+0x1ac>)
 80013ec:	681b      	ldr	r3, [r3, #0]
 80013ee:	2b00      	cmp	r3, #0
 80013f0:	d04c      	beq.n	800148c <main+0x104>
	    {
	          adcValue = HAL_ADC_GetValue(&hadc1);
 80013f2:	484e      	ldr	r0, [pc, #312]	@ (800152c <main+0x1a4>)
 80013f4:	f001 f8b8 	bl	8002568 <HAL_ADC_GetValue>
 80013f8:	61f8      	str	r0, [r7, #28]

	          float volts = adcValue * 5.0 / 4096.0;
 80013fa:	69f8      	ldr	r0, [r7, #28]
 80013fc:	f7ff f826 	bl	800044c <__aeabi_ui2d>
 8001400:	f04f 0200 	mov.w	r2, #0
 8001404:	4b4c      	ldr	r3, [pc, #304]	@ (8001538 <main+0x1b0>)
 8001406:	f7ff f89b 	bl	8000540 <__aeabi_dmul>
 800140a:	4602      	mov	r2, r0
 800140c:	460b      	mov	r3, r1
 800140e:	4610      	mov	r0, r2
 8001410:	4619      	mov	r1, r3
 8001412:	f04f 0200 	mov.w	r2, #0
 8001416:	4b49      	ldr	r3, [pc, #292]	@ (800153c <main+0x1b4>)
 8001418:	f7ff f9bc 	bl	8000794 <__aeabi_ddiv>
 800141c:	4602      	mov	r2, r0
 800141e:	460b      	mov	r3, r1
 8001420:	4610      	mov	r0, r2
 8001422:	4619      	mov	r1, r3
 8001424:	f7ff fa9e 	bl	8000964 <__aeabi_d2f>
 8001428:	4603      	mov	r3, r0
 800142a:	61bb      	str	r3, [r7, #24]
	          float amps = volts / 10000.0;  // across 10,000 Ohms
 800142c:	ed97 7a06 	vldr	s14, [r7, #24]
 8001430:	eddf 6a43 	vldr	s13, [pc, #268]	@ 8001540 <main+0x1b8>
 8001434:	eec7 7a26 	vdiv.f32	s15, s14, s13
 8001438:	edc7 7a05 	vstr	s15, [r7, #20]
	          float microamps = amps * 1000000;
 800143c:	edd7 7a05 	vldr	s15, [r7, #20]
 8001440:	ed9f 7a40 	vldr	s14, [pc, #256]	@ 8001544 <main+0x1bc>
 8001444:	ee67 7a87 	vmul.f32	s15, s15, s14
 8001448:	edc7 7a04 	vstr	s15, [r7, #16]
	          float lux = microamps * 2.0;
 800144c:	edd7 7a04 	vldr	s15, [r7, #16]
 8001450:	ee77 7aa7 	vadd.f32	s15, s15, s15
 8001454:	edc7 7a03 	vstr	s15, [r7, #12]

	          uint32_t dutyCycle = 1000 - lux;
 8001458:	ed9f 7a3b 	vldr	s14, [pc, #236]	@ 8001548 <main+0x1c0>
 800145c:	edd7 7a03 	vldr	s15, [r7, #12]
 8001460:	ee77 7a67 	vsub.f32	s15, s14, s15
 8001464:	eefc 7ae7 	vcvt.u32.f32	s15, s15
 8001468:	ee17 3a90 	vmov	r3, s15
 800146c:	60bb      	str	r3, [r7, #8]

	          TIM4->CCR1=dutyCycle;
 800146e:	4a37      	ldr	r2, [pc, #220]	@ (800154c <main+0x1c4>)
 8001470:	68bb      	ldr	r3, [r7, #8]
 8001472:	6353      	str	r3, [r2, #52]	@ 0x34
	          TIM4->CCR3=dutyCycle;
 8001474:	4a35      	ldr	r2, [pc, #212]	@ (800154c <main+0x1c4>)
 8001476:	68bb      	ldr	r3, [r7, #8]
 8001478:	63d3      	str	r3, [r2, #60]	@ 0x3c
	          TIM4->CCR4=dutyCycle;
 800147a:	4a34      	ldr	r2, [pc, #208]	@ (800154c <main+0x1c4>)
 800147c:	68bb      	ldr	r3, [r7, #8]
 800147e:	6413      	str	r3, [r2, #64]	@ 0x40

	          adc1Flag = 0;
 8001480:	4b2c      	ldr	r3, [pc, #176]	@ (8001534 <main+0x1ac>)
 8001482:	2200      	movs	r2, #0
 8001484:	601a      	str	r2, [r3, #0]
	          HAL_ADC_Start_IT(&hadc1);
 8001486:	4829      	ldr	r0, [pc, #164]	@ (800152c <main+0x1a4>)
 8001488:	f000 fe80 	bl	800218c <HAL_ADC_Start_IT>

	    	  }
	    if (adc2Flag) {
 800148c:	4b30      	ldr	r3, [pc, #192]	@ (8001550 <main+0x1c8>)
 800148e:	681b      	ldr	r3, [r3, #0]
 8001490:	2b00      	cmp	r3, #0
 8001492:	d01e      	beq.n	80014d2 <main+0x14a>
	  	  adcValue = HAL_ADC_GetValue(&hadc2);
 8001494:	4826      	ldr	r0, [pc, #152]	@ (8001530 <main+0x1a8>)
 8001496:	f001 f867 	bl	8002568 <HAL_ADC_GetValue>
 800149a:	61f8      	str	r0, [r7, #28]


	  	  if (adcValue < 2048)
 800149c:	69fb      	ldr	r3, [r7, #28]
 800149e:	f5b3 6f00 	cmp.w	r3, #2048	@ 0x800
 80014a2:	d206      	bcs.n	80014b2 <main+0x12a>
	  		{
	  			HAL_GPIO_WritePin(GPIOD, GPIO_PIN_13, GPIO_PIN_RESET);
 80014a4:	2200      	movs	r2, #0
 80014a6:	f44f 5100 	mov.w	r1, #8192	@ 0x2000
 80014aa:	482a      	ldr	r0, [pc, #168]	@ (8001554 <main+0x1cc>)
 80014ac:	f001 fd54 	bl	8002f58 <HAL_GPIO_WritePin>
 80014b0:	e009      	b.n	80014c6 <main+0x13e>

	  		}
	  		else if (adcValue >= 2048)
 80014b2:	69fb      	ldr	r3, [r7, #28]
 80014b4:	f5b3 6f00 	cmp.w	r3, #2048	@ 0x800
 80014b8:	d305      	bcc.n	80014c6 <main+0x13e>
	  		{
	  			HAL_GPIO_WritePin(GPIOD, GPIO_PIN_13, GPIO_PIN_SET);
 80014ba:	2201      	movs	r2, #1
 80014bc:	f44f 5100 	mov.w	r1, #8192	@ 0x2000
 80014c0:	4824      	ldr	r0, [pc, #144]	@ (8001554 <main+0x1cc>)
 80014c2:	f001 fd49 	bl	8002f58 <HAL_GPIO_WritePin>
	  		}
	  	  adc2Flag = 0;
 80014c6:	4b22      	ldr	r3, [pc, #136]	@ (8001550 <main+0x1c8>)
 80014c8:	2200      	movs	r2, #0
 80014ca:	601a      	str	r2, [r3, #0]
	  	  HAL_ADC_Start_IT(&hadc2);
 80014cc:	4818      	ldr	r0, [pc, #96]	@ (8001530 <main+0x1a8>)
 80014ce:	f000 fe5d 	bl	800218c <HAL_ADC_Start_IT>

	    }


	  float cel = SHT2x_GetTemperature(1);
 80014d2:	2001      	movs	r0, #1
 80014d4:	f000 fb1c 	bl	8001b10 <SHT2x_GetTemperature>
 80014d8:	ed87 0a01 	vstr	s0, [r7, #4]
	  float rh = SHT2x_GetRelativeHumidity(1);
 80014dc:	2001      	movs	r0, #1
 80014de:	f000 fb5d 	bl	8001b9c <SHT2x_GetRelativeHumidity>
 80014e2:	ed87 0a00 	vstr	s0, [r7]

	  lcdClrScr();
 80014e6:	f7ff fd25 	bl	8000f34 <lcdClrScr>
	  lcdPuts("Temp: ");
 80014ea:	481b      	ldr	r0, [pc, #108]	@ (8001558 <main+0x1d0>)
 80014ec:	f7ff fde4 	bl	80010b8 <lcdPuts>
	  lcdFtos(cel, 3);
 80014f0:	2003      	movs	r0, #3
 80014f2:	ed97 0a01 	vldr	s0, [r7, #4]
 80014f6:	f7ff fead 	bl	8001254 <lcdFtos>
	  lcdPutc(6);
 80014fa:	2006      	movs	r0, #6
 80014fc:	f7ff fdc4 	bl	8001088 <lcdPutc>
	  lcdPuts("C\n");
 8001500:	4816      	ldr	r0, [pc, #88]	@ (800155c <main+0x1d4>)
 8001502:	f7ff fdd9 	bl	80010b8 <lcdPuts>
	  lcdPuts("Hum : ");
 8001506:	4816      	ldr	r0, [pc, #88]	@ (8001560 <main+0x1d8>)
 8001508:	f7ff fdd6 	bl	80010b8 <lcdPuts>
	  lcdFtos(rh, 3);
 800150c:	2003      	movs	r0, #3
 800150e:	ed97 0a00 	vldr	s0, [r7]
 8001512:	f7ff fe9f 	bl	8001254 <lcdFtos>
	  lcdPuts(" %");
 8001516:	4813      	ldr	r0, [pc, #76]	@ (8001564 <main+0x1dc>)
 8001518:	f7ff fdce 	bl	80010b8 <lcdPuts>
  {
 800151c:	e765      	b.n	80013ea <main+0x62>
 800151e:	bf00      	nop
 8001520:	200000c0 	.word	0x200000c0
 8001524:	20000000 	.word	0x20000000
 8001528:	20000114 	.word	0x20000114
 800152c:	20000030 	.word	0x20000030
 8001530:	20000078 	.word	0x20000078
 8001534:	2000015c 	.word	0x2000015c
 8001538:	40140000 	.word	0x40140000
 800153c:	40b00000 	.word	0x40b00000
 8001540:	461c4000 	.word	0x461c4000
 8001544:	49742400 	.word	0x49742400
 8001548:	447a0000 	.word	0x447a0000
 800154c:	40000800 	.word	0x40000800
 8001550:	20000160 	.word	0x20000160
 8001554:	40020c00 	.word	0x40020c00
 8001558:	08005808 	.word	0x08005808
 800155c:	08005810 	.word	0x08005810
 8001560:	08005814 	.word	0x08005814
 8001564:	0800581c 	.word	0x0800581c

08001568 <SystemClock_Config>:
/**
  * @brief System Clock Configuration
  * @retval None
  */
void SystemClock_Config(void)
{
 8001568:	b580      	push	{r7, lr}
 800156a:	b094      	sub	sp, #80	@ 0x50
 800156c:	af00      	add	r7, sp, #0
  RCC_OscInitTypeDef RCC_OscInitStruct = {0};
 800156e:	f107 0320 	add.w	r3, r7, #32
 8001572:	2230      	movs	r2, #48	@ 0x30
 8001574:	2100      	movs	r1, #0
 8001576:	4618      	mov	r0, r3
 8001578:	f004 f90e 	bl	8005798 <memset>
  RCC_ClkInitTypeDef RCC_ClkInitStruct = {0};
 800157c:	f107 030c 	add.w	r3, r7, #12
 8001580:	2200      	movs	r2, #0
 8001582:	601a      	str	r2, [r3, #0]
 8001584:	605a      	str	r2, [r3, #4]
 8001586:	609a      	str	r2, [r3, #8]
 8001588:	60da      	str	r2, [r3, #12]
 800158a:	611a      	str	r2, [r3, #16]

  /** Configure the main internal regulator output voltage
  */
  __HAL_RCC_PWR_CLK_ENABLE();
 800158c:	2300      	movs	r3, #0
 800158e:	60bb      	str	r3, [r7, #8]
 8001590:	4b22      	ldr	r3, [pc, #136]	@ (800161c <SystemClock_Config+0xb4>)
 8001592:	6c1b      	ldr	r3, [r3, #64]	@ 0x40
 8001594:	4a21      	ldr	r2, [pc, #132]	@ (800161c <SystemClock_Config+0xb4>)
 8001596:	f043 5380 	orr.w	r3, r3, #268435456	@ 0x10000000
 800159a:	6413      	str	r3, [r2, #64]	@ 0x40
 800159c:	4b1f      	ldr	r3, [pc, #124]	@ (800161c <SystemClock_Config+0xb4>)
 800159e:	6c1b      	ldr	r3, [r3, #64]	@ 0x40
 80015a0:	f003 5380 	and.w	r3, r3, #268435456	@ 0x10000000
 80015a4:	60bb      	str	r3, [r7, #8]
 80015a6:	68bb      	ldr	r3, [r7, #8]
  __HAL_PWR_VOLTAGESCALING_CONFIG(PWR_REGULATOR_VOLTAGE_SCALE1);
 80015a8:	2300      	movs	r3, #0
 80015aa:	607b      	str	r3, [r7, #4]
 80015ac:	4b1c      	ldr	r3, [pc, #112]	@ (8001620 <SystemClock_Config+0xb8>)
 80015ae:	681b      	ldr	r3, [r3, #0]
 80015b0:	4a1b      	ldr	r2, [pc, #108]	@ (8001620 <SystemClock_Config+0xb8>)
 80015b2:	f443 4380 	orr.w	r3, r3, #16384	@ 0x4000
 80015b6:	6013      	str	r3, [r2, #0]
 80015b8:	4b19      	ldr	r3, [pc, #100]	@ (8001620 <SystemClock_Config+0xb8>)
 80015ba:	681b      	ldr	r3, [r3, #0]
 80015bc:	f403 4380 	and.w	r3, r3, #16384	@ 0x4000
 80015c0:	607b      	str	r3, [r7, #4]
 80015c2:	687b      	ldr	r3, [r7, #4]

  /** Initializes the RCC Oscillators according to the specified parameters
  * in the RCC_OscInitTypeDef structure.
  */
  RCC_OscInitStruct.OscillatorType = RCC_OSCILLATORTYPE_HSI;
 80015c4:	2302      	movs	r3, #2
 80015c6:	623b      	str	r3, [r7, #32]
  RCC_OscInitStruct.HSIState = RCC_HSI_ON;
 80015c8:	2301      	movs	r3, #1
 80015ca:	62fb      	str	r3, [r7, #44]	@ 0x2c
  RCC_OscInitStruct.HSICalibrationValue = RCC_HSICALIBRATION_DEFAULT;
 80015cc:	2310      	movs	r3, #16
 80015ce:	633b      	str	r3, [r7, #48]	@ 0x30
  RCC_OscInitStruct.PLL.PLLState = RCC_PLL_NONE;
 80015d0:	2300      	movs	r3, #0
 80015d2:	63bb      	str	r3, [r7, #56]	@ 0x38
  if (HAL_RCC_OscConfig(&RCC_OscInitStruct) != HAL_OK)
 80015d4:	f107 0320 	add.w	r3, r7, #32
 80015d8:	4618      	mov	r0, r3
 80015da:	f002 fcd1 	bl	8003f80 <HAL_RCC_OscConfig>
 80015de:	4603      	mov	r3, r0
 80015e0:	2b00      	cmp	r3, #0
 80015e2:	d001      	beq.n	80015e8 <SystemClock_Config+0x80>
  {
    Error_Handler();
 80015e4:	f000 fa18 	bl	8001a18 <Error_Handler>
  }

  /** Initializes the CPU, AHB and APB buses clocks
  */
  RCC_ClkInitStruct.ClockType = RCC_CLOCKTYPE_HCLK|RCC_CLOCKTYPE_SYSCLK
 80015e8:	230f      	movs	r3, #15
 80015ea:	60fb      	str	r3, [r7, #12]
                              |RCC_CLOCKTYPE_PCLK1|RCC_CLOCKTYPE_PCLK2;
  RCC_ClkInitStruct.SYSCLKSource = RCC_SYSCLKSOURCE_HSI;
 80015ec:	2300      	movs	r3, #0
 80015ee:	613b      	str	r3, [r7, #16]
  RCC_ClkInitStruct.AHBCLKDivider = RCC_SYSCLK_DIV1;
 80015f0:	2300      	movs	r3, #0
 80015f2:	617b      	str	r3, [r7, #20]
  RCC_ClkInitStruct.APB1CLKDivider = RCC_HCLK_DIV1;
 80015f4:	2300      	movs	r3, #0
 80015f6:	61bb      	str	r3, [r7, #24]
  RCC_ClkInitStruct.APB2CLKDivider = RCC_HCLK_DIV1;
 80015f8:	2300      	movs	r3, #0
 80015fa:	61fb      	str	r3, [r7, #28]

  if (HAL_RCC_ClockConfig(&RCC_ClkInitStruct, FLASH_LATENCY_0) != HAL_OK)
 80015fc:	f107 030c 	add.w	r3, r7, #12
 8001600:	2100      	movs	r1, #0
 8001602:	4618      	mov	r0, r3
 8001604:	f002 ff34 	bl	8004470 <HAL_RCC_ClockConfig>
 8001608:	4603      	mov	r3, r0
 800160a:	2b00      	cmp	r3, #0
 800160c:	d001      	beq.n	8001612 <SystemClock_Config+0xaa>
  {
    Error_Handler();
 800160e:	f000 fa03 	bl	8001a18 <Error_Handler>
  }
}
 8001612:	bf00      	nop
 8001614:	3750      	adds	r7, #80	@ 0x50
 8001616:	46bd      	mov	sp, r7
 8001618:	bd80      	pop	{r7, pc}
 800161a:	bf00      	nop
 800161c:	40023800 	.word	0x40023800
 8001620:	40007000 	.word	0x40007000

08001624 <MX_ADC1_Init>:
  * @brief ADC1 Initialization Function
  * @param None
  * @retval None
  */
static void MX_ADC1_Init(void)
{
 8001624:	b580      	push	{r7, lr}
 8001626:	b084      	sub	sp, #16
 8001628:	af00      	add	r7, sp, #0

  /* USER CODE BEGIN ADC1_Init 0 */

  /* USER CODE END ADC1_Init 0 */

  ADC_ChannelConfTypeDef sConfig = {0};
 800162a:	463b      	mov	r3, r7
 800162c:	2200      	movs	r2, #0
 800162e:	601a      	str	r2, [r3, #0]
 8001630:	605a      	str	r2, [r3, #4]
 8001632:	609a      	str	r2, [r3, #8]
 8001634:	60da      	str	r2, [r3, #12]

  /* USER CODE END ADC1_Init 1 */

  /** Configure the global features of the ADC (Clock, Resolution, Data Alignment and number of conversion)
  */
  hadc1.Instance = ADC1;
 8001636:	4b21      	ldr	r3, [pc, #132]	@ (80016bc <MX_ADC1_Init+0x98>)
 8001638:	4a21      	ldr	r2, [pc, #132]	@ (80016c0 <MX_ADC1_Init+0x9c>)
 800163a:	601a      	str	r2, [r3, #0]
  hadc1.Init.ClockPrescaler = ADC_CLOCK_SYNC_PCLK_DIV2;
 800163c:	4b1f      	ldr	r3, [pc, #124]	@ (80016bc <MX_ADC1_Init+0x98>)
 800163e:	2200      	movs	r2, #0
 8001640:	605a      	str	r2, [r3, #4]
  hadc1.Init.Resolution = ADC_RESOLUTION_12B;
 8001642:	4b1e      	ldr	r3, [pc, #120]	@ (80016bc <MX_ADC1_Init+0x98>)
 8001644:	2200      	movs	r2, #0
 8001646:	609a      	str	r2, [r3, #8]
  hadc1.Init.ScanConvMode = DISABLE;
 8001648:	4b1c      	ldr	r3, [pc, #112]	@ (80016bc <MX_ADC1_Init+0x98>)
 800164a:	2200      	movs	r2, #0
 800164c:	611a      	str	r2, [r3, #16]
  hadc1.Init.ContinuousConvMode = DISABLE;
 800164e:	4b1b      	ldr	r3, [pc, #108]	@ (80016bc <MX_ADC1_Init+0x98>)
 8001650:	2200      	movs	r2, #0
 8001652:	761a      	strb	r2, [r3, #24]
  hadc1.Init.DiscontinuousConvMode = DISABLE;
 8001654:	4b19      	ldr	r3, [pc, #100]	@ (80016bc <MX_ADC1_Init+0x98>)
 8001656:	2200      	movs	r2, #0
 8001658:	f883 2020 	strb.w	r2, [r3, #32]
  hadc1.Init.ExternalTrigConvEdge = ADC_EXTERNALTRIGCONVEDGE_NONE;
 800165c:	4b17      	ldr	r3, [pc, #92]	@ (80016bc <MX_ADC1_Init+0x98>)
 800165e:	2200      	movs	r2, #0
 8001660:	62da      	str	r2, [r3, #44]	@ 0x2c
  hadc1.Init.ExternalTrigConv = ADC_SOFTWARE_START;
 8001662:	4b16      	ldr	r3, [pc, #88]	@ (80016bc <MX_ADC1_Init+0x98>)
 8001664:	4a17      	ldr	r2, [pc, #92]	@ (80016c4 <MX_ADC1_Init+0xa0>)
 8001666:	629a      	str	r2, [r3, #40]	@ 0x28
  hadc1.Init.DataAlign = ADC_DATAALIGN_RIGHT;
 8001668:	4b14      	ldr	r3, [pc, #80]	@ (80016bc <MX_ADC1_Init+0x98>)
 800166a:	2200      	movs	r2, #0
 800166c:	60da      	str	r2, [r3, #12]
  hadc1.Init.NbrOfConversion = 1;
 800166e:	4b13      	ldr	r3, [pc, #76]	@ (80016bc <MX_ADC1_Init+0x98>)
 8001670:	2201      	movs	r2, #1
 8001672:	61da      	str	r2, [r3, #28]
  hadc1.Init.DMAContinuousRequests = DISABLE;
 8001674:	4b11      	ldr	r3, [pc, #68]	@ (80016bc <MX_ADC1_Init+0x98>)
 8001676:	2200      	movs	r2, #0
 8001678:	f883 2030 	strb.w	r2, [r3, #48]	@ 0x30
  hadc1.Init.EOCSelection = ADC_EOC_SINGLE_CONV;
 800167c:	4b0f      	ldr	r3, [pc, #60]	@ (80016bc <MX_ADC1_Init+0x98>)
 800167e:	2201      	movs	r2, #1
 8001680:	615a      	str	r2, [r3, #20]
  if (HAL_ADC_Init(&hadc1) != HAL_OK)
 8001682:	480e      	ldr	r0, [pc, #56]	@ (80016bc <MX_ADC1_Init+0x98>)
 8001684:	f000 fd3e 	bl	8002104 <HAL_ADC_Init>
 8001688:	4603      	mov	r3, r0
 800168a:	2b00      	cmp	r3, #0
 800168c:	d001      	beq.n	8001692 <MX_ADC1_Init+0x6e>
  {
    Error_Handler();
 800168e:	f000 f9c3 	bl	8001a18 <Error_Handler>
  }

  /** Configure for the selected ADC regular channel its corresponding rank in the sequencer and its sample time.
  */
  sConfig.Channel = ADC_CHANNEL_3;
 8001692:	2303      	movs	r3, #3
 8001694:	603b      	str	r3, [r7, #0]
  sConfig.Rank = 1;
 8001696:	2301      	movs	r3, #1
 8001698:	607b      	str	r3, [r7, #4]
  sConfig.SamplingTime = ADC_SAMPLETIME_480CYCLES;
 800169a:	2307      	movs	r3, #7
 800169c:	60bb      	str	r3, [r7, #8]
  if (HAL_ADC_ConfigChannel(&hadc1, &sConfig) != HAL_OK)
 800169e:	463b      	mov	r3, r7
 80016a0:	4619      	mov	r1, r3
 80016a2:	4806      	ldr	r0, [pc, #24]	@ (80016bc <MX_ADC1_Init+0x98>)
 80016a4:	f000 ff82 	bl	80025ac <HAL_ADC_ConfigChannel>
 80016a8:	4603      	mov	r3, r0
 80016aa:	2b00      	cmp	r3, #0
 80016ac:	d001      	beq.n	80016b2 <MX_ADC1_Init+0x8e>
  {
    Error_Handler();
 80016ae:	f000 f9b3 	bl	8001a18 <Error_Handler>
  }
  /* USER CODE BEGIN ADC1_Init 2 */

  /* USER CODE END ADC1_Init 2 */

}
 80016b2:	bf00      	nop
 80016b4:	3710      	adds	r7, #16
 80016b6:	46bd      	mov	sp, r7
 80016b8:	bd80      	pop	{r7, pc}
 80016ba:	bf00      	nop
 80016bc:	20000030 	.word	0x20000030
 80016c0:	40012000 	.word	0x40012000
 80016c4:	0f000001 	.word	0x0f000001

080016c8 <MX_ADC2_Init>:
  * @brief ADC2 Initialization Function
  * @param None
  * @retval None
  */
static void MX_ADC2_Init(void)
{
 80016c8:	b580      	push	{r7, lr}
 80016ca:	b084      	sub	sp, #16
 80016cc:	af00      	add	r7, sp, #0

  /* USER CODE BEGIN ADC2_Init 0 */

  /* USER CODE END ADC2_Init 0 */

  ADC_ChannelConfTypeDef sConfig = {0};
 80016ce:	463b      	mov	r3, r7
 80016d0:	2200      	movs	r2, #0
 80016d2:	601a      	str	r2, [r3, #0]
 80016d4:	605a      	str	r2, [r3, #4]
 80016d6:	609a      	str	r2, [r3, #8]
 80016d8:	60da      	str	r2, [r3, #12]

  /* USER CODE END ADC2_Init 1 */

  /** Configure the global features of the ADC (Clock, Resolution, Data Alignment and number of conversion)
  */
  hadc2.Instance = ADC2;
 80016da:	4b21      	ldr	r3, [pc, #132]	@ (8001760 <MX_ADC2_Init+0x98>)
 80016dc:	4a21      	ldr	r2, [pc, #132]	@ (8001764 <MX_ADC2_Init+0x9c>)
 80016de:	601a      	str	r2, [r3, #0]
  hadc2.Init.ClockPrescaler = ADC_CLOCK_SYNC_PCLK_DIV2;
 80016e0:	4b1f      	ldr	r3, [pc, #124]	@ (8001760 <MX_ADC2_Init+0x98>)
 80016e2:	2200      	movs	r2, #0
 80016e4:	605a      	str	r2, [r3, #4]
  hadc2.Init.Resolution = ADC_RESOLUTION_12B;
 80016e6:	4b1e      	ldr	r3, [pc, #120]	@ (8001760 <MX_ADC2_Init+0x98>)
 80016e8:	2200      	movs	r2, #0
 80016ea:	609a      	str	r2, [r3, #8]
  hadc2.Init.ScanConvMode = DISABLE;
 80016ec:	4b1c      	ldr	r3, [pc, #112]	@ (8001760 <MX_ADC2_Init+0x98>)
 80016ee:	2200      	movs	r2, #0
 80016f0:	611a      	str	r2, [r3, #16]
  hadc2.Init.ContinuousConvMode = DISABLE;
 80016f2:	4b1b      	ldr	r3, [pc, #108]	@ (8001760 <MX_ADC2_Init+0x98>)
 80016f4:	2200      	movs	r2, #0
 80016f6:	761a      	strb	r2, [r3, #24]
  hadc2.Init.DiscontinuousConvMode = DISABLE;
 80016f8:	4b19      	ldr	r3, [pc, #100]	@ (8001760 <MX_ADC2_Init+0x98>)
 80016fa:	2200      	movs	r2, #0
 80016fc:	f883 2020 	strb.w	r2, [r3, #32]
  hadc2.Init.ExternalTrigConvEdge = ADC_EXTERNALTRIGCONVEDGE_NONE;
 8001700:	4b17      	ldr	r3, [pc, #92]	@ (8001760 <MX_ADC2_Init+0x98>)
 8001702:	2200      	movs	r2, #0
 8001704:	62da      	str	r2, [r3, #44]	@ 0x2c
  hadc2.Init.ExternalTrigConv = ADC_SOFTWARE_START;
 8001706:	4b16      	ldr	r3, [pc, #88]	@ (8001760 <MX_ADC2_Init+0x98>)
 8001708:	4a17      	ldr	r2, [pc, #92]	@ (8001768 <MX_ADC2_Init+0xa0>)
 800170a:	629a      	str	r2, [r3, #40]	@ 0x28
  hadc2.Init.DataAlign = ADC_DATAALIGN_RIGHT;
 800170c:	4b14      	ldr	r3, [pc, #80]	@ (8001760 <MX_ADC2_Init+0x98>)
 800170e:	2200      	movs	r2, #0
 8001710:	60da      	str	r2, [r3, #12]
  hadc2.Init.NbrOfConversion = 1;
 8001712:	4b13      	ldr	r3, [pc, #76]	@ (8001760 <MX_ADC2_Init+0x98>)
 8001714:	2201      	movs	r2, #1
 8001716:	61da      	str	r2, [r3, #28]
  hadc2.Init.DMAContinuousRequests = DISABLE;
 8001718:	4b11      	ldr	r3, [pc, #68]	@ (8001760 <MX_ADC2_Init+0x98>)
 800171a:	2200      	movs	r2, #0
 800171c:	f883 2030 	strb.w	r2, [r3, #48]	@ 0x30
  hadc2.Init.EOCSelection = ADC_EOC_SINGLE_CONV;
 8001720:	4b0f      	ldr	r3, [pc, #60]	@ (8001760 <MX_ADC2_Init+0x98>)
 8001722:	2201      	movs	r2, #1
 8001724:	615a      	str	r2, [r3, #20]
  if (HAL_ADC_Init(&hadc2) != HAL_OK)
 8001726:	480e      	ldr	r0, [pc, #56]	@ (8001760 <MX_ADC2_Init+0x98>)
 8001728:	f000 fcec 	bl	8002104 <HAL_ADC_Init>
 800172c:	4603      	mov	r3, r0
 800172e:	2b00      	cmp	r3, #0
 8001730:	d001      	beq.n	8001736 <MX_ADC2_Init+0x6e>
  {
    Error_Handler();
 8001732:	f000 f971 	bl	8001a18 <Error_Handler>
  }

  /** Configure for the selected ADC regular channel its corresponding rank in the sequencer and its sample time.
  */
  sConfig.Channel = ADC_CHANNEL_0;
 8001736:	2300      	movs	r3, #0
 8001738:	603b      	str	r3, [r7, #0]
  sConfig.Rank = 1;
 800173a:	2301      	movs	r3, #1
 800173c:	607b      	str	r3, [r7, #4]
  sConfig.SamplingTime = ADC_SAMPLETIME_480CYCLES;
 800173e:	2307      	movs	r3, #7
 8001740:	60bb      	str	r3, [r7, #8]
  if (HAL_ADC_ConfigChannel(&hadc2, &sConfig) != HAL_OK)
 8001742:	463b      	mov	r3, r7
 8001744:	4619      	mov	r1, r3
 8001746:	4806      	ldr	r0, [pc, #24]	@ (8001760 <MX_ADC2_Init+0x98>)
 8001748:	f000 ff30 	bl	80025ac <HAL_ADC_ConfigChannel>
 800174c:	4603      	mov	r3, r0
 800174e:	2b00      	cmp	r3, #0
 8001750:	d001      	beq.n	8001756 <MX_ADC2_Init+0x8e>
  {
    Error_Handler();
 8001752:	f000 f961 	bl	8001a18 <Error_Handler>
  }
  /* USER CODE BEGIN ADC2_Init 2 */

  /* USER CODE END ADC2_Init 2 */

}
 8001756:	bf00      	nop
 8001758:	3710      	adds	r7, #16
 800175a:	46bd      	mov	sp, r7
 800175c:	bd80      	pop	{r7, pc}
 800175e:	bf00      	nop
 8001760:	20000078 	.word	0x20000078
 8001764:	40012100 	.word	0x40012100
 8001768:	0f000001 	.word	0x0f000001

0800176c <MX_I2C1_Init>:
  * @brief I2C1 Initialization Function
  * @param None
  * @retval None
  */
static void MX_I2C1_Init(void)
{
 800176c:	b580      	push	{r7, lr}
 800176e:	af00      	add	r7, sp, #0
  /* USER CODE END I2C1_Init 0 */

  /* USER CODE BEGIN I2C1_Init 1 */

  /* USER CODE END I2C1_Init 1 */
  hi2c1.Instance = I2C1;
 8001770:	4b12      	ldr	r3, [pc, #72]	@ (80017bc <MX_I2C1_Init+0x50>)
 8001772:	4a13      	ldr	r2, [pc, #76]	@ (80017c0 <MX_I2C1_Init+0x54>)
 8001774:	601a      	str	r2, [r3, #0]
  hi2c1.Init.ClockSpeed = 100000;
 8001776:	4b11      	ldr	r3, [pc, #68]	@ (80017bc <MX_I2C1_Init+0x50>)
 8001778:	4a12      	ldr	r2, [pc, #72]	@ (80017c4 <MX_I2C1_Init+0x58>)
 800177a:	605a      	str	r2, [r3, #4]
  hi2c1.Init.DutyCycle = I2C_DUTYCYCLE_2;
 800177c:	4b0f      	ldr	r3, [pc, #60]	@ (80017bc <MX_I2C1_Init+0x50>)
 800177e:	2200      	movs	r2, #0
 8001780:	609a      	str	r2, [r3, #8]
  hi2c1.Init.OwnAddress1 = 0;
 8001782:	4b0e      	ldr	r3, [pc, #56]	@ (80017bc <MX_I2C1_Init+0x50>)
 8001784:	2200      	movs	r2, #0
 8001786:	60da      	str	r2, [r3, #12]
  hi2c1.Init.AddressingMode = I2C_ADDRESSINGMODE_7BIT;
 8001788:	4b0c      	ldr	r3, [pc, #48]	@ (80017bc <MX_I2C1_Init+0x50>)
 800178a:	f44f 4280 	mov.w	r2, #16384	@ 0x4000
 800178e:	611a      	str	r2, [r3, #16]
  hi2c1.Init.DualAddressMode = I2C_DUALADDRESS_DISABLE;
 8001790:	4b0a      	ldr	r3, [pc, #40]	@ (80017bc <MX_I2C1_Init+0x50>)
 8001792:	2200      	movs	r2, #0
 8001794:	615a      	str	r2, [r3, #20]
  hi2c1.Init.OwnAddress2 = 0;
 8001796:	4b09      	ldr	r3, [pc, #36]	@ (80017bc <MX_I2C1_Init+0x50>)
 8001798:	2200      	movs	r2, #0
 800179a:	619a      	str	r2, [r3, #24]
  hi2c1.Init.GeneralCallMode = I2C_GENERALCALL_DISABLE;
 800179c:	4b07      	ldr	r3, [pc, #28]	@ (80017bc <MX_I2C1_Init+0x50>)
 800179e:	2200      	movs	r2, #0
 80017a0:	61da      	str	r2, [r3, #28]
  hi2c1.Init.NoStretchMode = I2C_NOSTRETCH_DISABLE;
 80017a2:	4b06      	ldr	r3, [pc, #24]	@ (80017bc <MX_I2C1_Init+0x50>)
 80017a4:	2200      	movs	r2, #0
 80017a6:	621a      	str	r2, [r3, #32]
  if (HAL_I2C_Init(&hi2c1) != HAL_OK)
 80017a8:	4804      	ldr	r0, [pc, #16]	@ (80017bc <MX_I2C1_Init+0x50>)
 80017aa:	f001 fbef 	bl	8002f8c <HAL_I2C_Init>
 80017ae:	4603      	mov	r3, r0
 80017b0:	2b00      	cmp	r3, #0
 80017b2:	d001      	beq.n	80017b8 <MX_I2C1_Init+0x4c>
  {
    Error_Handler();
 80017b4:	f000 f930 	bl	8001a18 <Error_Handler>
  }
  /* USER CODE BEGIN I2C1_Init 2 */

  /* USER CODE END I2C1_Init 2 */

}
 80017b8:	bf00      	nop
 80017ba:	bd80      	pop	{r7, pc}
 80017bc:	200000c0 	.word	0x200000c0
 80017c0:	40005400 	.word	0x40005400
 80017c4:	000186a0 	.word	0x000186a0

080017c8 <MX_TIM4_Init>:
  * @brief TIM4 Initialization Function
  * @param None
  * @retval None
  */
static void MX_TIM4_Init(void)
{
 80017c8:	b580      	push	{r7, lr}
 80017ca:	b08e      	sub	sp, #56	@ 0x38
 80017cc:	af00      	add	r7, sp, #0

  /* USER CODE BEGIN TIM4_Init 0 */

  /* USER CODE END TIM4_Init 0 */

  TIM_ClockConfigTypeDef sClockSourceConfig = {0};
 80017ce:	f107 0328 	add.w	r3, r7, #40	@ 0x28
 80017d2:	2200      	movs	r2, #0
 80017d4:	601a      	str	r2, [r3, #0]
 80017d6:	605a      	str	r2, [r3, #4]
 80017d8:	609a      	str	r2, [r3, #8]
 80017da:	60da      	str	r2, [r3, #12]
  TIM_MasterConfigTypeDef sMasterConfig = {0};
 80017dc:	f107 0320 	add.w	r3, r7, #32
 80017e0:	2200      	movs	r2, #0
 80017e2:	601a      	str	r2, [r3, #0]
 80017e4:	605a      	str	r2, [r3, #4]
  TIM_OC_InitTypeDef sConfigOC = {0};
 80017e6:	1d3b      	adds	r3, r7, #4
 80017e8:	2200      	movs	r2, #0
 80017ea:	601a      	str	r2, [r3, #0]
 80017ec:	605a      	str	r2, [r3, #4]
 80017ee:	609a      	str	r2, [r3, #8]
 80017f0:	60da      	str	r2, [r3, #12]
 80017f2:	611a      	str	r2, [r3, #16]
 80017f4:	615a      	str	r2, [r3, #20]
 80017f6:	619a      	str	r2, [r3, #24]

  /* USER CODE BEGIN TIM4_Init 1 */

  /* USER CODE END TIM4_Init 1 */
  htim4.Instance = TIM4;
 80017f8:	4b37      	ldr	r3, [pc, #220]	@ (80018d8 <MX_TIM4_Init+0x110>)
 80017fa:	4a38      	ldr	r2, [pc, #224]	@ (80018dc <MX_TIM4_Init+0x114>)
 80017fc:	601a      	str	r2, [r3, #0]
  htim4.Init.Prescaler = 160;
 80017fe:	4b36      	ldr	r3, [pc, #216]	@ (80018d8 <MX_TIM4_Init+0x110>)
 8001800:	22a0      	movs	r2, #160	@ 0xa0
 8001802:	605a      	str	r2, [r3, #4]
  htim4.Init.CounterMode = TIM_COUNTERMODE_DOWN;
 8001804:	4b34      	ldr	r3, [pc, #208]	@ (80018d8 <MX_TIM4_Init+0x110>)
 8001806:	2210      	movs	r2, #16
 8001808:	609a      	str	r2, [r3, #8]
  htim4.Init.Period = 1000;
 800180a:	4b33      	ldr	r3, [pc, #204]	@ (80018d8 <MX_TIM4_Init+0x110>)
 800180c:	f44f 727a 	mov.w	r2, #1000	@ 0x3e8
 8001810:	60da      	str	r2, [r3, #12]
  htim4.Init.ClockDivision = TIM_CLOCKDIVISION_DIV1;
 8001812:	4b31      	ldr	r3, [pc, #196]	@ (80018d8 <MX_TIM4_Init+0x110>)
 8001814:	2200      	movs	r2, #0
 8001816:	611a      	str	r2, [r3, #16]
  htim4.Init.AutoReloadPreload = TIM_AUTORELOAD_PRELOAD_DISABLE;
 8001818:	4b2f      	ldr	r3, [pc, #188]	@ (80018d8 <MX_TIM4_Init+0x110>)
 800181a:	2200      	movs	r2, #0
 800181c:	619a      	str	r2, [r3, #24]
  if (HAL_TIM_Base_Init(&htim4) != HAL_OK)
 800181e:	482e      	ldr	r0, [pc, #184]	@ (80018d8 <MX_TIM4_Init+0x110>)
 8001820:	f002 fff2 	bl	8004808 <HAL_TIM_Base_Init>
 8001824:	4603      	mov	r3, r0
 8001826:	2b00      	cmp	r3, #0
 8001828:	d001      	beq.n	800182e <MX_TIM4_Init+0x66>
  {
    Error_Handler();
 800182a:	f000 f8f5 	bl	8001a18 <Error_Handler>
  }
  sClockSourceConfig.ClockSource = TIM_CLOCKSOURCE_INTERNAL;
 800182e:	f44f 5380 	mov.w	r3, #4096	@ 0x1000
 8001832:	62bb      	str	r3, [r7, #40]	@ 0x28
  if (HAL_TIM_ConfigClockSource(&htim4, &sClockSourceConfig) != HAL_OK)
 8001834:	f107 0328 	add.w	r3, r7, #40	@ 0x28
 8001838:	4619      	mov	r1, r3
 800183a:	4827      	ldr	r0, [pc, #156]	@ (80018d8 <MX_TIM4_Init+0x110>)
 800183c:	f003 fb06 	bl	8004e4c <HAL_TIM_ConfigClockSource>
 8001840:	4603      	mov	r3, r0
 8001842:	2b00      	cmp	r3, #0
 8001844:	d001      	beq.n	800184a <MX_TIM4_Init+0x82>
  {
    Error_Handler();
 8001846:	f000 f8e7 	bl	8001a18 <Error_Handler>
  }
  if (HAL_TIM_PWM_Init(&htim4) != HAL_OK)
 800184a:	4823      	ldr	r0, [pc, #140]	@ (80018d8 <MX_TIM4_Init+0x110>)
 800184c:	f003 f82b 	bl	80048a6 <HAL_TIM_PWM_Init>
 8001850:	4603      	mov	r3, r0
 8001852:	2b00      	cmp	r3, #0
 8001854:	d001      	beq.n	800185a <MX_TIM4_Init+0x92>
  {
    Error_Handler();
 8001856:	f000 f8df 	bl	8001a18 <Error_Handler>
  }
  sMasterConfig.MasterOutputTrigger = TIM_TRGO_RESET;
 800185a:	2300      	movs	r3, #0
 800185c:	623b      	str	r3, [r7, #32]
  sMasterConfig.MasterSlaveMode = TIM_MASTERSLAVEMODE_DISABLE;
 800185e:	2300      	movs	r3, #0
 8001860:	627b      	str	r3, [r7, #36]	@ 0x24
  if (HAL_TIMEx_MasterConfigSynchronization(&htim4, &sMasterConfig) != HAL_OK)
 8001862:	f107 0320 	add.w	r3, r7, #32
 8001866:	4619      	mov	r1, r3
 8001868:	481b      	ldr	r0, [pc, #108]	@ (80018d8 <MX_TIM4_Init+0x110>)
 800186a:	f003 ff05 	bl	8005678 <HAL_TIMEx_MasterConfigSynchronization>
 800186e:	4603      	mov	r3, r0
 8001870:	2b00      	cmp	r3, #0
 8001872:	d001      	beq.n	8001878 <MX_TIM4_Init+0xb0>
  {
    Error_Handler();
 8001874:	f000 f8d0 	bl	8001a18 <Error_Handler>
  }
  sConfigOC.OCMode = TIM_OCMODE_PWM1;
 8001878:	2360      	movs	r3, #96	@ 0x60
 800187a:	607b      	str	r3, [r7, #4]
  sConfigOC.Pulse = 0;
 800187c:	2300      	movs	r3, #0
 800187e:	60bb      	str	r3, [r7, #8]
  sConfigOC.OCPolarity = TIM_OCPOLARITY_HIGH;
 8001880:	2300      	movs	r3, #0
 8001882:	60fb      	str	r3, [r7, #12]
  sConfigOC.OCFastMode = TIM_OCFAST_DISABLE;
 8001884:	2300      	movs	r3, #0
 8001886:	617b      	str	r3, [r7, #20]
  if (HAL_TIM_PWM_ConfigChannel(&htim4, &sConfigOC, TIM_CHANNEL_1) != HAL_OK)
 8001888:	1d3b      	adds	r3, r7, #4
 800188a:	2200      	movs	r2, #0
 800188c:	4619      	mov	r1, r3
 800188e:	4812      	ldr	r0, [pc, #72]	@ (80018d8 <MX_TIM4_Init+0x110>)
 8001890:	f003 fa1a 	bl	8004cc8 <HAL_TIM_PWM_ConfigChannel>
 8001894:	4603      	mov	r3, r0
 8001896:	2b00      	cmp	r3, #0
 8001898:	d001      	beq.n	800189e <MX_TIM4_Init+0xd6>
  {
    Error_Handler();
 800189a:	f000 f8bd 	bl	8001a18 <Error_Handler>
  }
  if (HAL_TIM_PWM_ConfigChannel(&htim4, &sConfigOC, TIM_CHANNEL_3) != HAL_OK)
 800189e:	1d3b      	adds	r3, r7, #4
 80018a0:	2208      	movs	r2, #8
 80018a2:	4619      	mov	r1, r3
 80018a4:	480c      	ldr	r0, [pc, #48]	@ (80018d8 <MX_TIM4_Init+0x110>)
 80018a6:	f003 fa0f 	bl	8004cc8 <HAL_TIM_PWM_ConfigChannel>
 80018aa:	4603      	mov	r3, r0
 80018ac:	2b00      	cmp	r3, #0
 80018ae:	d001      	beq.n	80018b4 <MX_TIM4_Init+0xec>
  {
    Error_Handler();
 80018b0:	f000 f8b2 	bl	8001a18 <Error_Handler>
  }
  if (HAL_TIM_PWM_ConfigChannel(&htim4, &sConfigOC, TIM_CHANNEL_4) != HAL_OK)
 80018b4:	1d3b      	adds	r3, r7, #4
 80018b6:	220c      	movs	r2, #12
 80018b8:	4619      	mov	r1, r3
 80018ba:	4807      	ldr	r0, [pc, #28]	@ (80018d8 <MX_TIM4_Init+0x110>)
 80018bc:	f003 fa04 	bl	8004cc8 <HAL_TIM_PWM_ConfigChannel>
 80018c0:	4603      	mov	r3, r0
 80018c2:	2b00      	cmp	r3, #0
 80018c4:	d001      	beq.n	80018ca <MX_TIM4_Init+0x102>
  {
    Error_Handler();
 80018c6:	f000 f8a7 	bl	8001a18 <Error_Handler>
  }
  /* USER CODE BEGIN TIM4_Init 2 */

  /* USER CODE END TIM4_Init 2 */
  HAL_TIM_MspPostInit(&htim4);
 80018ca:	4803      	ldr	r0, [pc, #12]	@ (80018d8 <MX_TIM4_Init+0x110>)
 80018cc:	f000 faea 	bl	8001ea4 <HAL_TIM_MspPostInit>

}
 80018d0:	bf00      	nop
 80018d2:	3738      	adds	r7, #56	@ 0x38
 80018d4:	46bd      	mov	sp, r7
 80018d6:	bd80      	pop	{r7, pc}
 80018d8:	20000114 	.word	0x20000114
 80018dc:	40000800 	.word	0x40000800

080018e0 <MX_GPIO_Init>:
  * @brief GPIO Initialization Function
  * @param None
  * @retval None
  */
static void MX_GPIO_Init(void)
{
 80018e0:	b580      	push	{r7, lr}
 80018e2:	b08a      	sub	sp, #40	@ 0x28
 80018e4:	af00      	add	r7, sp, #0
  GPIO_InitTypeDef GPIO_InitStruct = {0};
 80018e6:	f107 0314 	add.w	r3, r7, #20
 80018ea:	2200      	movs	r2, #0
 80018ec:	601a      	str	r2, [r3, #0]
 80018ee:	605a      	str	r2, [r3, #4]
 80018f0:	609a      	str	r2, [r3, #8]
 80018f2:	60da      	str	r2, [r3, #12]
 80018f4:	611a      	str	r2, [r3, #16]
/* USER CODE BEGIN MX_GPIO_Init_1 */
/* USER CODE END MX_GPIO_Init_1 */

  /* GPIO Ports Clock Enable */
  __HAL_RCC_GPIOA_CLK_ENABLE();
 80018f6:	2300      	movs	r3, #0
 80018f8:	613b      	str	r3, [r7, #16]
 80018fa:	4b32      	ldr	r3, [pc, #200]	@ (80019c4 <MX_GPIO_Init+0xe4>)
 80018fc:	6b1b      	ldr	r3, [r3, #48]	@ 0x30
 80018fe:	4a31      	ldr	r2, [pc, #196]	@ (80019c4 <MX_GPIO_Init+0xe4>)
 8001900:	f043 0301 	orr.w	r3, r3, #1
 8001904:	6313      	str	r3, [r2, #48]	@ 0x30
 8001906:	4b2f      	ldr	r3, [pc, #188]	@ (80019c4 <MX_GPIO_Init+0xe4>)
 8001908:	6b1b      	ldr	r3, [r3, #48]	@ 0x30
 800190a:	f003 0301 	and.w	r3, r3, #1
 800190e:	613b      	str	r3, [r7, #16]
 8001910:	693b      	ldr	r3, [r7, #16]
  __HAL_RCC_GPIOE_CLK_ENABLE();
 8001912:	2300      	movs	r3, #0
 8001914:	60fb      	str	r3, [r7, #12]
 8001916:	4b2b      	ldr	r3, [pc, #172]	@ (80019c4 <MX_GPIO_Init+0xe4>)
 8001918:	6b1b      	ldr	r3, [r3, #48]	@ 0x30
 800191a:	4a2a      	ldr	r2, [pc, #168]	@ (80019c4 <MX_GPIO_Init+0xe4>)
 800191c:	f043 0310 	orr.w	r3, r3, #16
 8001920:	6313      	str	r3, [r2, #48]	@ 0x30
 8001922:	4b28      	ldr	r3, [pc, #160]	@ (80019c4 <MX_GPIO_Init+0xe4>)
 8001924:	6b1b      	ldr	r3, [r3, #48]	@ 0x30
 8001926:	f003 0310 	and.w	r3, r3, #16
 800192a:	60fb      	str	r3, [r7, #12]
 800192c:	68fb      	ldr	r3, [r7, #12]
  __HAL_RCC_GPIOD_CLK_ENABLE();
 800192e:	2300      	movs	r3, #0
 8001930:	60bb      	str	r3, [r7, #8]
 8001932:	4b24      	ldr	r3, [pc, #144]	@ (80019c4 <MX_GPIO_Init+0xe4>)
 8001934:	6b1b      	ldr	r3, [r3, #48]	@ 0x30
 8001936:	4a23      	ldr	r2, [pc, #140]	@ (80019c4 <MX_GPIO_Init+0xe4>)
 8001938:	f043 0308 	orr.w	r3, r3, #8
 800193c:	6313      	str	r3, [r2, #48]	@ 0x30
 800193e:	4b21      	ldr	r3, [pc, #132]	@ (80019c4 <MX_GPIO_Init+0xe4>)
 8001940:	6b1b      	ldr	r3, [r3, #48]	@ 0x30
 8001942:	f003 0308 	and.w	r3, r3, #8
 8001946:	60bb      	str	r3, [r7, #8]
 8001948:	68bb      	ldr	r3, [r7, #8]
  __HAL_RCC_GPIOB_CLK_ENABLE();
 800194a:	2300      	movs	r3, #0
 800194c:	607b      	str	r3, [r7, #4]
 800194e:	4b1d      	ldr	r3, [pc, #116]	@ (80019c4 <MX_GPIO_Init+0xe4>)
 8001950:	6b1b      	ldr	r3, [r3, #48]	@ 0x30
 8001952:	4a1c      	ldr	r2, [pc, #112]	@ (80019c4 <MX_GPIO_Init+0xe4>)
 8001954:	f043 0302 	orr.w	r3, r3, #2
 8001958:	6313      	str	r3, [r2, #48]	@ 0x30
 800195a:	4b1a      	ldr	r3, [pc, #104]	@ (80019c4 <MX_GPIO_Init+0xe4>)
 800195c:	6b1b      	ldr	r3, [r3, #48]	@ 0x30
 800195e:	f003 0302 	and.w	r3, r3, #2
 8001962:	607b      	str	r3, [r7, #4]
 8001964:	687b      	ldr	r3, [r7, #4]

  /*Configure GPIO pin Output Level */
  HAL_GPIO_WritePin(GPIOE, LCD_RS_Pin|LCD_RW_Pin|LCD_E_Pin|LCD_D4_Pin
 8001966:	2200      	movs	r2, #0
 8001968:	f64f 4180 	movw	r1, #64640	@ 0xfc80
 800196c:	4816      	ldr	r0, [pc, #88]	@ (80019c8 <MX_GPIO_Init+0xe8>)
 800196e:	f001 faf3 	bl	8002f58 <HAL_GPIO_WritePin>
                          |LCD_D5_Pin|LCD_D6_Pin|LCD_D7_Pin, GPIO_PIN_RESET);

  /*Configure GPIO pin Output Level */
  HAL_GPIO_WritePin(GPIOD, GPIO_PIN_13, GPIO_PIN_RESET);
 8001972:	2200      	movs	r2, #0
 8001974:	f44f 5100 	mov.w	r1, #8192	@ 0x2000
 8001978:	4814      	ldr	r0, [pc, #80]	@ (80019cc <MX_GPIO_Init+0xec>)
 800197a:	f001 faed 	bl	8002f58 <HAL_GPIO_WritePin>

  /*Configure GPIO pins : LCD_RS_Pin LCD_RW_Pin LCD_E_Pin LCD_D4_Pin
                           LCD_D5_Pin LCD_D6_Pin LCD_D7_Pin */
  GPIO_InitStruct.Pin = LCD_RS_Pin|LCD_RW_Pin|LCD_E_Pin|LCD_D4_Pin
 800197e:	f64f 4380 	movw	r3, #64640	@ 0xfc80
 8001982:	617b      	str	r3, [r7, #20]
                          |LCD_D5_Pin|LCD_D6_Pin|LCD_D7_Pin;
  GPIO_InitStruct.Mode = GPIO_MODE_OUTPUT_PP;
 8001984:	2301      	movs	r3, #1
 8001986:	61bb      	str	r3, [r7, #24]
  GPIO_InitStruct.Pull = GPIO_NOPULL;
 8001988:	2300      	movs	r3, #0
 800198a:	61fb      	str	r3, [r7, #28]
  GPIO_InitStruct.Speed = GPIO_SPEED_FREQ_LOW;
 800198c:	2300      	movs	r3, #0
 800198e:	623b      	str	r3, [r7, #32]
  HAL_GPIO_Init(GPIOE, &GPIO_InitStruct);
 8001990:	f107 0314 	add.w	r3, r7, #20
 8001994:	4619      	mov	r1, r3
 8001996:	480c      	ldr	r0, [pc, #48]	@ (80019c8 <MX_GPIO_Init+0xe8>)
 8001998:	f001 f942 	bl	8002c20 <HAL_GPIO_Init>

  /*Configure GPIO pin : PD13 */
  GPIO_InitStruct.Pin = GPIO_PIN_13;
 800199c:	f44f 5300 	mov.w	r3, #8192	@ 0x2000
 80019a0:	617b      	str	r3, [r7, #20]
  GPIO_InitStruct.Mode = GPIO_MODE_OUTPUT_PP;
 80019a2:	2301      	movs	r3, #1
 80019a4:	61bb      	str	r3, [r7, #24]
  GPIO_InitStruct.Pull = GPIO_NOPULL;
 80019a6:	2300      	movs	r3, #0
 80019a8:	61fb      	str	r3, [r7, #28]
  GPIO_InitStruct.Speed = GPIO_SPEED_FREQ_LOW;
 80019aa:	2300      	movs	r3, #0
 80019ac:	623b      	str	r3, [r7, #32]
  HAL_GPIO_Init(GPIOD, &GPIO_InitStruct);
 80019ae:	f107 0314 	add.w	r3, r7, #20
 80019b2:	4619      	mov	r1, r3
 80019b4:	4805      	ldr	r0, [pc, #20]	@ (80019cc <MX_GPIO_Init+0xec>)
 80019b6:	f001 f933 	bl	8002c20 <HAL_GPIO_Init>

/* USER CODE BEGIN MX_GPIO_Init_2 */
/* USER CODE END MX_GPIO_Init_2 */
}
 80019ba:	bf00      	nop
 80019bc:	3728      	adds	r7, #40	@ 0x28
 80019be:	46bd      	mov	sp, r7
 80019c0:	bd80      	pop	{r7, pc}
 80019c2:	bf00      	nop
 80019c4:	40023800 	.word	0x40023800
 80019c8:	40021000 	.word	0x40021000
 80019cc:	40020c00 	.word	0x40020c00

080019d0 <HAL_ADC_ConvCpltCallback>:

/* USER CODE BEGIN 4 */

void HAL_ADC_ConvCpltCallback(ADC_HandleTypeDef* hadc)
{
 80019d0:	b480      	push	{r7}
 80019d2:	b083      	sub	sp, #12
 80019d4:	af00      	add	r7, sp, #0
 80019d6:	6078      	str	r0, [r7, #4]
  if (hadc->Instance == ADC1)
 80019d8:	687b      	ldr	r3, [r7, #4]
 80019da:	681b      	ldr	r3, [r3, #0]
 80019dc:	4a0a      	ldr	r2, [pc, #40]	@ (8001a08 <HAL_ADC_ConvCpltCallback+0x38>)
 80019de:	4293      	cmp	r3, r2
 80019e0:	d103      	bne.n	80019ea <HAL_ADC_ConvCpltCallback+0x1a>
	  adc1Flag = 1;
 80019e2:	4b0a      	ldr	r3, [pc, #40]	@ (8001a0c <HAL_ADC_ConvCpltCallback+0x3c>)
 80019e4:	2201      	movs	r2, #1
 80019e6:	601a      	str	r2, [r3, #0]
  else if (hadc->Instance == ADC2)
	  adc2Flag = 1;
}
 80019e8:	e007      	b.n	80019fa <HAL_ADC_ConvCpltCallback+0x2a>
  else if (hadc->Instance == ADC2)
 80019ea:	687b      	ldr	r3, [r7, #4]
 80019ec:	681b      	ldr	r3, [r3, #0]
 80019ee:	4a08      	ldr	r2, [pc, #32]	@ (8001a10 <HAL_ADC_ConvCpltCallback+0x40>)
 80019f0:	4293      	cmp	r3, r2
 80019f2:	d102      	bne.n	80019fa <HAL_ADC_ConvCpltCallback+0x2a>
	  adc2Flag = 1;
 80019f4:	4b07      	ldr	r3, [pc, #28]	@ (8001a14 <HAL_ADC_ConvCpltCallback+0x44>)
 80019f6:	2201      	movs	r2, #1
 80019f8:	601a      	str	r2, [r3, #0]
}
 80019fa:	bf00      	nop
 80019fc:	370c      	adds	r7, #12
 80019fe:	46bd      	mov	sp, r7
 8001a00:	f85d 7b04 	ldr.w	r7, [sp], #4
 8001a04:	4770      	bx	lr
 8001a06:	bf00      	nop
 8001a08:	40012000 	.word	0x40012000
 8001a0c:	2000015c 	.word	0x2000015c
 8001a10:	40012100 	.word	0x40012100
 8001a14:	20000160 	.word	0x20000160

08001a18 <Error_Handler>:
/**
  * @brief  This function is executed in case of error occurrence.
  * @retval None
  */
void Error_Handler(void)
{
 8001a18:	b480      	push	{r7}
 8001a1a:	af00      	add	r7, sp, #0
  \details Disables IRQ interrupts by setting special-purpose register PRIMASK.
           Can only be executed in Privileged modes.
 */
__STATIC_FORCEINLINE void __disable_irq(void)
{
  __ASM volatile ("cpsid i" : : : "memory");
 8001a1c:	b672      	cpsid	i
}
 8001a1e:	bf00      	nop
  /* USER CODE BEGIN Error_Handler_Debug */
  /* User can add his own implementation to report the HAL error return state */
  __disable_irq();
  while (1)
 8001a20:	bf00      	nop
 8001a22:	e7fd      	b.n	8001a20 <Error_Handler+0x8>

08001a24 <SHT2x_Init>:
	
/**
 * @brief Initializes the SHT2x temperature/humidity sensor.
 * @param hi2c User I2C handle pointer.
 */
void SHT2x_Init(I2C_HandleTypeDef *hi2c) {
 8001a24:	b480      	push	{r7}
 8001a26:	b083      	sub	sp, #12
 8001a28:	af00      	add	r7, sp, #0
 8001a2a:	6078      	str	r0, [r7, #4]
	_sht2x_ui2c = hi2c;
 8001a2c:	4a04      	ldr	r2, [pc, #16]	@ (8001a40 <SHT2x_Init+0x1c>)
 8001a2e:	687b      	ldr	r3, [r7, #4]
 8001a30:	6013      	str	r3, [r2, #0]
}
 8001a32:	bf00      	nop
 8001a34:	370c      	adds	r7, #12
 8001a36:	46bd      	mov	sp, r7
 8001a38:	f85d 7b04 	ldr.w	r7, [sp], #4
 8001a3c:	4770      	bx	lr
 8001a3e:	bf00      	nop
 8001a40:	20000164 	.word	0x20000164

08001a44 <SHT2x_SoftReset>:

/**
 *  @brief Performs a soft reset.
 */
void SHT2x_SoftReset(void){
 8001a44:	b580      	push	{r7, lr}
 8001a46:	b084      	sub	sp, #16
 8001a48:	af02      	add	r7, sp, #8
	uint8_t cmd = SHT2x_SOFT_RESET;
 8001a4a:	23fe      	movs	r3, #254	@ 0xfe
 8001a4c:	71fb      	strb	r3, [r7, #7]
	HAL_I2C_Master_Transmit(_sht2x_ui2c, SHT2x_I2C_ADDR << 1, &cmd, 1, SHT2x_TIMEOUT);
 8001a4e:	4b07      	ldr	r3, [pc, #28]	@ (8001a6c <SHT2x_SoftReset+0x28>)
 8001a50:	6818      	ldr	r0, [r3, #0]
 8001a52:	1dfa      	adds	r2, r7, #7
 8001a54:	f44f 737a 	mov.w	r3, #1000	@ 0x3e8
 8001a58:	9300      	str	r3, [sp, #0]
 8001a5a:	2301      	movs	r3, #1
 8001a5c:	2180      	movs	r1, #128	@ 0x80
 8001a5e:	f001 fbd9 	bl	8003214 <HAL_I2C_Master_Transmit>
}
 8001a62:	bf00      	nop
 8001a64:	3708      	adds	r7, #8
 8001a66:	46bd      	mov	sp, r7
 8001a68:	bd80      	pop	{r7, pc}
 8001a6a:	bf00      	nop
 8001a6c:	20000164 	.word	0x20000164

08001a70 <SHT2x_ReadUserReg>:

/**
 * @brief Gets the value stored in user register.
 * @return 8-bit value stored in user register, 0 to 255.
 */
uint8_t SHT2x_ReadUserReg(void) {
 8001a70:	b580      	push	{r7, lr}
 8001a72:	b084      	sub	sp, #16
 8001a74:	af02      	add	r7, sp, #8
	uint8_t val;
	uint8_t cmd = SHT2x_READ_REG;
 8001a76:	23e7      	movs	r3, #231	@ 0xe7
 8001a78:	71bb      	strb	r3, [r7, #6]
	HAL_I2C_Master_Transmit(_sht2x_ui2c, SHT2x_I2C_ADDR << 1, &cmd, 1, SHT2x_TIMEOUT);
 8001a7a:	4b0c      	ldr	r3, [pc, #48]	@ (8001aac <SHT2x_ReadUserReg+0x3c>)
 8001a7c:	6818      	ldr	r0, [r3, #0]
 8001a7e:	1dba      	adds	r2, r7, #6
 8001a80:	f44f 737a 	mov.w	r3, #1000	@ 0x3e8
 8001a84:	9300      	str	r3, [sp, #0]
 8001a86:	2301      	movs	r3, #1
 8001a88:	2180      	movs	r1, #128	@ 0x80
 8001a8a:	f001 fbc3 	bl	8003214 <HAL_I2C_Master_Transmit>
	HAL_I2C_Master_Receive(_sht2x_ui2c, SHT2x_I2C_ADDR << 1, &val, 1, SHT2x_TIMEOUT);
 8001a8e:	4b07      	ldr	r3, [pc, #28]	@ (8001aac <SHT2x_ReadUserReg+0x3c>)
 8001a90:	6818      	ldr	r0, [r3, #0]
 8001a92:	1dfa      	adds	r2, r7, #7
 8001a94:	f44f 737a 	mov.w	r3, #1000	@ 0x3e8
 8001a98:	9300      	str	r3, [sp, #0]
 8001a9a:	2301      	movs	r3, #1
 8001a9c:	2180      	movs	r1, #128	@ 0x80
 8001a9e:	f001 fcb7 	bl	8003410 <HAL_I2C_Master_Receive>
	return val;
 8001aa2:	79fb      	ldrb	r3, [r7, #7]
}
 8001aa4:	4618      	mov	r0, r3
 8001aa6:	3708      	adds	r7, #8
 8001aa8:	46bd      	mov	sp, r7
 8001aaa:	bd80      	pop	{r7, pc}
 8001aac:	20000164 	.word	0x20000164

08001ab0 <SHT2x_GetRaw>:
/**
 * @brief Sends the designated command to sensor and read a 16-bit raw value.
 * @param cmd Command to send to sensor.
 * @return 16-bit raw value, 0 to 65535.
 */
uint16_t SHT2x_GetRaw(uint8_t cmd) {
 8001ab0:	b580      	push	{r7, lr}
 8001ab2:	b086      	sub	sp, #24
 8001ab4:	af02      	add	r7, sp, #8
 8001ab6:	4603      	mov	r3, r0
 8001ab8:	71fb      	strb	r3, [r7, #7]
	uint8_t val[3] = { 0 };
 8001aba:	4b13      	ldr	r3, [pc, #76]	@ (8001b08 <SHT2x_GetRaw+0x58>)
 8001abc:	881b      	ldrh	r3, [r3, #0]
 8001abe:	81bb      	strh	r3, [r7, #12]
 8001ac0:	2300      	movs	r3, #0
 8001ac2:	73bb      	strb	r3, [r7, #14]
	HAL_I2C_Master_Transmit(_sht2x_ui2c, SHT2x_I2C_ADDR << 1, &cmd, 1, SHT2x_TIMEOUT);
 8001ac4:	4b11      	ldr	r3, [pc, #68]	@ (8001b0c <SHT2x_GetRaw+0x5c>)
 8001ac6:	6818      	ldr	r0, [r3, #0]
 8001ac8:	1dfa      	adds	r2, r7, #7
 8001aca:	f44f 737a 	mov.w	r3, #1000	@ 0x3e8
 8001ace:	9300      	str	r3, [sp, #0]
 8001ad0:	2301      	movs	r3, #1
 8001ad2:	2180      	movs	r1, #128	@ 0x80
 8001ad4:	f001 fb9e 	bl	8003214 <HAL_I2C_Master_Transmit>
	HAL_I2C_Master_Receive(_sht2x_ui2c, SHT2x_I2C_ADDR << 1, val, 3, SHT2x_TIMEOUT);
 8001ad8:	4b0c      	ldr	r3, [pc, #48]	@ (8001b0c <SHT2x_GetRaw+0x5c>)
 8001ada:	6818      	ldr	r0, [r3, #0]
 8001adc:	f107 020c 	add.w	r2, r7, #12
 8001ae0:	f44f 737a 	mov.w	r3, #1000	@ 0x3e8
 8001ae4:	9300      	str	r3, [sp, #0]
 8001ae6:	2303      	movs	r3, #3
 8001ae8:	2180      	movs	r1, #128	@ 0x80
 8001aea:	f001 fc91 	bl	8003410 <HAL_I2C_Master_Receive>
	return val[0] << 8 | val[1];
 8001aee:	7b3b      	ldrb	r3, [r7, #12]
 8001af0:	021b      	lsls	r3, r3, #8
 8001af2:	b21a      	sxth	r2, r3
 8001af4:	7b7b      	ldrb	r3, [r7, #13]
 8001af6:	b21b      	sxth	r3, r3
 8001af8:	4313      	orrs	r3, r2
 8001afa:	b21b      	sxth	r3, r3
 8001afc:	b29b      	uxth	r3, r3
}
 8001afe:	4618      	mov	r0, r3
 8001b00:	3710      	adds	r7, #16
 8001b02:	46bd      	mov	sp, r7
 8001b04:	bd80      	pop	{r7, pc}
 8001b06:	bf00      	nop
 8001b08:	08005820 	.word	0x08005820
 8001b0c:	20000164 	.word	0x20000164

08001b10 <SHT2x_GetTemperature>:
/**
 * @brief Measures and gets the current temperature.
 * @param hold Holding mode, 0 for no hold master, 1 for hold master.
 * @return Floating point temperature value.
 */
float SHT2x_GetTemperature(uint8_t hold) {
 8001b10:	b580      	push	{r7, lr}
 8001b12:	b084      	sub	sp, #16
 8001b14:	af00      	add	r7, sp, #0
 8001b16:	4603      	mov	r3, r0
 8001b18:	71fb      	strb	r3, [r7, #7]
	uint8_t cmd = (hold ? SHT2x_READ_TEMP_HOLD : SHT2x_READ_TEMP_NOHOLD);
 8001b1a:	79fb      	ldrb	r3, [r7, #7]
 8001b1c:	2b00      	cmp	r3, #0
 8001b1e:	d001      	beq.n	8001b24 <SHT2x_GetTemperature+0x14>
 8001b20:	23e3      	movs	r3, #227	@ 0xe3
 8001b22:	e000      	b.n	8001b26 <SHT2x_GetTemperature+0x16>
 8001b24:	23f3      	movs	r3, #243	@ 0xf3
 8001b26:	73fb      	strb	r3, [r7, #15]
	return -46.85 + 175.72 * (SHT2x_GetRaw(cmd) / 65536.0);
 8001b28:	7bfb      	ldrb	r3, [r7, #15]
 8001b2a:	4618      	mov	r0, r3
 8001b2c:	f7ff ffc0 	bl	8001ab0 <SHT2x_GetRaw>
 8001b30:	4603      	mov	r3, r0
 8001b32:	4618      	mov	r0, r3
 8001b34:	f7fe fc9a 	bl	800046c <__aeabi_i2d>
 8001b38:	f04f 0200 	mov.w	r2, #0
 8001b3c:	4b16      	ldr	r3, [pc, #88]	@ (8001b98 <SHT2x_GetTemperature+0x88>)
 8001b3e:	f7fe fe29 	bl	8000794 <__aeabi_ddiv>
 8001b42:	4602      	mov	r2, r0
 8001b44:	460b      	mov	r3, r1
 8001b46:	4610      	mov	r0, r2
 8001b48:	4619      	mov	r1, r3
 8001b4a:	a30f      	add	r3, pc, #60	@ (adr r3, 8001b88 <SHT2x_GetTemperature+0x78>)
 8001b4c:	e9d3 2300 	ldrd	r2, r3, [r3]
 8001b50:	f7fe fcf6 	bl	8000540 <__aeabi_dmul>
 8001b54:	4602      	mov	r2, r0
 8001b56:	460b      	mov	r3, r1
 8001b58:	4610      	mov	r0, r2
 8001b5a:	4619      	mov	r1, r3
 8001b5c:	a30c      	add	r3, pc, #48	@ (adr r3, 8001b90 <SHT2x_GetTemperature+0x80>)
 8001b5e:	e9d3 2300 	ldrd	r2, r3, [r3]
 8001b62:	f7fe fb35 	bl	80001d0 <__aeabi_dsub>
 8001b66:	4602      	mov	r2, r0
 8001b68:	460b      	mov	r3, r1
 8001b6a:	4610      	mov	r0, r2
 8001b6c:	4619      	mov	r1, r3
 8001b6e:	f7fe fef9 	bl	8000964 <__aeabi_d2f>
 8001b72:	4603      	mov	r3, r0
 8001b74:	ee07 3a90 	vmov	s15, r3
}
 8001b78:	eeb0 0a67 	vmov.f32	s0, s15
 8001b7c:	3710      	adds	r7, #16
 8001b7e:	46bd      	mov	sp, r7
 8001b80:	bd80      	pop	{r7, pc}
 8001b82:	bf00      	nop
 8001b84:	f3af 8000 	nop.w
 8001b88:	3d70a3d7 	.word	0x3d70a3d7
 8001b8c:	4065f70a 	.word	0x4065f70a
 8001b90:	cccccccd 	.word	0xcccccccd
 8001b94:	40476ccc 	.word	0x40476ccc
 8001b98:	40f00000 	.word	0x40f00000

08001b9c <SHT2x_GetRelativeHumidity>:
/**
 * @brief Measures and gets the current relative humidity.
 * @param hold Holding mode, 0 for no hold master, 1 for hold master.
 * @return Floating point relative humidity value.
 */
float SHT2x_GetRelativeHumidity(uint8_t hold) {
 8001b9c:	b580      	push	{r7, lr}
 8001b9e:	b084      	sub	sp, #16
 8001ba0:	af00      	add	r7, sp, #0
 8001ba2:	4603      	mov	r3, r0
 8001ba4:	71fb      	strb	r3, [r7, #7]
	uint8_t cmd = (hold ? SHT2x_READ_RH_HOLD : SHT2x_READ_RH_NOHOLD);
 8001ba6:	79fb      	ldrb	r3, [r7, #7]
 8001ba8:	2b00      	cmp	r3, #0
 8001baa:	d001      	beq.n	8001bb0 <SHT2x_GetRelativeHumidity+0x14>
 8001bac:	23e5      	movs	r3, #229	@ 0xe5
 8001bae:	e000      	b.n	8001bb2 <SHT2x_GetRelativeHumidity+0x16>
 8001bb0:	23f5      	movs	r3, #245	@ 0xf5
 8001bb2:	73fb      	strb	r3, [r7, #15]
	return -6 + 125.00 * (SHT2x_GetRaw(cmd) / 65536.0);
 8001bb4:	7bfb      	ldrb	r3, [r7, #15]
 8001bb6:	4618      	mov	r0, r3
 8001bb8:	f7ff ff7a 	bl	8001ab0 <SHT2x_GetRaw>
 8001bbc:	4603      	mov	r3, r0
 8001bbe:	4618      	mov	r0, r3
 8001bc0:	f7fe fc54 	bl	800046c <__aeabi_i2d>
 8001bc4:	f04f 0200 	mov.w	r2, #0
 8001bc8:	4b11      	ldr	r3, [pc, #68]	@ (8001c10 <SHT2x_GetRelativeHumidity+0x74>)
 8001bca:	f7fe fde3 	bl	8000794 <__aeabi_ddiv>
 8001bce:	4602      	mov	r2, r0
 8001bd0:	460b      	mov	r3, r1
 8001bd2:	4610      	mov	r0, r2
 8001bd4:	4619      	mov	r1, r3
 8001bd6:	f04f 0200 	mov.w	r2, #0
 8001bda:	4b0e      	ldr	r3, [pc, #56]	@ (8001c14 <SHT2x_GetRelativeHumidity+0x78>)
 8001bdc:	f7fe fcb0 	bl	8000540 <__aeabi_dmul>
 8001be0:	4602      	mov	r2, r0
 8001be2:	460b      	mov	r3, r1
 8001be4:	4610      	mov	r0, r2
 8001be6:	4619      	mov	r1, r3
 8001be8:	f04f 0200 	mov.w	r2, #0
 8001bec:	4b0a      	ldr	r3, [pc, #40]	@ (8001c18 <SHT2x_GetRelativeHumidity+0x7c>)
 8001bee:	f7fe faef 	bl	80001d0 <__aeabi_dsub>
 8001bf2:	4602      	mov	r2, r0
 8001bf4:	460b      	mov	r3, r1
 8001bf6:	4610      	mov	r0, r2
 8001bf8:	4619      	mov	r1, r3
 8001bfa:	f7fe feb3 	bl	8000964 <__aeabi_d2f>
 8001bfe:	4603      	mov	r3, r0
 8001c00:	ee07 3a90 	vmov	s15, r3
}
 8001c04:	eeb0 0a67 	vmov.f32	s0, s15
 8001c08:	3710      	adds	r7, #16
 8001c0a:	46bd      	mov	sp, r7
 8001c0c:	bd80      	pop	{r7, pc}
 8001c0e:	bf00      	nop
 8001c10:	40f00000 	.word	0x40f00000
 8001c14:	405f4000 	.word	0x405f4000
 8001c18:	40180000 	.word	0x40180000

08001c1c <SHT2x_SetResolution>:
 * @brief Sets the measurement resolution.
 * @param res Enum resolution.
 * @note Available resolutions: RES_14_12, RES_12_8, RES_13_10, RES_11_11.
 * @note RES_14_12 = 14-bit temperature and 12-bit RH resolution, etc.
 */
void SHT2x_SetResolution(SHT2x_Resolution res) {
 8001c1c:	b580      	push	{r7, lr}
 8001c1e:	b086      	sub	sp, #24
 8001c20:	af02      	add	r7, sp, #8
 8001c22:	4603      	mov	r3, r0
 8001c24:	71fb      	strb	r3, [r7, #7]
	uint8_t val = SHT2x_ReadUserReg();
 8001c26:	f7ff ff23 	bl	8001a70 <SHT2x_ReadUserReg>
 8001c2a:	4603      	mov	r3, r0
 8001c2c:	73fb      	strb	r3, [r7, #15]
	val = (val & 0x7e) | res;
 8001c2e:	f997 300f 	ldrsb.w	r3, [r7, #15]
 8001c32:	f003 037e 	and.w	r3, r3, #126	@ 0x7e
 8001c36:	b25a      	sxtb	r2, r3
 8001c38:	f997 3007 	ldrsb.w	r3, [r7, #7]
 8001c3c:	4313      	orrs	r3, r2
 8001c3e:	b25b      	sxtb	r3, r3
 8001c40:	73fb      	strb	r3, [r7, #15]
	uint8_t temp[2] = { SHT2x_WRITE_REG, val };
 8001c42:	23e6      	movs	r3, #230	@ 0xe6
 8001c44:	733b      	strb	r3, [r7, #12]
 8001c46:	7bfb      	ldrb	r3, [r7, #15]
 8001c48:	737b      	strb	r3, [r7, #13]
	HAL_I2C_Master_Transmit(_sht2x_ui2c, SHT2x_I2C_ADDR << 1, temp, 2, SHT2x_TIMEOUT);
 8001c4a:	4b07      	ldr	r3, [pc, #28]	@ (8001c68 <SHT2x_SetResolution+0x4c>)
 8001c4c:	6818      	ldr	r0, [r3, #0]
 8001c4e:	f107 020c 	add.w	r2, r7, #12
 8001c52:	f44f 737a 	mov.w	r3, #1000	@ 0x3e8
 8001c56:	9300      	str	r3, [sp, #0]
 8001c58:	2302      	movs	r3, #2
 8001c5a:	2180      	movs	r1, #128	@ 0x80
 8001c5c:	f001 fada 	bl	8003214 <HAL_I2C_Master_Transmit>
}
 8001c60:	bf00      	nop
 8001c62:	3710      	adds	r7, #16
 8001c64:	46bd      	mov	sp, r7
 8001c66:	bd80      	pop	{r7, pc}
 8001c68:	20000164 	.word	0x20000164

08001c6c <HAL_MspInit>:
void HAL_TIM_MspPostInit(TIM_HandleTypeDef *htim);
                    /**
  * Initializes the Global MSP.
  */
void HAL_MspInit(void)
{
 8001c6c:	b480      	push	{r7}
 8001c6e:	b083      	sub	sp, #12
 8001c70:	af00      	add	r7, sp, #0
  /* USER CODE BEGIN MspInit 0 */

  /* USER CODE END MspInit 0 */

  __HAL_RCC_SYSCFG_CLK_ENABLE();
 8001c72:	2300      	movs	r3, #0
 8001c74:	607b      	str	r3, [r7, #4]
 8001c76:	4b10      	ldr	r3, [pc, #64]	@ (8001cb8 <HAL_MspInit+0x4c>)
 8001c78:	6c5b      	ldr	r3, [r3, #68]	@ 0x44
 8001c7a:	4a0f      	ldr	r2, [pc, #60]	@ (8001cb8 <HAL_MspInit+0x4c>)
 8001c7c:	f443 4380 	orr.w	r3, r3, #16384	@ 0x4000
 8001c80:	6453      	str	r3, [r2, #68]	@ 0x44
 8001c82:	4b0d      	ldr	r3, [pc, #52]	@ (8001cb8 <HAL_MspInit+0x4c>)
 8001c84:	6c5b      	ldr	r3, [r3, #68]	@ 0x44
 8001c86:	f403 4380 	and.w	r3, r3, #16384	@ 0x4000
 8001c8a:	607b      	str	r3, [r7, #4]
 8001c8c:	687b      	ldr	r3, [r7, #4]
  __HAL_RCC_PWR_CLK_ENABLE();
 8001c8e:	2300      	movs	r3, #0
 8001c90:	603b      	str	r3, [r7, #0]
 8001c92:	4b09      	ldr	r3, [pc, #36]	@ (8001cb8 <HAL_MspInit+0x4c>)
 8001c94:	6c1b      	ldr	r3, [r3, #64]	@ 0x40
 8001c96:	4a08      	ldr	r2, [pc, #32]	@ (8001cb8 <HAL_MspInit+0x4c>)
 8001c98:	f043 5380 	orr.w	r3, r3, #268435456	@ 0x10000000
 8001c9c:	6413      	str	r3, [r2, #64]	@ 0x40
 8001c9e:	4b06      	ldr	r3, [pc, #24]	@ (8001cb8 <HAL_MspInit+0x4c>)
 8001ca0:	6c1b      	ldr	r3, [r3, #64]	@ 0x40
 8001ca2:	f003 5380 	and.w	r3, r3, #268435456	@ 0x10000000
 8001ca6:	603b      	str	r3, [r7, #0]
 8001ca8:	683b      	ldr	r3, [r7, #0]
  /* System interrupt init*/

  /* USER CODE BEGIN MspInit 1 */

  /* USER CODE END MspInit 1 */
}
 8001caa:	bf00      	nop
 8001cac:	370c      	adds	r7, #12
 8001cae:	46bd      	mov	sp, r7
 8001cb0:	f85d 7b04 	ldr.w	r7, [sp], #4
 8001cb4:	4770      	bx	lr
 8001cb6:	bf00      	nop
 8001cb8:	40023800 	.word	0x40023800

08001cbc <HAL_ADC_MspInit>:
* This function configures the hardware resources used in this example
* @param hadc: ADC handle pointer
* @retval None
*/
void HAL_ADC_MspInit(ADC_HandleTypeDef* hadc)
{
 8001cbc:	b580      	push	{r7, lr}
 8001cbe:	b08c      	sub	sp, #48	@ 0x30
 8001cc0:	af00      	add	r7, sp, #0
 8001cc2:	6078      	str	r0, [r7, #4]
  GPIO_InitTypeDef GPIO_InitStruct = {0};
 8001cc4:	f107 031c 	add.w	r3, r7, #28
 8001cc8:	2200      	movs	r2, #0
 8001cca:	601a      	str	r2, [r3, #0]
 8001ccc:	605a      	str	r2, [r3, #4]
 8001cce:	609a      	str	r2, [r3, #8]
 8001cd0:	60da      	str	r2, [r3, #12]
 8001cd2:	611a      	str	r2, [r3, #16]
  if(hadc->Instance==ADC1)
 8001cd4:	687b      	ldr	r3, [r7, #4]
 8001cd6:	681b      	ldr	r3, [r3, #0]
 8001cd8:	4a36      	ldr	r2, [pc, #216]	@ (8001db4 <HAL_ADC_MspInit+0xf8>)
 8001cda:	4293      	cmp	r3, r2
 8001cdc:	d130      	bne.n	8001d40 <HAL_ADC_MspInit+0x84>
  {
  /* USER CODE BEGIN ADC1_MspInit 0 */

  /* USER CODE END ADC1_MspInit 0 */
    /* Peripheral clock enable */
    __HAL_RCC_ADC1_CLK_ENABLE();
 8001cde:	2300      	movs	r3, #0
 8001ce0:	61bb      	str	r3, [r7, #24]
 8001ce2:	4b35      	ldr	r3, [pc, #212]	@ (8001db8 <HAL_ADC_MspInit+0xfc>)
 8001ce4:	6c5b      	ldr	r3, [r3, #68]	@ 0x44
 8001ce6:	4a34      	ldr	r2, [pc, #208]	@ (8001db8 <HAL_ADC_MspInit+0xfc>)
 8001ce8:	f443 7380 	orr.w	r3, r3, #256	@ 0x100
 8001cec:	6453      	str	r3, [r2, #68]	@ 0x44
 8001cee:	4b32      	ldr	r3, [pc, #200]	@ (8001db8 <HAL_ADC_MspInit+0xfc>)
 8001cf0:	6c5b      	ldr	r3, [r3, #68]	@ 0x44
 8001cf2:	f403 7380 	and.w	r3, r3, #256	@ 0x100
 8001cf6:	61bb      	str	r3, [r7, #24]
 8001cf8:	69bb      	ldr	r3, [r7, #24]

    __HAL_RCC_GPIOA_CLK_ENABLE();
 8001cfa:	2300      	movs	r3, #0
 8001cfc:	617b      	str	r3, [r7, #20]
 8001cfe:	4b2e      	ldr	r3, [pc, #184]	@ (8001db8 <HAL_ADC_MspInit+0xfc>)
 8001d00:	6b1b      	ldr	r3, [r3, #48]	@ 0x30
 8001d02:	4a2d      	ldr	r2, [pc, #180]	@ (8001db8 <HAL_ADC_MspInit+0xfc>)
 8001d04:	f043 0301 	orr.w	r3, r3, #1
 8001d08:	6313      	str	r3, [r2, #48]	@ 0x30
 8001d0a:	4b2b      	ldr	r3, [pc, #172]	@ (8001db8 <HAL_ADC_MspInit+0xfc>)
 8001d0c:	6b1b      	ldr	r3, [r3, #48]	@ 0x30
 8001d0e:	f003 0301 	and.w	r3, r3, #1
 8001d12:	617b      	str	r3, [r7, #20]
 8001d14:	697b      	ldr	r3, [r7, #20]
    /**ADC1 GPIO Configuration
    PA3     ------> ADC1_IN3
    */
    GPIO_InitStruct.Pin = GPIO_PIN_3;
 8001d16:	2308      	movs	r3, #8
 8001d18:	61fb      	str	r3, [r7, #28]
    GPIO_InitStruct.Mode = GPIO_MODE_ANALOG;
 8001d1a:	2303      	movs	r3, #3
 8001d1c:	623b      	str	r3, [r7, #32]
    GPIO_InitStruct.Pull = GPIO_NOPULL;
 8001d1e:	2300      	movs	r3, #0
 8001d20:	627b      	str	r3, [r7, #36]	@ 0x24
    HAL_GPIO_Init(GPIOA, &GPIO_InitStruct);
 8001d22:	f107 031c 	add.w	r3, r7, #28
 8001d26:	4619      	mov	r1, r3
 8001d28:	4824      	ldr	r0, [pc, #144]	@ (8001dbc <HAL_ADC_MspInit+0x100>)
 8001d2a:	f000 ff79 	bl	8002c20 <HAL_GPIO_Init>

    /* ADC1 interrupt Init */
    HAL_NVIC_SetPriority(ADC_IRQn, 0, 0);
 8001d2e:	2200      	movs	r2, #0
 8001d30:	2100      	movs	r1, #0
 8001d32:	2012      	movs	r0, #18
 8001d34:	f000 ff3d 	bl	8002bb2 <HAL_NVIC_SetPriority>
    HAL_NVIC_EnableIRQ(ADC_IRQn);
 8001d38:	2012      	movs	r0, #18
 8001d3a:	f000 ff56 	bl	8002bea <HAL_NVIC_EnableIRQ>
  /* USER CODE BEGIN ADC2_MspInit 1 */

  /* USER CODE END ADC2_MspInit 1 */
  }

}
 8001d3e:	e034      	b.n	8001daa <HAL_ADC_MspInit+0xee>
  else if(hadc->Instance==ADC2)
 8001d40:	687b      	ldr	r3, [r7, #4]
 8001d42:	681b      	ldr	r3, [r3, #0]
 8001d44:	4a1e      	ldr	r2, [pc, #120]	@ (8001dc0 <HAL_ADC_MspInit+0x104>)
 8001d46:	4293      	cmp	r3, r2
 8001d48:	d12f      	bne.n	8001daa <HAL_ADC_MspInit+0xee>
    __HAL_RCC_ADC2_CLK_ENABLE();
 8001d4a:	2300      	movs	r3, #0
 8001d4c:	613b      	str	r3, [r7, #16]
 8001d4e:	4b1a      	ldr	r3, [pc, #104]	@ (8001db8 <HAL_ADC_MspInit+0xfc>)
 8001d50:	6c5b      	ldr	r3, [r3, #68]	@ 0x44
 8001d52:	4a19      	ldr	r2, [pc, #100]	@ (8001db8 <HAL_ADC_MspInit+0xfc>)
 8001d54:	f443 7300 	orr.w	r3, r3, #512	@ 0x200
 8001d58:	6453      	str	r3, [r2, #68]	@ 0x44
 8001d5a:	4b17      	ldr	r3, [pc, #92]	@ (8001db8 <HAL_ADC_MspInit+0xfc>)
 8001d5c:	6c5b      	ldr	r3, [r3, #68]	@ 0x44
 8001d5e:	f403 7300 	and.w	r3, r3, #512	@ 0x200
 8001d62:	613b      	str	r3, [r7, #16]
 8001d64:	693b      	ldr	r3, [r7, #16]
    __HAL_RCC_GPIOA_CLK_ENABLE();
 8001d66:	2300      	movs	r3, #0
 8001d68:	60fb      	str	r3, [r7, #12]
 8001d6a:	4b13      	ldr	r3, [pc, #76]	@ (8001db8 <HAL_ADC_MspInit+0xfc>)
 8001d6c:	6b1b      	ldr	r3, [r3, #48]	@ 0x30
 8001d6e:	4a12      	ldr	r2, [pc, #72]	@ (8001db8 <HAL_ADC_MspInit+0xfc>)
 8001d70:	f043 0301 	orr.w	r3, r3, #1
 8001d74:	6313      	str	r3, [r2, #48]	@ 0x30
 8001d76:	4b10      	ldr	r3, [pc, #64]	@ (8001db8 <HAL_ADC_MspInit+0xfc>)
 8001d78:	6b1b      	ldr	r3, [r3, #48]	@ 0x30
 8001d7a:	f003 0301 	and.w	r3, r3, #1
 8001d7e:	60fb      	str	r3, [r7, #12]
 8001d80:	68fb      	ldr	r3, [r7, #12]
    GPIO_InitStruct.Pin = GPIO_PIN_0;
 8001d82:	2301      	movs	r3, #1
 8001d84:	61fb      	str	r3, [r7, #28]
    GPIO_InitStruct.Mode = GPIO_MODE_ANALOG;
 8001d86:	2303      	movs	r3, #3
 8001d88:	623b      	str	r3, [r7, #32]
    GPIO_InitStruct.Pull = GPIO_NOPULL;
 8001d8a:	2300      	movs	r3, #0
 8001d8c:	627b      	str	r3, [r7, #36]	@ 0x24
    HAL_GPIO_Init(GPIOA, &GPIO_InitStruct);
 8001d8e:	f107 031c 	add.w	r3, r7, #28
 8001d92:	4619      	mov	r1, r3
 8001d94:	4809      	ldr	r0, [pc, #36]	@ (8001dbc <HAL_ADC_MspInit+0x100>)
 8001d96:	f000 ff43 	bl	8002c20 <HAL_GPIO_Init>
    HAL_NVIC_SetPriority(ADC_IRQn, 0, 0);
 8001d9a:	2200      	movs	r2, #0
 8001d9c:	2100      	movs	r1, #0
 8001d9e:	2012      	movs	r0, #18
 8001da0:	f000 ff07 	bl	8002bb2 <HAL_NVIC_SetPriority>
    HAL_NVIC_EnableIRQ(ADC_IRQn);
 8001da4:	2012      	movs	r0, #18
 8001da6:	f000 ff20 	bl	8002bea <HAL_NVIC_EnableIRQ>
}
 8001daa:	bf00      	nop
 8001dac:	3730      	adds	r7, #48	@ 0x30
 8001dae:	46bd      	mov	sp, r7
 8001db0:	bd80      	pop	{r7, pc}
 8001db2:	bf00      	nop
 8001db4:	40012000 	.word	0x40012000
 8001db8:	40023800 	.word	0x40023800
 8001dbc:	40020000 	.word	0x40020000
 8001dc0:	40012100 	.word	0x40012100

08001dc4 <HAL_I2C_MspInit>:
* This function configures the hardware resources used in this example
* @param hi2c: I2C handle pointer
* @retval None
*/
void HAL_I2C_MspInit(I2C_HandleTypeDef* hi2c)
{
 8001dc4:	b580      	push	{r7, lr}
 8001dc6:	b08a      	sub	sp, #40	@ 0x28
 8001dc8:	af00      	add	r7, sp, #0
 8001dca:	6078      	str	r0, [r7, #4]
  GPIO_InitTypeDef GPIO_InitStruct = {0};
 8001dcc:	f107 0314 	add.w	r3, r7, #20
 8001dd0:	2200      	movs	r2, #0
 8001dd2:	601a      	str	r2, [r3, #0]
 8001dd4:	605a      	str	r2, [r3, #4]
 8001dd6:	609a      	str	r2, [r3, #8]
 8001dd8:	60da      	str	r2, [r3, #12]
 8001dda:	611a      	str	r2, [r3, #16]
  if(hi2c->Instance==I2C1)
 8001ddc:	687b      	ldr	r3, [r7, #4]
 8001dde:	681b      	ldr	r3, [r3, #0]
 8001de0:	4a19      	ldr	r2, [pc, #100]	@ (8001e48 <HAL_I2C_MspInit+0x84>)
 8001de2:	4293      	cmp	r3, r2
 8001de4:	d12b      	bne.n	8001e3e <HAL_I2C_MspInit+0x7a>
  {
  /* USER CODE BEGIN I2C1_MspInit 0 */

  /* USER CODE END I2C1_MspInit 0 */

    __HAL_RCC_GPIOB_CLK_ENABLE();
 8001de6:	2300      	movs	r3, #0
 8001de8:	613b      	str	r3, [r7, #16]
 8001dea:	4b18      	ldr	r3, [pc, #96]	@ (8001e4c <HAL_I2C_MspInit+0x88>)
 8001dec:	6b1b      	ldr	r3, [r3, #48]	@ 0x30
 8001dee:	4a17      	ldr	r2, [pc, #92]	@ (8001e4c <HAL_I2C_MspInit+0x88>)
 8001df0:	f043 0302 	orr.w	r3, r3, #2
 8001df4:	6313      	str	r3, [r2, #48]	@ 0x30
 8001df6:	4b15      	ldr	r3, [pc, #84]	@ (8001e4c <HAL_I2C_MspInit+0x88>)
 8001df8:	6b1b      	ldr	r3, [r3, #48]	@ 0x30
 8001dfa:	f003 0302 	and.w	r3, r3, #2
 8001dfe:	613b      	str	r3, [r7, #16]
 8001e00:	693b      	ldr	r3, [r7, #16]
    /**I2C1 GPIO Configuration
    PB6     ------> I2C1_SCL
    PB7     ------> I2C1_SDA
    */
    GPIO_InitStruct.Pin = GPIO_PIN_6|GPIO_PIN_7;
 8001e02:	23c0      	movs	r3, #192	@ 0xc0
 8001e04:	617b      	str	r3, [r7, #20]
    GPIO_InitStruct.Mode = GPIO_MODE_AF_OD;
 8001e06:	2312      	movs	r3, #18
 8001e08:	61bb      	str	r3, [r7, #24]
    GPIO_InitStruct.Pull = GPIO_NOPULL;
 8001e0a:	2300      	movs	r3, #0
 8001e0c:	61fb      	str	r3, [r7, #28]
    GPIO_InitStruct.Speed = GPIO_SPEED_FREQ_VERY_HIGH;
 8001e0e:	2303      	movs	r3, #3
 8001e10:	623b      	str	r3, [r7, #32]
    GPIO_InitStruct.Alternate = GPIO_AF4_I2C1;
 8001e12:	2304      	movs	r3, #4
 8001e14:	627b      	str	r3, [r7, #36]	@ 0x24
    HAL_GPIO_Init(GPIOB, &GPIO_InitStruct);
 8001e16:	f107 0314 	add.w	r3, r7, #20
 8001e1a:	4619      	mov	r1, r3
 8001e1c:	480c      	ldr	r0, [pc, #48]	@ (8001e50 <HAL_I2C_MspInit+0x8c>)
 8001e1e:	f000 feff 	bl	8002c20 <HAL_GPIO_Init>

    /* Peripheral clock enable */
    __HAL_RCC_I2C1_CLK_ENABLE();
 8001e22:	2300      	movs	r3, #0
 8001e24:	60fb      	str	r3, [r7, #12]
 8001e26:	4b09      	ldr	r3, [pc, #36]	@ (8001e4c <HAL_I2C_MspInit+0x88>)
 8001e28:	6c1b      	ldr	r3, [r3, #64]	@ 0x40
 8001e2a:	4a08      	ldr	r2, [pc, #32]	@ (8001e4c <HAL_I2C_MspInit+0x88>)
 8001e2c:	f443 1300 	orr.w	r3, r3, #2097152	@ 0x200000
 8001e30:	6413      	str	r3, [r2, #64]	@ 0x40
 8001e32:	4b06      	ldr	r3, [pc, #24]	@ (8001e4c <HAL_I2C_MspInit+0x88>)
 8001e34:	6c1b      	ldr	r3, [r3, #64]	@ 0x40
 8001e36:	f403 1300 	and.w	r3, r3, #2097152	@ 0x200000
 8001e3a:	60fb      	str	r3, [r7, #12]
 8001e3c:	68fb      	ldr	r3, [r7, #12]
  /* USER CODE BEGIN I2C1_MspInit 1 */

  /* USER CODE END I2C1_MspInit 1 */
  }

}
 8001e3e:	bf00      	nop
 8001e40:	3728      	adds	r7, #40	@ 0x28
 8001e42:	46bd      	mov	sp, r7
 8001e44:	bd80      	pop	{r7, pc}
 8001e46:	bf00      	nop
 8001e48:	40005400 	.word	0x40005400
 8001e4c:	40023800 	.word	0x40023800
 8001e50:	40020400 	.word	0x40020400

08001e54 <HAL_TIM_Base_MspInit>:
* This function configures the hardware resources used in this example
* @param htim_base: TIM_Base handle pointer
* @retval None
*/
void HAL_TIM_Base_MspInit(TIM_HandleTypeDef* htim_base)
{
 8001e54:	b580      	push	{r7, lr}
 8001e56:	b084      	sub	sp, #16
 8001e58:	af00      	add	r7, sp, #0
 8001e5a:	6078      	str	r0, [r7, #4]
  if(htim_base->Instance==TIM4)
 8001e5c:	687b      	ldr	r3, [r7, #4]
 8001e5e:	681b      	ldr	r3, [r3, #0]
 8001e60:	4a0e      	ldr	r2, [pc, #56]	@ (8001e9c <HAL_TIM_Base_MspInit+0x48>)
 8001e62:	4293      	cmp	r3, r2
 8001e64:	d115      	bne.n	8001e92 <HAL_TIM_Base_MspInit+0x3e>
  {
  /* USER CODE BEGIN TIM4_MspInit 0 */

  /* USER CODE END TIM4_MspInit 0 */
    /* Peripheral clock enable */
    __HAL_RCC_TIM4_CLK_ENABLE();
 8001e66:	2300      	movs	r3, #0
 8001e68:	60fb      	str	r3, [r7, #12]
 8001e6a:	4b0d      	ldr	r3, [pc, #52]	@ (8001ea0 <HAL_TIM_Base_MspInit+0x4c>)
 8001e6c:	6c1b      	ldr	r3, [r3, #64]	@ 0x40
 8001e6e:	4a0c      	ldr	r2, [pc, #48]	@ (8001ea0 <HAL_TIM_Base_MspInit+0x4c>)
 8001e70:	f043 0304 	orr.w	r3, r3, #4
 8001e74:	6413      	str	r3, [r2, #64]	@ 0x40
 8001e76:	4b0a      	ldr	r3, [pc, #40]	@ (8001ea0 <HAL_TIM_Base_MspInit+0x4c>)
 8001e78:	6c1b      	ldr	r3, [r3, #64]	@ 0x40
 8001e7a:	f003 0304 	and.w	r3, r3, #4
 8001e7e:	60fb      	str	r3, [r7, #12]
 8001e80:	68fb      	ldr	r3, [r7, #12]
    /* TIM4 interrupt Init */
    HAL_NVIC_SetPriority(TIM4_IRQn, 0, 0);
 8001e82:	2200      	movs	r2, #0
 8001e84:	2100      	movs	r1, #0
 8001e86:	201e      	movs	r0, #30
 8001e88:	f000 fe93 	bl	8002bb2 <HAL_NVIC_SetPriority>
    HAL_NVIC_EnableIRQ(TIM4_IRQn);
 8001e8c:	201e      	movs	r0, #30
 8001e8e:	f000 feac 	bl	8002bea <HAL_NVIC_EnableIRQ>
  /* USER CODE BEGIN TIM4_MspInit 1 */

  /* USER CODE END TIM4_MspInit 1 */
  }

}
 8001e92:	bf00      	nop
 8001e94:	3710      	adds	r7, #16
 8001e96:	46bd      	mov	sp, r7
 8001e98:	bd80      	pop	{r7, pc}
 8001e9a:	bf00      	nop
 8001e9c:	40000800 	.word	0x40000800
 8001ea0:	40023800 	.word	0x40023800

08001ea4 <HAL_TIM_MspPostInit>:

void HAL_TIM_MspPostInit(TIM_HandleTypeDef* htim)
{
 8001ea4:	b580      	push	{r7, lr}
 8001ea6:	b088      	sub	sp, #32
 8001ea8:	af00      	add	r7, sp, #0
 8001eaa:	6078      	str	r0, [r7, #4]
  GPIO_InitTypeDef GPIO_InitStruct = {0};
 8001eac:	f107 030c 	add.w	r3, r7, #12
 8001eb0:	2200      	movs	r2, #0
 8001eb2:	601a      	str	r2, [r3, #0]
 8001eb4:	605a      	str	r2, [r3, #4]
 8001eb6:	609a      	str	r2, [r3, #8]
 8001eb8:	60da      	str	r2, [r3, #12]
 8001eba:	611a      	str	r2, [r3, #16]
  if(htim->Instance==TIM4)
 8001ebc:	687b      	ldr	r3, [r7, #4]
 8001ebe:	681b      	ldr	r3, [r3, #0]
 8001ec0:	4a12      	ldr	r2, [pc, #72]	@ (8001f0c <HAL_TIM_MspPostInit+0x68>)
 8001ec2:	4293      	cmp	r3, r2
 8001ec4:	d11e      	bne.n	8001f04 <HAL_TIM_MspPostInit+0x60>
  {
  /* USER CODE BEGIN TIM4_MspPostInit 0 */

  /* USER CODE END TIM4_MspPostInit 0 */

    __HAL_RCC_GPIOD_CLK_ENABLE();
 8001ec6:	2300      	movs	r3, #0
 8001ec8:	60bb      	str	r3, [r7, #8]
 8001eca:	4b11      	ldr	r3, [pc, #68]	@ (8001f10 <HAL_TIM_MspPostInit+0x6c>)
 8001ecc:	6b1b      	ldr	r3, [r3, #48]	@ 0x30
 8001ece:	4a10      	ldr	r2, [pc, #64]	@ (8001f10 <HAL_TIM_MspPostInit+0x6c>)
 8001ed0:	f043 0308 	orr.w	r3, r3, #8
 8001ed4:	6313      	str	r3, [r2, #48]	@ 0x30
 8001ed6:	4b0e      	ldr	r3, [pc, #56]	@ (8001f10 <HAL_TIM_MspPostInit+0x6c>)
 8001ed8:	6b1b      	ldr	r3, [r3, #48]	@ 0x30
 8001eda:	f003 0308 	and.w	r3, r3, #8
 8001ede:	60bb      	str	r3, [r7, #8]
 8001ee0:	68bb      	ldr	r3, [r7, #8]
    /**TIM4 GPIO Configuration
    PD12     ------> TIM4_CH1
    PD14     ------> TIM4_CH3
    PD15     ------> TIM4_CH4
    */
    GPIO_InitStruct.Pin = GPIO_PIN_12|GPIO_PIN_14|GPIO_PIN_15;
 8001ee2:	f44f 4350 	mov.w	r3, #53248	@ 0xd000
 8001ee6:	60fb      	str	r3, [r7, #12]
    GPIO_InitStruct.Mode = GPIO_MODE_AF_PP;
 8001ee8:	2302      	movs	r3, #2
 8001eea:	613b      	str	r3, [r7, #16]
    GPIO_InitStruct.Pull = GPIO_NOPULL;
 8001eec:	2300      	movs	r3, #0
 8001eee:	617b      	str	r3, [r7, #20]
    GPIO_InitStruct.Speed = GPIO_SPEED_FREQ_LOW;
 8001ef0:	2300      	movs	r3, #0
 8001ef2:	61bb      	str	r3, [r7, #24]
    GPIO_InitStruct.Alternate = GPIO_AF2_TIM4;
 8001ef4:	2302      	movs	r3, #2
 8001ef6:	61fb      	str	r3, [r7, #28]
    HAL_GPIO_Init(GPIOD, &GPIO_InitStruct);
 8001ef8:	f107 030c 	add.w	r3, r7, #12
 8001efc:	4619      	mov	r1, r3
 8001efe:	4805      	ldr	r0, [pc, #20]	@ (8001f14 <HAL_TIM_MspPostInit+0x70>)
 8001f00:	f000 fe8e 	bl	8002c20 <HAL_GPIO_Init>
  /* USER CODE BEGIN TIM4_MspPostInit 1 */

  /* USER CODE END TIM4_MspPostInit 1 */
  }

}
 8001f04:	bf00      	nop
 8001f06:	3720      	adds	r7, #32
 8001f08:	46bd      	mov	sp, r7
 8001f0a:	bd80      	pop	{r7, pc}
 8001f0c:	40000800 	.word	0x40000800
 8001f10:	40023800 	.word	0x40023800
 8001f14:	40020c00 	.word	0x40020c00

08001f18 <NMI_Handler>:
/******************************************************************************/
/**
  * @brief This function handles Non maskable interrupt.
  */
void NMI_Handler(void)
{
 8001f18:	b480      	push	{r7}
 8001f1a:	af00      	add	r7, sp, #0
  /* USER CODE BEGIN NonMaskableInt_IRQn 0 */

  /* USER CODE END NonMaskableInt_IRQn 0 */
  /* USER CODE BEGIN NonMaskableInt_IRQn 1 */
   while (1)
 8001f1c:	bf00      	nop
 8001f1e:	e7fd      	b.n	8001f1c <NMI_Handler+0x4>

08001f20 <HardFault_Handler>:

/**
  * @brief This function handles Hard fault interrupt.
  */
void HardFault_Handler(void)
{
 8001f20:	b480      	push	{r7}
 8001f22:	af00      	add	r7, sp, #0
  /* USER CODE BEGIN HardFault_IRQn 0 */

  /* USER CODE END HardFault_IRQn 0 */
  while (1)
 8001f24:	bf00      	nop
 8001f26:	e7fd      	b.n	8001f24 <HardFault_Handler+0x4>

08001f28 <MemManage_Handler>:

/**
  * @brief This function handles Memory management fault.
  */
void MemManage_Handler(void)
{
 8001f28:	b480      	push	{r7}
 8001f2a:	af00      	add	r7, sp, #0
  /* USER CODE BEGIN MemoryManagement_IRQn 0 */

  /* USER CODE END MemoryManagement_IRQn 0 */
  while (1)
 8001f2c:	bf00      	nop
 8001f2e:	e7fd      	b.n	8001f2c <MemManage_Handler+0x4>

08001f30 <BusFault_Handler>:

/**
  * @brief This function handles Pre-fetch fault, memory access fault.
  */
void BusFault_Handler(void)
{
 8001f30:	b480      	push	{r7}
 8001f32:	af00      	add	r7, sp, #0
  /* USER CODE BEGIN BusFault_IRQn 0 */

  /* USER CODE END BusFault_IRQn 0 */
  while (1)
 8001f34:	bf00      	nop
 8001f36:	e7fd      	b.n	8001f34 <BusFault_Handler+0x4>

08001f38 <UsageFault_Handler>:

/**
  * @brief This function handles Undefined instruction or illegal state.
  */
void UsageFault_Handler(void)
{
 8001f38:	b480      	push	{r7}
 8001f3a:	af00      	add	r7, sp, #0
  /* USER CODE BEGIN UsageFault_IRQn 0 */

  /* USER CODE END UsageFault_IRQn 0 */
  while (1)
 8001f3c:	bf00      	nop
 8001f3e:	e7fd      	b.n	8001f3c <UsageFault_Handler+0x4>

08001f40 <SVC_Handler>:

/**
  * @brief This function handles System service call via SWI instruction.
  */
void SVC_Handler(void)
{
 8001f40:	b480      	push	{r7}
 8001f42:	af00      	add	r7, sp, #0

  /* USER CODE END SVCall_IRQn 0 */
  /* USER CODE BEGIN SVCall_IRQn 1 */

  /* USER CODE END SVCall_IRQn 1 */
}
 8001f44:	bf00      	nop
 8001f46:	46bd      	mov	sp, r7
 8001f48:	f85d 7b04 	ldr.w	r7, [sp], #4
 8001f4c:	4770      	bx	lr

08001f4e <DebugMon_Handler>:

/**
  * @brief This function handles Debug monitor.
  */
void DebugMon_Handler(void)
{
 8001f4e:	b480      	push	{r7}
 8001f50:	af00      	add	r7, sp, #0

  /* USER CODE END DebugMonitor_IRQn 0 */
  /* USER CODE BEGIN DebugMonitor_IRQn 1 */

  /* USER CODE END DebugMonitor_IRQn 1 */
}
 8001f52:	bf00      	nop
 8001f54:	46bd      	mov	sp, r7
 8001f56:	f85d 7b04 	ldr.w	r7, [sp], #4
 8001f5a:	4770      	bx	lr

08001f5c <PendSV_Handler>:

/**
  * @brief This function handles Pendable request for system service.
  */
void PendSV_Handler(void)
{
 8001f5c:	b480      	push	{r7}
 8001f5e:	af00      	add	r7, sp, #0

  /* USER CODE END PendSV_IRQn 0 */
  /* USER CODE BEGIN PendSV_IRQn 1 */

  /* USER CODE END PendSV_IRQn 1 */
}
 8001f60:	bf00      	nop
 8001f62:	46bd      	mov	sp, r7
 8001f64:	f85d 7b04 	ldr.w	r7, [sp], #4
 8001f68:	4770      	bx	lr

08001f6a <SysTick_Handler>:

/**
  * @brief This function handles System tick timer.
  */
void SysTick_Handler(void)
{
 8001f6a:	b580      	push	{r7, lr}
 8001f6c:	af00      	add	r7, sp, #0
  /* USER CODE BEGIN SysTick_IRQn 0 */

  /* USER CODE END SysTick_IRQn 0 */
  HAL_IncTick();
 8001f6e:	f000 f8a9 	bl	80020c4 <HAL_IncTick>
  /* USER CODE BEGIN SysTick_IRQn 1 */

  /* USER CODE END SysTick_IRQn 1 */
}
 8001f72:	bf00      	nop
 8001f74:	bd80      	pop	{r7, pc}
	...

08001f78 <ADC_IRQHandler>:

/**
  * @brief This function handles ADC1, ADC2 and ADC3 global interrupts.
  */
void ADC_IRQHandler(void)
{
 8001f78:	b580      	push	{r7, lr}
 8001f7a:	af00      	add	r7, sp, #0
  /* USER CODE BEGIN ADC_IRQn 0 */

  /* USER CODE END ADC_IRQn 0 */
  HAL_ADC_IRQHandler(&hadc1);
 8001f7c:	4803      	ldr	r0, [pc, #12]	@ (8001f8c <ADC_IRQHandler+0x14>)
 8001f7e:	f000 f9e3 	bl	8002348 <HAL_ADC_IRQHandler>
  HAL_ADC_IRQHandler(&hadc2);
 8001f82:	4803      	ldr	r0, [pc, #12]	@ (8001f90 <ADC_IRQHandler+0x18>)
 8001f84:	f000 f9e0 	bl	8002348 <HAL_ADC_IRQHandler>
  /* USER CODE BEGIN ADC_IRQn 1 */

  /* USER CODE END ADC_IRQn 1 */
}
 8001f88:	bf00      	nop
 8001f8a:	bd80      	pop	{r7, pc}
 8001f8c:	20000030 	.word	0x20000030
 8001f90:	20000078 	.word	0x20000078

08001f94 <TIM4_IRQHandler>:

/**
  * @brief This function handles TIM4 global interrupt.
  */
void TIM4_IRQHandler(void)
{
 8001f94:	b580      	push	{r7, lr}
 8001f96:	af00      	add	r7, sp, #0
  /* USER CODE BEGIN TIM4_IRQn 0 */

  /* USER CODE END TIM4_IRQn 0 */
  HAL_TIM_IRQHandler(&htim4);
 8001f98:	4802      	ldr	r0, [pc, #8]	@ (8001fa4 <TIM4_IRQHandler+0x10>)
 8001f9a:	f002 fda5 	bl	8004ae8 <HAL_TIM_IRQHandler>
  /* USER CODE BEGIN TIM4_IRQn 1 */

  /* USER CODE END TIM4_IRQn 1 */
}
 8001f9e:	bf00      	nop
 8001fa0:	bd80      	pop	{r7, pc}
 8001fa2:	bf00      	nop
 8001fa4:	20000114 	.word	0x20000114

08001fa8 <SystemInit>:
  *         configuration.
  * @param  None
  * @retval None
  */
void SystemInit(void)
{
 8001fa8:	b480      	push	{r7}
 8001faa:	af00      	add	r7, sp, #0
  /* FPU settings ------------------------------------------------------------*/
  #if (__FPU_PRESENT == 1) && (__FPU_USED == 1)
    SCB->CPACR |= ((3UL << 10*2)|(3UL << 11*2));  /* set CP10 and CP11 Full Access */
 8001fac:	4b06      	ldr	r3, [pc, #24]	@ (8001fc8 <SystemInit+0x20>)
 8001fae:	f8d3 3088 	ldr.w	r3, [r3, #136]	@ 0x88
 8001fb2:	4a05      	ldr	r2, [pc, #20]	@ (8001fc8 <SystemInit+0x20>)
 8001fb4:	f443 0370 	orr.w	r3, r3, #15728640	@ 0xf00000
 8001fb8:	f8c2 3088 	str.w	r3, [r2, #136]	@ 0x88

  /* Configure the Vector Table location -------------------------------------*/
#if defined(USER_VECT_TAB_ADDRESS)
  SCB->VTOR = VECT_TAB_BASE_ADDRESS | VECT_TAB_OFFSET; /* Vector Table Relocation in Internal SRAM */
#endif /* USER_VECT_TAB_ADDRESS */
}
 8001fbc:	bf00      	nop
 8001fbe:	46bd      	mov	sp, r7
 8001fc0:	f85d 7b04 	ldr.w	r7, [sp], #4
 8001fc4:	4770      	bx	lr
 8001fc6:	bf00      	nop
 8001fc8:	e000ed00 	.word	0xe000ed00

08001fcc <Reset_Handler>:

    .section  .text.Reset_Handler
  .weak  Reset_Handler
  .type  Reset_Handler, %function
Reset_Handler:  
  ldr   sp, =_estack     /* set stack pointer */
 8001fcc:	f8df d034 	ldr.w	sp, [pc, #52]	@ 8002004 <LoopFillZerobss+0xe>
  
/* Call the clock system initialization function.*/
  bl  SystemInit  
 8001fd0:	f7ff ffea 	bl	8001fa8 <SystemInit>

/* Copy the data segment initializers from flash to SRAM */  
  ldr r0, =_sdata
 8001fd4:	480c      	ldr	r0, [pc, #48]	@ (8002008 <LoopFillZerobss+0x12>)
  ldr r1, =_edata
 8001fd6:	490d      	ldr	r1, [pc, #52]	@ (800200c <LoopFillZerobss+0x16>)
  ldr r2, =_sidata
 8001fd8:	4a0d      	ldr	r2, [pc, #52]	@ (8002010 <LoopFillZerobss+0x1a>)
  movs r3, #0
 8001fda:	2300      	movs	r3, #0
  b LoopCopyDataInit
 8001fdc:	e002      	b.n	8001fe4 <LoopCopyDataInit>

08001fde <CopyDataInit>:

CopyDataInit:
  ldr r4, [r2, r3]
 8001fde:	58d4      	ldr	r4, [r2, r3]
  str r4, [r0, r3]
 8001fe0:	50c4      	str	r4, [r0, r3]
  adds r3, r3, #4
 8001fe2:	3304      	adds	r3, #4

08001fe4 <LoopCopyDataInit>:

LoopCopyDataInit:
  adds r4, r0, r3
 8001fe4:	18c4      	adds	r4, r0, r3
  cmp r4, r1
 8001fe6:	428c      	cmp	r4, r1
  bcc CopyDataInit
 8001fe8:	d3f9      	bcc.n	8001fde <CopyDataInit>
  
/* Zero fill the bss segment. */
  ldr r2, =_sbss
 8001fea:	4a0a      	ldr	r2, [pc, #40]	@ (8002014 <LoopFillZerobss+0x1e>)
  ldr r4, =_ebss
 8001fec:	4c0a      	ldr	r4, [pc, #40]	@ (8002018 <LoopFillZerobss+0x22>)
  movs r3, #0
 8001fee:	2300      	movs	r3, #0
  b LoopFillZerobss
 8001ff0:	e001      	b.n	8001ff6 <LoopFillZerobss>

08001ff2 <FillZerobss>:

FillZerobss:
  str  r3, [r2]
 8001ff2:	6013      	str	r3, [r2, #0]
  adds r2, r2, #4
 8001ff4:	3204      	adds	r2, #4

08001ff6 <LoopFillZerobss>:

LoopFillZerobss:
  cmp r2, r4
 8001ff6:	42a2      	cmp	r2, r4
  bcc FillZerobss
 8001ff8:	d3fb      	bcc.n	8001ff2 <FillZerobss>

/* Call static constructors */
    bl __libc_init_array
 8001ffa:	f003 fbd5 	bl	80057a8 <__libc_init_array>
/* Call the application's entry point.*/
  bl  main
 8001ffe:	f7ff f9c3 	bl	8001388 <main>
  bx  lr    
 8002002:	4770      	bx	lr
  ldr   sp, =_estack     /* set stack pointer */
 8002004:	20020000 	.word	0x20020000
  ldr r0, =_sdata
 8002008:	20000000 	.word	0x20000000
  ldr r1, =_edata
 800200c:	20000014 	.word	0x20000014
  ldr r2, =_sidata
 8002010:	0800584c 	.word	0x0800584c
  ldr r2, =_sbss
 8002014:	20000014 	.word	0x20000014
  ldr r4, =_ebss
 8002018:	2000016c 	.word	0x2000016c

0800201c <CAN1_RX0_IRQHandler>:
 * @retval None       
*/
    .section  .text.Default_Handler,"ax",%progbits
Default_Handler:
Infinite_Loop:
  b  Infinite_Loop
 800201c:	e7fe      	b.n	800201c <CAN1_RX0_IRQHandler>
	...

08002020 <HAL_Init>:
  *         need to ensure that the SysTick time base is always set to 1 millisecond
  *         to have correct HAL operation.
  * @retval HAL status
  */
HAL_StatusTypeDef HAL_Init(void)
{
 8002020:	b580      	push	{r7, lr}
 8002022:	af00      	add	r7, sp, #0
  /* Configure Flash prefetch, Instruction cache, Data cache */ 
#if (INSTRUCTION_CACHE_ENABLE != 0U)
  __HAL_FLASH_INSTRUCTION_CACHE_ENABLE();
 8002024:	4b0e      	ldr	r3, [pc, #56]	@ (8002060 <HAL_Init+0x40>)
 8002026:	681b      	ldr	r3, [r3, #0]
 8002028:	4a0d      	ldr	r2, [pc, #52]	@ (8002060 <HAL_Init+0x40>)
 800202a:	f443 7300 	orr.w	r3, r3, #512	@ 0x200
 800202e:	6013      	str	r3, [r2, #0]
#endif /* INSTRUCTION_CACHE_ENABLE */

#if (DATA_CACHE_ENABLE != 0U)
  __HAL_FLASH_DATA_CACHE_ENABLE();
 8002030:	4b0b      	ldr	r3, [pc, #44]	@ (8002060 <HAL_Init+0x40>)
 8002032:	681b      	ldr	r3, [r3, #0]
 8002034:	4a0a      	ldr	r2, [pc, #40]	@ (8002060 <HAL_Init+0x40>)
 8002036:	f443 6380 	orr.w	r3, r3, #1024	@ 0x400
 800203a:	6013      	str	r3, [r2, #0]
#endif /* DATA_CACHE_ENABLE */

#if (PREFETCH_ENABLE != 0U)
  __HAL_FLASH_PREFETCH_BUFFER_ENABLE();
 800203c:	4b08      	ldr	r3, [pc, #32]	@ (8002060 <HAL_Init+0x40>)
 800203e:	681b      	ldr	r3, [r3, #0]
 8002040:	4a07      	ldr	r2, [pc, #28]	@ (8002060 <HAL_Init+0x40>)
 8002042:	f443 7380 	orr.w	r3, r3, #256	@ 0x100
 8002046:	6013      	str	r3, [r2, #0]
#endif /* PREFETCH_ENABLE */

  /* Set Interrupt Group Priority */
  HAL_NVIC_SetPriorityGrouping(NVIC_PRIORITYGROUP_4);
 8002048:	2003      	movs	r0, #3
 800204a:	f000 fda7 	bl	8002b9c <HAL_NVIC_SetPriorityGrouping>

  /* Use systick as time base source and configure 1ms tick (default clock after Reset is HSI) */
  HAL_InitTick(TICK_INT_PRIORITY);
 800204e:	200f      	movs	r0, #15
 8002050:	f000 f808 	bl	8002064 <HAL_InitTick>

  /* Init the low level hardware */
  HAL_MspInit();
 8002054:	f7ff fe0a 	bl	8001c6c <HAL_MspInit>

  /* Return function status */
  return HAL_OK;
 8002058:	2300      	movs	r3, #0
}
 800205a:	4618      	mov	r0, r3
 800205c:	bd80      	pop	{r7, pc}
 800205e:	bf00      	nop
 8002060:	40023c00 	.word	0x40023c00

08002064 <HAL_InitTick>:
  *       implementation  in user file.
  * @param TickPriority Tick interrupt priority.
  * @retval HAL status
  */
__weak HAL_StatusTypeDef HAL_InitTick(uint32_t TickPriority)
{
 8002064:	b580      	push	{r7, lr}
 8002066:	b082      	sub	sp, #8
 8002068:	af00      	add	r7, sp, #0
 800206a:	6078      	str	r0, [r7, #4]
  /* Configure the SysTick to have interrupt in 1ms time basis*/
  if (HAL_SYSTICK_Config(SystemCoreClock / (1000U / uwTickFreq)) > 0U)
 800206c:	4b12      	ldr	r3, [pc, #72]	@ (80020b8 <HAL_InitTick+0x54>)
 800206e:	681a      	ldr	r2, [r3, #0]
 8002070:	4b12      	ldr	r3, [pc, #72]	@ (80020bc <HAL_InitTick+0x58>)
 8002072:	781b      	ldrb	r3, [r3, #0]
 8002074:	4619      	mov	r1, r3
 8002076:	f44f 737a 	mov.w	r3, #1000	@ 0x3e8
 800207a:	fbb3 f3f1 	udiv	r3, r3, r1
 800207e:	fbb2 f3f3 	udiv	r3, r2, r3
 8002082:	4618      	mov	r0, r3
 8002084:	f000 fdbf 	bl	8002c06 <HAL_SYSTICK_Config>
 8002088:	4603      	mov	r3, r0
 800208a:	2b00      	cmp	r3, #0
 800208c:	d001      	beq.n	8002092 <HAL_InitTick+0x2e>
  {
    return HAL_ERROR;
 800208e:	2301      	movs	r3, #1
 8002090:	e00e      	b.n	80020b0 <HAL_InitTick+0x4c>
  }

  /* Configure the SysTick IRQ priority */
  if (TickPriority < (1UL << __NVIC_PRIO_BITS))
 8002092:	687b      	ldr	r3, [r7, #4]
 8002094:	2b0f      	cmp	r3, #15
 8002096:	d80a      	bhi.n	80020ae <HAL_InitTick+0x4a>
  {
    HAL_NVIC_SetPriority(SysTick_IRQn, TickPriority, 0U);
 8002098:	2200      	movs	r2, #0
 800209a:	6879      	ldr	r1, [r7, #4]
 800209c:	f04f 30ff 	mov.w	r0, #4294967295	@ 0xffffffff
 80020a0:	f000 fd87 	bl	8002bb2 <HAL_NVIC_SetPriority>
    uwTickPrio = TickPriority;
 80020a4:	4a06      	ldr	r2, [pc, #24]	@ (80020c0 <HAL_InitTick+0x5c>)
 80020a6:	687b      	ldr	r3, [r7, #4]
 80020a8:	6013      	str	r3, [r2, #0]
  {
    return HAL_ERROR;
  }

  /* Return function status */
  return HAL_OK;
 80020aa:	2300      	movs	r3, #0
 80020ac:	e000      	b.n	80020b0 <HAL_InitTick+0x4c>
    return HAL_ERROR;
 80020ae:	2301      	movs	r3, #1
}
 80020b0:	4618      	mov	r0, r3
 80020b2:	3708      	adds	r7, #8
 80020b4:	46bd      	mov	sp, r7
 80020b6:	bd80      	pop	{r7, pc}
 80020b8:	20000008 	.word	0x20000008
 80020bc:	20000010 	.word	0x20000010
 80020c0:	2000000c 	.word	0x2000000c

080020c4 <HAL_IncTick>:
 * @note This function is declared as __weak to be overwritten in case of other 
  *      implementations in user file.
  * @retval None
  */
__weak void HAL_IncTick(void)
{
 80020c4:	b480      	push	{r7}
 80020c6:	af00      	add	r7, sp, #0
  uwTick += uwTickFreq;
 80020c8:	4b06      	ldr	r3, [pc, #24]	@ (80020e4 <HAL_IncTick+0x20>)
 80020ca:	781b      	ldrb	r3, [r3, #0]
 80020cc:	461a      	mov	r2, r3
 80020ce:	4b06      	ldr	r3, [pc, #24]	@ (80020e8 <HAL_IncTick+0x24>)
 80020d0:	681b      	ldr	r3, [r3, #0]
 80020d2:	4413      	add	r3, r2
 80020d4:	4a04      	ldr	r2, [pc, #16]	@ (80020e8 <HAL_IncTick+0x24>)
 80020d6:	6013      	str	r3, [r2, #0]
}
 80020d8:	bf00      	nop
 80020da:	46bd      	mov	sp, r7
 80020dc:	f85d 7b04 	ldr.w	r7, [sp], #4
 80020e0:	4770      	bx	lr
 80020e2:	bf00      	nop
 80020e4:	20000010 	.word	0x20000010
 80020e8:	20000168 	.word	0x20000168

080020ec <HAL_GetTick>:
  * @note This function is declared as __weak to be overwritten in case of other 
  *       implementations in user file.
  * @retval tick value
  */
__weak uint32_t HAL_GetTick(void)
{
 80020ec:	b480      	push	{r7}
 80020ee:	af00      	add	r7, sp, #0
  return uwTick;
 80020f0:	4b03      	ldr	r3, [pc, #12]	@ (8002100 <HAL_GetTick+0x14>)
 80020f2:	681b      	ldr	r3, [r3, #0]
}
 80020f4:	4618      	mov	r0, r3
 80020f6:	46bd      	mov	sp, r7
 80020f8:	f85d 7b04 	ldr.w	r7, [sp], #4
 80020fc:	4770      	bx	lr
 80020fe:	bf00      	nop
 8002100:	20000168 	.word	0x20000168

08002104 <HAL_ADC_Init>:
  * @param  hadc pointer to a ADC_HandleTypeDef structure that contains
  *         the configuration information for the specified ADC.
  * @retval HAL status
  */
HAL_StatusTypeDef HAL_ADC_Init(ADC_HandleTypeDef *hadc)
{
 8002104:	b580      	push	{r7, lr}
 8002106:	b084      	sub	sp, #16
 8002108:	af00      	add	r7, sp, #0
 800210a:	6078      	str	r0, [r7, #4]
  HAL_StatusTypeDef tmp_hal_status = HAL_OK;
 800210c:	2300      	movs	r3, #0
 800210e:	73fb      	strb	r3, [r7, #15]

  /* Check ADC handle */
  if (hadc == NULL)
 8002110:	687b      	ldr	r3, [r7, #4]
 8002112:	2b00      	cmp	r3, #0
 8002114:	d101      	bne.n	800211a <HAL_ADC_Init+0x16>
  {
    return HAL_ERROR;
 8002116:	2301      	movs	r3, #1
 8002118:	e033      	b.n	8002182 <HAL_ADC_Init+0x7e>
  if (hadc->Init.ExternalTrigConv != ADC_SOFTWARE_START)
  {
    assert_param(IS_ADC_EXT_TRIG_EDGE(hadc->Init.ExternalTrigConvEdge));
  }

  if (hadc->State == HAL_ADC_STATE_RESET)
 800211a:	687b      	ldr	r3, [r7, #4]
 800211c:	6c1b      	ldr	r3, [r3, #64]	@ 0x40
 800211e:	2b00      	cmp	r3, #0
 8002120:	d109      	bne.n	8002136 <HAL_ADC_Init+0x32>

    /* Init the low level hardware */
    hadc->MspInitCallback(hadc);
#else
    /* Init the low level hardware */
    HAL_ADC_MspInit(hadc);
 8002122:	6878      	ldr	r0, [r7, #4]
 8002124:	f7ff fdca 	bl	8001cbc <HAL_ADC_MspInit>
#endif /* USE_HAL_ADC_REGISTER_CALLBACKS */

    /* Initialize ADC error code */
    ADC_CLEAR_ERRORCODE(hadc);
 8002128:	687b      	ldr	r3, [r7, #4]
 800212a:	2200      	movs	r2, #0
 800212c:	645a      	str	r2, [r3, #68]	@ 0x44

    /* Allocate lock resource and initialize it */
    hadc->Lock = HAL_UNLOCKED;
 800212e:	687b      	ldr	r3, [r7, #4]
 8002130:	2200      	movs	r2, #0
 8002132:	f883 203c 	strb.w	r2, [r3, #60]	@ 0x3c
  }

  /* Configuration of ADC parameters if previous preliminary actions are      */
  /* correctly completed.                                                     */
  if (HAL_IS_BIT_CLR(hadc->State, HAL_ADC_STATE_ERROR_INTERNAL))
 8002136:	687b      	ldr	r3, [r7, #4]
 8002138:	6c1b      	ldr	r3, [r3, #64]	@ 0x40
 800213a:	f003 0310 	and.w	r3, r3, #16
 800213e:	2b00      	cmp	r3, #0
 8002140:	d118      	bne.n	8002174 <HAL_ADC_Init+0x70>
  {
    /* Set ADC state */
    ADC_STATE_CLR_SET(hadc->State,
 8002142:	687b      	ldr	r3, [r7, #4]
 8002144:	6c1b      	ldr	r3, [r3, #64]	@ 0x40
 8002146:	f423 5388 	bic.w	r3, r3, #4352	@ 0x1100
 800214a:	f023 0302 	bic.w	r3, r3, #2
 800214e:	f043 0202 	orr.w	r2, r3, #2
 8002152:	687b      	ldr	r3, [r7, #4]
 8002154:	641a      	str	r2, [r3, #64]	@ 0x40
                      HAL_ADC_STATE_REG_BUSY | HAL_ADC_STATE_INJ_BUSY,
                      HAL_ADC_STATE_BUSY_INTERNAL);

    /* Set ADC parameters */
    ADC_Init(hadc);
 8002156:	6878      	ldr	r0, [r7, #4]
 8002158:	f000 fb4a 	bl	80027f0 <ADC_Init>

    /* Set ADC error code to none */
    ADC_CLEAR_ERRORCODE(hadc);
 800215c:	687b      	ldr	r3, [r7, #4]
 800215e:	2200      	movs	r2, #0
 8002160:	645a      	str	r2, [r3, #68]	@ 0x44

    /* Set the ADC state */
    ADC_STATE_CLR_SET(hadc->State,
 8002162:	687b      	ldr	r3, [r7, #4]
 8002164:	6c1b      	ldr	r3, [r3, #64]	@ 0x40
 8002166:	f023 0303 	bic.w	r3, r3, #3
 800216a:	f043 0201 	orr.w	r2, r3, #1
 800216e:	687b      	ldr	r3, [r7, #4]
 8002170:	641a      	str	r2, [r3, #64]	@ 0x40
 8002172:	e001      	b.n	8002178 <HAL_ADC_Init+0x74>
                      HAL_ADC_STATE_BUSY_INTERNAL,
                      HAL_ADC_STATE_READY);
  }
  else
  {
    tmp_hal_status = HAL_ERROR;
 8002174:	2301      	movs	r3, #1
 8002176:	73fb      	strb	r3, [r7, #15]
  }

  /* Release Lock */
  __HAL_UNLOCK(hadc);
 8002178:	687b      	ldr	r3, [r7, #4]
 800217a:	2200      	movs	r2, #0
 800217c:	f883 203c 	strb.w	r2, [r3, #60]	@ 0x3c

  /* Return function status */
  return tmp_hal_status;
 8002180:	7bfb      	ldrb	r3, [r7, #15]
}
 8002182:	4618      	mov	r0, r3
 8002184:	3710      	adds	r7, #16
 8002186:	46bd      	mov	sp, r7
 8002188:	bd80      	pop	{r7, pc}
	...

0800218c <HAL_ADC_Start_IT>:
  * @param  hadc pointer to a ADC_HandleTypeDef structure that contains
  *         the configuration information for the specified ADC.
  * @retval HAL status.
  */
HAL_StatusTypeDef HAL_ADC_Start_IT(ADC_HandleTypeDef *hadc)
{
 800218c:	b480      	push	{r7}
 800218e:	b085      	sub	sp, #20
 8002190:	af00      	add	r7, sp, #0
 8002192:	6078      	str	r0, [r7, #4]
  __IO uint32_t counter = 0U;
 8002194:	2300      	movs	r3, #0
 8002196:	60bb      	str	r3, [r7, #8]
  /* Check the parameters */
  assert_param(IS_FUNCTIONAL_STATE(hadc->Init.ContinuousConvMode));
  assert_param(IS_ADC_EXT_TRIG_EDGE(hadc->Init.ExternalTrigConvEdge));

  /* Process locked */
  __HAL_LOCK(hadc);
 8002198:	687b      	ldr	r3, [r7, #4]
 800219a:	f893 303c 	ldrb.w	r3, [r3, #60]	@ 0x3c
 800219e:	2b01      	cmp	r3, #1
 80021a0:	d101      	bne.n	80021a6 <HAL_ADC_Start_IT+0x1a>
 80021a2:	2302      	movs	r3, #2
 80021a4:	e0bd      	b.n	8002322 <HAL_ADC_Start_IT+0x196>
 80021a6:	687b      	ldr	r3, [r7, #4]
 80021a8:	2201      	movs	r2, #1
 80021aa:	f883 203c 	strb.w	r2, [r3, #60]	@ 0x3c

  /* Enable the ADC peripheral */
  /* Check if ADC peripheral is disabled in order to enable it and wait during
  Tstab time the ADC's stabilization */
  if ((hadc->Instance->CR2 & ADC_CR2_ADON) != ADC_CR2_ADON)
 80021ae:	687b      	ldr	r3, [r7, #4]
 80021b0:	681b      	ldr	r3, [r3, #0]
 80021b2:	689b      	ldr	r3, [r3, #8]
 80021b4:	f003 0301 	and.w	r3, r3, #1
 80021b8:	2b01      	cmp	r3, #1
 80021ba:	d018      	beq.n	80021ee <HAL_ADC_Start_IT+0x62>
  {
    /* Enable the Peripheral */
    __HAL_ADC_ENABLE(hadc);
 80021bc:	687b      	ldr	r3, [r7, #4]
 80021be:	681b      	ldr	r3, [r3, #0]
 80021c0:	689a      	ldr	r2, [r3, #8]
 80021c2:	687b      	ldr	r3, [r7, #4]
 80021c4:	681b      	ldr	r3, [r3, #0]
 80021c6:	f042 0201 	orr.w	r2, r2, #1
 80021ca:	609a      	str	r2, [r3, #8]

    /* Delay for ADC stabilization time */
    /* Compute number of CPU cycles to wait for */
    counter = (ADC_STAB_DELAY_US * (SystemCoreClock / 1000000U));
 80021cc:	4b58      	ldr	r3, [pc, #352]	@ (8002330 <HAL_ADC_Start_IT+0x1a4>)
 80021ce:	681b      	ldr	r3, [r3, #0]
 80021d0:	4a58      	ldr	r2, [pc, #352]	@ (8002334 <HAL_ADC_Start_IT+0x1a8>)
 80021d2:	fba2 2303 	umull	r2, r3, r2, r3
 80021d6:	0c9a      	lsrs	r2, r3, #18
 80021d8:	4613      	mov	r3, r2
 80021da:	005b      	lsls	r3, r3, #1
 80021dc:	4413      	add	r3, r2
 80021de:	60bb      	str	r3, [r7, #8]
    while (counter != 0U)
 80021e0:	e002      	b.n	80021e8 <HAL_ADC_Start_IT+0x5c>
    {
      counter--;
 80021e2:	68bb      	ldr	r3, [r7, #8]
 80021e4:	3b01      	subs	r3, #1
 80021e6:	60bb      	str	r3, [r7, #8]
    while (counter != 0U)
 80021e8:	68bb      	ldr	r3, [r7, #8]
 80021ea:	2b00      	cmp	r3, #0
 80021ec:	d1f9      	bne.n	80021e2 <HAL_ADC_Start_IT+0x56>
    }
  }

  /* Start conversion if ADC is effectively enabled */
  if (HAL_IS_BIT_SET(hadc->Instance->CR2, ADC_CR2_ADON))
 80021ee:	687b      	ldr	r3, [r7, #4]
 80021f0:	681b      	ldr	r3, [r3, #0]
 80021f2:	689b      	ldr	r3, [r3, #8]
 80021f4:	f003 0301 	and.w	r3, r3, #1
 80021f8:	2b01      	cmp	r3, #1
 80021fa:	f040 8085 	bne.w	8002308 <HAL_ADC_Start_IT+0x17c>
  {
    /* Set ADC state                                                          */
    /* - Clear state bitfield related to regular group conversion results     */
    /* - Set state bitfield related to regular group operation                */
    ADC_STATE_CLR_SET(hadc->State,
 80021fe:	687b      	ldr	r3, [r7, #4]
 8002200:	6c1b      	ldr	r3, [r3, #64]	@ 0x40
 8002202:	f423 63e0 	bic.w	r3, r3, #1792	@ 0x700
 8002206:	f023 0301 	bic.w	r3, r3, #1
 800220a:	f443 7280 	orr.w	r2, r3, #256	@ 0x100
 800220e:	687b      	ldr	r3, [r7, #4]
 8002210:	641a      	str	r2, [r3, #64]	@ 0x40
                      HAL_ADC_STATE_READY | HAL_ADC_STATE_REG_EOC | HAL_ADC_STATE_REG_OVR,
                      HAL_ADC_STATE_REG_BUSY);

    /* If conversions on group regular are also triggering group injected,    */
    /* update ADC state.                                                      */
    if (READ_BIT(hadc->Instance->CR1, ADC_CR1_JAUTO) != RESET)
 8002212:	687b      	ldr	r3, [r7, #4]
 8002214:	681b      	ldr	r3, [r3, #0]
 8002216:	685b      	ldr	r3, [r3, #4]
 8002218:	f403 6380 	and.w	r3, r3, #1024	@ 0x400
 800221c:	2b00      	cmp	r3, #0
 800221e:	d007      	beq.n	8002230 <HAL_ADC_Start_IT+0xa4>
    {
      ADC_STATE_CLR_SET(hadc->State, HAL_ADC_STATE_INJ_EOC, HAL_ADC_STATE_INJ_BUSY);
 8002220:	687b      	ldr	r3, [r7, #4]
 8002222:	6c1b      	ldr	r3, [r3, #64]	@ 0x40
 8002224:	f423 5340 	bic.w	r3, r3, #12288	@ 0x3000
 8002228:	f443 5280 	orr.w	r2, r3, #4096	@ 0x1000
 800222c:	687b      	ldr	r3, [r7, #4]
 800222e:	641a      	str	r2, [r3, #64]	@ 0x40
    }

    /* State machine update: Check if an injected conversion is ongoing */
    if (HAL_IS_BIT_SET(hadc->State, HAL_ADC_STATE_INJ_BUSY))
 8002230:	687b      	ldr	r3, [r7, #4]
 8002232:	6c1b      	ldr	r3, [r3, #64]	@ 0x40
 8002234:	f403 5380 	and.w	r3, r3, #4096	@ 0x1000
 8002238:	f5b3 5f80 	cmp.w	r3, #4096	@ 0x1000
 800223c:	d106      	bne.n	800224c <HAL_ADC_Start_IT+0xc0>
    {
      /* Reset ADC error code fields related to conversions on group regular */
      CLEAR_BIT(hadc->ErrorCode, (HAL_ADC_ERROR_OVR | HAL_ADC_ERROR_DMA));
 800223e:	687b      	ldr	r3, [r7, #4]
 8002240:	6c5b      	ldr	r3, [r3, #68]	@ 0x44
 8002242:	f023 0206 	bic.w	r2, r3, #6
 8002246:	687b      	ldr	r3, [r7, #4]
 8002248:	645a      	str	r2, [r3, #68]	@ 0x44
 800224a:	e002      	b.n	8002252 <HAL_ADC_Start_IT+0xc6>
    }
    else
    {
      /* Reset ADC all error code fields */
      ADC_CLEAR_ERRORCODE(hadc);
 800224c:	687b      	ldr	r3, [r7, #4]
 800224e:	2200      	movs	r2, #0
 8002250:	645a      	str	r2, [r3, #68]	@ 0x44
    }

    /* Process unlocked */
    /* Unlock before starting ADC conversions: in case of potential           */
    /* interruption, to let the process to ADC IRQ Handler.                   */
    __HAL_UNLOCK(hadc);
 8002252:	687b      	ldr	r3, [r7, #4]
 8002254:	2200      	movs	r2, #0
 8002256:	f883 203c 	strb.w	r2, [r3, #60]	@ 0x3c

    /* Pointer to the common control register to which is belonging hadc    */
    /* (Depending on STM32F4 product, there may be up to 3 ADCs and 1 common */
    /* control register)                                                    */
    tmpADC_Common = ADC_COMMON_REGISTER(hadc);
 800225a:	4b37      	ldr	r3, [pc, #220]	@ (8002338 <HAL_ADC_Start_IT+0x1ac>)
 800225c:	60fb      	str	r3, [r7, #12]

    /* Clear regular group conversion flag and overrun flag */
    /* (To ensure of no unknown state from potential previous ADC operations) */
    __HAL_ADC_CLEAR_FLAG(hadc, ADC_FLAG_EOC | ADC_FLAG_OVR);
 800225e:	687b      	ldr	r3, [r7, #4]
 8002260:	681b      	ldr	r3, [r3, #0]
 8002262:	f06f 0222 	mvn.w	r2, #34	@ 0x22
 8002266:	601a      	str	r2, [r3, #0]

    /* Enable end of conversion interrupt for regular group */
    __HAL_ADC_ENABLE_IT(hadc, (ADC_IT_EOC | ADC_IT_OVR));
 8002268:	687b      	ldr	r3, [r7, #4]
 800226a:	681b      	ldr	r3, [r3, #0]
 800226c:	685b      	ldr	r3, [r3, #4]
 800226e:	687a      	ldr	r2, [r7, #4]
 8002270:	6812      	ldr	r2, [r2, #0]
 8002272:	f043 6380 	orr.w	r3, r3, #67108864	@ 0x4000000
 8002276:	f043 0320 	orr.w	r3, r3, #32
 800227a:	6053      	str	r3, [r2, #4]

    /* Check if Multimode enabled */
    if (HAL_IS_BIT_CLR(tmpADC_Common->CCR, ADC_CCR_MULTI))
 800227c:	68fb      	ldr	r3, [r7, #12]
 800227e:	685b      	ldr	r3, [r3, #4]
 8002280:	f003 031f 	and.w	r3, r3, #31
 8002284:	2b00      	cmp	r3, #0
 8002286:	d12a      	bne.n	80022de <HAL_ADC_Start_IT+0x152>
    {
#if defined(ADC2) && defined(ADC3)
      if ((hadc->Instance == ADC1) || ((hadc->Instance == ADC2) && ((ADC->CCR & ADC_CCR_MULTI_Msk) < ADC_CCR_MULTI_0)) \
 8002288:	687b      	ldr	r3, [r7, #4]
 800228a:	681b      	ldr	r3, [r3, #0]
 800228c:	4a2b      	ldr	r2, [pc, #172]	@ (800233c <HAL_ADC_Start_IT+0x1b0>)
 800228e:	4293      	cmp	r3, r2
 8002290:	d015      	beq.n	80022be <HAL_ADC_Start_IT+0x132>
 8002292:	687b      	ldr	r3, [r7, #4]
 8002294:	681b      	ldr	r3, [r3, #0]
 8002296:	4a2a      	ldr	r2, [pc, #168]	@ (8002340 <HAL_ADC_Start_IT+0x1b4>)
 8002298:	4293      	cmp	r3, r2
 800229a:	d105      	bne.n	80022a8 <HAL_ADC_Start_IT+0x11c>
 800229c:	4b26      	ldr	r3, [pc, #152]	@ (8002338 <HAL_ADC_Start_IT+0x1ac>)
 800229e:	685b      	ldr	r3, [r3, #4]
 80022a0:	f003 031f 	and.w	r3, r3, #31
 80022a4:	2b00      	cmp	r3, #0
 80022a6:	d00a      	beq.n	80022be <HAL_ADC_Start_IT+0x132>
          || ((hadc->Instance == ADC3) && ((ADC->CCR & ADC_CCR_MULTI_Msk) < ADC_CCR_MULTI_4)))
 80022a8:	687b      	ldr	r3, [r7, #4]
 80022aa:	681b      	ldr	r3, [r3, #0]
 80022ac:	4a25      	ldr	r2, [pc, #148]	@ (8002344 <HAL_ADC_Start_IT+0x1b8>)
 80022ae:	4293      	cmp	r3, r2
 80022b0:	d136      	bne.n	8002320 <HAL_ADC_Start_IT+0x194>
 80022b2:	4b21      	ldr	r3, [pc, #132]	@ (8002338 <HAL_ADC_Start_IT+0x1ac>)
 80022b4:	685b      	ldr	r3, [r3, #4]
 80022b6:	f003 0310 	and.w	r3, r3, #16
 80022ba:	2b00      	cmp	r3, #0
 80022bc:	d130      	bne.n	8002320 <HAL_ADC_Start_IT+0x194>
      {
#endif /* ADC2 || ADC3 */
        /* if no external trigger present enable software conversion of regular channels */
        if ((hadc->Instance->CR2 & ADC_CR2_EXTEN) == RESET)
 80022be:	687b      	ldr	r3, [r7, #4]
 80022c0:	681b      	ldr	r3, [r3, #0]
 80022c2:	689b      	ldr	r3, [r3, #8]
 80022c4:	f003 5340 	and.w	r3, r3, #805306368	@ 0x30000000
 80022c8:	2b00      	cmp	r3, #0
 80022ca:	d129      	bne.n	8002320 <HAL_ADC_Start_IT+0x194>
        {
          /* Enable the selected ADC software conversion for regular group */
          hadc->Instance->CR2 |= (uint32_t)ADC_CR2_SWSTART;
 80022cc:	687b      	ldr	r3, [r7, #4]
 80022ce:	681b      	ldr	r3, [r3, #0]
 80022d0:	689a      	ldr	r2, [r3, #8]
 80022d2:	687b      	ldr	r3, [r7, #4]
 80022d4:	681b      	ldr	r3, [r3, #0]
 80022d6:	f042 4280 	orr.w	r2, r2, #1073741824	@ 0x40000000
 80022da:	609a      	str	r2, [r3, #8]
 80022dc:	e020      	b.n	8002320 <HAL_ADC_Start_IT+0x194>
#endif /* ADC2 || ADC3 */
    }
    else
    {
      /* if instance of handle correspond to ADC1 and  no external trigger present enable software conversion of regular channels */
      if ((hadc->Instance == ADC1) && ((hadc->Instance->CR2 & ADC_CR2_EXTEN) == RESET))
 80022de:	687b      	ldr	r3, [r7, #4]
 80022e0:	681b      	ldr	r3, [r3, #0]
 80022e2:	4a16      	ldr	r2, [pc, #88]	@ (800233c <HAL_ADC_Start_IT+0x1b0>)
 80022e4:	4293      	cmp	r3, r2
 80022e6:	d11b      	bne.n	8002320 <HAL_ADC_Start_IT+0x194>
 80022e8:	687b      	ldr	r3, [r7, #4]
 80022ea:	681b      	ldr	r3, [r3, #0]
 80022ec:	689b      	ldr	r3, [r3, #8]
 80022ee:	f003 5340 	and.w	r3, r3, #805306368	@ 0x30000000
 80022f2:	2b00      	cmp	r3, #0
 80022f4:	d114      	bne.n	8002320 <HAL_ADC_Start_IT+0x194>
      {
        /* Enable the selected ADC software conversion for regular group */
        hadc->Instance->CR2 |= (uint32_t)ADC_CR2_SWSTART;
 80022f6:	687b      	ldr	r3, [r7, #4]
 80022f8:	681b      	ldr	r3, [r3, #0]
 80022fa:	689a      	ldr	r2, [r3, #8]
 80022fc:	687b      	ldr	r3, [r7, #4]
 80022fe:	681b      	ldr	r3, [r3, #0]
 8002300:	f042 4280 	orr.w	r2, r2, #1073741824	@ 0x40000000
 8002304:	609a      	str	r2, [r3, #8]
 8002306:	e00b      	b.n	8002320 <HAL_ADC_Start_IT+0x194>
    }
  }
  else
  {
    /* Update ADC state machine to error */
    SET_BIT(hadc->State, HAL_ADC_STATE_ERROR_INTERNAL);
 8002308:	687b      	ldr	r3, [r7, #4]
 800230a:	6c1b      	ldr	r3, [r3, #64]	@ 0x40
 800230c:	f043 0210 	orr.w	r2, r3, #16
 8002310:	687b      	ldr	r3, [r7, #4]
 8002312:	641a      	str	r2, [r3, #64]	@ 0x40

    /* Set ADC error code to ADC IP internal error */
    SET_BIT(hadc->ErrorCode, HAL_ADC_ERROR_INTERNAL);
 8002314:	687b      	ldr	r3, [r7, #4]
 8002316:	6c5b      	ldr	r3, [r3, #68]	@ 0x44
 8002318:	f043 0201 	orr.w	r2, r3, #1
 800231c:	687b      	ldr	r3, [r7, #4]
 800231e:	645a      	str	r2, [r3, #68]	@ 0x44
  }

  /* Return function status */
  return HAL_OK;
 8002320:	2300      	movs	r3, #0
}
 8002322:	4618      	mov	r0, r3
 8002324:	3714      	adds	r7, #20
 8002326:	46bd      	mov	sp, r7
 8002328:	f85d 7b04 	ldr.w	r7, [sp], #4
 800232c:	4770      	bx	lr
 800232e:	bf00      	nop
 8002330:	20000008 	.word	0x20000008
 8002334:	431bde83 	.word	0x431bde83
 8002338:	40012300 	.word	0x40012300
 800233c:	40012000 	.word	0x40012000
 8002340:	40012100 	.word	0x40012100
 8002344:	40012200 	.word	0x40012200

08002348 <HAL_ADC_IRQHandler>:
  * @param  hadc pointer to a ADC_HandleTypeDef structure that contains
  *         the configuration information for the specified ADC.
  * @retval None
  */
void HAL_ADC_IRQHandler(ADC_HandleTypeDef *hadc)
{
 8002348:	b580      	push	{r7, lr}
 800234a:	b086      	sub	sp, #24
 800234c:	af00      	add	r7, sp, #0
 800234e:	6078      	str	r0, [r7, #4]
  uint32_t tmp1 = 0U, tmp2 = 0U;
 8002350:	2300      	movs	r3, #0
 8002352:	617b      	str	r3, [r7, #20]
 8002354:	2300      	movs	r3, #0
 8002356:	613b      	str	r3, [r7, #16]

  uint32_t tmp_sr = hadc->Instance->SR;
 8002358:	687b      	ldr	r3, [r7, #4]
 800235a:	681b      	ldr	r3, [r3, #0]
 800235c:	681b      	ldr	r3, [r3, #0]
 800235e:	60fb      	str	r3, [r7, #12]
  uint32_t tmp_cr1 = hadc->Instance->CR1;
 8002360:	687b      	ldr	r3, [r7, #4]
 8002362:	681b      	ldr	r3, [r3, #0]
 8002364:	685b      	ldr	r3, [r3, #4]
 8002366:	60bb      	str	r3, [r7, #8]
  /* Check the parameters */
  assert_param(IS_FUNCTIONAL_STATE(hadc->Init.ContinuousConvMode));
  assert_param(IS_ADC_REGULAR_LENGTH(hadc->Init.NbrOfConversion));
  assert_param(IS_ADC_EOCSelection(hadc->Init.EOCSelection));

  tmp1 = tmp_sr & ADC_FLAG_EOC;
 8002368:	68fb      	ldr	r3, [r7, #12]
 800236a:	f003 0302 	and.w	r3, r3, #2
 800236e:	617b      	str	r3, [r7, #20]
  tmp2 = tmp_cr1 & ADC_IT_EOC;
 8002370:	68bb      	ldr	r3, [r7, #8]
 8002372:	f003 0320 	and.w	r3, r3, #32
 8002376:	613b      	str	r3, [r7, #16]
  /* Check End of conversion flag for regular channels */
  if (tmp1 && tmp2)
 8002378:	697b      	ldr	r3, [r7, #20]
 800237a:	2b00      	cmp	r3, #0
 800237c:	d049      	beq.n	8002412 <HAL_ADC_IRQHandler+0xca>
 800237e:	693b      	ldr	r3, [r7, #16]
 8002380:	2b00      	cmp	r3, #0
 8002382:	d046      	beq.n	8002412 <HAL_ADC_IRQHandler+0xca>
  {
    /* Update state machine on conversion status if not in error state */
    if (HAL_IS_BIT_CLR(hadc->State, HAL_ADC_STATE_ERROR_INTERNAL))
 8002384:	687b      	ldr	r3, [r7, #4]
 8002386:	6c1b      	ldr	r3, [r3, #64]	@ 0x40
 8002388:	f003 0310 	and.w	r3, r3, #16
 800238c:	2b00      	cmp	r3, #0
 800238e:	d105      	bne.n	800239c <HAL_ADC_IRQHandler+0x54>
    {
      /* Set ADC state */
      SET_BIT(hadc->State, HAL_ADC_STATE_REG_EOC);
 8002390:	687b      	ldr	r3, [r7, #4]
 8002392:	6c1b      	ldr	r3, [r3, #64]	@ 0x40
 8002394:	f443 7200 	orr.w	r2, r3, #512	@ 0x200
 8002398:	687b      	ldr	r3, [r7, #4]
 800239a:	641a      	str	r2, [r3, #64]	@ 0x40
    /* by external trigger, continuous mode or scan sequence on going.      */
    /* Note: On STM32F4, there is no independent flag of end of sequence.   */
    /*       The test of scan sequence on going is done either with scan    */
    /*       sequence disabled or with end of conversion flag set to        */
    /*       of end of sequence.                                            */
    if (ADC_IS_SOFTWARE_START_REGULAR(hadc)                   &&
 800239c:	687b      	ldr	r3, [r7, #4]
 800239e:	681b      	ldr	r3, [r3, #0]
 80023a0:	689b      	ldr	r3, [r3, #8]
 80023a2:	f003 5340 	and.w	r3, r3, #805306368	@ 0x30000000
 80023a6:	2b00      	cmp	r3, #0
 80023a8:	d12b      	bne.n	8002402 <HAL_ADC_IRQHandler+0xba>
        (hadc->Init.ContinuousConvMode == DISABLE)            &&
 80023aa:	687b      	ldr	r3, [r7, #4]
 80023ac:	7e1b      	ldrb	r3, [r3, #24]
    if (ADC_IS_SOFTWARE_START_REGULAR(hadc)                   &&
 80023ae:	2b00      	cmp	r3, #0
 80023b0:	d127      	bne.n	8002402 <HAL_ADC_IRQHandler+0xba>
        (HAL_IS_BIT_CLR(hadc->Instance->SQR1, ADC_SQR1_L) ||
 80023b2:	687b      	ldr	r3, [r7, #4]
 80023b4:	681b      	ldr	r3, [r3, #0]
 80023b6:	6adb      	ldr	r3, [r3, #44]	@ 0x2c
 80023b8:	f403 0370 	and.w	r3, r3, #15728640	@ 0xf00000
        (hadc->Init.ContinuousConvMode == DISABLE)            &&
 80023bc:	2b00      	cmp	r3, #0
 80023be:	d006      	beq.n	80023ce <HAL_ADC_IRQHandler+0x86>
         HAL_IS_BIT_CLR(hadc->Instance->CR2, ADC_CR2_EOCS)))
 80023c0:	687b      	ldr	r3, [r7, #4]
 80023c2:	681b      	ldr	r3, [r3, #0]
 80023c4:	689b      	ldr	r3, [r3, #8]
 80023c6:	f403 6380 	and.w	r3, r3, #1024	@ 0x400
        (HAL_IS_BIT_CLR(hadc->Instance->SQR1, ADC_SQR1_L) ||
 80023ca:	2b00      	cmp	r3, #0
 80023cc:	d119      	bne.n	8002402 <HAL_ADC_IRQHandler+0xba>
    {
      /* Disable ADC end of single conversion interrupt on group regular */
      /* Note: Overrun interrupt was enabled with EOC interrupt in          */
      /* HAL_ADC_Start_IT(), but is not disabled here because can be used   */
      /* by overrun IRQ process below.                                      */
      __HAL_ADC_DISABLE_IT(hadc, ADC_IT_EOC);
 80023ce:	687b      	ldr	r3, [r7, #4]
 80023d0:	681b      	ldr	r3, [r3, #0]
 80023d2:	685a      	ldr	r2, [r3, #4]
 80023d4:	687b      	ldr	r3, [r7, #4]
 80023d6:	681b      	ldr	r3, [r3, #0]
 80023d8:	f022 0220 	bic.w	r2, r2, #32
 80023dc:	605a      	str	r2, [r3, #4]

      /* Set ADC state */
      CLEAR_BIT(hadc->State, HAL_ADC_STATE_REG_BUSY);
 80023de:	687b      	ldr	r3, [r7, #4]
 80023e0:	6c1b      	ldr	r3, [r3, #64]	@ 0x40
 80023e2:	f423 7280 	bic.w	r2, r3, #256	@ 0x100
 80023e6:	687b      	ldr	r3, [r7, #4]
 80023e8:	641a      	str	r2, [r3, #64]	@ 0x40

      if (HAL_IS_BIT_CLR(hadc->State, HAL_ADC_STATE_INJ_BUSY))
 80023ea:	687b      	ldr	r3, [r7, #4]
 80023ec:	6c1b      	ldr	r3, [r3, #64]	@ 0x40
 80023ee:	f403 5380 	and.w	r3, r3, #4096	@ 0x1000
 80023f2:	2b00      	cmp	r3, #0
 80023f4:	d105      	bne.n	8002402 <HAL_ADC_IRQHandler+0xba>
      {
        SET_BIT(hadc->State, HAL_ADC_STATE_READY);
 80023f6:	687b      	ldr	r3, [r7, #4]
 80023f8:	6c1b      	ldr	r3, [r3, #64]	@ 0x40
 80023fa:	f043 0201 	orr.w	r2, r3, #1
 80023fe:	687b      	ldr	r3, [r7, #4]
 8002400:	641a      	str	r2, [r3, #64]	@ 0x40

    /* Conversion complete callback */
#if (USE_HAL_ADC_REGISTER_CALLBACKS == 1)
    hadc->ConvCpltCallback(hadc);
#else
    HAL_ADC_ConvCpltCallback(hadc);
 8002402:	6878      	ldr	r0, [r7, #4]
 8002404:	f7ff fae4 	bl	80019d0 <HAL_ADC_ConvCpltCallback>
#endif /* USE_HAL_ADC_REGISTER_CALLBACKS */

    /* Clear regular group conversion flag */
    __HAL_ADC_CLEAR_FLAG(hadc, ADC_FLAG_STRT | ADC_FLAG_EOC);
 8002408:	687b      	ldr	r3, [r7, #4]
 800240a:	681b      	ldr	r3, [r3, #0]
 800240c:	f06f 0212 	mvn.w	r2, #18
 8002410:	601a      	str	r2, [r3, #0]
  }

  tmp1 = tmp_sr & ADC_FLAG_JEOC;
 8002412:	68fb      	ldr	r3, [r7, #12]
 8002414:	f003 0304 	and.w	r3, r3, #4
 8002418:	617b      	str	r3, [r7, #20]
  tmp2 = tmp_cr1 & ADC_IT_JEOC;
 800241a:	68bb      	ldr	r3, [r7, #8]
 800241c:	f003 0380 	and.w	r3, r3, #128	@ 0x80
 8002420:	613b      	str	r3, [r7, #16]
  /* Check End of conversion flag for injected channels */
  if (tmp1 && tmp2)
 8002422:	697b      	ldr	r3, [r7, #20]
 8002424:	2b00      	cmp	r3, #0
 8002426:	d057      	beq.n	80024d8 <HAL_ADC_IRQHandler+0x190>
 8002428:	693b      	ldr	r3, [r7, #16]
 800242a:	2b00      	cmp	r3, #0
 800242c:	d054      	beq.n	80024d8 <HAL_ADC_IRQHandler+0x190>
  {
    /* Update state machine on conversion status if not in error state */
    if (HAL_IS_BIT_CLR(hadc->State, HAL_ADC_STATE_ERROR_INTERNAL))
 800242e:	687b      	ldr	r3, [r7, #4]
 8002430:	6c1b      	ldr	r3, [r3, #64]	@ 0x40
 8002432:	f003 0310 	and.w	r3, r3, #16
 8002436:	2b00      	cmp	r3, #0
 8002438:	d105      	bne.n	8002446 <HAL_ADC_IRQHandler+0xfe>
    {
      /* Set ADC state */
      SET_BIT(hadc->State, HAL_ADC_STATE_INJ_EOC);
 800243a:	687b      	ldr	r3, [r7, #4]
 800243c:	6c1b      	ldr	r3, [r3, #64]	@ 0x40
 800243e:	f443 5200 	orr.w	r2, r3, #8192	@ 0x2000
 8002442:	687b      	ldr	r3, [r7, #4]
 8002444:	641a      	str	r2, [r3, #64]	@ 0x40

    /* Determine whether any further conversion upcoming on group injected  */
    /* by external trigger, scan sequence on going or by automatic injected */
    /* conversion from group regular (same conditions as group regular      */
    /* interruption disabling above).                                       */
    if (ADC_IS_SOFTWARE_START_INJECTED(hadc)                    &&
 8002446:	687b      	ldr	r3, [r7, #4]
 8002448:	681b      	ldr	r3, [r3, #0]
 800244a:	689b      	ldr	r3, [r3, #8]
 800244c:	f403 1340 	and.w	r3, r3, #3145728	@ 0x300000
 8002450:	2b00      	cmp	r3, #0
 8002452:	d139      	bne.n	80024c8 <HAL_ADC_IRQHandler+0x180>
        (HAL_IS_BIT_CLR(hadc->Instance->JSQR, ADC_JSQR_JL)  ||
 8002454:	687b      	ldr	r3, [r7, #4]
 8002456:	681b      	ldr	r3, [r3, #0]
 8002458:	6b9b      	ldr	r3, [r3, #56]	@ 0x38
 800245a:	f403 1340 	and.w	r3, r3, #3145728	@ 0x300000
    if (ADC_IS_SOFTWARE_START_INJECTED(hadc)                    &&
 800245e:	2b00      	cmp	r3, #0
 8002460:	d006      	beq.n	8002470 <HAL_ADC_IRQHandler+0x128>
         HAL_IS_BIT_CLR(hadc->Instance->CR2, ADC_CR2_EOCS)) &&
 8002462:	687b      	ldr	r3, [r7, #4]
 8002464:	681b      	ldr	r3, [r3, #0]
 8002466:	689b      	ldr	r3, [r3, #8]
 8002468:	f403 6380 	and.w	r3, r3, #1024	@ 0x400
        (HAL_IS_BIT_CLR(hadc->Instance->JSQR, ADC_JSQR_JL)  ||
 800246c:	2b00      	cmp	r3, #0
 800246e:	d12b      	bne.n	80024c8 <HAL_ADC_IRQHandler+0x180>
        (HAL_IS_BIT_CLR(hadc->Instance->CR1, ADC_CR1_JAUTO) &&
 8002470:	687b      	ldr	r3, [r7, #4]
 8002472:	681b      	ldr	r3, [r3, #0]
 8002474:	685b      	ldr	r3, [r3, #4]
 8002476:	f403 6380 	and.w	r3, r3, #1024	@ 0x400
         HAL_IS_BIT_CLR(hadc->Instance->CR2, ADC_CR2_EOCS)) &&
 800247a:	2b00      	cmp	r3, #0
 800247c:	d124      	bne.n	80024c8 <HAL_ADC_IRQHandler+0x180>
         (ADC_IS_SOFTWARE_START_REGULAR(hadc)       &&
 800247e:	687b      	ldr	r3, [r7, #4]
 8002480:	681b      	ldr	r3, [r3, #0]
 8002482:	689b      	ldr	r3, [r3, #8]
 8002484:	f003 5340 	and.w	r3, r3, #805306368	@ 0x30000000
        (HAL_IS_BIT_CLR(hadc->Instance->CR1, ADC_CR1_JAUTO) &&
 8002488:	2b00      	cmp	r3, #0
 800248a:	d11d      	bne.n	80024c8 <HAL_ADC_IRQHandler+0x180>
          (hadc->Init.ContinuousConvMode == DISABLE))))
 800248c:	687b      	ldr	r3, [r7, #4]
 800248e:	7e1b      	ldrb	r3, [r3, #24]
         (ADC_IS_SOFTWARE_START_REGULAR(hadc)       &&
 8002490:	2b00      	cmp	r3, #0
 8002492:	d119      	bne.n	80024c8 <HAL_ADC_IRQHandler+0x180>
    {
      /* Disable ADC end of single conversion interrupt on group injected */
      __HAL_ADC_DISABLE_IT(hadc, ADC_IT_JEOC);
 8002494:	687b      	ldr	r3, [r7, #4]
 8002496:	681b      	ldr	r3, [r3, #0]
 8002498:	685a      	ldr	r2, [r3, #4]
 800249a:	687b      	ldr	r3, [r7, #4]
 800249c:	681b      	ldr	r3, [r3, #0]
 800249e:	f022 0280 	bic.w	r2, r2, #128	@ 0x80
 80024a2:	605a      	str	r2, [r3, #4]

      /* Set ADC state */
      CLEAR_BIT(hadc->State, HAL_ADC_STATE_INJ_BUSY);
 80024a4:	687b      	ldr	r3, [r7, #4]
 80024a6:	6c1b      	ldr	r3, [r3, #64]	@ 0x40
 80024a8:	f423 5280 	bic.w	r2, r3, #4096	@ 0x1000
 80024ac:	687b      	ldr	r3, [r7, #4]
 80024ae:	641a      	str	r2, [r3, #64]	@ 0x40

      if (HAL_IS_BIT_CLR(hadc->State, HAL_ADC_STATE_REG_BUSY))
 80024b0:	687b      	ldr	r3, [r7, #4]
 80024b2:	6c1b      	ldr	r3, [r3, #64]	@ 0x40
 80024b4:	f403 7380 	and.w	r3, r3, #256	@ 0x100
 80024b8:	2b00      	cmp	r3, #0
 80024ba:	d105      	bne.n	80024c8 <HAL_ADC_IRQHandler+0x180>
      {
        SET_BIT(hadc->State, HAL_ADC_STATE_READY);
 80024bc:	687b      	ldr	r3, [r7, #4]
 80024be:	6c1b      	ldr	r3, [r3, #64]	@ 0x40
 80024c0:	f043 0201 	orr.w	r2, r3, #1
 80024c4:	687b      	ldr	r3, [r7, #4]
 80024c6:	641a      	str	r2, [r3, #64]	@ 0x40
    /* Conversion complete callback */
    /* Conversion complete callback */
#if (USE_HAL_ADC_REGISTER_CALLBACKS == 1)
    hadc->InjectedConvCpltCallback(hadc);
#else
    HAL_ADCEx_InjectedConvCpltCallback(hadc);
 80024c8:	6878      	ldr	r0, [r7, #4]
 80024ca:	f000 fa8d 	bl	80029e8 <HAL_ADCEx_InjectedConvCpltCallback>
#endif /* USE_HAL_ADC_REGISTER_CALLBACKS */

    /* Clear injected group conversion flag */
    __HAL_ADC_CLEAR_FLAG(hadc, (ADC_FLAG_JSTRT | ADC_FLAG_JEOC));
 80024ce:	687b      	ldr	r3, [r7, #4]
 80024d0:	681b      	ldr	r3, [r3, #0]
 80024d2:	f06f 020c 	mvn.w	r2, #12
 80024d6:	601a      	str	r2, [r3, #0]
  }

  tmp1 = tmp_sr & ADC_FLAG_AWD;
 80024d8:	68fb      	ldr	r3, [r7, #12]
 80024da:	f003 0301 	and.w	r3, r3, #1
 80024de:	617b      	str	r3, [r7, #20]
  tmp2 = tmp_cr1 & ADC_IT_AWD;
 80024e0:	68bb      	ldr	r3, [r7, #8]
 80024e2:	f003 0340 	and.w	r3, r3, #64	@ 0x40
 80024e6:	613b      	str	r3, [r7, #16]
  /* Check Analog watchdog flag */
  if (tmp1 && tmp2)
 80024e8:	697b      	ldr	r3, [r7, #20]
 80024ea:	2b00      	cmp	r3, #0
 80024ec:	d017      	beq.n	800251e <HAL_ADC_IRQHandler+0x1d6>
 80024ee:	693b      	ldr	r3, [r7, #16]
 80024f0:	2b00      	cmp	r3, #0
 80024f2:	d014      	beq.n	800251e <HAL_ADC_IRQHandler+0x1d6>
  {
    if (__HAL_ADC_GET_FLAG(hadc, ADC_FLAG_AWD))
 80024f4:	687b      	ldr	r3, [r7, #4]
 80024f6:	681b      	ldr	r3, [r3, #0]
 80024f8:	681b      	ldr	r3, [r3, #0]
 80024fa:	f003 0301 	and.w	r3, r3, #1
 80024fe:	2b01      	cmp	r3, #1
 8002500:	d10d      	bne.n	800251e <HAL_ADC_IRQHandler+0x1d6>
    {
      /* Set ADC state */
      SET_BIT(hadc->State, HAL_ADC_STATE_AWD1);
 8002502:	687b      	ldr	r3, [r7, #4]
 8002504:	6c1b      	ldr	r3, [r3, #64]	@ 0x40
 8002506:	f443 3280 	orr.w	r2, r3, #65536	@ 0x10000
 800250a:	687b      	ldr	r3, [r7, #4]
 800250c:	641a      	str	r2, [r3, #64]	@ 0x40

      /* Level out of window callback */
#if (USE_HAL_ADC_REGISTER_CALLBACKS == 1)
      hadc->LevelOutOfWindowCallback(hadc);
#else
      HAL_ADC_LevelOutOfWindowCallback(hadc);
 800250e:	6878      	ldr	r0, [r7, #4]
 8002510:	f000 f837 	bl	8002582 <HAL_ADC_LevelOutOfWindowCallback>
#endif /* USE_HAL_ADC_REGISTER_CALLBACKS */

      /* Clear the ADC analog watchdog flag */
      __HAL_ADC_CLEAR_FLAG(hadc, ADC_FLAG_AWD);
 8002514:	687b      	ldr	r3, [r7, #4]
 8002516:	681b      	ldr	r3, [r3, #0]
 8002518:	f06f 0201 	mvn.w	r2, #1
 800251c:	601a      	str	r2, [r3, #0]
    }
  }

  tmp1 = tmp_sr & ADC_FLAG_OVR;
 800251e:	68fb      	ldr	r3, [r7, #12]
 8002520:	f003 0320 	and.w	r3, r3, #32
 8002524:	617b      	str	r3, [r7, #20]
  tmp2 = tmp_cr1 & ADC_IT_OVR;
 8002526:	68bb      	ldr	r3, [r7, #8]
 8002528:	f003 6380 	and.w	r3, r3, #67108864	@ 0x4000000
 800252c:	613b      	str	r3, [r7, #16]
  /* Check Overrun flag */
  if (tmp1 && tmp2)
 800252e:	697b      	ldr	r3, [r7, #20]
 8002530:	2b00      	cmp	r3, #0
 8002532:	d015      	beq.n	8002560 <HAL_ADC_IRQHandler+0x218>
 8002534:	693b      	ldr	r3, [r7, #16]
 8002536:	2b00      	cmp	r3, #0
 8002538:	d012      	beq.n	8002560 <HAL_ADC_IRQHandler+0x218>
    /* Note: On STM32F4, ADC overrun can be set through other parameters    */
    /*       refer to description of parameter "EOCSelection" for more      */
    /*       details.                                                       */

    /* Set ADC error code to overrun */
    SET_BIT(hadc->ErrorCode, HAL_ADC_ERROR_OVR);
 800253a:	687b      	ldr	r3, [r7, #4]
 800253c:	6c5b      	ldr	r3, [r3, #68]	@ 0x44
 800253e:	f043 0202 	orr.w	r2, r3, #2
 8002542:	687b      	ldr	r3, [r7, #4]
 8002544:	645a      	str	r2, [r3, #68]	@ 0x44

    /* Clear ADC overrun flag */
    __HAL_ADC_CLEAR_FLAG(hadc, ADC_FLAG_OVR);
 8002546:	687b      	ldr	r3, [r7, #4]
 8002548:	681b      	ldr	r3, [r3, #0]
 800254a:	f06f 0220 	mvn.w	r2, #32
 800254e:	601a      	str	r2, [r3, #0]

    /* Error callback */
#if (USE_HAL_ADC_REGISTER_CALLBACKS == 1)
    hadc->ErrorCallback(hadc);
#else
    HAL_ADC_ErrorCallback(hadc);
 8002550:	6878      	ldr	r0, [r7, #4]
 8002552:	f000 f820 	bl	8002596 <HAL_ADC_ErrorCallback>
#endif /* USE_HAL_ADC_REGISTER_CALLBACKS */

    /* Clear the Overrun flag */
    __HAL_ADC_CLEAR_FLAG(hadc, ADC_FLAG_OVR);
 8002556:	687b      	ldr	r3, [r7, #4]
 8002558:	681b      	ldr	r3, [r3, #0]
 800255a:	f06f 0220 	mvn.w	r2, #32
 800255e:	601a      	str	r2, [r3, #0]
  }
}
 8002560:	bf00      	nop
 8002562:	3718      	adds	r7, #24
 8002564:	46bd      	mov	sp, r7
 8002566:	bd80      	pop	{r7, pc}

08002568 <HAL_ADC_GetValue>:
  * @param  hadc pointer to a ADC_HandleTypeDef structure that contains
  *         the configuration information for the specified ADC.
  * @retval Converted value
  */
uint32_t HAL_ADC_GetValue(ADC_HandleTypeDef *hadc)
{
 8002568:	b480      	push	{r7}
 800256a:	b083      	sub	sp, #12
 800256c:	af00      	add	r7, sp, #0
 800256e:	6078      	str	r0, [r7, #4]
  /* Return the selected ADC converted value */
  return hadc->Instance->DR;
 8002570:	687b      	ldr	r3, [r7, #4]
 8002572:	681b      	ldr	r3, [r3, #0]
 8002574:	6cdb      	ldr	r3, [r3, #76]	@ 0x4c
}
 8002576:	4618      	mov	r0, r3
 8002578:	370c      	adds	r7, #12
 800257a:	46bd      	mov	sp, r7
 800257c:	f85d 7b04 	ldr.w	r7, [sp], #4
 8002580:	4770      	bx	lr

08002582 <HAL_ADC_LevelOutOfWindowCallback>:
  * @param  hadc pointer to a ADC_HandleTypeDef structure that contains
  *         the configuration information for the specified ADC.
  * @retval None
  */
__weak void HAL_ADC_LevelOutOfWindowCallback(ADC_HandleTypeDef *hadc)
{
 8002582:	b480      	push	{r7}
 8002584:	b083      	sub	sp, #12
 8002586:	af00      	add	r7, sp, #0
 8002588:	6078      	str	r0, [r7, #4]
  /* Prevent unused argument(s) compilation warning */
  UNUSED(hadc);
  /* NOTE : This function Should not be modified, when the callback is needed,
            the HAL_ADC_LevelOoutOfWindowCallback could be implemented in the user file
   */
}
 800258a:	bf00      	nop
 800258c:	370c      	adds	r7, #12
 800258e:	46bd      	mov	sp, r7
 8002590:	f85d 7b04 	ldr.w	r7, [sp], #4
 8002594:	4770      	bx	lr

08002596 <HAL_ADC_ErrorCallback>:
  * @param  hadc pointer to a ADC_HandleTypeDef structure that contains
  *         the configuration information for the specified ADC.
  * @retval None
  */
__weak void HAL_ADC_ErrorCallback(ADC_HandleTypeDef *hadc)
{
 8002596:	b480      	push	{r7}
 8002598:	b083      	sub	sp, #12
 800259a:	af00      	add	r7, sp, #0
 800259c:	6078      	str	r0, [r7, #4]
  /* Prevent unused argument(s) compilation warning */
  UNUSED(hadc);
  /* NOTE : This function Should not be modified, when the callback is needed,
            the HAL_ADC_ErrorCallback could be implemented in the user file
   */
}
 800259e:	bf00      	nop
 80025a0:	370c      	adds	r7, #12
 80025a2:	46bd      	mov	sp, r7
 80025a4:	f85d 7b04 	ldr.w	r7, [sp], #4
 80025a8:	4770      	bx	lr
	...

080025ac <HAL_ADC_ConfigChannel>:
*         the configuration information for the specified ADC.
* @param  sConfig ADC configuration structure.
* @retval HAL status
*/
HAL_StatusTypeDef HAL_ADC_ConfigChannel(ADC_HandleTypeDef *hadc, ADC_ChannelConfTypeDef *sConfig)
{
 80025ac:	b480      	push	{r7}
 80025ae:	b085      	sub	sp, #20
 80025b0:	af00      	add	r7, sp, #0
 80025b2:	6078      	str	r0, [r7, #4]
 80025b4:	6039      	str	r1, [r7, #0]
  __IO uint32_t counter = 0U;
 80025b6:	2300      	movs	r3, #0
 80025b8:	60bb      	str	r3, [r7, #8]
  assert_param(IS_ADC_CHANNEL(sConfig->Channel));
  assert_param(IS_ADC_REGULAR_RANK(sConfig->Rank));
  assert_param(IS_ADC_SAMPLE_TIME(sConfig->SamplingTime));

  /* Process locked */
  __HAL_LOCK(hadc);
 80025ba:	687b      	ldr	r3, [r7, #4]
 80025bc:	f893 303c 	ldrb.w	r3, [r3, #60]	@ 0x3c
 80025c0:	2b01      	cmp	r3, #1
 80025c2:	d101      	bne.n	80025c8 <HAL_ADC_ConfigChannel+0x1c>
 80025c4:	2302      	movs	r3, #2
 80025c6:	e105      	b.n	80027d4 <HAL_ADC_ConfigChannel+0x228>
 80025c8:	687b      	ldr	r3, [r7, #4]
 80025ca:	2201      	movs	r2, #1
 80025cc:	f883 203c 	strb.w	r2, [r3, #60]	@ 0x3c

  /* if ADC_Channel_10 ... ADC_Channel_18 is selected */
  if (sConfig->Channel > ADC_CHANNEL_9)
 80025d0:	683b      	ldr	r3, [r7, #0]
 80025d2:	681b      	ldr	r3, [r3, #0]
 80025d4:	2b09      	cmp	r3, #9
 80025d6:	d925      	bls.n	8002624 <HAL_ADC_ConfigChannel+0x78>
  {
    /* Clear the old sample time */
    hadc->Instance->SMPR1 &= ~ADC_SMPR1(ADC_SMPR1_SMP10, sConfig->Channel);
 80025d8:	687b      	ldr	r3, [r7, #4]
 80025da:	681b      	ldr	r3, [r3, #0]
 80025dc:	68d9      	ldr	r1, [r3, #12]
 80025de:	683b      	ldr	r3, [r7, #0]
 80025e0:	681b      	ldr	r3, [r3, #0]
 80025e2:	b29b      	uxth	r3, r3
 80025e4:	461a      	mov	r2, r3
 80025e6:	4613      	mov	r3, r2
 80025e8:	005b      	lsls	r3, r3, #1
 80025ea:	4413      	add	r3, r2
 80025ec:	3b1e      	subs	r3, #30
 80025ee:	2207      	movs	r2, #7
 80025f0:	fa02 f303 	lsl.w	r3, r2, r3
 80025f4:	43da      	mvns	r2, r3
 80025f6:	687b      	ldr	r3, [r7, #4]
 80025f8:	681b      	ldr	r3, [r3, #0]
 80025fa:	400a      	ands	r2, r1
 80025fc:	60da      	str	r2, [r3, #12]

    /* Set the new sample time */
    hadc->Instance->SMPR1 |= ADC_SMPR1(sConfig->SamplingTime, sConfig->Channel);
 80025fe:	687b      	ldr	r3, [r7, #4]
 8002600:	681b      	ldr	r3, [r3, #0]
 8002602:	68d9      	ldr	r1, [r3, #12]
 8002604:	683b      	ldr	r3, [r7, #0]
 8002606:	689a      	ldr	r2, [r3, #8]
 8002608:	683b      	ldr	r3, [r7, #0]
 800260a:	681b      	ldr	r3, [r3, #0]
 800260c:	b29b      	uxth	r3, r3
 800260e:	4618      	mov	r0, r3
 8002610:	4603      	mov	r3, r0
 8002612:	005b      	lsls	r3, r3, #1
 8002614:	4403      	add	r3, r0
 8002616:	3b1e      	subs	r3, #30
 8002618:	409a      	lsls	r2, r3
 800261a:	687b      	ldr	r3, [r7, #4]
 800261c:	681b      	ldr	r3, [r3, #0]
 800261e:	430a      	orrs	r2, r1
 8002620:	60da      	str	r2, [r3, #12]
 8002622:	e022      	b.n	800266a <HAL_ADC_ConfigChannel+0xbe>
  }
  else /* ADC_Channel include in ADC_Channel_[0..9] */
  {
    /* Clear the old sample time */
    hadc->Instance->SMPR2 &= ~ADC_SMPR2(ADC_SMPR2_SMP0, sConfig->Channel);
 8002624:	687b      	ldr	r3, [r7, #4]
 8002626:	681b      	ldr	r3, [r3, #0]
 8002628:	6919      	ldr	r1, [r3, #16]
 800262a:	683b      	ldr	r3, [r7, #0]
 800262c:	681b      	ldr	r3, [r3, #0]
 800262e:	b29b      	uxth	r3, r3
 8002630:	461a      	mov	r2, r3
 8002632:	4613      	mov	r3, r2
 8002634:	005b      	lsls	r3, r3, #1
 8002636:	4413      	add	r3, r2
 8002638:	2207      	movs	r2, #7
 800263a:	fa02 f303 	lsl.w	r3, r2, r3
 800263e:	43da      	mvns	r2, r3
 8002640:	687b      	ldr	r3, [r7, #4]
 8002642:	681b      	ldr	r3, [r3, #0]
 8002644:	400a      	ands	r2, r1
 8002646:	611a      	str	r2, [r3, #16]

    /* Set the new sample time */
    hadc->Instance->SMPR2 |= ADC_SMPR2(sConfig->SamplingTime, sConfig->Channel);
 8002648:	687b      	ldr	r3, [r7, #4]
 800264a:	681b      	ldr	r3, [r3, #0]
 800264c:	6919      	ldr	r1, [r3, #16]
 800264e:	683b      	ldr	r3, [r7, #0]
 8002650:	689a      	ldr	r2, [r3, #8]
 8002652:	683b      	ldr	r3, [r7, #0]
 8002654:	681b      	ldr	r3, [r3, #0]
 8002656:	b29b      	uxth	r3, r3
 8002658:	4618      	mov	r0, r3
 800265a:	4603      	mov	r3, r0
 800265c:	005b      	lsls	r3, r3, #1
 800265e:	4403      	add	r3, r0
 8002660:	409a      	lsls	r2, r3
 8002662:	687b      	ldr	r3, [r7, #4]
 8002664:	681b      	ldr	r3, [r3, #0]
 8002666:	430a      	orrs	r2, r1
 8002668:	611a      	str	r2, [r3, #16]
  }

  /* For Rank 1 to 6 */
  if (sConfig->Rank < 7U)
 800266a:	683b      	ldr	r3, [r7, #0]
 800266c:	685b      	ldr	r3, [r3, #4]
 800266e:	2b06      	cmp	r3, #6
 8002670:	d824      	bhi.n	80026bc <HAL_ADC_ConfigChannel+0x110>
  {
    /* Clear the old SQx bits for the selected rank */
    hadc->Instance->SQR3 &= ~ADC_SQR3_RK(ADC_SQR3_SQ1, sConfig->Rank);
 8002672:	687b      	ldr	r3, [r7, #4]
 8002674:	681b      	ldr	r3, [r3, #0]
 8002676:	6b59      	ldr	r1, [r3, #52]	@ 0x34
 8002678:	683b      	ldr	r3, [r7, #0]
 800267a:	685a      	ldr	r2, [r3, #4]
 800267c:	4613      	mov	r3, r2
 800267e:	009b      	lsls	r3, r3, #2
 8002680:	4413      	add	r3, r2
 8002682:	3b05      	subs	r3, #5
 8002684:	221f      	movs	r2, #31
 8002686:	fa02 f303 	lsl.w	r3, r2, r3
 800268a:	43da      	mvns	r2, r3
 800268c:	687b      	ldr	r3, [r7, #4]
 800268e:	681b      	ldr	r3, [r3, #0]
 8002690:	400a      	ands	r2, r1
 8002692:	635a      	str	r2, [r3, #52]	@ 0x34

    /* Set the SQx bits for the selected rank */
    hadc->Instance->SQR3 |= ADC_SQR3_RK(sConfig->Channel, sConfig->Rank);
 8002694:	687b      	ldr	r3, [r7, #4]
 8002696:	681b      	ldr	r3, [r3, #0]
 8002698:	6b59      	ldr	r1, [r3, #52]	@ 0x34
 800269a:	683b      	ldr	r3, [r7, #0]
 800269c:	681b      	ldr	r3, [r3, #0]
 800269e:	b29b      	uxth	r3, r3
 80026a0:	4618      	mov	r0, r3
 80026a2:	683b      	ldr	r3, [r7, #0]
 80026a4:	685a      	ldr	r2, [r3, #4]
 80026a6:	4613      	mov	r3, r2
 80026a8:	009b      	lsls	r3, r3, #2
 80026aa:	4413      	add	r3, r2
 80026ac:	3b05      	subs	r3, #5
 80026ae:	fa00 f203 	lsl.w	r2, r0, r3
 80026b2:	687b      	ldr	r3, [r7, #4]
 80026b4:	681b      	ldr	r3, [r3, #0]
 80026b6:	430a      	orrs	r2, r1
 80026b8:	635a      	str	r2, [r3, #52]	@ 0x34
 80026ba:	e04c      	b.n	8002756 <HAL_ADC_ConfigChannel+0x1aa>
  }
  /* For Rank 7 to 12 */
  else if (sConfig->Rank < 13U)
 80026bc:	683b      	ldr	r3, [r7, #0]
 80026be:	685b      	ldr	r3, [r3, #4]
 80026c0:	2b0c      	cmp	r3, #12
 80026c2:	d824      	bhi.n	800270e <HAL_ADC_ConfigChannel+0x162>
  {
    /* Clear the old SQx bits for the selected rank */
    hadc->Instance->SQR2 &= ~ADC_SQR2_RK(ADC_SQR2_SQ7, sConfig->Rank);
 80026c4:	687b      	ldr	r3, [r7, #4]
 80026c6:	681b      	ldr	r3, [r3, #0]
 80026c8:	6b19      	ldr	r1, [r3, #48]	@ 0x30
 80026ca:	683b      	ldr	r3, [r7, #0]
 80026cc:	685a      	ldr	r2, [r3, #4]
 80026ce:	4613      	mov	r3, r2
 80026d0:	009b      	lsls	r3, r3, #2
 80026d2:	4413      	add	r3, r2
 80026d4:	3b23      	subs	r3, #35	@ 0x23
 80026d6:	221f      	movs	r2, #31
 80026d8:	fa02 f303 	lsl.w	r3, r2, r3
 80026dc:	43da      	mvns	r2, r3
 80026de:	687b      	ldr	r3, [r7, #4]
 80026e0:	681b      	ldr	r3, [r3, #0]
 80026e2:	400a      	ands	r2, r1
 80026e4:	631a      	str	r2, [r3, #48]	@ 0x30

    /* Set the SQx bits for the selected rank */
    hadc->Instance->SQR2 |= ADC_SQR2_RK(sConfig->Channel, sConfig->Rank);
 80026e6:	687b      	ldr	r3, [r7, #4]
 80026e8:	681b      	ldr	r3, [r3, #0]
 80026ea:	6b19      	ldr	r1, [r3, #48]	@ 0x30
 80026ec:	683b      	ldr	r3, [r7, #0]
 80026ee:	681b      	ldr	r3, [r3, #0]
 80026f0:	b29b      	uxth	r3, r3
 80026f2:	4618      	mov	r0, r3
 80026f4:	683b      	ldr	r3, [r7, #0]
 80026f6:	685a      	ldr	r2, [r3, #4]
 80026f8:	4613      	mov	r3, r2
 80026fa:	009b      	lsls	r3, r3, #2
 80026fc:	4413      	add	r3, r2
 80026fe:	3b23      	subs	r3, #35	@ 0x23
 8002700:	fa00 f203 	lsl.w	r2, r0, r3
 8002704:	687b      	ldr	r3, [r7, #4]
 8002706:	681b      	ldr	r3, [r3, #0]
 8002708:	430a      	orrs	r2, r1
 800270a:	631a      	str	r2, [r3, #48]	@ 0x30
 800270c:	e023      	b.n	8002756 <HAL_ADC_ConfigChannel+0x1aa>
  }
  /* For Rank 13 to 16 */
  else
  {
    /* Clear the old SQx bits for the selected rank */
    hadc->Instance->SQR1 &= ~ADC_SQR1_RK(ADC_SQR1_SQ13, sConfig->Rank);
 800270e:	687b      	ldr	r3, [r7, #4]
 8002710:	681b      	ldr	r3, [r3, #0]
 8002712:	6ad9      	ldr	r1, [r3, #44]	@ 0x2c
 8002714:	683b      	ldr	r3, [r7, #0]
 8002716:	685a      	ldr	r2, [r3, #4]
 8002718:	4613      	mov	r3, r2
 800271a:	009b      	lsls	r3, r3, #2
 800271c:	4413      	add	r3, r2
 800271e:	3b41      	subs	r3, #65	@ 0x41
 8002720:	221f      	movs	r2, #31
 8002722:	fa02 f303 	lsl.w	r3, r2, r3
 8002726:	43da      	mvns	r2, r3
 8002728:	687b      	ldr	r3, [r7, #4]
 800272a:	681b      	ldr	r3, [r3, #0]
 800272c:	400a      	ands	r2, r1
 800272e:	62da      	str	r2, [r3, #44]	@ 0x2c

    /* Set the SQx bits for the selected rank */
    hadc->Instance->SQR1 |= ADC_SQR1_RK(sConfig->Channel, sConfig->Rank);
 8002730:	687b      	ldr	r3, [r7, #4]
 8002732:	681b      	ldr	r3, [r3, #0]
 8002734:	6ad9      	ldr	r1, [r3, #44]	@ 0x2c
 8002736:	683b      	ldr	r3, [r7, #0]
 8002738:	681b      	ldr	r3, [r3, #0]
 800273a:	b29b      	uxth	r3, r3
 800273c:	4618      	mov	r0, r3
 800273e:	683b      	ldr	r3, [r7, #0]
 8002740:	685a      	ldr	r2, [r3, #4]
 8002742:	4613      	mov	r3, r2
 8002744:	009b      	lsls	r3, r3, #2
 8002746:	4413      	add	r3, r2
 8002748:	3b41      	subs	r3, #65	@ 0x41
 800274a:	fa00 f203 	lsl.w	r2, r0, r3
 800274e:	687b      	ldr	r3, [r7, #4]
 8002750:	681b      	ldr	r3, [r3, #0]
 8002752:	430a      	orrs	r2, r1
 8002754:	62da      	str	r2, [r3, #44]	@ 0x2c
  }

  /* Pointer to the common control register to which is belonging hadc    */
  /* (Depending on STM32F4 product, there may be up to 3 ADCs and 1 common */
  /* control register)                                                    */
  tmpADC_Common = ADC_COMMON_REGISTER(hadc);
 8002756:	4b22      	ldr	r3, [pc, #136]	@ (80027e0 <HAL_ADC_ConfigChannel+0x234>)
 8002758:	60fb      	str	r3, [r7, #12]

  /* if ADC1 Channel_18 is selected for VBAT Channel ennable VBATE */
  if ((hadc->Instance == ADC1) && (sConfig->Channel == ADC_CHANNEL_VBAT))
 800275a:	687b      	ldr	r3, [r7, #4]
 800275c:	681b      	ldr	r3, [r3, #0]
 800275e:	4a21      	ldr	r2, [pc, #132]	@ (80027e4 <HAL_ADC_ConfigChannel+0x238>)
 8002760:	4293      	cmp	r3, r2
 8002762:	d109      	bne.n	8002778 <HAL_ADC_ConfigChannel+0x1cc>
 8002764:	683b      	ldr	r3, [r7, #0]
 8002766:	681b      	ldr	r3, [r3, #0]
 8002768:	2b12      	cmp	r3, #18
 800276a:	d105      	bne.n	8002778 <HAL_ADC_ConfigChannel+0x1cc>
    if ((uint16_t)ADC_CHANNEL_TEMPSENSOR == (uint16_t)ADC_CHANNEL_VBAT)
    {
      tmpADC_Common->CCR &= ~ADC_CCR_TSVREFE;
    }
    /* Enable the VBAT channel*/
    tmpADC_Common->CCR |= ADC_CCR_VBATE;
 800276c:	68fb      	ldr	r3, [r7, #12]
 800276e:	685b      	ldr	r3, [r3, #4]
 8002770:	f443 0280 	orr.w	r2, r3, #4194304	@ 0x400000
 8002774:	68fb      	ldr	r3, [r7, #12]
 8002776:	605a      	str	r2, [r3, #4]
  }

  /* if ADC1 Channel_16 or Channel_18 is selected for Temperature sensor or
     Channel_17 is selected for VREFINT enable TSVREFE */
  if ((hadc->Instance == ADC1) && ((sConfig->Channel == ADC_CHANNEL_TEMPSENSOR) || (sConfig->Channel == ADC_CHANNEL_VREFINT)))
 8002778:	687b      	ldr	r3, [r7, #4]
 800277a:	681b      	ldr	r3, [r3, #0]
 800277c:	4a19      	ldr	r2, [pc, #100]	@ (80027e4 <HAL_ADC_ConfigChannel+0x238>)
 800277e:	4293      	cmp	r3, r2
 8002780:	d123      	bne.n	80027ca <HAL_ADC_ConfigChannel+0x21e>
 8002782:	683b      	ldr	r3, [r7, #0]
 8002784:	681b      	ldr	r3, [r3, #0]
 8002786:	2b10      	cmp	r3, #16
 8002788:	d003      	beq.n	8002792 <HAL_ADC_ConfigChannel+0x1e6>
 800278a:	683b      	ldr	r3, [r7, #0]
 800278c:	681b      	ldr	r3, [r3, #0]
 800278e:	2b11      	cmp	r3, #17
 8002790:	d11b      	bne.n	80027ca <HAL_ADC_ConfigChannel+0x21e>
    if ((uint16_t)ADC_CHANNEL_TEMPSENSOR == (uint16_t)ADC_CHANNEL_VBAT)
    {
      tmpADC_Common->CCR &= ~ADC_CCR_VBATE;
    }
    /* Enable the Temperature sensor and VREFINT channel*/
    tmpADC_Common->CCR |= ADC_CCR_TSVREFE;
 8002792:	68fb      	ldr	r3, [r7, #12]
 8002794:	685b      	ldr	r3, [r3, #4]
 8002796:	f443 0200 	orr.w	r2, r3, #8388608	@ 0x800000
 800279a:	68fb      	ldr	r3, [r7, #12]
 800279c:	605a      	str	r2, [r3, #4]

    if (sConfig->Channel == ADC_CHANNEL_TEMPSENSOR)
 800279e:	683b      	ldr	r3, [r7, #0]
 80027a0:	681b      	ldr	r3, [r3, #0]
 80027a2:	2b10      	cmp	r3, #16
 80027a4:	d111      	bne.n	80027ca <HAL_ADC_ConfigChannel+0x21e>
    {
      /* Delay for temperature sensor stabilization time */
      /* Compute number of CPU cycles to wait for */
      counter = (ADC_TEMPSENSOR_DELAY_US * (SystemCoreClock / 1000000U));
 80027a6:	4b10      	ldr	r3, [pc, #64]	@ (80027e8 <HAL_ADC_ConfigChannel+0x23c>)
 80027a8:	681b      	ldr	r3, [r3, #0]
 80027aa:	4a10      	ldr	r2, [pc, #64]	@ (80027ec <HAL_ADC_ConfigChannel+0x240>)
 80027ac:	fba2 2303 	umull	r2, r3, r2, r3
 80027b0:	0c9a      	lsrs	r2, r3, #18
 80027b2:	4613      	mov	r3, r2
 80027b4:	009b      	lsls	r3, r3, #2
 80027b6:	4413      	add	r3, r2
 80027b8:	005b      	lsls	r3, r3, #1
 80027ba:	60bb      	str	r3, [r7, #8]
      while (counter != 0U)
 80027bc:	e002      	b.n	80027c4 <HAL_ADC_ConfigChannel+0x218>
      {
        counter--;
 80027be:	68bb      	ldr	r3, [r7, #8]
 80027c0:	3b01      	subs	r3, #1
 80027c2:	60bb      	str	r3, [r7, #8]
      while (counter != 0U)
 80027c4:	68bb      	ldr	r3, [r7, #8]
 80027c6:	2b00      	cmp	r3, #0
 80027c8:	d1f9      	bne.n	80027be <HAL_ADC_ConfigChannel+0x212>
      }
    }
  }

  /* Process unlocked */
  __HAL_UNLOCK(hadc);
 80027ca:	687b      	ldr	r3, [r7, #4]
 80027cc:	2200      	movs	r2, #0
 80027ce:	f883 203c 	strb.w	r2, [r3, #60]	@ 0x3c

  /* Return function status */
  return HAL_OK;
 80027d2:	2300      	movs	r3, #0
}
 80027d4:	4618      	mov	r0, r3
 80027d6:	3714      	adds	r7, #20
 80027d8:	46bd      	mov	sp, r7
 80027da:	f85d 7b04 	ldr.w	r7, [sp], #4
 80027de:	4770      	bx	lr
 80027e0:	40012300 	.word	0x40012300
 80027e4:	40012000 	.word	0x40012000
 80027e8:	20000008 	.word	0x20000008
 80027ec:	431bde83 	.word	0x431bde83

080027f0 <ADC_Init>:
  * @param  hadc pointer to a ADC_HandleTypeDef structure that contains
  *         the configuration information for the specified ADC.
  * @retval None
  */
static void ADC_Init(ADC_HandleTypeDef *hadc)
{
 80027f0:	b480      	push	{r7}
 80027f2:	b085      	sub	sp, #20
 80027f4:	af00      	add	r7, sp, #0
 80027f6:	6078      	str	r0, [r7, #4]

  /* Set ADC parameters */
  /* Pointer to the common control register to which is belonging hadc    */
  /* (Depending on STM32F4 product, there may be up to 3 ADCs and 1 common */
  /* control register)                                                    */
  tmpADC_Common = ADC_COMMON_REGISTER(hadc);
 80027f8:	4b79      	ldr	r3, [pc, #484]	@ (80029e0 <ADC_Init+0x1f0>)
 80027fa:	60fb      	str	r3, [r7, #12]

  /* Set the ADC clock prescaler */
  tmpADC_Common->CCR &= ~(ADC_CCR_ADCPRE);
 80027fc:	68fb      	ldr	r3, [r7, #12]
 80027fe:	685b      	ldr	r3, [r3, #4]
 8002800:	f423 3240 	bic.w	r2, r3, #196608	@ 0x30000
 8002804:	68fb      	ldr	r3, [r7, #12]
 8002806:	605a      	str	r2, [r3, #4]
  tmpADC_Common->CCR |=  hadc->Init.ClockPrescaler;
 8002808:	68fb      	ldr	r3, [r7, #12]
 800280a:	685a      	ldr	r2, [r3, #4]
 800280c:	687b      	ldr	r3, [r7, #4]
 800280e:	685b      	ldr	r3, [r3, #4]
 8002810:	431a      	orrs	r2, r3
 8002812:	68fb      	ldr	r3, [r7, #12]
 8002814:	605a      	str	r2, [r3, #4]

  /* Set ADC scan mode */
  hadc->Instance->CR1 &= ~(ADC_CR1_SCAN);
 8002816:	687b      	ldr	r3, [r7, #4]
 8002818:	681b      	ldr	r3, [r3, #0]
 800281a:	685a      	ldr	r2, [r3, #4]
 800281c:	687b      	ldr	r3, [r7, #4]
 800281e:	681b      	ldr	r3, [r3, #0]
 8002820:	f422 7280 	bic.w	r2, r2, #256	@ 0x100
 8002824:	605a      	str	r2, [r3, #4]
  hadc->Instance->CR1 |=  ADC_CR1_SCANCONV(hadc->Init.ScanConvMode);
 8002826:	687b      	ldr	r3, [r7, #4]
 8002828:	681b      	ldr	r3, [r3, #0]
 800282a:	6859      	ldr	r1, [r3, #4]
 800282c:	687b      	ldr	r3, [r7, #4]
 800282e:	691b      	ldr	r3, [r3, #16]
 8002830:	021a      	lsls	r2, r3, #8
 8002832:	687b      	ldr	r3, [r7, #4]
 8002834:	681b      	ldr	r3, [r3, #0]
 8002836:	430a      	orrs	r2, r1
 8002838:	605a      	str	r2, [r3, #4]

  /* Set ADC resolution */
  hadc->Instance->CR1 &= ~(ADC_CR1_RES);
 800283a:	687b      	ldr	r3, [r7, #4]
 800283c:	681b      	ldr	r3, [r3, #0]
 800283e:	685a      	ldr	r2, [r3, #4]
 8002840:	687b      	ldr	r3, [r7, #4]
 8002842:	681b      	ldr	r3, [r3, #0]
 8002844:	f022 7240 	bic.w	r2, r2, #50331648	@ 0x3000000
 8002848:	605a      	str	r2, [r3, #4]
  hadc->Instance->CR1 |=  hadc->Init.Resolution;
 800284a:	687b      	ldr	r3, [r7, #4]
 800284c:	681b      	ldr	r3, [r3, #0]
 800284e:	6859      	ldr	r1, [r3, #4]
 8002850:	687b      	ldr	r3, [r7, #4]
 8002852:	689a      	ldr	r2, [r3, #8]
 8002854:	687b      	ldr	r3, [r7, #4]
 8002856:	681b      	ldr	r3, [r3, #0]
 8002858:	430a      	orrs	r2, r1
 800285a:	605a      	str	r2, [r3, #4]

  /* Set ADC data alignment */
  hadc->Instance->CR2 &= ~(ADC_CR2_ALIGN);
 800285c:	687b      	ldr	r3, [r7, #4]
 800285e:	681b      	ldr	r3, [r3, #0]
 8002860:	689a      	ldr	r2, [r3, #8]
 8002862:	687b      	ldr	r3, [r7, #4]
 8002864:	681b      	ldr	r3, [r3, #0]
 8002866:	f422 6200 	bic.w	r2, r2, #2048	@ 0x800
 800286a:	609a      	str	r2, [r3, #8]
  hadc->Instance->CR2 |= hadc->Init.DataAlign;
 800286c:	687b      	ldr	r3, [r7, #4]
 800286e:	681b      	ldr	r3, [r3, #0]
 8002870:	6899      	ldr	r1, [r3, #8]
 8002872:	687b      	ldr	r3, [r7, #4]
 8002874:	68da      	ldr	r2, [r3, #12]
 8002876:	687b      	ldr	r3, [r7, #4]
 8002878:	681b      	ldr	r3, [r3, #0]
 800287a:	430a      	orrs	r2, r1
 800287c:	609a      	str	r2, [r3, #8]
  /* Enable external trigger if trigger selection is different of software  */
  /* start.                                                                 */
  /* Note: This configuration keeps the hardware feature of parameter       */
  /*       ExternalTrigConvEdge "trigger edge none" equivalent to           */
  /*       software start.                                                  */
  if (hadc->Init.ExternalTrigConv != ADC_SOFTWARE_START)
 800287e:	687b      	ldr	r3, [r7, #4]
 8002880:	6a9b      	ldr	r3, [r3, #40]	@ 0x28
 8002882:	4a58      	ldr	r2, [pc, #352]	@ (80029e4 <ADC_Init+0x1f4>)
 8002884:	4293      	cmp	r3, r2
 8002886:	d022      	beq.n	80028ce <ADC_Init+0xde>
  {
    /* Select external trigger to start conversion */
    hadc->Instance->CR2 &= ~(ADC_CR2_EXTSEL);
 8002888:	687b      	ldr	r3, [r7, #4]
 800288a:	681b      	ldr	r3, [r3, #0]
 800288c:	689a      	ldr	r2, [r3, #8]
 800288e:	687b      	ldr	r3, [r7, #4]
 8002890:	681b      	ldr	r3, [r3, #0]
 8002892:	f022 6270 	bic.w	r2, r2, #251658240	@ 0xf000000
 8002896:	609a      	str	r2, [r3, #8]
    hadc->Instance->CR2 |= hadc->Init.ExternalTrigConv;
 8002898:	687b      	ldr	r3, [r7, #4]
 800289a:	681b      	ldr	r3, [r3, #0]
 800289c:	6899      	ldr	r1, [r3, #8]
 800289e:	687b      	ldr	r3, [r7, #4]
 80028a0:	6a9a      	ldr	r2, [r3, #40]	@ 0x28
 80028a2:	687b      	ldr	r3, [r7, #4]
 80028a4:	681b      	ldr	r3, [r3, #0]
 80028a6:	430a      	orrs	r2, r1
 80028a8:	609a      	str	r2, [r3, #8]

    /* Select external trigger polarity */
    hadc->Instance->CR2 &= ~(ADC_CR2_EXTEN);
 80028aa:	687b      	ldr	r3, [r7, #4]
 80028ac:	681b      	ldr	r3, [r3, #0]
 80028ae:	689a      	ldr	r2, [r3, #8]
 80028b0:	687b      	ldr	r3, [r7, #4]
 80028b2:	681b      	ldr	r3, [r3, #0]
 80028b4:	f022 5240 	bic.w	r2, r2, #805306368	@ 0x30000000
 80028b8:	609a      	str	r2, [r3, #8]
    hadc->Instance->CR2 |= hadc->Init.ExternalTrigConvEdge;
 80028ba:	687b      	ldr	r3, [r7, #4]
 80028bc:	681b      	ldr	r3, [r3, #0]
 80028be:	6899      	ldr	r1, [r3, #8]
 80028c0:	687b      	ldr	r3, [r7, #4]
 80028c2:	6ada      	ldr	r2, [r3, #44]	@ 0x2c
 80028c4:	687b      	ldr	r3, [r7, #4]
 80028c6:	681b      	ldr	r3, [r3, #0]
 80028c8:	430a      	orrs	r2, r1
 80028ca:	609a      	str	r2, [r3, #8]
 80028cc:	e00f      	b.n	80028ee <ADC_Init+0xfe>
  }
  else
  {
    /* Reset the external trigger */
    hadc->Instance->CR2 &= ~(ADC_CR2_EXTSEL);
 80028ce:	687b      	ldr	r3, [r7, #4]
 80028d0:	681b      	ldr	r3, [r3, #0]
 80028d2:	689a      	ldr	r2, [r3, #8]
 80028d4:	687b      	ldr	r3, [r7, #4]
 80028d6:	681b      	ldr	r3, [r3, #0]
 80028d8:	f022 6270 	bic.w	r2, r2, #251658240	@ 0xf000000
 80028dc:	609a      	str	r2, [r3, #8]
    hadc->Instance->CR2 &= ~(ADC_CR2_EXTEN);
 80028de:	687b      	ldr	r3, [r7, #4]
 80028e0:	681b      	ldr	r3, [r3, #0]
 80028e2:	689a      	ldr	r2, [r3, #8]
 80028e4:	687b      	ldr	r3, [r7, #4]
 80028e6:	681b      	ldr	r3, [r3, #0]
 80028e8:	f022 5240 	bic.w	r2, r2, #805306368	@ 0x30000000
 80028ec:	609a      	str	r2, [r3, #8]
  }

  /* Enable or disable ADC continuous conversion mode */
  hadc->Instance->CR2 &= ~(ADC_CR2_CONT);
 80028ee:	687b      	ldr	r3, [r7, #4]
 80028f0:	681b      	ldr	r3, [r3, #0]
 80028f2:	689a      	ldr	r2, [r3, #8]
 80028f4:	687b      	ldr	r3, [r7, #4]
 80028f6:	681b      	ldr	r3, [r3, #0]
 80028f8:	f022 0202 	bic.w	r2, r2, #2
 80028fc:	609a      	str	r2, [r3, #8]
  hadc->Instance->CR2 |= ADC_CR2_CONTINUOUS((uint32_t)hadc->Init.ContinuousConvMode);
 80028fe:	687b      	ldr	r3, [r7, #4]
 8002900:	681b      	ldr	r3, [r3, #0]
 8002902:	6899      	ldr	r1, [r3, #8]
 8002904:	687b      	ldr	r3, [r7, #4]
 8002906:	7e1b      	ldrb	r3, [r3, #24]
 8002908:	005a      	lsls	r2, r3, #1
 800290a:	687b      	ldr	r3, [r7, #4]
 800290c:	681b      	ldr	r3, [r3, #0]
 800290e:	430a      	orrs	r2, r1
 8002910:	609a      	str	r2, [r3, #8]

  if (hadc->Init.DiscontinuousConvMode != DISABLE)
 8002912:	687b      	ldr	r3, [r7, #4]
 8002914:	f893 3020 	ldrb.w	r3, [r3, #32]
 8002918:	2b00      	cmp	r3, #0
 800291a:	d01b      	beq.n	8002954 <ADC_Init+0x164>
  {
    assert_param(IS_ADC_REGULAR_DISC_NUMBER(hadc->Init.NbrOfDiscConversion));

    /* Enable the selected ADC regular discontinuous mode */
    hadc->Instance->CR1 |= (uint32_t)ADC_CR1_DISCEN;
 800291c:	687b      	ldr	r3, [r7, #4]
 800291e:	681b      	ldr	r3, [r3, #0]
 8002920:	685a      	ldr	r2, [r3, #4]
 8002922:	687b      	ldr	r3, [r7, #4]
 8002924:	681b      	ldr	r3, [r3, #0]
 8002926:	f442 6200 	orr.w	r2, r2, #2048	@ 0x800
 800292a:	605a      	str	r2, [r3, #4]

    /* Set the number of channels to be converted in discontinuous mode */
    hadc->Instance->CR1 &= ~(ADC_CR1_DISCNUM);
 800292c:	687b      	ldr	r3, [r7, #4]
 800292e:	681b      	ldr	r3, [r3, #0]
 8002930:	685a      	ldr	r2, [r3, #4]
 8002932:	687b      	ldr	r3, [r7, #4]
 8002934:	681b      	ldr	r3, [r3, #0]
 8002936:	f422 4260 	bic.w	r2, r2, #57344	@ 0xe000
 800293a:	605a      	str	r2, [r3, #4]
    hadc->Instance->CR1 |=  ADC_CR1_DISCONTINUOUS(hadc->Init.NbrOfDiscConversion);
 800293c:	687b      	ldr	r3, [r7, #4]
 800293e:	681b      	ldr	r3, [r3, #0]
 8002940:	6859      	ldr	r1, [r3, #4]
 8002942:	687b      	ldr	r3, [r7, #4]
 8002944:	6a5b      	ldr	r3, [r3, #36]	@ 0x24
 8002946:	3b01      	subs	r3, #1
 8002948:	035a      	lsls	r2, r3, #13
 800294a:	687b      	ldr	r3, [r7, #4]
 800294c:	681b      	ldr	r3, [r3, #0]
 800294e:	430a      	orrs	r2, r1
 8002950:	605a      	str	r2, [r3, #4]
 8002952:	e007      	b.n	8002964 <ADC_Init+0x174>
  }
  else
  {
    /* Disable the selected ADC regular discontinuous mode */
    hadc->Instance->CR1 &= ~(ADC_CR1_DISCEN);
 8002954:	687b      	ldr	r3, [r7, #4]
 8002956:	681b      	ldr	r3, [r3, #0]
 8002958:	685a      	ldr	r2, [r3, #4]
 800295a:	687b      	ldr	r3, [r7, #4]
 800295c:	681b      	ldr	r3, [r3, #0]
 800295e:	f422 6200 	bic.w	r2, r2, #2048	@ 0x800
 8002962:	605a      	str	r2, [r3, #4]
  }

  /* Set ADC number of conversion */
  hadc->Instance->SQR1 &= ~(ADC_SQR1_L);
 8002964:	687b      	ldr	r3, [r7, #4]
 8002966:	681b      	ldr	r3, [r3, #0]
 8002968:	6ada      	ldr	r2, [r3, #44]	@ 0x2c
 800296a:	687b      	ldr	r3, [r7, #4]
 800296c:	681b      	ldr	r3, [r3, #0]
 800296e:	f422 0270 	bic.w	r2, r2, #15728640	@ 0xf00000
 8002972:	62da      	str	r2, [r3, #44]	@ 0x2c
  hadc->Instance->SQR1 |=  ADC_SQR1(hadc->Init.NbrOfConversion);
 8002974:	687b      	ldr	r3, [r7, #4]
 8002976:	681b      	ldr	r3, [r3, #0]
 8002978:	6ad9      	ldr	r1, [r3, #44]	@ 0x2c
 800297a:	687b      	ldr	r3, [r7, #4]
 800297c:	69db      	ldr	r3, [r3, #28]
 800297e:	3b01      	subs	r3, #1
 8002980:	051a      	lsls	r2, r3, #20
 8002982:	687b      	ldr	r3, [r7, #4]
 8002984:	681b      	ldr	r3, [r3, #0]
 8002986:	430a      	orrs	r2, r1
 8002988:	62da      	str	r2, [r3, #44]	@ 0x2c

  /* Enable or disable ADC DMA continuous request */
  hadc->Instance->CR2 &= ~(ADC_CR2_DDS);
 800298a:	687b      	ldr	r3, [r7, #4]
 800298c:	681b      	ldr	r3, [r3, #0]
 800298e:	689a      	ldr	r2, [r3, #8]
 8002990:	687b      	ldr	r3, [r7, #4]
 8002992:	681b      	ldr	r3, [r3, #0]
 8002994:	f422 7200 	bic.w	r2, r2, #512	@ 0x200
 8002998:	609a      	str	r2, [r3, #8]
  hadc->Instance->CR2 |= ADC_CR2_DMAContReq((uint32_t)hadc->Init.DMAContinuousRequests);
 800299a:	687b      	ldr	r3, [r7, #4]
 800299c:	681b      	ldr	r3, [r3, #0]
 800299e:	6899      	ldr	r1, [r3, #8]
 80029a0:	687b      	ldr	r3, [r7, #4]
 80029a2:	f893 3030 	ldrb.w	r3, [r3, #48]	@ 0x30
 80029a6:	025a      	lsls	r2, r3, #9
 80029a8:	687b      	ldr	r3, [r7, #4]
 80029aa:	681b      	ldr	r3, [r3, #0]
 80029ac:	430a      	orrs	r2, r1
 80029ae:	609a      	str	r2, [r3, #8]

  /* Enable or disable ADC end of conversion selection */
  hadc->Instance->CR2 &= ~(ADC_CR2_EOCS);
 80029b0:	687b      	ldr	r3, [r7, #4]
 80029b2:	681b      	ldr	r3, [r3, #0]
 80029b4:	689a      	ldr	r2, [r3, #8]
 80029b6:	687b      	ldr	r3, [r7, #4]
 80029b8:	681b      	ldr	r3, [r3, #0]
 80029ba:	f422 6280 	bic.w	r2, r2, #1024	@ 0x400
 80029be:	609a      	str	r2, [r3, #8]
  hadc->Instance->CR2 |= ADC_CR2_EOCSelection(hadc->Init.EOCSelection);
 80029c0:	687b      	ldr	r3, [r7, #4]
 80029c2:	681b      	ldr	r3, [r3, #0]
 80029c4:	6899      	ldr	r1, [r3, #8]
 80029c6:	687b      	ldr	r3, [r7, #4]
 80029c8:	695b      	ldr	r3, [r3, #20]
 80029ca:	029a      	lsls	r2, r3, #10
 80029cc:	687b      	ldr	r3, [r7, #4]
 80029ce:	681b      	ldr	r3, [r3, #0]
 80029d0:	430a      	orrs	r2, r1
 80029d2:	609a      	str	r2, [r3, #8]
}
 80029d4:	bf00      	nop
 80029d6:	3714      	adds	r7, #20
 80029d8:	46bd      	mov	sp, r7
 80029da:	f85d 7b04 	ldr.w	r7, [sp], #4
 80029de:	4770      	bx	lr
 80029e0:	40012300 	.word	0x40012300
 80029e4:	0f000001 	.word	0x0f000001

080029e8 <HAL_ADCEx_InjectedConvCpltCallback>:
  * @param  hadc pointer to a ADC_HandleTypeDef structure that contains
  *         the configuration information for the specified ADC.
  * @retval None
  */
__weak void HAL_ADCEx_InjectedConvCpltCallback(ADC_HandleTypeDef *hadc)
{
 80029e8:	b480      	push	{r7}
 80029ea:	b083      	sub	sp, #12
 80029ec:	af00      	add	r7, sp, #0
 80029ee:	6078      	str	r0, [r7, #4]
  /* Prevent unused argument(s) compilation warning */
  UNUSED(hadc);
  /* NOTE : This function Should not be modified, when the callback is needed,
            the HAL_ADC_InjectedConvCpltCallback could be implemented in the user file
   */
}
 80029f0:	bf00      	nop
 80029f2:	370c      	adds	r7, #12
 80029f4:	46bd      	mov	sp, r7
 80029f6:	f85d 7b04 	ldr.w	r7, [sp], #4
 80029fa:	4770      	bx	lr

080029fc <__NVIC_SetPriorityGrouping>:
           In case of a conflict between priority grouping and available
           priority bits (__NVIC_PRIO_BITS), the smallest possible priority group is set.
  \param [in]      PriorityGroup  Priority grouping field.
 */
__STATIC_INLINE void __NVIC_SetPriorityGrouping(uint32_t PriorityGroup)
{
 80029fc:	b480      	push	{r7}
 80029fe:	b085      	sub	sp, #20
 8002a00:	af00      	add	r7, sp, #0
 8002a02:	6078      	str	r0, [r7, #4]
  uint32_t reg_value;
  uint32_t PriorityGroupTmp = (PriorityGroup & (uint32_t)0x07UL);             /* only values 0..7 are used          */
 8002a04:	687b      	ldr	r3, [r7, #4]
 8002a06:	f003 0307 	and.w	r3, r3, #7
 8002a0a:	60fb      	str	r3, [r7, #12]

  reg_value  =  SCB->AIRCR;                                                   /* read old register configuration    */
 8002a0c:	4b0c      	ldr	r3, [pc, #48]	@ (8002a40 <__NVIC_SetPriorityGrouping+0x44>)
 8002a0e:	68db      	ldr	r3, [r3, #12]
 8002a10:	60bb      	str	r3, [r7, #8]
  reg_value &= ~((uint32_t)(SCB_AIRCR_VECTKEY_Msk | SCB_AIRCR_PRIGROUP_Msk)); /* clear bits to change               */
 8002a12:	68ba      	ldr	r2, [r7, #8]
 8002a14:	f64f 03ff 	movw	r3, #63743	@ 0xf8ff
 8002a18:	4013      	ands	r3, r2
 8002a1a:	60bb      	str	r3, [r7, #8]
  reg_value  =  (reg_value                                   |
                ((uint32_t)0x5FAUL << SCB_AIRCR_VECTKEY_Pos) |
                (PriorityGroupTmp << SCB_AIRCR_PRIGROUP_Pos)  );              /* Insert write key and priority group */
 8002a1c:	68fb      	ldr	r3, [r7, #12]
 8002a1e:	021a      	lsls	r2, r3, #8
                ((uint32_t)0x5FAUL << SCB_AIRCR_VECTKEY_Pos) |
 8002a20:	68bb      	ldr	r3, [r7, #8]
 8002a22:	4313      	orrs	r3, r2
  reg_value  =  (reg_value                                   |
 8002a24:	f043 63bf 	orr.w	r3, r3, #100139008	@ 0x5f80000
 8002a28:	f443 3300 	orr.w	r3, r3, #131072	@ 0x20000
 8002a2c:	60bb      	str	r3, [r7, #8]
  SCB->AIRCR =  reg_value;
 8002a2e:	4a04      	ldr	r2, [pc, #16]	@ (8002a40 <__NVIC_SetPriorityGrouping+0x44>)
 8002a30:	68bb      	ldr	r3, [r7, #8]
 8002a32:	60d3      	str	r3, [r2, #12]
}
 8002a34:	bf00      	nop
 8002a36:	3714      	adds	r7, #20
 8002a38:	46bd      	mov	sp, r7
 8002a3a:	f85d 7b04 	ldr.w	r7, [sp], #4
 8002a3e:	4770      	bx	lr
 8002a40:	e000ed00 	.word	0xe000ed00

08002a44 <__NVIC_GetPriorityGrouping>:
  \brief   Get Priority Grouping
  \details Reads the priority grouping field from the NVIC Interrupt Controller.
  \return                Priority grouping field (SCB->AIRCR [10:8] PRIGROUP field).
 */
__STATIC_INLINE uint32_t __NVIC_GetPriorityGrouping(void)
{
 8002a44:	b480      	push	{r7}
 8002a46:	af00      	add	r7, sp, #0
  return ((uint32_t)((SCB->AIRCR & SCB_AIRCR_PRIGROUP_Msk) >> SCB_AIRCR_PRIGROUP_Pos));
 8002a48:	4b04      	ldr	r3, [pc, #16]	@ (8002a5c <__NVIC_GetPriorityGrouping+0x18>)
 8002a4a:	68db      	ldr	r3, [r3, #12]
 8002a4c:	0a1b      	lsrs	r3, r3, #8
 8002a4e:	f003 0307 	and.w	r3, r3, #7
}
 8002a52:	4618      	mov	r0, r3
 8002a54:	46bd      	mov	sp, r7
 8002a56:	f85d 7b04 	ldr.w	r7, [sp], #4
 8002a5a:	4770      	bx	lr
 8002a5c:	e000ed00 	.word	0xe000ed00

08002a60 <__NVIC_EnableIRQ>:
  \details Enables a device specific interrupt in the NVIC interrupt controller.
  \param [in]      IRQn  Device specific interrupt number.
  \note    IRQn must not be negative.
 */
__STATIC_INLINE void __NVIC_EnableIRQ(IRQn_Type IRQn)
{
 8002a60:	b480      	push	{r7}
 8002a62:	b083      	sub	sp, #12
 8002a64:	af00      	add	r7, sp, #0
 8002a66:	4603      	mov	r3, r0
 8002a68:	71fb      	strb	r3, [r7, #7]
  if ((int32_t)(IRQn) >= 0)
 8002a6a:	f997 3007 	ldrsb.w	r3, [r7, #7]
 8002a6e:	2b00      	cmp	r3, #0
 8002a70:	db0b      	blt.n	8002a8a <__NVIC_EnableIRQ+0x2a>
  {
    __COMPILER_BARRIER();
    NVIC->ISER[(((uint32_t)IRQn) >> 5UL)] = (uint32_t)(1UL << (((uint32_t)IRQn) & 0x1FUL));
 8002a72:	79fb      	ldrb	r3, [r7, #7]
 8002a74:	f003 021f 	and.w	r2, r3, #31
 8002a78:	4907      	ldr	r1, [pc, #28]	@ (8002a98 <__NVIC_EnableIRQ+0x38>)
 8002a7a:	f997 3007 	ldrsb.w	r3, [r7, #7]
 8002a7e:	095b      	lsrs	r3, r3, #5
 8002a80:	2001      	movs	r0, #1
 8002a82:	fa00 f202 	lsl.w	r2, r0, r2
 8002a86:	f841 2023 	str.w	r2, [r1, r3, lsl #2]
    __COMPILER_BARRIER();
  }
}
 8002a8a:	bf00      	nop
 8002a8c:	370c      	adds	r7, #12
 8002a8e:	46bd      	mov	sp, r7
 8002a90:	f85d 7b04 	ldr.w	r7, [sp], #4
 8002a94:	4770      	bx	lr
 8002a96:	bf00      	nop
 8002a98:	e000e100 	.word	0xe000e100

08002a9c <__NVIC_SetPriority>:
  \param [in]      IRQn  Interrupt number.
  \param [in]  priority  Priority to set.
  \note    The priority cannot be set for every processor exception.
 */
__STATIC_INLINE void __NVIC_SetPriority(IRQn_Type IRQn, uint32_t priority)
{
 8002a9c:	b480      	push	{r7}
 8002a9e:	b083      	sub	sp, #12
 8002aa0:	af00      	add	r7, sp, #0
 8002aa2:	4603      	mov	r3, r0
 8002aa4:	6039      	str	r1, [r7, #0]
 8002aa6:	71fb      	strb	r3, [r7, #7]
  if ((int32_t)(IRQn) >= 0)
 8002aa8:	f997 3007 	ldrsb.w	r3, [r7, #7]
 8002aac:	2b00      	cmp	r3, #0
 8002aae:	db0a      	blt.n	8002ac6 <__NVIC_SetPriority+0x2a>
  {
    NVIC->IP[((uint32_t)IRQn)]               = (uint8_t)((priority << (8U - __NVIC_PRIO_BITS)) & (uint32_t)0xFFUL);
 8002ab0:	683b      	ldr	r3, [r7, #0]
 8002ab2:	b2da      	uxtb	r2, r3
 8002ab4:	490c      	ldr	r1, [pc, #48]	@ (8002ae8 <__NVIC_SetPriority+0x4c>)
 8002ab6:	f997 3007 	ldrsb.w	r3, [r7, #7]
 8002aba:	0112      	lsls	r2, r2, #4
 8002abc:	b2d2      	uxtb	r2, r2
 8002abe:	440b      	add	r3, r1
 8002ac0:	f883 2300 	strb.w	r2, [r3, #768]	@ 0x300
  }
  else
  {
    SCB->SHP[(((uint32_t)IRQn) & 0xFUL)-4UL] = (uint8_t)((priority << (8U - __NVIC_PRIO_BITS)) & (uint32_t)0xFFUL);
  }
}
 8002ac4:	e00a      	b.n	8002adc <__NVIC_SetPriority+0x40>
    SCB->SHP[(((uint32_t)IRQn) & 0xFUL)-4UL] = (uint8_t)((priority << (8U - __NVIC_PRIO_BITS)) & (uint32_t)0xFFUL);
 8002ac6:	683b      	ldr	r3, [r7, #0]
 8002ac8:	b2da      	uxtb	r2, r3
 8002aca:	4908      	ldr	r1, [pc, #32]	@ (8002aec <__NVIC_SetPriority+0x50>)
 8002acc:	79fb      	ldrb	r3, [r7, #7]
 8002ace:	f003 030f 	and.w	r3, r3, #15
 8002ad2:	3b04      	subs	r3, #4
 8002ad4:	0112      	lsls	r2, r2, #4
 8002ad6:	b2d2      	uxtb	r2, r2
 8002ad8:	440b      	add	r3, r1
 8002ada:	761a      	strb	r2, [r3, #24]
}
 8002adc:	bf00      	nop
 8002ade:	370c      	adds	r7, #12
 8002ae0:	46bd      	mov	sp, r7
 8002ae2:	f85d 7b04 	ldr.w	r7, [sp], #4
 8002ae6:	4770      	bx	lr
 8002ae8:	e000e100 	.word	0xe000e100
 8002aec:	e000ed00 	.word	0xe000ed00

08002af0 <NVIC_EncodePriority>:
  \param [in]   PreemptPriority  Preemptive priority value (starting from 0).
  \param [in]       SubPriority  Subpriority value (starting from 0).
  \return                        Encoded priority. Value can be used in the function \ref NVIC_SetPriority().
 */
__STATIC_INLINE uint32_t NVIC_EncodePriority (uint32_t PriorityGroup, uint32_t PreemptPriority, uint32_t SubPriority)
{
 8002af0:	b480      	push	{r7}
 8002af2:	b089      	sub	sp, #36	@ 0x24
 8002af4:	af00      	add	r7, sp, #0
 8002af6:	60f8      	str	r0, [r7, #12]
 8002af8:	60b9      	str	r1, [r7, #8]
 8002afa:	607a      	str	r2, [r7, #4]
  uint32_t PriorityGroupTmp = (PriorityGroup & (uint32_t)0x07UL);   /* only values 0..7 are used          */
 8002afc:	68fb      	ldr	r3, [r7, #12]
 8002afe:	f003 0307 	and.w	r3, r3, #7
 8002b02:	61fb      	str	r3, [r7, #28]
  uint32_t PreemptPriorityBits;
  uint32_t SubPriorityBits;

  PreemptPriorityBits = ((7UL - PriorityGroupTmp) > (uint32_t)(__NVIC_PRIO_BITS)) ? (uint32_t)(__NVIC_PRIO_BITS) : (uint32_t)(7UL - PriorityGroupTmp);
 8002b04:	69fb      	ldr	r3, [r7, #28]
 8002b06:	f1c3 0307 	rsb	r3, r3, #7
 8002b0a:	2b04      	cmp	r3, #4
 8002b0c:	bf28      	it	cs
 8002b0e:	2304      	movcs	r3, #4
 8002b10:	61bb      	str	r3, [r7, #24]
  SubPriorityBits     = ((PriorityGroupTmp + (uint32_t)(__NVIC_PRIO_BITS)) < (uint32_t)7UL) ? (uint32_t)0UL : (uint32_t)((PriorityGroupTmp - 7UL) + (uint32_t)(__NVIC_PRIO_BITS));
 8002b12:	69fb      	ldr	r3, [r7, #28]
 8002b14:	3304      	adds	r3, #4
 8002b16:	2b06      	cmp	r3, #6
 8002b18:	d902      	bls.n	8002b20 <NVIC_EncodePriority+0x30>
 8002b1a:	69fb      	ldr	r3, [r7, #28]
 8002b1c:	3b03      	subs	r3, #3
 8002b1e:	e000      	b.n	8002b22 <NVIC_EncodePriority+0x32>
 8002b20:	2300      	movs	r3, #0
 8002b22:	617b      	str	r3, [r7, #20]

  return (
           ((PreemptPriority & (uint32_t)((1UL << (PreemptPriorityBits)) - 1UL)) << SubPriorityBits) |
 8002b24:	f04f 32ff 	mov.w	r2, #4294967295	@ 0xffffffff
 8002b28:	69bb      	ldr	r3, [r7, #24]
 8002b2a:	fa02 f303 	lsl.w	r3, r2, r3
 8002b2e:	43da      	mvns	r2, r3
 8002b30:	68bb      	ldr	r3, [r7, #8]
 8002b32:	401a      	ands	r2, r3
 8002b34:	697b      	ldr	r3, [r7, #20]
 8002b36:	409a      	lsls	r2, r3
           ((SubPriority     & (uint32_t)((1UL << (SubPriorityBits    )) - 1UL)))
 8002b38:	f04f 31ff 	mov.w	r1, #4294967295	@ 0xffffffff
 8002b3c:	697b      	ldr	r3, [r7, #20]
 8002b3e:	fa01 f303 	lsl.w	r3, r1, r3
 8002b42:	43d9      	mvns	r1, r3
 8002b44:	687b      	ldr	r3, [r7, #4]
 8002b46:	400b      	ands	r3, r1
           ((PreemptPriority & (uint32_t)((1UL << (PreemptPriorityBits)) - 1UL)) << SubPriorityBits) |
 8002b48:	4313      	orrs	r3, r2
         );
}
 8002b4a:	4618      	mov	r0, r3
 8002b4c:	3724      	adds	r7, #36	@ 0x24
 8002b4e:	46bd      	mov	sp, r7
 8002b50:	f85d 7b04 	ldr.w	r7, [sp], #4
 8002b54:	4770      	bx	lr
	...

08002b58 <SysTick_Config>:
  \note    When the variable <b>__Vendor_SysTickConfig</b> is set to 1, then the
           function <b>SysTick_Config</b> is not included. In this case, the file <b><i>device</i>.h</b>
           must contain a vendor-specific implementation of this function.
 */
__STATIC_INLINE uint32_t SysTick_Config(uint32_t ticks)
{
 8002b58:	b580      	push	{r7, lr}
 8002b5a:	b082      	sub	sp, #8
 8002b5c:	af00      	add	r7, sp, #0
 8002b5e:	6078      	str	r0, [r7, #4]
  if ((ticks - 1UL) > SysTick_LOAD_RELOAD_Msk)
 8002b60:	687b      	ldr	r3, [r7, #4]
 8002b62:	3b01      	subs	r3, #1
 8002b64:	f1b3 7f80 	cmp.w	r3, #16777216	@ 0x1000000
 8002b68:	d301      	bcc.n	8002b6e <SysTick_Config+0x16>
  {
    return (1UL);                                                   /* Reload value impossible */
 8002b6a:	2301      	movs	r3, #1
 8002b6c:	e00f      	b.n	8002b8e <SysTick_Config+0x36>
  }

  SysTick->LOAD  = (uint32_t)(ticks - 1UL);                         /* set reload register */
 8002b6e:	4a0a      	ldr	r2, [pc, #40]	@ (8002b98 <SysTick_Config+0x40>)
 8002b70:	687b      	ldr	r3, [r7, #4]
 8002b72:	3b01      	subs	r3, #1
 8002b74:	6053      	str	r3, [r2, #4]
  NVIC_SetPriority (SysTick_IRQn, (1UL << __NVIC_PRIO_BITS) - 1UL); /* set Priority for Systick Interrupt */
 8002b76:	210f      	movs	r1, #15
 8002b78:	f04f 30ff 	mov.w	r0, #4294967295	@ 0xffffffff
 8002b7c:	f7ff ff8e 	bl	8002a9c <__NVIC_SetPriority>
  SysTick->VAL   = 0UL;                                             /* Load the SysTick Counter Value */
 8002b80:	4b05      	ldr	r3, [pc, #20]	@ (8002b98 <SysTick_Config+0x40>)
 8002b82:	2200      	movs	r2, #0
 8002b84:	609a      	str	r2, [r3, #8]
  SysTick->CTRL  = SysTick_CTRL_CLKSOURCE_Msk |
 8002b86:	4b04      	ldr	r3, [pc, #16]	@ (8002b98 <SysTick_Config+0x40>)
 8002b88:	2207      	movs	r2, #7
 8002b8a:	601a      	str	r2, [r3, #0]
                   SysTick_CTRL_TICKINT_Msk   |
                   SysTick_CTRL_ENABLE_Msk;                         /* Enable SysTick IRQ and SysTick Timer */
  return (0UL);                                                     /* Function successful */
 8002b8c:	2300      	movs	r3, #0
}
 8002b8e:	4618      	mov	r0, r3
 8002b90:	3708      	adds	r7, #8
 8002b92:	46bd      	mov	sp, r7
 8002b94:	bd80      	pop	{r7, pc}
 8002b96:	bf00      	nop
 8002b98:	e000e010 	.word	0xe000e010

08002b9c <HAL_NVIC_SetPriorityGrouping>:
  * @note   When the NVIC_PriorityGroup_0 is selected, IRQ preemption is no more possible. 
  *         The pending IRQ priority will be managed only by the subpriority. 
  * @retval None
  */
void HAL_NVIC_SetPriorityGrouping(uint32_t PriorityGroup)
{
 8002b9c:	b580      	push	{r7, lr}
 8002b9e:	b082      	sub	sp, #8
 8002ba0:	af00      	add	r7, sp, #0
 8002ba2:	6078      	str	r0, [r7, #4]
  /* Check the parameters */
  assert_param(IS_NVIC_PRIORITY_GROUP(PriorityGroup));
  
  /* Set the PRIGROUP[10:8] bits according to the PriorityGroup parameter value */
  NVIC_SetPriorityGrouping(PriorityGroup);
 8002ba4:	6878      	ldr	r0, [r7, #4]
 8002ba6:	f7ff ff29 	bl	80029fc <__NVIC_SetPriorityGrouping>
}
 8002baa:	bf00      	nop
 8002bac:	3708      	adds	r7, #8
 8002bae:	46bd      	mov	sp, r7
 8002bb0:	bd80      	pop	{r7, pc}

08002bb2 <HAL_NVIC_SetPriority>:
  *         This parameter can be a value between 0 and 15
  *         A lower priority value indicates a higher priority.          
  * @retval None
  */
void HAL_NVIC_SetPriority(IRQn_Type IRQn, uint32_t PreemptPriority, uint32_t SubPriority)
{ 
 8002bb2:	b580      	push	{r7, lr}
 8002bb4:	b086      	sub	sp, #24
 8002bb6:	af00      	add	r7, sp, #0
 8002bb8:	4603      	mov	r3, r0
 8002bba:	60b9      	str	r1, [r7, #8]
 8002bbc:	607a      	str	r2, [r7, #4]
 8002bbe:	73fb      	strb	r3, [r7, #15]
  uint32_t prioritygroup = 0x00U;
 8002bc0:	2300      	movs	r3, #0
 8002bc2:	617b      	str	r3, [r7, #20]
  
  /* Check the parameters */
  assert_param(IS_NVIC_SUB_PRIORITY(SubPriority));
  assert_param(IS_NVIC_PREEMPTION_PRIORITY(PreemptPriority));
  
  prioritygroup = NVIC_GetPriorityGrouping();
 8002bc4:	f7ff ff3e 	bl	8002a44 <__NVIC_GetPriorityGrouping>
 8002bc8:	6178      	str	r0, [r7, #20]
  
  NVIC_SetPriority(IRQn, NVIC_EncodePriority(prioritygroup, PreemptPriority, SubPriority));
 8002bca:	687a      	ldr	r2, [r7, #4]
 8002bcc:	68b9      	ldr	r1, [r7, #8]
 8002bce:	6978      	ldr	r0, [r7, #20]
 8002bd0:	f7ff ff8e 	bl	8002af0 <NVIC_EncodePriority>
 8002bd4:	4602      	mov	r2, r0
 8002bd6:	f997 300f 	ldrsb.w	r3, [r7, #15]
 8002bda:	4611      	mov	r1, r2
 8002bdc:	4618      	mov	r0, r3
 8002bde:	f7ff ff5d 	bl	8002a9c <__NVIC_SetPriority>
}
 8002be2:	bf00      	nop
 8002be4:	3718      	adds	r7, #24
 8002be6:	46bd      	mov	sp, r7
 8002be8:	bd80      	pop	{r7, pc}

08002bea <HAL_NVIC_EnableIRQ>:
  *         This parameter can be an enumerator of IRQn_Type enumeration
  *         (For the complete STM32 Devices IRQ Channels list, please refer to the appropriate CMSIS device file (stm32f4xxxx.h))
  * @retval None
  */
void HAL_NVIC_EnableIRQ(IRQn_Type IRQn)
{
 8002bea:	b580      	push	{r7, lr}
 8002bec:	b082      	sub	sp, #8
 8002bee:	af00      	add	r7, sp, #0
 8002bf0:	4603      	mov	r3, r0
 8002bf2:	71fb      	strb	r3, [r7, #7]
  /* Check the parameters */
  assert_param(IS_NVIC_DEVICE_IRQ(IRQn));
  
  /* Enable interrupt */
  NVIC_EnableIRQ(IRQn);
 8002bf4:	f997 3007 	ldrsb.w	r3, [r7, #7]
 8002bf8:	4618      	mov	r0, r3
 8002bfa:	f7ff ff31 	bl	8002a60 <__NVIC_EnableIRQ>
}
 8002bfe:	bf00      	nop
 8002c00:	3708      	adds	r7, #8
 8002c02:	46bd      	mov	sp, r7
 8002c04:	bd80      	pop	{r7, pc}

08002c06 <HAL_SYSTICK_Config>:
  * @param  TicksNumb Specifies the ticks Number of ticks between two interrupts.
  * @retval status:  - 0  Function succeeded.
  *                  - 1  Function failed.
  */
uint32_t HAL_SYSTICK_Config(uint32_t TicksNumb)
{
 8002c06:	b580      	push	{r7, lr}
 8002c08:	b082      	sub	sp, #8
 8002c0a:	af00      	add	r7, sp, #0
 8002c0c:	6078      	str	r0, [r7, #4]
   return SysTick_Config(TicksNumb);
 8002c0e:	6878      	ldr	r0, [r7, #4]
 8002c10:	f7ff ffa2 	bl	8002b58 <SysTick_Config>
 8002c14:	4603      	mov	r3, r0
}
 8002c16:	4618      	mov	r0, r3
 8002c18:	3708      	adds	r7, #8
 8002c1a:	46bd      	mov	sp, r7
 8002c1c:	bd80      	pop	{r7, pc}
	...

08002c20 <HAL_GPIO_Init>:
  * @param  GPIO_Init pointer to a GPIO_InitTypeDef structure that contains
  *         the configuration information for the specified GPIO peripheral.
  * @retval None
  */
void HAL_GPIO_Init(GPIO_TypeDef  *GPIOx, GPIO_InitTypeDef *GPIO_Init)
{
 8002c20:	b480      	push	{r7}
 8002c22:	b089      	sub	sp, #36	@ 0x24
 8002c24:	af00      	add	r7, sp, #0
 8002c26:	6078      	str	r0, [r7, #4]
 8002c28:	6039      	str	r1, [r7, #0]
  uint32_t position;
  uint32_t ioposition = 0x00U;
 8002c2a:	2300      	movs	r3, #0
 8002c2c:	617b      	str	r3, [r7, #20]
  uint32_t iocurrent = 0x00U;
 8002c2e:	2300      	movs	r3, #0
 8002c30:	613b      	str	r3, [r7, #16]
  uint32_t temp = 0x00U;
 8002c32:	2300      	movs	r3, #0
 8002c34:	61bb      	str	r3, [r7, #24]
  assert_param(IS_GPIO_ALL_INSTANCE(GPIOx));
  assert_param(IS_GPIO_PIN(GPIO_Init->Pin));
  assert_param(IS_GPIO_MODE(GPIO_Init->Mode));

  /* Configure the port pins */
  for(position = 0U; position < GPIO_NUMBER; position++)
 8002c36:	2300      	movs	r3, #0
 8002c38:	61fb      	str	r3, [r7, #28]
 8002c3a:	e16b      	b.n	8002f14 <HAL_GPIO_Init+0x2f4>
  {
    /* Get the IO position */
    ioposition = 0x01U << position;
 8002c3c:	2201      	movs	r2, #1
 8002c3e:	69fb      	ldr	r3, [r7, #28]
 8002c40:	fa02 f303 	lsl.w	r3, r2, r3
 8002c44:	617b      	str	r3, [r7, #20]
    /* Get the current IO position */
    iocurrent = (uint32_t)(GPIO_Init->Pin) & ioposition;
 8002c46:	683b      	ldr	r3, [r7, #0]
 8002c48:	681b      	ldr	r3, [r3, #0]
 8002c4a:	697a      	ldr	r2, [r7, #20]
 8002c4c:	4013      	ands	r3, r2
 8002c4e:	613b      	str	r3, [r7, #16]

    if(iocurrent == ioposition)
 8002c50:	693a      	ldr	r2, [r7, #16]
 8002c52:	697b      	ldr	r3, [r7, #20]
 8002c54:	429a      	cmp	r2, r3
 8002c56:	f040 815a 	bne.w	8002f0e <HAL_GPIO_Init+0x2ee>
    {
      /*--------------------- GPIO Mode Configuration ------------------------*/
      /* In case of Output or Alternate function mode selection */
      if(((GPIO_Init->Mode & GPIO_MODE) == MODE_OUTPUT) || \
 8002c5a:	683b      	ldr	r3, [r7, #0]
 8002c5c:	685b      	ldr	r3, [r3, #4]
 8002c5e:	f003 0303 	and.w	r3, r3, #3
 8002c62:	2b01      	cmp	r3, #1
 8002c64:	d005      	beq.n	8002c72 <HAL_GPIO_Init+0x52>
          (GPIO_Init->Mode & GPIO_MODE) == MODE_AF)
 8002c66:	683b      	ldr	r3, [r7, #0]
 8002c68:	685b      	ldr	r3, [r3, #4]
 8002c6a:	f003 0303 	and.w	r3, r3, #3
      if(((GPIO_Init->Mode & GPIO_MODE) == MODE_OUTPUT) || \
 8002c6e:	2b02      	cmp	r3, #2
 8002c70:	d130      	bne.n	8002cd4 <HAL_GPIO_Init+0xb4>
      {
        /* Check the Speed parameter */
        assert_param(IS_GPIO_SPEED(GPIO_Init->Speed));
        /* Configure the IO Speed */
        temp = GPIOx->OSPEEDR; 
 8002c72:	687b      	ldr	r3, [r7, #4]
 8002c74:	689b      	ldr	r3, [r3, #8]
 8002c76:	61bb      	str	r3, [r7, #24]
        temp &= ~(GPIO_OSPEEDER_OSPEEDR0 << (position * 2U));
 8002c78:	69fb      	ldr	r3, [r7, #28]
 8002c7a:	005b      	lsls	r3, r3, #1
 8002c7c:	2203      	movs	r2, #3
 8002c7e:	fa02 f303 	lsl.w	r3, r2, r3
 8002c82:	43db      	mvns	r3, r3
 8002c84:	69ba      	ldr	r2, [r7, #24]
 8002c86:	4013      	ands	r3, r2
 8002c88:	61bb      	str	r3, [r7, #24]
        temp |= (GPIO_Init->Speed << (position * 2U));
 8002c8a:	683b      	ldr	r3, [r7, #0]
 8002c8c:	68da      	ldr	r2, [r3, #12]
 8002c8e:	69fb      	ldr	r3, [r7, #28]
 8002c90:	005b      	lsls	r3, r3, #1
 8002c92:	fa02 f303 	lsl.w	r3, r2, r3
 8002c96:	69ba      	ldr	r2, [r7, #24]
 8002c98:	4313      	orrs	r3, r2
 8002c9a:	61bb      	str	r3, [r7, #24]
        GPIOx->OSPEEDR = temp;
 8002c9c:	687b      	ldr	r3, [r7, #4]
 8002c9e:	69ba      	ldr	r2, [r7, #24]
 8002ca0:	609a      	str	r2, [r3, #8]

        /* Configure the IO Output Type */
        temp = GPIOx->OTYPER;
 8002ca2:	687b      	ldr	r3, [r7, #4]
 8002ca4:	685b      	ldr	r3, [r3, #4]
 8002ca6:	61bb      	str	r3, [r7, #24]
        temp &= ~(GPIO_OTYPER_OT_0 << position) ;
 8002ca8:	2201      	movs	r2, #1
 8002caa:	69fb      	ldr	r3, [r7, #28]
 8002cac:	fa02 f303 	lsl.w	r3, r2, r3
 8002cb0:	43db      	mvns	r3, r3
 8002cb2:	69ba      	ldr	r2, [r7, #24]
 8002cb4:	4013      	ands	r3, r2
 8002cb6:	61bb      	str	r3, [r7, #24]
        temp |= (((GPIO_Init->Mode & OUTPUT_TYPE) >> OUTPUT_TYPE_Pos) << position);
 8002cb8:	683b      	ldr	r3, [r7, #0]
 8002cba:	685b      	ldr	r3, [r3, #4]
 8002cbc:	091b      	lsrs	r3, r3, #4
 8002cbe:	f003 0201 	and.w	r2, r3, #1
 8002cc2:	69fb      	ldr	r3, [r7, #28]
 8002cc4:	fa02 f303 	lsl.w	r3, r2, r3
 8002cc8:	69ba      	ldr	r2, [r7, #24]
 8002cca:	4313      	orrs	r3, r2
 8002ccc:	61bb      	str	r3, [r7, #24]
        GPIOx->OTYPER = temp;
 8002cce:	687b      	ldr	r3, [r7, #4]
 8002cd0:	69ba      	ldr	r2, [r7, #24]
 8002cd2:	605a      	str	r2, [r3, #4]
       }

      if((GPIO_Init->Mode & GPIO_MODE) != MODE_ANALOG)
 8002cd4:	683b      	ldr	r3, [r7, #0]
 8002cd6:	685b      	ldr	r3, [r3, #4]
 8002cd8:	f003 0303 	and.w	r3, r3, #3
 8002cdc:	2b03      	cmp	r3, #3
 8002cde:	d017      	beq.n	8002d10 <HAL_GPIO_Init+0xf0>
      {
        /* Check the parameters */
        assert_param(IS_GPIO_PULL(GPIO_Init->Pull));
        
        /* Activate the Pull-up or Pull down resistor for the current IO */
        temp = GPIOx->PUPDR;
 8002ce0:	687b      	ldr	r3, [r7, #4]
 8002ce2:	68db      	ldr	r3, [r3, #12]
 8002ce4:	61bb      	str	r3, [r7, #24]
        temp &= ~(GPIO_PUPDR_PUPDR0 << (position * 2U));
 8002ce6:	69fb      	ldr	r3, [r7, #28]
 8002ce8:	005b      	lsls	r3, r3, #1
 8002cea:	2203      	movs	r2, #3
 8002cec:	fa02 f303 	lsl.w	r3, r2, r3
 8002cf0:	43db      	mvns	r3, r3
 8002cf2:	69ba      	ldr	r2, [r7, #24]
 8002cf4:	4013      	ands	r3, r2
 8002cf6:	61bb      	str	r3, [r7, #24]
        temp |= ((GPIO_Init->Pull) << (position * 2U));
 8002cf8:	683b      	ldr	r3, [r7, #0]
 8002cfa:	689a      	ldr	r2, [r3, #8]
 8002cfc:	69fb      	ldr	r3, [r7, #28]
 8002cfe:	005b      	lsls	r3, r3, #1
 8002d00:	fa02 f303 	lsl.w	r3, r2, r3
 8002d04:	69ba      	ldr	r2, [r7, #24]
 8002d06:	4313      	orrs	r3, r2
 8002d08:	61bb      	str	r3, [r7, #24]
        GPIOx->PUPDR = temp;
 8002d0a:	687b      	ldr	r3, [r7, #4]
 8002d0c:	69ba      	ldr	r2, [r7, #24]
 8002d0e:	60da      	str	r2, [r3, #12]
      }

      /* In case of Alternate function mode selection */
      if((GPIO_Init->Mode & GPIO_MODE) == MODE_AF)
 8002d10:	683b      	ldr	r3, [r7, #0]
 8002d12:	685b      	ldr	r3, [r3, #4]
 8002d14:	f003 0303 	and.w	r3, r3, #3
 8002d18:	2b02      	cmp	r3, #2
 8002d1a:	d123      	bne.n	8002d64 <HAL_GPIO_Init+0x144>
      {
        /* Check the Alternate function parameter */
        assert_param(IS_GPIO_AF(GPIO_Init->Alternate));
        /* Configure Alternate function mapped with the current IO */
        temp = GPIOx->AFR[position >> 3U];
 8002d1c:	69fb      	ldr	r3, [r7, #28]
 8002d1e:	08da      	lsrs	r2, r3, #3
 8002d20:	687b      	ldr	r3, [r7, #4]
 8002d22:	3208      	adds	r2, #8
 8002d24:	f853 3022 	ldr.w	r3, [r3, r2, lsl #2]
 8002d28:	61bb      	str	r3, [r7, #24]
        temp &= ~(0xFU << ((uint32_t)(position & 0x07U) * 4U)) ;
 8002d2a:	69fb      	ldr	r3, [r7, #28]
 8002d2c:	f003 0307 	and.w	r3, r3, #7
 8002d30:	009b      	lsls	r3, r3, #2
 8002d32:	220f      	movs	r2, #15
 8002d34:	fa02 f303 	lsl.w	r3, r2, r3
 8002d38:	43db      	mvns	r3, r3
 8002d3a:	69ba      	ldr	r2, [r7, #24]
 8002d3c:	4013      	ands	r3, r2
 8002d3e:	61bb      	str	r3, [r7, #24]
        temp |= ((uint32_t)(GPIO_Init->Alternate) << (((uint32_t)position & 0x07U) * 4U));
 8002d40:	683b      	ldr	r3, [r7, #0]
 8002d42:	691a      	ldr	r2, [r3, #16]
 8002d44:	69fb      	ldr	r3, [r7, #28]
 8002d46:	f003 0307 	and.w	r3, r3, #7
 8002d4a:	009b      	lsls	r3, r3, #2
 8002d4c:	fa02 f303 	lsl.w	r3, r2, r3
 8002d50:	69ba      	ldr	r2, [r7, #24]
 8002d52:	4313      	orrs	r3, r2
 8002d54:	61bb      	str	r3, [r7, #24]
        GPIOx->AFR[position >> 3U] = temp;
 8002d56:	69fb      	ldr	r3, [r7, #28]
 8002d58:	08da      	lsrs	r2, r3, #3
 8002d5a:	687b      	ldr	r3, [r7, #4]
 8002d5c:	3208      	adds	r2, #8
 8002d5e:	69b9      	ldr	r1, [r7, #24]
 8002d60:	f843 1022 	str.w	r1, [r3, r2, lsl #2]
      }

      /* Configure IO Direction mode (Input, Output, Alternate or Analog) */
      temp = GPIOx->MODER;
 8002d64:	687b      	ldr	r3, [r7, #4]
 8002d66:	681b      	ldr	r3, [r3, #0]
 8002d68:	61bb      	str	r3, [r7, #24]
      temp &= ~(GPIO_MODER_MODER0 << (position * 2U));
 8002d6a:	69fb      	ldr	r3, [r7, #28]
 8002d6c:	005b      	lsls	r3, r3, #1
 8002d6e:	2203      	movs	r2, #3
 8002d70:	fa02 f303 	lsl.w	r3, r2, r3
 8002d74:	43db      	mvns	r3, r3
 8002d76:	69ba      	ldr	r2, [r7, #24]
 8002d78:	4013      	ands	r3, r2
 8002d7a:	61bb      	str	r3, [r7, #24]
      temp |= ((GPIO_Init->Mode & GPIO_MODE) << (position * 2U));
 8002d7c:	683b      	ldr	r3, [r7, #0]
 8002d7e:	685b      	ldr	r3, [r3, #4]
 8002d80:	f003 0203 	and.w	r2, r3, #3
 8002d84:	69fb      	ldr	r3, [r7, #28]
 8002d86:	005b      	lsls	r3, r3, #1
 8002d88:	fa02 f303 	lsl.w	r3, r2, r3
 8002d8c:	69ba      	ldr	r2, [r7, #24]
 8002d8e:	4313      	orrs	r3, r2
 8002d90:	61bb      	str	r3, [r7, #24]
      GPIOx->MODER = temp;
 8002d92:	687b      	ldr	r3, [r7, #4]
 8002d94:	69ba      	ldr	r2, [r7, #24]
 8002d96:	601a      	str	r2, [r3, #0]

      /*--------------------- EXTI Mode Configuration ------------------------*/
      /* Configure the External Interrupt or event for the current IO */
      if((GPIO_Init->Mode & EXTI_MODE) != 0x00U)
 8002d98:	683b      	ldr	r3, [r7, #0]
 8002d9a:	685b      	ldr	r3, [r3, #4]
 8002d9c:	f403 3340 	and.w	r3, r3, #196608	@ 0x30000
 8002da0:	2b00      	cmp	r3, #0
 8002da2:	f000 80b4 	beq.w	8002f0e <HAL_GPIO_Init+0x2ee>
      {
        /* Enable SYSCFG Clock */
        __HAL_RCC_SYSCFG_CLK_ENABLE();
 8002da6:	2300      	movs	r3, #0
 8002da8:	60fb      	str	r3, [r7, #12]
 8002daa:	4b60      	ldr	r3, [pc, #384]	@ (8002f2c <HAL_GPIO_Init+0x30c>)
 8002dac:	6c5b      	ldr	r3, [r3, #68]	@ 0x44
 8002dae:	4a5f      	ldr	r2, [pc, #380]	@ (8002f2c <HAL_GPIO_Init+0x30c>)
 8002db0:	f443 4380 	orr.w	r3, r3, #16384	@ 0x4000
 8002db4:	6453      	str	r3, [r2, #68]	@ 0x44
 8002db6:	4b5d      	ldr	r3, [pc, #372]	@ (8002f2c <HAL_GPIO_Init+0x30c>)
 8002db8:	6c5b      	ldr	r3, [r3, #68]	@ 0x44
 8002dba:	f403 4380 	and.w	r3, r3, #16384	@ 0x4000
 8002dbe:	60fb      	str	r3, [r7, #12]
 8002dc0:	68fb      	ldr	r3, [r7, #12]

        temp = SYSCFG->EXTICR[position >> 2U];
 8002dc2:	4a5b      	ldr	r2, [pc, #364]	@ (8002f30 <HAL_GPIO_Init+0x310>)
 8002dc4:	69fb      	ldr	r3, [r7, #28]
 8002dc6:	089b      	lsrs	r3, r3, #2
 8002dc8:	3302      	adds	r3, #2
 8002dca:	f852 3023 	ldr.w	r3, [r2, r3, lsl #2]
 8002dce:	61bb      	str	r3, [r7, #24]
        temp &= ~(0x0FU << (4U * (position & 0x03U)));
 8002dd0:	69fb      	ldr	r3, [r7, #28]
 8002dd2:	f003 0303 	and.w	r3, r3, #3
 8002dd6:	009b      	lsls	r3, r3, #2
 8002dd8:	220f      	movs	r2, #15
 8002dda:	fa02 f303 	lsl.w	r3, r2, r3
 8002dde:	43db      	mvns	r3, r3
 8002de0:	69ba      	ldr	r2, [r7, #24]
 8002de2:	4013      	ands	r3, r2
 8002de4:	61bb      	str	r3, [r7, #24]
        temp |= ((uint32_t)(GPIO_GET_INDEX(GPIOx)) << (4U * (position & 0x03U)));
 8002de6:	687b      	ldr	r3, [r7, #4]
 8002de8:	4a52      	ldr	r2, [pc, #328]	@ (8002f34 <HAL_GPIO_Init+0x314>)
 8002dea:	4293      	cmp	r3, r2
 8002dec:	d02b      	beq.n	8002e46 <HAL_GPIO_Init+0x226>
 8002dee:	687b      	ldr	r3, [r7, #4]
 8002df0:	4a51      	ldr	r2, [pc, #324]	@ (8002f38 <HAL_GPIO_Init+0x318>)
 8002df2:	4293      	cmp	r3, r2
 8002df4:	d025      	beq.n	8002e42 <HAL_GPIO_Init+0x222>
 8002df6:	687b      	ldr	r3, [r7, #4]
 8002df8:	4a50      	ldr	r2, [pc, #320]	@ (8002f3c <HAL_GPIO_Init+0x31c>)
 8002dfa:	4293      	cmp	r3, r2
 8002dfc:	d01f      	beq.n	8002e3e <HAL_GPIO_Init+0x21e>
 8002dfe:	687b      	ldr	r3, [r7, #4]
 8002e00:	4a4f      	ldr	r2, [pc, #316]	@ (8002f40 <HAL_GPIO_Init+0x320>)
 8002e02:	4293      	cmp	r3, r2
 8002e04:	d019      	beq.n	8002e3a <HAL_GPIO_Init+0x21a>
 8002e06:	687b      	ldr	r3, [r7, #4]
 8002e08:	4a4e      	ldr	r2, [pc, #312]	@ (8002f44 <HAL_GPIO_Init+0x324>)
 8002e0a:	4293      	cmp	r3, r2
 8002e0c:	d013      	beq.n	8002e36 <HAL_GPIO_Init+0x216>
 8002e0e:	687b      	ldr	r3, [r7, #4]
 8002e10:	4a4d      	ldr	r2, [pc, #308]	@ (8002f48 <HAL_GPIO_Init+0x328>)
 8002e12:	4293      	cmp	r3, r2
 8002e14:	d00d      	beq.n	8002e32 <HAL_GPIO_Init+0x212>
 8002e16:	687b      	ldr	r3, [r7, #4]
 8002e18:	4a4c      	ldr	r2, [pc, #304]	@ (8002f4c <HAL_GPIO_Init+0x32c>)
 8002e1a:	4293      	cmp	r3, r2
 8002e1c:	d007      	beq.n	8002e2e <HAL_GPIO_Init+0x20e>
 8002e1e:	687b      	ldr	r3, [r7, #4]
 8002e20:	4a4b      	ldr	r2, [pc, #300]	@ (8002f50 <HAL_GPIO_Init+0x330>)
 8002e22:	4293      	cmp	r3, r2
 8002e24:	d101      	bne.n	8002e2a <HAL_GPIO_Init+0x20a>
 8002e26:	2307      	movs	r3, #7
 8002e28:	e00e      	b.n	8002e48 <HAL_GPIO_Init+0x228>
 8002e2a:	2308      	movs	r3, #8
 8002e2c:	e00c      	b.n	8002e48 <HAL_GPIO_Init+0x228>
 8002e2e:	2306      	movs	r3, #6
 8002e30:	e00a      	b.n	8002e48 <HAL_GPIO_Init+0x228>
 8002e32:	2305      	movs	r3, #5
 8002e34:	e008      	b.n	8002e48 <HAL_GPIO_Init+0x228>
 8002e36:	2304      	movs	r3, #4
 8002e38:	e006      	b.n	8002e48 <HAL_GPIO_Init+0x228>
 8002e3a:	2303      	movs	r3, #3
 8002e3c:	e004      	b.n	8002e48 <HAL_GPIO_Init+0x228>
 8002e3e:	2302      	movs	r3, #2
 8002e40:	e002      	b.n	8002e48 <HAL_GPIO_Init+0x228>
 8002e42:	2301      	movs	r3, #1
 8002e44:	e000      	b.n	8002e48 <HAL_GPIO_Init+0x228>
 8002e46:	2300      	movs	r3, #0
 8002e48:	69fa      	ldr	r2, [r7, #28]
 8002e4a:	f002 0203 	and.w	r2, r2, #3
 8002e4e:	0092      	lsls	r2, r2, #2
 8002e50:	4093      	lsls	r3, r2
 8002e52:	69ba      	ldr	r2, [r7, #24]
 8002e54:	4313      	orrs	r3, r2
 8002e56:	61bb      	str	r3, [r7, #24]
        SYSCFG->EXTICR[position >> 2U] = temp;
 8002e58:	4935      	ldr	r1, [pc, #212]	@ (8002f30 <HAL_GPIO_Init+0x310>)
 8002e5a:	69fb      	ldr	r3, [r7, #28]
 8002e5c:	089b      	lsrs	r3, r3, #2
 8002e5e:	3302      	adds	r3, #2
 8002e60:	69ba      	ldr	r2, [r7, #24]
 8002e62:	f841 2023 	str.w	r2, [r1, r3, lsl #2]

        /* Clear Rising Falling edge configuration */
        temp = EXTI->RTSR;
 8002e66:	4b3b      	ldr	r3, [pc, #236]	@ (8002f54 <HAL_GPIO_Init+0x334>)
 8002e68:	689b      	ldr	r3, [r3, #8]
 8002e6a:	61bb      	str	r3, [r7, #24]
        temp &= ~((uint32_t)iocurrent);
 8002e6c:	693b      	ldr	r3, [r7, #16]
 8002e6e:	43db      	mvns	r3, r3
 8002e70:	69ba      	ldr	r2, [r7, #24]
 8002e72:	4013      	ands	r3, r2
 8002e74:	61bb      	str	r3, [r7, #24]
        if((GPIO_Init->Mode & TRIGGER_RISING) != 0x00U)
 8002e76:	683b      	ldr	r3, [r7, #0]
 8002e78:	685b      	ldr	r3, [r3, #4]
 8002e7a:	f403 1380 	and.w	r3, r3, #1048576	@ 0x100000
 8002e7e:	2b00      	cmp	r3, #0
 8002e80:	d003      	beq.n	8002e8a <HAL_GPIO_Init+0x26a>
        {
          temp |= iocurrent;
 8002e82:	69ba      	ldr	r2, [r7, #24]
 8002e84:	693b      	ldr	r3, [r7, #16]
 8002e86:	4313      	orrs	r3, r2
 8002e88:	61bb      	str	r3, [r7, #24]
        }
        EXTI->RTSR = temp;
 8002e8a:	4a32      	ldr	r2, [pc, #200]	@ (8002f54 <HAL_GPIO_Init+0x334>)
 8002e8c:	69bb      	ldr	r3, [r7, #24]
 8002e8e:	6093      	str	r3, [r2, #8]

        temp = EXTI->FTSR;
 8002e90:	4b30      	ldr	r3, [pc, #192]	@ (8002f54 <HAL_GPIO_Init+0x334>)
 8002e92:	68db      	ldr	r3, [r3, #12]
 8002e94:	61bb      	str	r3, [r7, #24]
        temp &= ~((uint32_t)iocurrent);
 8002e96:	693b      	ldr	r3, [r7, #16]
 8002e98:	43db      	mvns	r3, r3
 8002e9a:	69ba      	ldr	r2, [r7, #24]
 8002e9c:	4013      	ands	r3, r2
 8002e9e:	61bb      	str	r3, [r7, #24]
        if((GPIO_Init->Mode & TRIGGER_FALLING) != 0x00U)
 8002ea0:	683b      	ldr	r3, [r7, #0]
 8002ea2:	685b      	ldr	r3, [r3, #4]
 8002ea4:	f403 1300 	and.w	r3, r3, #2097152	@ 0x200000
 8002ea8:	2b00      	cmp	r3, #0
 8002eaa:	d003      	beq.n	8002eb4 <HAL_GPIO_Init+0x294>
        {
          temp |= iocurrent;
 8002eac:	69ba      	ldr	r2, [r7, #24]
 8002eae:	693b      	ldr	r3, [r7, #16]
 8002eb0:	4313      	orrs	r3, r2
 8002eb2:	61bb      	str	r3, [r7, #24]
        }
        EXTI->FTSR = temp;
 8002eb4:	4a27      	ldr	r2, [pc, #156]	@ (8002f54 <HAL_GPIO_Init+0x334>)
 8002eb6:	69bb      	ldr	r3, [r7, #24]
 8002eb8:	60d3      	str	r3, [r2, #12]

        temp = EXTI->EMR;
 8002eba:	4b26      	ldr	r3, [pc, #152]	@ (8002f54 <HAL_GPIO_Init+0x334>)
 8002ebc:	685b      	ldr	r3, [r3, #4]
 8002ebe:	61bb      	str	r3, [r7, #24]
        temp &= ~((uint32_t)iocurrent);
 8002ec0:	693b      	ldr	r3, [r7, #16]
 8002ec2:	43db      	mvns	r3, r3
 8002ec4:	69ba      	ldr	r2, [r7, #24]
 8002ec6:	4013      	ands	r3, r2
 8002ec8:	61bb      	str	r3, [r7, #24]
        if((GPIO_Init->Mode & EXTI_EVT) != 0x00U)
 8002eca:	683b      	ldr	r3, [r7, #0]
 8002ecc:	685b      	ldr	r3, [r3, #4]
 8002ece:	f403 3300 	and.w	r3, r3, #131072	@ 0x20000
 8002ed2:	2b00      	cmp	r3, #0
 8002ed4:	d003      	beq.n	8002ede <HAL_GPIO_Init+0x2be>
        {
          temp |= iocurrent;
 8002ed6:	69ba      	ldr	r2, [r7, #24]
 8002ed8:	693b      	ldr	r3, [r7, #16]
 8002eda:	4313      	orrs	r3, r2
 8002edc:	61bb      	str	r3, [r7, #24]
        }
        EXTI->EMR = temp;
 8002ede:	4a1d      	ldr	r2, [pc, #116]	@ (8002f54 <HAL_GPIO_Init+0x334>)
 8002ee0:	69bb      	ldr	r3, [r7, #24]
 8002ee2:	6053      	str	r3, [r2, #4]

        /* Clear EXTI line configuration */
        temp = EXTI->IMR;
 8002ee4:	4b1b      	ldr	r3, [pc, #108]	@ (8002f54 <HAL_GPIO_Init+0x334>)
 8002ee6:	681b      	ldr	r3, [r3, #0]
 8002ee8:	61bb      	str	r3, [r7, #24]
        temp &= ~((uint32_t)iocurrent);
 8002eea:	693b      	ldr	r3, [r7, #16]
 8002eec:	43db      	mvns	r3, r3
 8002eee:	69ba      	ldr	r2, [r7, #24]
 8002ef0:	4013      	ands	r3, r2
 8002ef2:	61bb      	str	r3, [r7, #24]
        if((GPIO_Init->Mode & EXTI_IT) != 0x00U)
 8002ef4:	683b      	ldr	r3, [r7, #0]
 8002ef6:	685b      	ldr	r3, [r3, #4]
 8002ef8:	f403 3380 	and.w	r3, r3, #65536	@ 0x10000
 8002efc:	2b00      	cmp	r3, #0
 8002efe:	d003      	beq.n	8002f08 <HAL_GPIO_Init+0x2e8>
        {
          temp |= iocurrent;
 8002f00:	69ba      	ldr	r2, [r7, #24]
 8002f02:	693b      	ldr	r3, [r7, #16]
 8002f04:	4313      	orrs	r3, r2
 8002f06:	61bb      	str	r3, [r7, #24]
        }
        EXTI->IMR = temp;
 8002f08:	4a12      	ldr	r2, [pc, #72]	@ (8002f54 <HAL_GPIO_Init+0x334>)
 8002f0a:	69bb      	ldr	r3, [r7, #24]
 8002f0c:	6013      	str	r3, [r2, #0]
  for(position = 0U; position < GPIO_NUMBER; position++)
 8002f0e:	69fb      	ldr	r3, [r7, #28]
 8002f10:	3301      	adds	r3, #1
 8002f12:	61fb      	str	r3, [r7, #28]
 8002f14:	69fb      	ldr	r3, [r7, #28]
 8002f16:	2b0f      	cmp	r3, #15
 8002f18:	f67f ae90 	bls.w	8002c3c <HAL_GPIO_Init+0x1c>
      }
    }
  }
}
 8002f1c:	bf00      	nop
 8002f1e:	bf00      	nop
 8002f20:	3724      	adds	r7, #36	@ 0x24
 8002f22:	46bd      	mov	sp, r7
 8002f24:	f85d 7b04 	ldr.w	r7, [sp], #4
 8002f28:	4770      	bx	lr
 8002f2a:	bf00      	nop
 8002f2c:	40023800 	.word	0x40023800
 8002f30:	40013800 	.word	0x40013800
 8002f34:	40020000 	.word	0x40020000
 8002f38:	40020400 	.word	0x40020400
 8002f3c:	40020800 	.word	0x40020800
 8002f40:	40020c00 	.word	0x40020c00
 8002f44:	40021000 	.word	0x40021000
 8002f48:	40021400 	.word	0x40021400
 8002f4c:	40021800 	.word	0x40021800
 8002f50:	40021c00 	.word	0x40021c00
 8002f54:	40013c00 	.word	0x40013c00

08002f58 <HAL_GPIO_WritePin>:
  *            @arg GPIO_PIN_RESET: to clear the port pin
  *            @arg GPIO_PIN_SET: to set the port pin
  * @retval None
  */
void HAL_GPIO_WritePin(GPIO_TypeDef* GPIOx, uint16_t GPIO_Pin, GPIO_PinState PinState)
{
 8002f58:	b480      	push	{r7}
 8002f5a:	b083      	sub	sp, #12
 8002f5c:	af00      	add	r7, sp, #0
 8002f5e:	6078      	str	r0, [r7, #4]
 8002f60:	460b      	mov	r3, r1
 8002f62:	807b      	strh	r3, [r7, #2]
 8002f64:	4613      	mov	r3, r2
 8002f66:	707b      	strb	r3, [r7, #1]
  /* Check the parameters */
  assert_param(IS_GPIO_PIN(GPIO_Pin));
  assert_param(IS_GPIO_PIN_ACTION(PinState));

  if(PinState != GPIO_PIN_RESET)
 8002f68:	787b      	ldrb	r3, [r7, #1]
 8002f6a:	2b00      	cmp	r3, #0
 8002f6c:	d003      	beq.n	8002f76 <HAL_GPIO_WritePin+0x1e>
  {
    GPIOx->BSRR = GPIO_Pin;
 8002f6e:	887a      	ldrh	r2, [r7, #2]
 8002f70:	687b      	ldr	r3, [r7, #4]
 8002f72:	619a      	str	r2, [r3, #24]
  }
  else
  {
    GPIOx->BSRR = (uint32_t)GPIO_Pin << 16U;
  }
}
 8002f74:	e003      	b.n	8002f7e <HAL_GPIO_WritePin+0x26>
    GPIOx->BSRR = (uint32_t)GPIO_Pin << 16U;
 8002f76:	887b      	ldrh	r3, [r7, #2]
 8002f78:	041a      	lsls	r2, r3, #16
 8002f7a:	687b      	ldr	r3, [r7, #4]
 8002f7c:	619a      	str	r2, [r3, #24]
}
 8002f7e:	bf00      	nop
 8002f80:	370c      	adds	r7, #12
 8002f82:	46bd      	mov	sp, r7
 8002f84:	f85d 7b04 	ldr.w	r7, [sp], #4
 8002f88:	4770      	bx	lr
	...

08002f8c <HAL_I2C_Init>:
  * @param  hi2c Pointer to a I2C_HandleTypeDef structure that contains
  *                the configuration information for the specified I2C.
  * @retval HAL status
  */
HAL_StatusTypeDef HAL_I2C_Init(I2C_HandleTypeDef *hi2c)
{
 8002f8c:	b580      	push	{r7, lr}
 8002f8e:	b084      	sub	sp, #16
 8002f90:	af00      	add	r7, sp, #0
 8002f92:	6078      	str	r0, [r7, #4]
  uint32_t freqrange;
  uint32_t pclk1;

  /* Check the I2C handle allocation */
  if (hi2c == NULL)
 8002f94:	687b      	ldr	r3, [r7, #4]
 8002f96:	2b00      	cmp	r3, #0
 8002f98:	d101      	bne.n	8002f9e <HAL_I2C_Init+0x12>
  {
    return HAL_ERROR;
 8002f9a:	2301      	movs	r3, #1
 8002f9c:	e12b      	b.n	80031f6 <HAL_I2C_Init+0x26a>
  assert_param(IS_I2C_DUAL_ADDRESS(hi2c->Init.DualAddressMode));
  assert_param(IS_I2C_OWN_ADDRESS2(hi2c->Init.OwnAddress2));
  assert_param(IS_I2C_GENERAL_CALL(hi2c->Init.GeneralCallMode));
  assert_param(IS_I2C_NO_STRETCH(hi2c->Init.NoStretchMode));

  if (hi2c->State == HAL_I2C_STATE_RESET)
 8002f9e:	687b      	ldr	r3, [r7, #4]
 8002fa0:	f893 303d 	ldrb.w	r3, [r3, #61]	@ 0x3d
 8002fa4:	b2db      	uxtb	r3, r3
 8002fa6:	2b00      	cmp	r3, #0
 8002fa8:	d106      	bne.n	8002fb8 <HAL_I2C_Init+0x2c>
  {
    /* Allocate lock resource and initialize it */
    hi2c->Lock = HAL_UNLOCKED;
 8002faa:	687b      	ldr	r3, [r7, #4]
 8002fac:	2200      	movs	r2, #0
 8002fae:	f883 203c 	strb.w	r2, [r3, #60]	@ 0x3c

    /* Init the low level hardware : GPIO, CLOCK, NVIC */
    hi2c->MspInitCallback(hi2c);
#else
    /* Init the low level hardware : GPIO, CLOCK, NVIC */
    HAL_I2C_MspInit(hi2c);
 8002fb2:	6878      	ldr	r0, [r7, #4]
 8002fb4:	f7fe ff06 	bl	8001dc4 <HAL_I2C_MspInit>
#endif /* USE_HAL_I2C_REGISTER_CALLBACKS */
  }

  hi2c->State = HAL_I2C_STATE_BUSY;
 8002fb8:	687b      	ldr	r3, [r7, #4]
 8002fba:	2224      	movs	r2, #36	@ 0x24
 8002fbc:	f883 203d 	strb.w	r2, [r3, #61]	@ 0x3d

  /* Disable the selected I2C peripheral */
  __HAL_I2C_DISABLE(hi2c);
 8002fc0:	687b      	ldr	r3, [r7, #4]
 8002fc2:	681b      	ldr	r3, [r3, #0]
 8002fc4:	681a      	ldr	r2, [r3, #0]
 8002fc6:	687b      	ldr	r3, [r7, #4]
 8002fc8:	681b      	ldr	r3, [r3, #0]
 8002fca:	f022 0201 	bic.w	r2, r2, #1
 8002fce:	601a      	str	r2, [r3, #0]

  /*Reset I2C*/
  hi2c->Instance->CR1 |= I2C_CR1_SWRST;
 8002fd0:	687b      	ldr	r3, [r7, #4]
 8002fd2:	681b      	ldr	r3, [r3, #0]
 8002fd4:	681a      	ldr	r2, [r3, #0]
 8002fd6:	687b      	ldr	r3, [r7, #4]
 8002fd8:	681b      	ldr	r3, [r3, #0]
 8002fda:	f442 4200 	orr.w	r2, r2, #32768	@ 0x8000
 8002fde:	601a      	str	r2, [r3, #0]
  hi2c->Instance->CR1 &= ~I2C_CR1_SWRST;
 8002fe0:	687b      	ldr	r3, [r7, #4]
 8002fe2:	681b      	ldr	r3, [r3, #0]
 8002fe4:	681a      	ldr	r2, [r3, #0]
 8002fe6:	687b      	ldr	r3, [r7, #4]
 8002fe8:	681b      	ldr	r3, [r3, #0]
 8002fea:	f422 4200 	bic.w	r2, r2, #32768	@ 0x8000
 8002fee:	601a      	str	r2, [r3, #0]

  /* Get PCLK1 frequency */
  pclk1 = HAL_RCC_GetPCLK1Freq();
 8002ff0:	f001 fbf6 	bl	80047e0 <HAL_RCC_GetPCLK1Freq>
 8002ff4:	60f8      	str	r0, [r7, #12]

  /* Check the minimum allowed PCLK1 frequency */
  if (I2C_MIN_PCLK_FREQ(pclk1, hi2c->Init.ClockSpeed) == 1U)
 8002ff6:	687b      	ldr	r3, [r7, #4]
 8002ff8:	685b      	ldr	r3, [r3, #4]
 8002ffa:	4a81      	ldr	r2, [pc, #516]	@ (8003200 <HAL_I2C_Init+0x274>)
 8002ffc:	4293      	cmp	r3, r2
 8002ffe:	d807      	bhi.n	8003010 <HAL_I2C_Init+0x84>
 8003000:	68fb      	ldr	r3, [r7, #12]
 8003002:	4a80      	ldr	r2, [pc, #512]	@ (8003204 <HAL_I2C_Init+0x278>)
 8003004:	4293      	cmp	r3, r2
 8003006:	bf94      	ite	ls
 8003008:	2301      	movls	r3, #1
 800300a:	2300      	movhi	r3, #0
 800300c:	b2db      	uxtb	r3, r3
 800300e:	e006      	b.n	800301e <HAL_I2C_Init+0x92>
 8003010:	68fb      	ldr	r3, [r7, #12]
 8003012:	4a7d      	ldr	r2, [pc, #500]	@ (8003208 <HAL_I2C_Init+0x27c>)
 8003014:	4293      	cmp	r3, r2
 8003016:	bf94      	ite	ls
 8003018:	2301      	movls	r3, #1
 800301a:	2300      	movhi	r3, #0
 800301c:	b2db      	uxtb	r3, r3
 800301e:	2b00      	cmp	r3, #0
 8003020:	d001      	beq.n	8003026 <HAL_I2C_Init+0x9a>
  {
    return HAL_ERROR;
 8003022:	2301      	movs	r3, #1
 8003024:	e0e7      	b.n	80031f6 <HAL_I2C_Init+0x26a>
  }

  /* Calculate frequency range */
  freqrange = I2C_FREQRANGE(pclk1);
 8003026:	68fb      	ldr	r3, [r7, #12]
 8003028:	4a78      	ldr	r2, [pc, #480]	@ (800320c <HAL_I2C_Init+0x280>)
 800302a:	fba2 2303 	umull	r2, r3, r2, r3
 800302e:	0c9b      	lsrs	r3, r3, #18
 8003030:	60bb      	str	r3, [r7, #8]

  /*---------------------------- I2Cx CR2 Configuration ----------------------*/
  /* Configure I2Cx: Frequency range */
  MODIFY_REG(hi2c->Instance->CR2, I2C_CR2_FREQ, freqrange);
 8003032:	687b      	ldr	r3, [r7, #4]
 8003034:	681b      	ldr	r3, [r3, #0]
 8003036:	685b      	ldr	r3, [r3, #4]
 8003038:	f023 013f 	bic.w	r1, r3, #63	@ 0x3f
 800303c:	687b      	ldr	r3, [r7, #4]
 800303e:	681b      	ldr	r3, [r3, #0]
 8003040:	68ba      	ldr	r2, [r7, #8]
 8003042:	430a      	orrs	r2, r1
 8003044:	605a      	str	r2, [r3, #4]

  /*---------------------------- I2Cx TRISE Configuration --------------------*/
  /* Configure I2Cx: Rise Time */
  MODIFY_REG(hi2c->Instance->TRISE, I2C_TRISE_TRISE, I2C_RISE_TIME(freqrange, hi2c->Init.ClockSpeed));
 8003046:	687b      	ldr	r3, [r7, #4]
 8003048:	681b      	ldr	r3, [r3, #0]
 800304a:	6a1b      	ldr	r3, [r3, #32]
 800304c:	f023 013f 	bic.w	r1, r3, #63	@ 0x3f
 8003050:	687b      	ldr	r3, [r7, #4]
 8003052:	685b      	ldr	r3, [r3, #4]
 8003054:	4a6a      	ldr	r2, [pc, #424]	@ (8003200 <HAL_I2C_Init+0x274>)
 8003056:	4293      	cmp	r3, r2
 8003058:	d802      	bhi.n	8003060 <HAL_I2C_Init+0xd4>
 800305a:	68bb      	ldr	r3, [r7, #8]
 800305c:	3301      	adds	r3, #1
 800305e:	e009      	b.n	8003074 <HAL_I2C_Init+0xe8>
 8003060:	68bb      	ldr	r3, [r7, #8]
 8003062:	f44f 7296 	mov.w	r2, #300	@ 0x12c
 8003066:	fb02 f303 	mul.w	r3, r2, r3
 800306a:	4a69      	ldr	r2, [pc, #420]	@ (8003210 <HAL_I2C_Init+0x284>)
 800306c:	fba2 2303 	umull	r2, r3, r2, r3
 8003070:	099b      	lsrs	r3, r3, #6
 8003072:	3301      	adds	r3, #1
 8003074:	687a      	ldr	r2, [r7, #4]
 8003076:	6812      	ldr	r2, [r2, #0]
 8003078:	430b      	orrs	r3, r1
 800307a:	6213      	str	r3, [r2, #32]

  /*---------------------------- I2Cx CCR Configuration ----------------------*/
  /* Configure I2Cx: Speed */
  MODIFY_REG(hi2c->Instance->CCR, (I2C_CCR_FS | I2C_CCR_DUTY | I2C_CCR_CCR), I2C_SPEED(pclk1, hi2c->Init.ClockSpeed, hi2c->Init.DutyCycle));
 800307c:	687b      	ldr	r3, [r7, #4]
 800307e:	681b      	ldr	r3, [r3, #0]
 8003080:	69db      	ldr	r3, [r3, #28]
 8003082:	f423 424f 	bic.w	r2, r3, #52992	@ 0xcf00
 8003086:	f022 02ff 	bic.w	r2, r2, #255	@ 0xff
 800308a:	687b      	ldr	r3, [r7, #4]
 800308c:	685b      	ldr	r3, [r3, #4]
 800308e:	495c      	ldr	r1, [pc, #368]	@ (8003200 <HAL_I2C_Init+0x274>)
 8003090:	428b      	cmp	r3, r1
 8003092:	d819      	bhi.n	80030c8 <HAL_I2C_Init+0x13c>
 8003094:	68fb      	ldr	r3, [r7, #12]
 8003096:	1e59      	subs	r1, r3, #1
 8003098:	687b      	ldr	r3, [r7, #4]
 800309a:	685b      	ldr	r3, [r3, #4]
 800309c:	005b      	lsls	r3, r3, #1
 800309e:	fbb1 f3f3 	udiv	r3, r1, r3
 80030a2:	1c59      	adds	r1, r3, #1
 80030a4:	f640 73fc 	movw	r3, #4092	@ 0xffc
 80030a8:	400b      	ands	r3, r1
 80030aa:	2b00      	cmp	r3, #0
 80030ac:	d00a      	beq.n	80030c4 <HAL_I2C_Init+0x138>
 80030ae:	68fb      	ldr	r3, [r7, #12]
 80030b0:	1e59      	subs	r1, r3, #1
 80030b2:	687b      	ldr	r3, [r7, #4]
 80030b4:	685b      	ldr	r3, [r3, #4]
 80030b6:	005b      	lsls	r3, r3, #1
 80030b8:	fbb1 f3f3 	udiv	r3, r1, r3
 80030bc:	3301      	adds	r3, #1
 80030be:	f3c3 030b 	ubfx	r3, r3, #0, #12
 80030c2:	e051      	b.n	8003168 <HAL_I2C_Init+0x1dc>
 80030c4:	2304      	movs	r3, #4
 80030c6:	e04f      	b.n	8003168 <HAL_I2C_Init+0x1dc>
 80030c8:	687b      	ldr	r3, [r7, #4]
 80030ca:	689b      	ldr	r3, [r3, #8]
 80030cc:	2b00      	cmp	r3, #0
 80030ce:	d111      	bne.n	80030f4 <HAL_I2C_Init+0x168>
 80030d0:	68fb      	ldr	r3, [r7, #12]
 80030d2:	1e58      	subs	r0, r3, #1
 80030d4:	687b      	ldr	r3, [r7, #4]
 80030d6:	6859      	ldr	r1, [r3, #4]
 80030d8:	460b      	mov	r3, r1
 80030da:	005b      	lsls	r3, r3, #1
 80030dc:	440b      	add	r3, r1
 80030de:	fbb0 f3f3 	udiv	r3, r0, r3
 80030e2:	3301      	adds	r3, #1
 80030e4:	f3c3 030b 	ubfx	r3, r3, #0, #12
 80030e8:	2b00      	cmp	r3, #0
 80030ea:	bf0c      	ite	eq
 80030ec:	2301      	moveq	r3, #1
 80030ee:	2300      	movne	r3, #0
 80030f0:	b2db      	uxtb	r3, r3
 80030f2:	e012      	b.n	800311a <HAL_I2C_Init+0x18e>
 80030f4:	68fb      	ldr	r3, [r7, #12]
 80030f6:	1e58      	subs	r0, r3, #1
 80030f8:	687b      	ldr	r3, [r7, #4]
 80030fa:	6859      	ldr	r1, [r3, #4]
 80030fc:	460b      	mov	r3, r1
 80030fe:	009b      	lsls	r3, r3, #2
 8003100:	440b      	add	r3, r1
 8003102:	0099      	lsls	r1, r3, #2
 8003104:	440b      	add	r3, r1
 8003106:	fbb0 f3f3 	udiv	r3, r0, r3
 800310a:	3301      	adds	r3, #1
 800310c:	f3c3 030b 	ubfx	r3, r3, #0, #12
 8003110:	2b00      	cmp	r3, #0
 8003112:	bf0c      	ite	eq
 8003114:	2301      	moveq	r3, #1
 8003116:	2300      	movne	r3, #0
 8003118:	b2db      	uxtb	r3, r3
 800311a:	2b00      	cmp	r3, #0
 800311c:	d001      	beq.n	8003122 <HAL_I2C_Init+0x196>
 800311e:	2301      	movs	r3, #1
 8003120:	e022      	b.n	8003168 <HAL_I2C_Init+0x1dc>
 8003122:	687b      	ldr	r3, [r7, #4]
 8003124:	689b      	ldr	r3, [r3, #8]
 8003126:	2b00      	cmp	r3, #0
 8003128:	d10e      	bne.n	8003148 <HAL_I2C_Init+0x1bc>
 800312a:	68fb      	ldr	r3, [r7, #12]
 800312c:	1e58      	subs	r0, r3, #1
 800312e:	687b      	ldr	r3, [r7, #4]
 8003130:	6859      	ldr	r1, [r3, #4]
 8003132:	460b      	mov	r3, r1
 8003134:	005b      	lsls	r3, r3, #1
 8003136:	440b      	add	r3, r1
 8003138:	fbb0 f3f3 	udiv	r3, r0, r3
 800313c:	3301      	adds	r3, #1
 800313e:	f3c3 030b 	ubfx	r3, r3, #0, #12
 8003142:	f443 4300 	orr.w	r3, r3, #32768	@ 0x8000
 8003146:	e00f      	b.n	8003168 <HAL_I2C_Init+0x1dc>
 8003148:	68fb      	ldr	r3, [r7, #12]
 800314a:	1e58      	subs	r0, r3, #1
 800314c:	687b      	ldr	r3, [r7, #4]
 800314e:	6859      	ldr	r1, [r3, #4]
 8003150:	460b      	mov	r3, r1
 8003152:	009b      	lsls	r3, r3, #2
 8003154:	440b      	add	r3, r1
 8003156:	0099      	lsls	r1, r3, #2
 8003158:	440b      	add	r3, r1
 800315a:	fbb0 f3f3 	udiv	r3, r0, r3
 800315e:	3301      	adds	r3, #1
 8003160:	f3c3 030b 	ubfx	r3, r3, #0, #12
 8003164:	f443 4340 	orr.w	r3, r3, #49152	@ 0xc000
 8003168:	6879      	ldr	r1, [r7, #4]
 800316a:	6809      	ldr	r1, [r1, #0]
 800316c:	4313      	orrs	r3, r2
 800316e:	61cb      	str	r3, [r1, #28]

  /*---------------------------- I2Cx CR1 Configuration ----------------------*/
  /* Configure I2Cx: Generalcall and NoStretch mode */
  MODIFY_REG(hi2c->Instance->CR1, (I2C_CR1_ENGC | I2C_CR1_NOSTRETCH), (hi2c->Init.GeneralCallMode | hi2c->Init.NoStretchMode));
 8003170:	687b      	ldr	r3, [r7, #4]
 8003172:	681b      	ldr	r3, [r3, #0]
 8003174:	681b      	ldr	r3, [r3, #0]
 8003176:	f023 01c0 	bic.w	r1, r3, #192	@ 0xc0
 800317a:	687b      	ldr	r3, [r7, #4]
 800317c:	69da      	ldr	r2, [r3, #28]
 800317e:	687b      	ldr	r3, [r7, #4]
 8003180:	6a1b      	ldr	r3, [r3, #32]
 8003182:	431a      	orrs	r2, r3
 8003184:	687b      	ldr	r3, [r7, #4]
 8003186:	681b      	ldr	r3, [r3, #0]
 8003188:	430a      	orrs	r2, r1
 800318a:	601a      	str	r2, [r3, #0]

  /*---------------------------- I2Cx OAR1 Configuration ---------------------*/
  /* Configure I2Cx: Own Address1 and addressing mode */
  MODIFY_REG(hi2c->Instance->OAR1, (I2C_OAR1_ADDMODE | I2C_OAR1_ADD8_9 | I2C_OAR1_ADD1_7 | I2C_OAR1_ADD0), (hi2c->Init.AddressingMode | hi2c->Init.OwnAddress1));
 800318c:	687b      	ldr	r3, [r7, #4]
 800318e:	681b      	ldr	r3, [r3, #0]
 8003190:	689b      	ldr	r3, [r3, #8]
 8003192:	f423 4303 	bic.w	r3, r3, #33536	@ 0x8300
 8003196:	f023 03ff 	bic.w	r3, r3, #255	@ 0xff
 800319a:	687a      	ldr	r2, [r7, #4]
 800319c:	6911      	ldr	r1, [r2, #16]
 800319e:	687a      	ldr	r2, [r7, #4]
 80031a0:	68d2      	ldr	r2, [r2, #12]
 80031a2:	4311      	orrs	r1, r2
 80031a4:	687a      	ldr	r2, [r7, #4]
 80031a6:	6812      	ldr	r2, [r2, #0]
 80031a8:	430b      	orrs	r3, r1
 80031aa:	6093      	str	r3, [r2, #8]

  /*---------------------------- I2Cx OAR2 Configuration ---------------------*/
  /* Configure I2Cx: Dual mode and Own Address2 */
  MODIFY_REG(hi2c->Instance->OAR2, (I2C_OAR2_ENDUAL | I2C_OAR2_ADD2), (hi2c->Init.DualAddressMode | hi2c->Init.OwnAddress2));
 80031ac:	687b      	ldr	r3, [r7, #4]
 80031ae:	681b      	ldr	r3, [r3, #0]
 80031b0:	68db      	ldr	r3, [r3, #12]
 80031b2:	f023 01ff 	bic.w	r1, r3, #255	@ 0xff
 80031b6:	687b      	ldr	r3, [r7, #4]
 80031b8:	695a      	ldr	r2, [r3, #20]
 80031ba:	687b      	ldr	r3, [r7, #4]
 80031bc:	699b      	ldr	r3, [r3, #24]
 80031be:	431a      	orrs	r2, r3
 80031c0:	687b      	ldr	r3, [r7, #4]
 80031c2:	681b      	ldr	r3, [r3, #0]
 80031c4:	430a      	orrs	r2, r1
 80031c6:	60da      	str	r2, [r3, #12]

  /* Enable the selected I2C peripheral */
  __HAL_I2C_ENABLE(hi2c);
 80031c8:	687b      	ldr	r3, [r7, #4]
 80031ca:	681b      	ldr	r3, [r3, #0]
 80031cc:	681a      	ldr	r2, [r3, #0]
 80031ce:	687b      	ldr	r3, [r7, #4]
 80031d0:	681b      	ldr	r3, [r3, #0]
 80031d2:	f042 0201 	orr.w	r2, r2, #1
 80031d6:	601a      	str	r2, [r3, #0]

  hi2c->ErrorCode = HAL_I2C_ERROR_NONE;
 80031d8:	687b      	ldr	r3, [r7, #4]
 80031da:	2200      	movs	r2, #0
 80031dc:	641a      	str	r2, [r3, #64]	@ 0x40
  hi2c->State = HAL_I2C_STATE_READY;
 80031de:	687b      	ldr	r3, [r7, #4]
 80031e0:	2220      	movs	r2, #32
 80031e2:	f883 203d 	strb.w	r2, [r3, #61]	@ 0x3d
  hi2c->PreviousState = I2C_STATE_NONE;
 80031e6:	687b      	ldr	r3, [r7, #4]
 80031e8:	2200      	movs	r2, #0
 80031ea:	631a      	str	r2, [r3, #48]	@ 0x30
  hi2c->Mode = HAL_I2C_MODE_NONE;
 80031ec:	687b      	ldr	r3, [r7, #4]
 80031ee:	2200      	movs	r2, #0
 80031f0:	f883 203e 	strb.w	r2, [r3, #62]	@ 0x3e

  return HAL_OK;
 80031f4:	2300      	movs	r3, #0
}
 80031f6:	4618      	mov	r0, r3
 80031f8:	3710      	adds	r7, #16
 80031fa:	46bd      	mov	sp, r7
 80031fc:	bd80      	pop	{r7, pc}
 80031fe:	bf00      	nop
 8003200:	000186a0 	.word	0x000186a0
 8003204:	001e847f 	.word	0x001e847f
 8003208:	003d08ff 	.word	0x003d08ff
 800320c:	431bde83 	.word	0x431bde83
 8003210:	10624dd3 	.word	0x10624dd3

08003214 <HAL_I2C_Master_Transmit>:
  * @param  Size Amount of data to be sent
  * @param  Timeout Timeout duration
  * @retval HAL status
  */
HAL_StatusTypeDef HAL_I2C_Master_Transmit(I2C_HandleTypeDef *hi2c, uint16_t DevAddress, uint8_t *pData, uint16_t Size, uint32_t Timeout)
{
 8003214:	b580      	push	{r7, lr}
 8003216:	b088      	sub	sp, #32
 8003218:	af02      	add	r7, sp, #8
 800321a:	60f8      	str	r0, [r7, #12]
 800321c:	607a      	str	r2, [r7, #4]
 800321e:	461a      	mov	r2, r3
 8003220:	460b      	mov	r3, r1
 8003222:	817b      	strh	r3, [r7, #10]
 8003224:	4613      	mov	r3, r2
 8003226:	813b      	strh	r3, [r7, #8]
  /* Init tickstart for timeout management*/
  uint32_t tickstart = HAL_GetTick();
 8003228:	f7fe ff60 	bl	80020ec <HAL_GetTick>
 800322c:	6178      	str	r0, [r7, #20]

  if (hi2c->State == HAL_I2C_STATE_READY)
 800322e:	68fb      	ldr	r3, [r7, #12]
 8003230:	f893 303d 	ldrb.w	r3, [r3, #61]	@ 0x3d
 8003234:	b2db      	uxtb	r3, r3
 8003236:	2b20      	cmp	r3, #32
 8003238:	f040 80e0 	bne.w	80033fc <HAL_I2C_Master_Transmit+0x1e8>
  {
    /* Wait until BUSY flag is reset */
    if (I2C_WaitOnFlagUntilTimeout(hi2c, I2C_FLAG_BUSY, SET, I2C_TIMEOUT_BUSY_FLAG, tickstart) != HAL_OK)
 800323c:	697b      	ldr	r3, [r7, #20]
 800323e:	9300      	str	r3, [sp, #0]
 8003240:	2319      	movs	r3, #25
 8003242:	2201      	movs	r2, #1
 8003244:	4970      	ldr	r1, [pc, #448]	@ (8003408 <HAL_I2C_Master_Transmit+0x1f4>)
 8003246:	68f8      	ldr	r0, [r7, #12]
 8003248:	f000 fc64 	bl	8003b14 <I2C_WaitOnFlagUntilTimeout>
 800324c:	4603      	mov	r3, r0
 800324e:	2b00      	cmp	r3, #0
 8003250:	d001      	beq.n	8003256 <HAL_I2C_Master_Transmit+0x42>
    {
      return HAL_BUSY;
 8003252:	2302      	movs	r3, #2
 8003254:	e0d3      	b.n	80033fe <HAL_I2C_Master_Transmit+0x1ea>
    }

    /* Process Locked */
    __HAL_LOCK(hi2c);
 8003256:	68fb      	ldr	r3, [r7, #12]
 8003258:	f893 303c 	ldrb.w	r3, [r3, #60]	@ 0x3c
 800325c:	2b01      	cmp	r3, #1
 800325e:	d101      	bne.n	8003264 <HAL_I2C_Master_Transmit+0x50>
 8003260:	2302      	movs	r3, #2
 8003262:	e0cc      	b.n	80033fe <HAL_I2C_Master_Transmit+0x1ea>
 8003264:	68fb      	ldr	r3, [r7, #12]
 8003266:	2201      	movs	r2, #1
 8003268:	f883 203c 	strb.w	r2, [r3, #60]	@ 0x3c

    /* Check if the I2C is already enabled */
    if ((hi2c->Instance->CR1 & I2C_CR1_PE) != I2C_CR1_PE)
 800326c:	68fb      	ldr	r3, [r7, #12]
 800326e:	681b      	ldr	r3, [r3, #0]
 8003270:	681b      	ldr	r3, [r3, #0]
 8003272:	f003 0301 	and.w	r3, r3, #1
 8003276:	2b01      	cmp	r3, #1
 8003278:	d007      	beq.n	800328a <HAL_I2C_Master_Transmit+0x76>
    {
      /* Enable I2C peripheral */
      __HAL_I2C_ENABLE(hi2c);
 800327a:	68fb      	ldr	r3, [r7, #12]
 800327c:	681b      	ldr	r3, [r3, #0]
 800327e:	681a      	ldr	r2, [r3, #0]
 8003280:	68fb      	ldr	r3, [r7, #12]
 8003282:	681b      	ldr	r3, [r3, #0]
 8003284:	f042 0201 	orr.w	r2, r2, #1
 8003288:	601a      	str	r2, [r3, #0]
    }

    /* Disable Pos */
    CLEAR_BIT(hi2c->Instance->CR1, I2C_CR1_POS);
 800328a:	68fb      	ldr	r3, [r7, #12]
 800328c:	681b      	ldr	r3, [r3, #0]
 800328e:	681a      	ldr	r2, [r3, #0]
 8003290:	68fb      	ldr	r3, [r7, #12]
 8003292:	681b      	ldr	r3, [r3, #0]
 8003294:	f422 6200 	bic.w	r2, r2, #2048	@ 0x800
 8003298:	601a      	str	r2, [r3, #0]

    hi2c->State       = HAL_I2C_STATE_BUSY_TX;
 800329a:	68fb      	ldr	r3, [r7, #12]
 800329c:	2221      	movs	r2, #33	@ 0x21
 800329e:	f883 203d 	strb.w	r2, [r3, #61]	@ 0x3d
    hi2c->Mode        = HAL_I2C_MODE_MASTER;
 80032a2:	68fb      	ldr	r3, [r7, #12]
 80032a4:	2210      	movs	r2, #16
 80032a6:	f883 203e 	strb.w	r2, [r3, #62]	@ 0x3e
    hi2c->ErrorCode   = HAL_I2C_ERROR_NONE;
 80032aa:	68fb      	ldr	r3, [r7, #12]
 80032ac:	2200      	movs	r2, #0
 80032ae:	641a      	str	r2, [r3, #64]	@ 0x40

    /* Prepare transfer parameters */
    hi2c->pBuffPtr    = pData;
 80032b0:	68fb      	ldr	r3, [r7, #12]
 80032b2:	687a      	ldr	r2, [r7, #4]
 80032b4:	625a      	str	r2, [r3, #36]	@ 0x24
    hi2c->XferCount   = Size;
 80032b6:	68fb      	ldr	r3, [r7, #12]
 80032b8:	893a      	ldrh	r2, [r7, #8]
 80032ba:	855a      	strh	r2, [r3, #42]	@ 0x2a
    hi2c->XferSize    = hi2c->XferCount;
 80032bc:	68fb      	ldr	r3, [r7, #12]
 80032be:	8d5b      	ldrh	r3, [r3, #42]	@ 0x2a
 80032c0:	b29a      	uxth	r2, r3
 80032c2:	68fb      	ldr	r3, [r7, #12]
 80032c4:	851a      	strh	r2, [r3, #40]	@ 0x28
    hi2c->XferOptions = I2C_NO_OPTION_FRAME;
 80032c6:	68fb      	ldr	r3, [r7, #12]
 80032c8:	4a50      	ldr	r2, [pc, #320]	@ (800340c <HAL_I2C_Master_Transmit+0x1f8>)
 80032ca:	62da      	str	r2, [r3, #44]	@ 0x2c

    /* Send Slave Address */
    if (I2C_MasterRequestWrite(hi2c, DevAddress, Timeout, tickstart) != HAL_OK)
 80032cc:	8979      	ldrh	r1, [r7, #10]
 80032ce:	697b      	ldr	r3, [r7, #20]
 80032d0:	6a3a      	ldr	r2, [r7, #32]
 80032d2:	68f8      	ldr	r0, [r7, #12]
 80032d4:	f000 face 	bl	8003874 <I2C_MasterRequestWrite>
 80032d8:	4603      	mov	r3, r0
 80032da:	2b00      	cmp	r3, #0
 80032dc:	d001      	beq.n	80032e2 <HAL_I2C_Master_Transmit+0xce>
    {
      return HAL_ERROR;
 80032de:	2301      	movs	r3, #1
 80032e0:	e08d      	b.n	80033fe <HAL_I2C_Master_Transmit+0x1ea>
    }

    /* Clear ADDR flag */
    __HAL_I2C_CLEAR_ADDRFLAG(hi2c);
 80032e2:	2300      	movs	r3, #0
 80032e4:	613b      	str	r3, [r7, #16]
 80032e6:	68fb      	ldr	r3, [r7, #12]
 80032e8:	681b      	ldr	r3, [r3, #0]
 80032ea:	695b      	ldr	r3, [r3, #20]
 80032ec:	613b      	str	r3, [r7, #16]
 80032ee:	68fb      	ldr	r3, [r7, #12]
 80032f0:	681b      	ldr	r3, [r3, #0]
 80032f2:	699b      	ldr	r3, [r3, #24]
 80032f4:	613b      	str	r3, [r7, #16]
 80032f6:	693b      	ldr	r3, [r7, #16]

    while (hi2c->XferSize > 0U)
 80032f8:	e066      	b.n	80033c8 <HAL_I2C_Master_Transmit+0x1b4>
    {
      /* Wait until TXE flag is set */
      if (I2C_WaitOnTXEFlagUntilTimeout(hi2c, Timeout, tickstart) != HAL_OK)
 80032fa:	697a      	ldr	r2, [r7, #20]
 80032fc:	6a39      	ldr	r1, [r7, #32]
 80032fe:	68f8      	ldr	r0, [r7, #12]
 8003300:	f000 fd22 	bl	8003d48 <I2C_WaitOnTXEFlagUntilTimeout>
 8003304:	4603      	mov	r3, r0
 8003306:	2b00      	cmp	r3, #0
 8003308:	d00d      	beq.n	8003326 <HAL_I2C_Master_Transmit+0x112>
      {
        if (hi2c->ErrorCode == HAL_I2C_ERROR_AF)
 800330a:	68fb      	ldr	r3, [r7, #12]
 800330c:	6c1b      	ldr	r3, [r3, #64]	@ 0x40
 800330e:	2b04      	cmp	r3, #4
 8003310:	d107      	bne.n	8003322 <HAL_I2C_Master_Transmit+0x10e>
        {
          /* Generate Stop */
          SET_BIT(hi2c->Instance->CR1, I2C_CR1_STOP);
 8003312:	68fb      	ldr	r3, [r7, #12]
 8003314:	681b      	ldr	r3, [r3, #0]
 8003316:	681a      	ldr	r2, [r3, #0]
 8003318:	68fb      	ldr	r3, [r7, #12]
 800331a:	681b      	ldr	r3, [r3, #0]
 800331c:	f442 7200 	orr.w	r2, r2, #512	@ 0x200
 8003320:	601a      	str	r2, [r3, #0]
        }
        return HAL_ERROR;
 8003322:	2301      	movs	r3, #1
 8003324:	e06b      	b.n	80033fe <HAL_I2C_Master_Transmit+0x1ea>
      }

      /* Write data to DR */
      hi2c->Instance->DR = *hi2c->pBuffPtr;
 8003326:	68fb      	ldr	r3, [r7, #12]
 8003328:	6a5b      	ldr	r3, [r3, #36]	@ 0x24
 800332a:	781a      	ldrb	r2, [r3, #0]
 800332c:	68fb      	ldr	r3, [r7, #12]
 800332e:	681b      	ldr	r3, [r3, #0]
 8003330:	611a      	str	r2, [r3, #16]

      /* Increment Buffer pointer */
      hi2c->pBuffPtr++;
 8003332:	68fb      	ldr	r3, [r7, #12]
 8003334:	6a5b      	ldr	r3, [r3, #36]	@ 0x24
 8003336:	1c5a      	adds	r2, r3, #1
 8003338:	68fb      	ldr	r3, [r7, #12]
 800333a:	625a      	str	r2, [r3, #36]	@ 0x24

      /* Update counter */
      hi2c->XferCount--;
 800333c:	68fb      	ldr	r3, [r7, #12]
 800333e:	8d5b      	ldrh	r3, [r3, #42]	@ 0x2a
 8003340:	b29b      	uxth	r3, r3
 8003342:	3b01      	subs	r3, #1
 8003344:	b29a      	uxth	r2, r3
 8003346:	68fb      	ldr	r3, [r7, #12]
 8003348:	855a      	strh	r2, [r3, #42]	@ 0x2a
      hi2c->XferSize--;
 800334a:	68fb      	ldr	r3, [r7, #12]
 800334c:	8d1b      	ldrh	r3, [r3, #40]	@ 0x28
 800334e:	3b01      	subs	r3, #1
 8003350:	b29a      	uxth	r2, r3
 8003352:	68fb      	ldr	r3, [r7, #12]
 8003354:	851a      	strh	r2, [r3, #40]	@ 0x28

      if ((__HAL_I2C_GET_FLAG(hi2c, I2C_FLAG_BTF) == SET) && (hi2c->XferSize != 0U))
 8003356:	68fb      	ldr	r3, [r7, #12]
 8003358:	681b      	ldr	r3, [r3, #0]
 800335a:	695b      	ldr	r3, [r3, #20]
 800335c:	f003 0304 	and.w	r3, r3, #4
 8003360:	2b04      	cmp	r3, #4
 8003362:	d11b      	bne.n	800339c <HAL_I2C_Master_Transmit+0x188>
 8003364:	68fb      	ldr	r3, [r7, #12]
 8003366:	8d1b      	ldrh	r3, [r3, #40]	@ 0x28
 8003368:	2b00      	cmp	r3, #0
 800336a:	d017      	beq.n	800339c <HAL_I2C_Master_Transmit+0x188>
      {
        /* Write data to DR */
        hi2c->Instance->DR = *hi2c->pBuffPtr;
 800336c:	68fb      	ldr	r3, [r7, #12]
 800336e:	6a5b      	ldr	r3, [r3, #36]	@ 0x24
 8003370:	781a      	ldrb	r2, [r3, #0]
 8003372:	68fb      	ldr	r3, [r7, #12]
 8003374:	681b      	ldr	r3, [r3, #0]
 8003376:	611a      	str	r2, [r3, #16]

        /* Increment Buffer pointer */
        hi2c->pBuffPtr++;
 8003378:	68fb      	ldr	r3, [r7, #12]
 800337a:	6a5b      	ldr	r3, [r3, #36]	@ 0x24
 800337c:	1c5a      	adds	r2, r3, #1
 800337e:	68fb      	ldr	r3, [r7, #12]
 8003380:	625a      	str	r2, [r3, #36]	@ 0x24

        /* Update counter */
        hi2c->XferCount--;
 8003382:	68fb      	ldr	r3, [r7, #12]
 8003384:	8d5b      	ldrh	r3, [r3, #42]	@ 0x2a
 8003386:	b29b      	uxth	r3, r3
 8003388:	3b01      	subs	r3, #1
 800338a:	b29a      	uxth	r2, r3
 800338c:	68fb      	ldr	r3, [r7, #12]
 800338e:	855a      	strh	r2, [r3, #42]	@ 0x2a
        hi2c->XferSize--;
 8003390:	68fb      	ldr	r3, [r7, #12]
 8003392:	8d1b      	ldrh	r3, [r3, #40]	@ 0x28
 8003394:	3b01      	subs	r3, #1
 8003396:	b29a      	uxth	r2, r3
 8003398:	68fb      	ldr	r3, [r7, #12]
 800339a:	851a      	strh	r2, [r3, #40]	@ 0x28
      }

      /* Wait until BTF flag is set */
      if (I2C_WaitOnBTFFlagUntilTimeout(hi2c, Timeout, tickstart) != HAL_OK)
 800339c:	697a      	ldr	r2, [r7, #20]
 800339e:	6a39      	ldr	r1, [r7, #32]
 80033a0:	68f8      	ldr	r0, [r7, #12]
 80033a2:	f000 fd19 	bl	8003dd8 <I2C_WaitOnBTFFlagUntilTimeout>
 80033a6:	4603      	mov	r3, r0
 80033a8:	2b00      	cmp	r3, #0
 80033aa:	d00d      	beq.n	80033c8 <HAL_I2C_Master_Transmit+0x1b4>
      {
        if (hi2c->ErrorCode == HAL_I2C_ERROR_AF)
 80033ac:	68fb      	ldr	r3, [r7, #12]
 80033ae:	6c1b      	ldr	r3, [r3, #64]	@ 0x40
 80033b0:	2b04      	cmp	r3, #4
 80033b2:	d107      	bne.n	80033c4 <HAL_I2C_Master_Transmit+0x1b0>
        {
          /* Generate Stop */
          SET_BIT(hi2c->Instance->CR1, I2C_CR1_STOP);
 80033b4:	68fb      	ldr	r3, [r7, #12]
 80033b6:	681b      	ldr	r3, [r3, #0]
 80033b8:	681a      	ldr	r2, [r3, #0]
 80033ba:	68fb      	ldr	r3, [r7, #12]
 80033bc:	681b      	ldr	r3, [r3, #0]
 80033be:	f442 7200 	orr.w	r2, r2, #512	@ 0x200
 80033c2:	601a      	str	r2, [r3, #0]
        }
        return HAL_ERROR;
 80033c4:	2301      	movs	r3, #1
 80033c6:	e01a      	b.n	80033fe <HAL_I2C_Master_Transmit+0x1ea>
    while (hi2c->XferSize > 0U)
 80033c8:	68fb      	ldr	r3, [r7, #12]
 80033ca:	8d1b      	ldrh	r3, [r3, #40]	@ 0x28
 80033cc:	2b00      	cmp	r3, #0
 80033ce:	d194      	bne.n	80032fa <HAL_I2C_Master_Transmit+0xe6>
      }
    }

    /* Generate Stop */
    SET_BIT(hi2c->Instance->CR1, I2C_CR1_STOP);
 80033d0:	68fb      	ldr	r3, [r7, #12]
 80033d2:	681b      	ldr	r3, [r3, #0]
 80033d4:	681a      	ldr	r2, [r3, #0]
 80033d6:	68fb      	ldr	r3, [r7, #12]
 80033d8:	681b      	ldr	r3, [r3, #0]
 80033da:	f442 7200 	orr.w	r2, r2, #512	@ 0x200
 80033de:	601a      	str	r2, [r3, #0]

    hi2c->State = HAL_I2C_STATE_READY;
 80033e0:	68fb      	ldr	r3, [r7, #12]
 80033e2:	2220      	movs	r2, #32
 80033e4:	f883 203d 	strb.w	r2, [r3, #61]	@ 0x3d
    hi2c->Mode = HAL_I2C_MODE_NONE;
 80033e8:	68fb      	ldr	r3, [r7, #12]
 80033ea:	2200      	movs	r2, #0
 80033ec:	f883 203e 	strb.w	r2, [r3, #62]	@ 0x3e

    /* Process Unlocked */
    __HAL_UNLOCK(hi2c);
 80033f0:	68fb      	ldr	r3, [r7, #12]
 80033f2:	2200      	movs	r2, #0
 80033f4:	f883 203c 	strb.w	r2, [r3, #60]	@ 0x3c

    return HAL_OK;
 80033f8:	2300      	movs	r3, #0
 80033fa:	e000      	b.n	80033fe <HAL_I2C_Master_Transmit+0x1ea>
  }
  else
  {
    return HAL_BUSY;
 80033fc:	2302      	movs	r3, #2
  }
}
 80033fe:	4618      	mov	r0, r3
 8003400:	3718      	adds	r7, #24
 8003402:	46bd      	mov	sp, r7
 8003404:	bd80      	pop	{r7, pc}
 8003406:	bf00      	nop
 8003408:	00100002 	.word	0x00100002
 800340c:	ffff0000 	.word	0xffff0000

08003410 <HAL_I2C_Master_Receive>:
  * @param  Size Amount of data to be sent
  * @param  Timeout Timeout duration
  * @retval HAL status
  */
HAL_StatusTypeDef HAL_I2C_Master_Receive(I2C_HandleTypeDef *hi2c, uint16_t DevAddress, uint8_t *pData, uint16_t Size, uint32_t Timeout)
{
 8003410:	b580      	push	{r7, lr}
 8003412:	b08c      	sub	sp, #48	@ 0x30
 8003414:	af02      	add	r7, sp, #8
 8003416:	60f8      	str	r0, [r7, #12]
 8003418:	607a      	str	r2, [r7, #4]
 800341a:	461a      	mov	r2, r3
 800341c:	460b      	mov	r3, r1
 800341e:	817b      	strh	r3, [r7, #10]
 8003420:	4613      	mov	r3, r2
 8003422:	813b      	strh	r3, [r7, #8]
  /* Init tickstart for timeout management*/
  uint32_t tickstart = HAL_GetTick();
 8003424:	f7fe fe62 	bl	80020ec <HAL_GetTick>
 8003428:	6278      	str	r0, [r7, #36]	@ 0x24

  if (hi2c->State == HAL_I2C_STATE_READY)
 800342a:	68fb      	ldr	r3, [r7, #12]
 800342c:	f893 303d 	ldrb.w	r3, [r3, #61]	@ 0x3d
 8003430:	b2db      	uxtb	r3, r3
 8003432:	2b20      	cmp	r3, #32
 8003434:	f040 8217 	bne.w	8003866 <HAL_I2C_Master_Receive+0x456>
  {
    /* Wait until BUSY flag is reset */
    if (I2C_WaitOnFlagUntilTimeout(hi2c, I2C_FLAG_BUSY, SET, I2C_TIMEOUT_BUSY_FLAG, tickstart) != HAL_OK)
 8003438:	6a7b      	ldr	r3, [r7, #36]	@ 0x24
 800343a:	9300      	str	r3, [sp, #0]
 800343c:	2319      	movs	r3, #25
 800343e:	2201      	movs	r2, #1
 8003440:	497c      	ldr	r1, [pc, #496]	@ (8003634 <HAL_I2C_Master_Receive+0x224>)
 8003442:	68f8      	ldr	r0, [r7, #12]
 8003444:	f000 fb66 	bl	8003b14 <I2C_WaitOnFlagUntilTimeout>
 8003448:	4603      	mov	r3, r0
 800344a:	2b00      	cmp	r3, #0
 800344c:	d001      	beq.n	8003452 <HAL_I2C_Master_Receive+0x42>
    {
      return HAL_BUSY;
 800344e:	2302      	movs	r3, #2
 8003450:	e20a      	b.n	8003868 <HAL_I2C_Master_Receive+0x458>
    }

    /* Process Locked */
    __HAL_LOCK(hi2c);
 8003452:	68fb      	ldr	r3, [r7, #12]
 8003454:	f893 303c 	ldrb.w	r3, [r3, #60]	@ 0x3c
 8003458:	2b01      	cmp	r3, #1
 800345a:	d101      	bne.n	8003460 <HAL_I2C_Master_Receive+0x50>
 800345c:	2302      	movs	r3, #2
 800345e:	e203      	b.n	8003868 <HAL_I2C_Master_Receive+0x458>
 8003460:	68fb      	ldr	r3, [r7, #12]
 8003462:	2201      	movs	r2, #1
 8003464:	f883 203c 	strb.w	r2, [r3, #60]	@ 0x3c

    /* Check if the I2C is already enabled */
    if ((hi2c->Instance->CR1 & I2C_CR1_PE) != I2C_CR1_PE)
 8003468:	68fb      	ldr	r3, [r7, #12]
 800346a:	681b      	ldr	r3, [r3, #0]
 800346c:	681b      	ldr	r3, [r3, #0]
 800346e:	f003 0301 	and.w	r3, r3, #1
 8003472:	2b01      	cmp	r3, #1
 8003474:	d007      	beq.n	8003486 <HAL_I2C_Master_Receive+0x76>
    {
      /* Enable I2C peripheral */
      __HAL_I2C_ENABLE(hi2c);
 8003476:	68fb      	ldr	r3, [r7, #12]
 8003478:	681b      	ldr	r3, [r3, #0]
 800347a:	681a      	ldr	r2, [r3, #0]
 800347c:	68fb      	ldr	r3, [r7, #12]
 800347e:	681b      	ldr	r3, [r3, #0]
 8003480:	f042 0201 	orr.w	r2, r2, #1
 8003484:	601a      	str	r2, [r3, #0]
    }

    /* Disable Pos */
    CLEAR_BIT(hi2c->Instance->CR1, I2C_CR1_POS);
 8003486:	68fb      	ldr	r3, [r7, #12]
 8003488:	681b      	ldr	r3, [r3, #0]
 800348a:	681a      	ldr	r2, [r3, #0]
 800348c:	68fb      	ldr	r3, [r7, #12]
 800348e:	681b      	ldr	r3, [r3, #0]
 8003490:	f422 6200 	bic.w	r2, r2, #2048	@ 0x800
 8003494:	601a      	str	r2, [r3, #0]

    hi2c->State       = HAL_I2C_STATE_BUSY_RX;
 8003496:	68fb      	ldr	r3, [r7, #12]
 8003498:	2222      	movs	r2, #34	@ 0x22
 800349a:	f883 203d 	strb.w	r2, [r3, #61]	@ 0x3d
    hi2c->Mode        = HAL_I2C_MODE_MASTER;
 800349e:	68fb      	ldr	r3, [r7, #12]
 80034a0:	2210      	movs	r2, #16
 80034a2:	f883 203e 	strb.w	r2, [r3, #62]	@ 0x3e
    hi2c->ErrorCode   = HAL_I2C_ERROR_NONE;
 80034a6:	68fb      	ldr	r3, [r7, #12]
 80034a8:	2200      	movs	r2, #0
 80034aa:	641a      	str	r2, [r3, #64]	@ 0x40

    /* Prepare transfer parameters */
    hi2c->pBuffPtr    = pData;
 80034ac:	68fb      	ldr	r3, [r7, #12]
 80034ae:	687a      	ldr	r2, [r7, #4]
 80034b0:	625a      	str	r2, [r3, #36]	@ 0x24
    hi2c->XferCount   = Size;
 80034b2:	68fb      	ldr	r3, [r7, #12]
 80034b4:	893a      	ldrh	r2, [r7, #8]
 80034b6:	855a      	strh	r2, [r3, #42]	@ 0x2a
    hi2c->XferSize    = hi2c->XferCount;
 80034b8:	68fb      	ldr	r3, [r7, #12]
 80034ba:	8d5b      	ldrh	r3, [r3, #42]	@ 0x2a
 80034bc:	b29a      	uxth	r2, r3
 80034be:	68fb      	ldr	r3, [r7, #12]
 80034c0:	851a      	strh	r2, [r3, #40]	@ 0x28
    hi2c->XferOptions = I2C_NO_OPTION_FRAME;
 80034c2:	68fb      	ldr	r3, [r7, #12]
 80034c4:	4a5c      	ldr	r2, [pc, #368]	@ (8003638 <HAL_I2C_Master_Receive+0x228>)
 80034c6:	62da      	str	r2, [r3, #44]	@ 0x2c

    /* Send Slave Address */
    if (I2C_MasterRequestRead(hi2c, DevAddress, Timeout, tickstart) != HAL_OK)
 80034c8:	8979      	ldrh	r1, [r7, #10]
 80034ca:	6a7b      	ldr	r3, [r7, #36]	@ 0x24
 80034cc:	6b3a      	ldr	r2, [r7, #48]	@ 0x30
 80034ce:	68f8      	ldr	r0, [r7, #12]
 80034d0:	f000 fa52 	bl	8003978 <I2C_MasterRequestRead>
 80034d4:	4603      	mov	r3, r0
 80034d6:	2b00      	cmp	r3, #0
 80034d8:	d001      	beq.n	80034de <HAL_I2C_Master_Receive+0xce>
    {
      return HAL_ERROR;
 80034da:	2301      	movs	r3, #1
 80034dc:	e1c4      	b.n	8003868 <HAL_I2C_Master_Receive+0x458>
    }

    if (hi2c->XferSize == 0U)
 80034de:	68fb      	ldr	r3, [r7, #12]
 80034e0:	8d1b      	ldrh	r3, [r3, #40]	@ 0x28
 80034e2:	2b00      	cmp	r3, #0
 80034e4:	d113      	bne.n	800350e <HAL_I2C_Master_Receive+0xfe>
    {
      /* Clear ADDR flag */
      __HAL_I2C_CLEAR_ADDRFLAG(hi2c);
 80034e6:	2300      	movs	r3, #0
 80034e8:	623b      	str	r3, [r7, #32]
 80034ea:	68fb      	ldr	r3, [r7, #12]
 80034ec:	681b      	ldr	r3, [r3, #0]
 80034ee:	695b      	ldr	r3, [r3, #20]
 80034f0:	623b      	str	r3, [r7, #32]
 80034f2:	68fb      	ldr	r3, [r7, #12]
 80034f4:	681b      	ldr	r3, [r3, #0]
 80034f6:	699b      	ldr	r3, [r3, #24]
 80034f8:	623b      	str	r3, [r7, #32]
 80034fa:	6a3b      	ldr	r3, [r7, #32]

      /* Generate Stop */
      SET_BIT(hi2c->Instance->CR1, I2C_CR1_STOP);
 80034fc:	68fb      	ldr	r3, [r7, #12]
 80034fe:	681b      	ldr	r3, [r3, #0]
 8003500:	681a      	ldr	r2, [r3, #0]
 8003502:	68fb      	ldr	r3, [r7, #12]
 8003504:	681b      	ldr	r3, [r3, #0]
 8003506:	f442 7200 	orr.w	r2, r2, #512	@ 0x200
 800350a:	601a      	str	r2, [r3, #0]
 800350c:	e198      	b.n	8003840 <HAL_I2C_Master_Receive+0x430>
    }
    else if (hi2c->XferSize == 1U)
 800350e:	68fb      	ldr	r3, [r7, #12]
 8003510:	8d1b      	ldrh	r3, [r3, #40]	@ 0x28
 8003512:	2b01      	cmp	r3, #1
 8003514:	d11b      	bne.n	800354e <HAL_I2C_Master_Receive+0x13e>
    {
      /* Disable Acknowledge */
      CLEAR_BIT(hi2c->Instance->CR1, I2C_CR1_ACK);
 8003516:	68fb      	ldr	r3, [r7, #12]
 8003518:	681b      	ldr	r3, [r3, #0]
 800351a:	681a      	ldr	r2, [r3, #0]
 800351c:	68fb      	ldr	r3, [r7, #12]
 800351e:	681b      	ldr	r3, [r3, #0]
 8003520:	f422 6280 	bic.w	r2, r2, #1024	@ 0x400
 8003524:	601a      	str	r2, [r3, #0]

      /* Clear ADDR flag */
      __HAL_I2C_CLEAR_ADDRFLAG(hi2c);
 8003526:	2300      	movs	r3, #0
 8003528:	61fb      	str	r3, [r7, #28]
 800352a:	68fb      	ldr	r3, [r7, #12]
 800352c:	681b      	ldr	r3, [r3, #0]
 800352e:	695b      	ldr	r3, [r3, #20]
 8003530:	61fb      	str	r3, [r7, #28]
 8003532:	68fb      	ldr	r3, [r7, #12]
 8003534:	681b      	ldr	r3, [r3, #0]
 8003536:	699b      	ldr	r3, [r3, #24]
 8003538:	61fb      	str	r3, [r7, #28]
 800353a:	69fb      	ldr	r3, [r7, #28]

      /* Generate Stop */
      SET_BIT(hi2c->Instance->CR1, I2C_CR1_STOP);
 800353c:	68fb      	ldr	r3, [r7, #12]
 800353e:	681b      	ldr	r3, [r3, #0]
 8003540:	681a      	ldr	r2, [r3, #0]
 8003542:	68fb      	ldr	r3, [r7, #12]
 8003544:	681b      	ldr	r3, [r3, #0]
 8003546:	f442 7200 	orr.w	r2, r2, #512	@ 0x200
 800354a:	601a      	str	r2, [r3, #0]
 800354c:	e178      	b.n	8003840 <HAL_I2C_Master_Receive+0x430>
    }
    else if (hi2c->XferSize == 2U)
 800354e:	68fb      	ldr	r3, [r7, #12]
 8003550:	8d1b      	ldrh	r3, [r3, #40]	@ 0x28
 8003552:	2b02      	cmp	r3, #2
 8003554:	d11b      	bne.n	800358e <HAL_I2C_Master_Receive+0x17e>
    {
      /* Disable Acknowledge */
      CLEAR_BIT(hi2c->Instance->CR1, I2C_CR1_ACK);
 8003556:	68fb      	ldr	r3, [r7, #12]
 8003558:	681b      	ldr	r3, [r3, #0]
 800355a:	681a      	ldr	r2, [r3, #0]
 800355c:	68fb      	ldr	r3, [r7, #12]
 800355e:	681b      	ldr	r3, [r3, #0]
 8003560:	f422 6280 	bic.w	r2, r2, #1024	@ 0x400
 8003564:	601a      	str	r2, [r3, #0]

      /* Enable Pos */
      SET_BIT(hi2c->Instance->CR1, I2C_CR1_POS);
 8003566:	68fb      	ldr	r3, [r7, #12]
 8003568:	681b      	ldr	r3, [r3, #0]
 800356a:	681a      	ldr	r2, [r3, #0]
 800356c:	68fb      	ldr	r3, [r7, #12]
 800356e:	681b      	ldr	r3, [r3, #0]
 8003570:	f442 6200 	orr.w	r2, r2, #2048	@ 0x800
 8003574:	601a      	str	r2, [r3, #0]

      /* Clear ADDR flag */
      __HAL_I2C_CLEAR_ADDRFLAG(hi2c);
 8003576:	2300      	movs	r3, #0
 8003578:	61bb      	str	r3, [r7, #24]
 800357a:	68fb      	ldr	r3, [r7, #12]
 800357c:	681b      	ldr	r3, [r3, #0]
 800357e:	695b      	ldr	r3, [r3, #20]
 8003580:	61bb      	str	r3, [r7, #24]
 8003582:	68fb      	ldr	r3, [r7, #12]
 8003584:	681b      	ldr	r3, [r3, #0]
 8003586:	699b      	ldr	r3, [r3, #24]
 8003588:	61bb      	str	r3, [r7, #24]
 800358a:	69bb      	ldr	r3, [r7, #24]
 800358c:	e158      	b.n	8003840 <HAL_I2C_Master_Receive+0x430>
    }
    else
    {
      /* Enable Acknowledge */
      SET_BIT(hi2c->Instance->CR1, I2C_CR1_ACK);
 800358e:	68fb      	ldr	r3, [r7, #12]
 8003590:	681b      	ldr	r3, [r3, #0]
 8003592:	681a      	ldr	r2, [r3, #0]
 8003594:	68fb      	ldr	r3, [r7, #12]
 8003596:	681b      	ldr	r3, [r3, #0]
 8003598:	f442 6280 	orr.w	r2, r2, #1024	@ 0x400
 800359c:	601a      	str	r2, [r3, #0]

      /* Clear ADDR flag */
      __HAL_I2C_CLEAR_ADDRFLAG(hi2c);
 800359e:	2300      	movs	r3, #0
 80035a0:	617b      	str	r3, [r7, #20]
 80035a2:	68fb      	ldr	r3, [r7, #12]
 80035a4:	681b      	ldr	r3, [r3, #0]
 80035a6:	695b      	ldr	r3, [r3, #20]
 80035a8:	617b      	str	r3, [r7, #20]
 80035aa:	68fb      	ldr	r3, [r7, #12]
 80035ac:	681b      	ldr	r3, [r3, #0]
 80035ae:	699b      	ldr	r3, [r3, #24]
 80035b0:	617b      	str	r3, [r7, #20]
 80035b2:	697b      	ldr	r3, [r7, #20]
    }

    while (hi2c->XferSize > 0U)
 80035b4:	e144      	b.n	8003840 <HAL_I2C_Master_Receive+0x430>
    {
      if (hi2c->XferSize <= 3U)
 80035b6:	68fb      	ldr	r3, [r7, #12]
 80035b8:	8d1b      	ldrh	r3, [r3, #40]	@ 0x28
 80035ba:	2b03      	cmp	r3, #3
 80035bc:	f200 80f1 	bhi.w	80037a2 <HAL_I2C_Master_Receive+0x392>
      {
        /* One byte */
        if (hi2c->XferSize == 1U)
 80035c0:	68fb      	ldr	r3, [r7, #12]
 80035c2:	8d1b      	ldrh	r3, [r3, #40]	@ 0x28
 80035c4:	2b01      	cmp	r3, #1
 80035c6:	d123      	bne.n	8003610 <HAL_I2C_Master_Receive+0x200>
        {
          /* Wait until RXNE flag is set */
          if (I2C_WaitOnRXNEFlagUntilTimeout(hi2c, Timeout, tickstart) != HAL_OK)
 80035c8:	6a7a      	ldr	r2, [r7, #36]	@ 0x24
 80035ca:	6b39      	ldr	r1, [r7, #48]	@ 0x30
 80035cc:	68f8      	ldr	r0, [r7, #12]
 80035ce:	f000 fc4b 	bl	8003e68 <I2C_WaitOnRXNEFlagUntilTimeout>
 80035d2:	4603      	mov	r3, r0
 80035d4:	2b00      	cmp	r3, #0
 80035d6:	d001      	beq.n	80035dc <HAL_I2C_Master_Receive+0x1cc>
          {
            return HAL_ERROR;
 80035d8:	2301      	movs	r3, #1
 80035da:	e145      	b.n	8003868 <HAL_I2C_Master_Receive+0x458>
          }

          /* Read data from DR */
          *hi2c->pBuffPtr = (uint8_t)hi2c->Instance->DR;
 80035dc:	68fb      	ldr	r3, [r7, #12]
 80035de:	681b      	ldr	r3, [r3, #0]
 80035e0:	691a      	ldr	r2, [r3, #16]
 80035e2:	68fb      	ldr	r3, [r7, #12]
 80035e4:	6a5b      	ldr	r3, [r3, #36]	@ 0x24
 80035e6:	b2d2      	uxtb	r2, r2
 80035e8:	701a      	strb	r2, [r3, #0]

          /* Increment Buffer pointer */
          hi2c->pBuffPtr++;
 80035ea:	68fb      	ldr	r3, [r7, #12]
 80035ec:	6a5b      	ldr	r3, [r3, #36]	@ 0x24
 80035ee:	1c5a      	adds	r2, r3, #1
 80035f0:	68fb      	ldr	r3, [r7, #12]
 80035f2:	625a      	str	r2, [r3, #36]	@ 0x24

          /* Update counter */
          hi2c->XferSize--;
 80035f4:	68fb      	ldr	r3, [r7, #12]
 80035f6:	8d1b      	ldrh	r3, [r3, #40]	@ 0x28
 80035f8:	3b01      	subs	r3, #1
 80035fa:	b29a      	uxth	r2, r3
 80035fc:	68fb      	ldr	r3, [r7, #12]
 80035fe:	851a      	strh	r2, [r3, #40]	@ 0x28
          hi2c->XferCount--;
 8003600:	68fb      	ldr	r3, [r7, #12]
 8003602:	8d5b      	ldrh	r3, [r3, #42]	@ 0x2a
 8003604:	b29b      	uxth	r3, r3
 8003606:	3b01      	subs	r3, #1
 8003608:	b29a      	uxth	r2, r3
 800360a:	68fb      	ldr	r3, [r7, #12]
 800360c:	855a      	strh	r2, [r3, #42]	@ 0x2a
 800360e:	e117      	b.n	8003840 <HAL_I2C_Master_Receive+0x430>
        }
        /* Two bytes */
        else if (hi2c->XferSize == 2U)
 8003610:	68fb      	ldr	r3, [r7, #12]
 8003612:	8d1b      	ldrh	r3, [r3, #40]	@ 0x28
 8003614:	2b02      	cmp	r3, #2
 8003616:	d14e      	bne.n	80036b6 <HAL_I2C_Master_Receive+0x2a6>
        {
          /* Wait until BTF flag is set */
          if (I2C_WaitOnFlagUntilTimeout(hi2c, I2C_FLAG_BTF, RESET, Timeout, tickstart) != HAL_OK)
 8003618:	6a7b      	ldr	r3, [r7, #36]	@ 0x24
 800361a:	9300      	str	r3, [sp, #0]
 800361c:	6b3b      	ldr	r3, [r7, #48]	@ 0x30
 800361e:	2200      	movs	r2, #0
 8003620:	4906      	ldr	r1, [pc, #24]	@ (800363c <HAL_I2C_Master_Receive+0x22c>)
 8003622:	68f8      	ldr	r0, [r7, #12]
 8003624:	f000 fa76 	bl	8003b14 <I2C_WaitOnFlagUntilTimeout>
 8003628:	4603      	mov	r3, r0
 800362a:	2b00      	cmp	r3, #0
 800362c:	d008      	beq.n	8003640 <HAL_I2C_Master_Receive+0x230>
          {
            return HAL_ERROR;
 800362e:	2301      	movs	r3, #1
 8003630:	e11a      	b.n	8003868 <HAL_I2C_Master_Receive+0x458>
 8003632:	bf00      	nop
 8003634:	00100002 	.word	0x00100002
 8003638:	ffff0000 	.word	0xffff0000
 800363c:	00010004 	.word	0x00010004
          }

          /* Generate Stop */
          SET_BIT(hi2c->Instance->CR1, I2C_CR1_STOP);
 8003640:	68fb      	ldr	r3, [r7, #12]
 8003642:	681b      	ldr	r3, [r3, #0]
 8003644:	681a      	ldr	r2, [r3, #0]
 8003646:	68fb      	ldr	r3, [r7, #12]
 8003648:	681b      	ldr	r3, [r3, #0]
 800364a:	f442 7200 	orr.w	r2, r2, #512	@ 0x200
 800364e:	601a      	str	r2, [r3, #0]

          /* Read data from DR */
          *hi2c->pBuffPtr = (uint8_t)hi2c->Instance->DR;
 8003650:	68fb      	ldr	r3, [r7, #12]
 8003652:	681b      	ldr	r3, [r3, #0]
 8003654:	691a      	ldr	r2, [r3, #16]
 8003656:	68fb      	ldr	r3, [r7, #12]
 8003658:	6a5b      	ldr	r3, [r3, #36]	@ 0x24
 800365a:	b2d2      	uxtb	r2, r2
 800365c:	701a      	strb	r2, [r3, #0]

          /* Increment Buffer pointer */
          hi2c->pBuffPtr++;
 800365e:	68fb      	ldr	r3, [r7, #12]
 8003660:	6a5b      	ldr	r3, [r3, #36]	@ 0x24
 8003662:	1c5a      	adds	r2, r3, #1
 8003664:	68fb      	ldr	r3, [r7, #12]
 8003666:	625a      	str	r2, [r3, #36]	@ 0x24

          /* Update counter */
          hi2c->XferSize--;
 8003668:	68fb      	ldr	r3, [r7, #12]
 800366a:	8d1b      	ldrh	r3, [r3, #40]	@ 0x28
 800366c:	3b01      	subs	r3, #1
 800366e:	b29a      	uxth	r2, r3
 8003670:	68fb      	ldr	r3, [r7, #12]
 8003672:	851a      	strh	r2, [r3, #40]	@ 0x28
          hi2c->XferCount--;
 8003674:	68fb      	ldr	r3, [r7, #12]
 8003676:	8d5b      	ldrh	r3, [r3, #42]	@ 0x2a
 8003678:	b29b      	uxth	r3, r3
 800367a:	3b01      	subs	r3, #1
 800367c:	b29a      	uxth	r2, r3
 800367e:	68fb      	ldr	r3, [r7, #12]
 8003680:	855a      	strh	r2, [r3, #42]	@ 0x2a

          /* Read data from DR */
          *hi2c->pBuffPtr = (uint8_t)hi2c->Instance->DR;
 8003682:	68fb      	ldr	r3, [r7, #12]
 8003684:	681b      	ldr	r3, [r3, #0]
 8003686:	691a      	ldr	r2, [r3, #16]
 8003688:	68fb      	ldr	r3, [r7, #12]
 800368a:	6a5b      	ldr	r3, [r3, #36]	@ 0x24
 800368c:	b2d2      	uxtb	r2, r2
 800368e:	701a      	strb	r2, [r3, #0]

          /* Increment Buffer pointer */
          hi2c->pBuffPtr++;
 8003690:	68fb      	ldr	r3, [r7, #12]
 8003692:	6a5b      	ldr	r3, [r3, #36]	@ 0x24
 8003694:	1c5a      	adds	r2, r3, #1
 8003696:	68fb      	ldr	r3, [r7, #12]
 8003698:	625a      	str	r2, [r3, #36]	@ 0x24

          /* Update counter */
          hi2c->XferSize--;
 800369a:	68fb      	ldr	r3, [r7, #12]
 800369c:	8d1b      	ldrh	r3, [r3, #40]	@ 0x28
 800369e:	3b01      	subs	r3, #1
 80036a0:	b29a      	uxth	r2, r3
 80036a2:	68fb      	ldr	r3, [r7, #12]
 80036a4:	851a      	strh	r2, [r3, #40]	@ 0x28
          hi2c->XferCount--;
 80036a6:	68fb      	ldr	r3, [r7, #12]
 80036a8:	8d5b      	ldrh	r3, [r3, #42]	@ 0x2a
 80036aa:	b29b      	uxth	r3, r3
 80036ac:	3b01      	subs	r3, #1
 80036ae:	b29a      	uxth	r2, r3
 80036b0:	68fb      	ldr	r3, [r7, #12]
 80036b2:	855a      	strh	r2, [r3, #42]	@ 0x2a
 80036b4:	e0c4      	b.n	8003840 <HAL_I2C_Master_Receive+0x430>
        }
        /* 3 Last bytes */
        else
        {
          /* Wait until BTF flag is set */
          if (I2C_WaitOnFlagUntilTimeout(hi2c, I2C_FLAG_BTF, RESET, Timeout, tickstart) != HAL_OK)
 80036b6:	6a7b      	ldr	r3, [r7, #36]	@ 0x24
 80036b8:	9300      	str	r3, [sp, #0]
 80036ba:	6b3b      	ldr	r3, [r7, #48]	@ 0x30
 80036bc:	2200      	movs	r2, #0
 80036be:	496c      	ldr	r1, [pc, #432]	@ (8003870 <HAL_I2C_Master_Receive+0x460>)
 80036c0:	68f8      	ldr	r0, [r7, #12]
 80036c2:	f000 fa27 	bl	8003b14 <I2C_WaitOnFlagUntilTimeout>
 80036c6:	4603      	mov	r3, r0
 80036c8:	2b00      	cmp	r3, #0
 80036ca:	d001      	beq.n	80036d0 <HAL_I2C_Master_Receive+0x2c0>
          {
            return HAL_ERROR;
 80036cc:	2301      	movs	r3, #1
 80036ce:	e0cb      	b.n	8003868 <HAL_I2C_Master_Receive+0x458>
          }

          /* Disable Acknowledge */
          CLEAR_BIT(hi2c->Instance->CR1, I2C_CR1_ACK);
 80036d0:	68fb      	ldr	r3, [r7, #12]
 80036d2:	681b      	ldr	r3, [r3, #0]
 80036d4:	681a      	ldr	r2, [r3, #0]
 80036d6:	68fb      	ldr	r3, [r7, #12]
 80036d8:	681b      	ldr	r3, [r3, #0]
 80036da:	f422 6280 	bic.w	r2, r2, #1024	@ 0x400
 80036de:	601a      	str	r2, [r3, #0]

          /* Read data from DR */
          *hi2c->pBuffPtr = (uint8_t)hi2c->Instance->DR;
 80036e0:	68fb      	ldr	r3, [r7, #12]
 80036e2:	681b      	ldr	r3, [r3, #0]
 80036e4:	691a      	ldr	r2, [r3, #16]
 80036e6:	68fb      	ldr	r3, [r7, #12]
 80036e8:	6a5b      	ldr	r3, [r3, #36]	@ 0x24
 80036ea:	b2d2      	uxtb	r2, r2
 80036ec:	701a      	strb	r2, [r3, #0]

          /* Increment Buffer pointer */
          hi2c->pBuffPtr++;
 80036ee:	68fb      	ldr	r3, [r7, #12]
 80036f0:	6a5b      	ldr	r3, [r3, #36]	@ 0x24
 80036f2:	1c5a      	adds	r2, r3, #1
 80036f4:	68fb      	ldr	r3, [r7, #12]
 80036f6:	625a      	str	r2, [r3, #36]	@ 0x24

          /* Update counter */
          hi2c->XferSize--;
 80036f8:	68fb      	ldr	r3, [r7, #12]
 80036fa:	8d1b      	ldrh	r3, [r3, #40]	@ 0x28
 80036fc:	3b01      	subs	r3, #1
 80036fe:	b29a      	uxth	r2, r3
 8003700:	68fb      	ldr	r3, [r7, #12]
 8003702:	851a      	strh	r2, [r3, #40]	@ 0x28
          hi2c->XferCount--;
 8003704:	68fb      	ldr	r3, [r7, #12]
 8003706:	8d5b      	ldrh	r3, [r3, #42]	@ 0x2a
 8003708:	b29b      	uxth	r3, r3
 800370a:	3b01      	subs	r3, #1
 800370c:	b29a      	uxth	r2, r3
 800370e:	68fb      	ldr	r3, [r7, #12]
 8003710:	855a      	strh	r2, [r3, #42]	@ 0x2a

          /* Wait until BTF flag is set */
          if (I2C_WaitOnFlagUntilTimeout(hi2c, I2C_FLAG_BTF, RESET, Timeout, tickstart) != HAL_OK)
 8003712:	6a7b      	ldr	r3, [r7, #36]	@ 0x24
 8003714:	9300      	str	r3, [sp, #0]
 8003716:	6b3b      	ldr	r3, [r7, #48]	@ 0x30
 8003718:	2200      	movs	r2, #0
 800371a:	4955      	ldr	r1, [pc, #340]	@ (8003870 <HAL_I2C_Master_Receive+0x460>)
 800371c:	68f8      	ldr	r0, [r7, #12]
 800371e:	f000 f9f9 	bl	8003b14 <I2C_WaitOnFlagUntilTimeout>
 8003722:	4603      	mov	r3, r0
 8003724:	2b00      	cmp	r3, #0
 8003726:	d001      	beq.n	800372c <HAL_I2C_Master_Receive+0x31c>
          {
            return HAL_ERROR;
 8003728:	2301      	movs	r3, #1
 800372a:	e09d      	b.n	8003868 <HAL_I2C_Master_Receive+0x458>
          }

          /* Generate Stop */
          SET_BIT(hi2c->Instance->CR1, I2C_CR1_STOP);
 800372c:	68fb      	ldr	r3, [r7, #12]
 800372e:	681b      	ldr	r3, [r3, #0]
 8003730:	681a      	ldr	r2, [r3, #0]
 8003732:	68fb      	ldr	r3, [r7, #12]
 8003734:	681b      	ldr	r3, [r3, #0]
 8003736:	f442 7200 	orr.w	r2, r2, #512	@ 0x200
 800373a:	601a      	str	r2, [r3, #0]

          /* Read data from DR */
          *hi2c->pBuffPtr = (uint8_t)hi2c->Instance->DR;
 800373c:	68fb      	ldr	r3, [r7, #12]
 800373e:	681b      	ldr	r3, [r3, #0]
 8003740:	691a      	ldr	r2, [r3, #16]
 8003742:	68fb      	ldr	r3, [r7, #12]
 8003744:	6a5b      	ldr	r3, [r3, #36]	@ 0x24
 8003746:	b2d2      	uxtb	r2, r2
 8003748:	701a      	strb	r2, [r3, #0]

          /* Increment Buffer pointer */
          hi2c->pBuffPtr++;
 800374a:	68fb      	ldr	r3, [r7, #12]
 800374c:	6a5b      	ldr	r3, [r3, #36]	@ 0x24
 800374e:	1c5a      	adds	r2, r3, #1
 8003750:	68fb      	ldr	r3, [r7, #12]
 8003752:	625a      	str	r2, [r3, #36]	@ 0x24

          /* Update counter */
          hi2c->XferSize--;
 8003754:	68fb      	ldr	r3, [r7, #12]
 8003756:	8d1b      	ldrh	r3, [r3, #40]	@ 0x28
 8003758:	3b01      	subs	r3, #1
 800375a:	b29a      	uxth	r2, r3
 800375c:	68fb      	ldr	r3, [r7, #12]
 800375e:	851a      	strh	r2, [r3, #40]	@ 0x28
          hi2c->XferCount--;
 8003760:	68fb      	ldr	r3, [r7, #12]
 8003762:	8d5b      	ldrh	r3, [r3, #42]	@ 0x2a
 8003764:	b29b      	uxth	r3, r3
 8003766:	3b01      	subs	r3, #1
 8003768:	b29a      	uxth	r2, r3
 800376a:	68fb      	ldr	r3, [r7, #12]
 800376c:	855a      	strh	r2, [r3, #42]	@ 0x2a

          /* Read data from DR */
          *hi2c->pBuffPtr = (uint8_t)hi2c->Instance->DR;
 800376e:	68fb      	ldr	r3, [r7, #12]
 8003770:	681b      	ldr	r3, [r3, #0]
 8003772:	691a      	ldr	r2, [r3, #16]
 8003774:	68fb      	ldr	r3, [r7, #12]
 8003776:	6a5b      	ldr	r3, [r3, #36]	@ 0x24
 8003778:	b2d2      	uxtb	r2, r2
 800377a:	701a      	strb	r2, [r3, #0]

          /* Increment Buffer pointer */
          hi2c->pBuffPtr++;
 800377c:	68fb      	ldr	r3, [r7, #12]
 800377e:	6a5b      	ldr	r3, [r3, #36]	@ 0x24
 8003780:	1c5a      	adds	r2, r3, #1
 8003782:	68fb      	ldr	r3, [r7, #12]
 8003784:	625a      	str	r2, [r3, #36]	@ 0x24

          /* Update counter */
          hi2c->XferSize--;
 8003786:	68fb      	ldr	r3, [r7, #12]
 8003788:	8d1b      	ldrh	r3, [r3, #40]	@ 0x28
 800378a:	3b01      	subs	r3, #1
 800378c:	b29a      	uxth	r2, r3
 800378e:	68fb      	ldr	r3, [r7, #12]
 8003790:	851a      	strh	r2, [r3, #40]	@ 0x28
          hi2c->XferCount--;
 8003792:	68fb      	ldr	r3, [r7, #12]
 8003794:	8d5b      	ldrh	r3, [r3, #42]	@ 0x2a
 8003796:	b29b      	uxth	r3, r3
 8003798:	3b01      	subs	r3, #1
 800379a:	b29a      	uxth	r2, r3
 800379c:	68fb      	ldr	r3, [r7, #12]
 800379e:	855a      	strh	r2, [r3, #42]	@ 0x2a
 80037a0:	e04e      	b.n	8003840 <HAL_I2C_Master_Receive+0x430>
        }
      }
      else
      {
        /* Wait until RXNE flag is set */
        if (I2C_WaitOnRXNEFlagUntilTimeout(hi2c, Timeout, tickstart) != HAL_OK)
 80037a2:	6a7a      	ldr	r2, [r7, #36]	@ 0x24
 80037a4:	6b39      	ldr	r1, [r7, #48]	@ 0x30
 80037a6:	68f8      	ldr	r0, [r7, #12]
 80037a8:	f000 fb5e 	bl	8003e68 <I2C_WaitOnRXNEFlagUntilTimeout>
 80037ac:	4603      	mov	r3, r0
 80037ae:	2b00      	cmp	r3, #0
 80037b0:	d001      	beq.n	80037b6 <HAL_I2C_Master_Receive+0x3a6>
        {
          return HAL_ERROR;
 80037b2:	2301      	movs	r3, #1
 80037b4:	e058      	b.n	8003868 <HAL_I2C_Master_Receive+0x458>
        }

        /* Read data from DR */
        *hi2c->pBuffPtr = (uint8_t)hi2c->Instance->DR;
 80037b6:	68fb      	ldr	r3, [r7, #12]
 80037b8:	681b      	ldr	r3, [r3, #0]
 80037ba:	691a      	ldr	r2, [r3, #16]
 80037bc:	68fb      	ldr	r3, [r7, #12]
 80037be:	6a5b      	ldr	r3, [r3, #36]	@ 0x24
 80037c0:	b2d2      	uxtb	r2, r2
 80037c2:	701a      	strb	r2, [r3, #0]

        /* Increment Buffer pointer */
        hi2c->pBuffPtr++;
 80037c4:	68fb      	ldr	r3, [r7, #12]
 80037c6:	6a5b      	ldr	r3, [r3, #36]	@ 0x24
 80037c8:	1c5a      	adds	r2, r3, #1
 80037ca:	68fb      	ldr	r3, [r7, #12]
 80037cc:	625a      	str	r2, [r3, #36]	@ 0x24

        /* Update counter */
        hi2c->XferSize--;
 80037ce:	68fb      	ldr	r3, [r7, #12]
 80037d0:	8d1b      	ldrh	r3, [r3, #40]	@ 0x28
 80037d2:	3b01      	subs	r3, #1
 80037d4:	b29a      	uxth	r2, r3
 80037d6:	68fb      	ldr	r3, [r7, #12]
 80037d8:	851a      	strh	r2, [r3, #40]	@ 0x28
        hi2c->XferCount--;
 80037da:	68fb      	ldr	r3, [r7, #12]
 80037dc:	8d5b      	ldrh	r3, [r3, #42]	@ 0x2a
 80037de:	b29b      	uxth	r3, r3
 80037e0:	3b01      	subs	r3, #1
 80037e2:	b29a      	uxth	r2, r3
 80037e4:	68fb      	ldr	r3, [r7, #12]
 80037e6:	855a      	strh	r2, [r3, #42]	@ 0x2a

        if (__HAL_I2C_GET_FLAG(hi2c, I2C_FLAG_BTF) == SET)
 80037e8:	68fb      	ldr	r3, [r7, #12]
 80037ea:	681b      	ldr	r3, [r3, #0]
 80037ec:	695b      	ldr	r3, [r3, #20]
 80037ee:	f003 0304 	and.w	r3, r3, #4
 80037f2:	2b04      	cmp	r3, #4
 80037f4:	d124      	bne.n	8003840 <HAL_I2C_Master_Receive+0x430>
        {

          if (hi2c->XferSize == 3U)
 80037f6:	68fb      	ldr	r3, [r7, #12]
 80037f8:	8d1b      	ldrh	r3, [r3, #40]	@ 0x28
 80037fa:	2b03      	cmp	r3, #3
 80037fc:	d107      	bne.n	800380e <HAL_I2C_Master_Receive+0x3fe>
          {
            /* Disable Acknowledge */
            CLEAR_BIT(hi2c->Instance->CR1, I2C_CR1_ACK);
 80037fe:	68fb      	ldr	r3, [r7, #12]
 8003800:	681b      	ldr	r3, [r3, #0]
 8003802:	681a      	ldr	r2, [r3, #0]
 8003804:	68fb      	ldr	r3, [r7, #12]
 8003806:	681b      	ldr	r3, [r3, #0]
 8003808:	f422 6280 	bic.w	r2, r2, #1024	@ 0x400
 800380c:	601a      	str	r2, [r3, #0]
          }

          /* Read data from DR */
          *hi2c->pBuffPtr = (uint8_t)hi2c->Instance->DR;
 800380e:	68fb      	ldr	r3, [r7, #12]
 8003810:	681b      	ldr	r3, [r3, #0]
 8003812:	691a      	ldr	r2, [r3, #16]
 8003814:	68fb      	ldr	r3, [r7, #12]
 8003816:	6a5b      	ldr	r3, [r3, #36]	@ 0x24
 8003818:	b2d2      	uxtb	r2, r2
 800381a:	701a      	strb	r2, [r3, #0]

          /* Increment Buffer pointer */
          hi2c->pBuffPtr++;
 800381c:	68fb      	ldr	r3, [r7, #12]
 800381e:	6a5b      	ldr	r3, [r3, #36]	@ 0x24
 8003820:	1c5a      	adds	r2, r3, #1
 8003822:	68fb      	ldr	r3, [r7, #12]
 8003824:	625a      	str	r2, [r3, #36]	@ 0x24

          /* Update counter */
          hi2c->XferSize--;
 8003826:	68fb      	ldr	r3, [r7, #12]
 8003828:	8d1b      	ldrh	r3, [r3, #40]	@ 0x28
 800382a:	3b01      	subs	r3, #1
 800382c:	b29a      	uxth	r2, r3
 800382e:	68fb      	ldr	r3, [r7, #12]
 8003830:	851a      	strh	r2, [r3, #40]	@ 0x28
          hi2c->XferCount--;
 8003832:	68fb      	ldr	r3, [r7, #12]
 8003834:	8d5b      	ldrh	r3, [r3, #42]	@ 0x2a
 8003836:	b29b      	uxth	r3, r3
 8003838:	3b01      	subs	r3, #1
 800383a:	b29a      	uxth	r2, r3
 800383c:	68fb      	ldr	r3, [r7, #12]
 800383e:	855a      	strh	r2, [r3, #42]	@ 0x2a
    while (hi2c->XferSize > 0U)
 8003840:	68fb      	ldr	r3, [r7, #12]
 8003842:	8d1b      	ldrh	r3, [r3, #40]	@ 0x28
 8003844:	2b00      	cmp	r3, #0
 8003846:	f47f aeb6 	bne.w	80035b6 <HAL_I2C_Master_Receive+0x1a6>
        }
      }
    }

    hi2c->State = HAL_I2C_STATE_READY;
 800384a:	68fb      	ldr	r3, [r7, #12]
 800384c:	2220      	movs	r2, #32
 800384e:	f883 203d 	strb.w	r2, [r3, #61]	@ 0x3d
    hi2c->Mode = HAL_I2C_MODE_NONE;
 8003852:	68fb      	ldr	r3, [r7, #12]
 8003854:	2200      	movs	r2, #0
 8003856:	f883 203e 	strb.w	r2, [r3, #62]	@ 0x3e

    /* Process Unlocked */
    __HAL_UNLOCK(hi2c);
 800385a:	68fb      	ldr	r3, [r7, #12]
 800385c:	2200      	movs	r2, #0
 800385e:	f883 203c 	strb.w	r2, [r3, #60]	@ 0x3c

    return HAL_OK;
 8003862:	2300      	movs	r3, #0
 8003864:	e000      	b.n	8003868 <HAL_I2C_Master_Receive+0x458>
  }
  else
  {
    return HAL_BUSY;
 8003866:	2302      	movs	r3, #2
  }
}
 8003868:	4618      	mov	r0, r3
 800386a:	3728      	adds	r7, #40	@ 0x28
 800386c:	46bd      	mov	sp, r7
 800386e:	bd80      	pop	{r7, pc}
 8003870:	00010004 	.word	0x00010004

08003874 <I2C_MasterRequestWrite>:
  * @param  Timeout Timeout duration
  * @param  Tickstart Tick start value
  * @retval HAL status
  */
static HAL_StatusTypeDef I2C_MasterRequestWrite(I2C_HandleTypeDef *hi2c, uint16_t DevAddress, uint32_t Timeout, uint32_t Tickstart)
{
 8003874:	b580      	push	{r7, lr}
 8003876:	b088      	sub	sp, #32
 8003878:	af02      	add	r7, sp, #8
 800387a:	60f8      	str	r0, [r7, #12]
 800387c:	607a      	str	r2, [r7, #4]
 800387e:	603b      	str	r3, [r7, #0]
 8003880:	460b      	mov	r3, r1
 8003882:	817b      	strh	r3, [r7, #10]
  /* Declaration of temporary variable to prevent undefined behavior of volatile usage */
  uint32_t CurrentXferOptions = hi2c->XferOptions;
 8003884:	68fb      	ldr	r3, [r7, #12]
 8003886:	6adb      	ldr	r3, [r3, #44]	@ 0x2c
 8003888:	617b      	str	r3, [r7, #20]

  /* Generate Start condition if first transfer */
  if ((CurrentXferOptions == I2C_FIRST_AND_LAST_FRAME) || (CurrentXferOptions == I2C_FIRST_FRAME) || (CurrentXferOptions == I2C_NO_OPTION_FRAME))
 800388a:	697b      	ldr	r3, [r7, #20]
 800388c:	2b08      	cmp	r3, #8
 800388e:	d006      	beq.n	800389e <I2C_MasterRequestWrite+0x2a>
 8003890:	697b      	ldr	r3, [r7, #20]
 8003892:	2b01      	cmp	r3, #1
 8003894:	d003      	beq.n	800389e <I2C_MasterRequestWrite+0x2a>
 8003896:	697b      	ldr	r3, [r7, #20]
 8003898:	f513 3f80 	cmn.w	r3, #65536	@ 0x10000
 800389c:	d108      	bne.n	80038b0 <I2C_MasterRequestWrite+0x3c>
  {
    /* Generate Start */
    SET_BIT(hi2c->Instance->CR1, I2C_CR1_START);
 800389e:	68fb      	ldr	r3, [r7, #12]
 80038a0:	681b      	ldr	r3, [r3, #0]
 80038a2:	681a      	ldr	r2, [r3, #0]
 80038a4:	68fb      	ldr	r3, [r7, #12]
 80038a6:	681b      	ldr	r3, [r3, #0]
 80038a8:	f442 7280 	orr.w	r2, r2, #256	@ 0x100
 80038ac:	601a      	str	r2, [r3, #0]
 80038ae:	e00b      	b.n	80038c8 <I2C_MasterRequestWrite+0x54>
  }
  else if (hi2c->PreviousState == I2C_STATE_MASTER_BUSY_RX)
 80038b0:	68fb      	ldr	r3, [r7, #12]
 80038b2:	6b1b      	ldr	r3, [r3, #48]	@ 0x30
 80038b4:	2b12      	cmp	r3, #18
 80038b6:	d107      	bne.n	80038c8 <I2C_MasterRequestWrite+0x54>
  {
    /* Generate ReStart */
    SET_BIT(hi2c->Instance->CR1, I2C_CR1_START);
 80038b8:	68fb      	ldr	r3, [r7, #12]
 80038ba:	681b      	ldr	r3, [r3, #0]
 80038bc:	681a      	ldr	r2, [r3, #0]
 80038be:	68fb      	ldr	r3, [r7, #12]
 80038c0:	681b      	ldr	r3, [r3, #0]
 80038c2:	f442 7280 	orr.w	r2, r2, #256	@ 0x100
 80038c6:	601a      	str	r2, [r3, #0]
  {
    /* Do nothing */
  }

  /* Wait until SB flag is set */
  if (I2C_WaitOnFlagUntilTimeout(hi2c, I2C_FLAG_SB, RESET, Timeout, Tickstart) != HAL_OK)
 80038c8:	683b      	ldr	r3, [r7, #0]
 80038ca:	9300      	str	r3, [sp, #0]
 80038cc:	687b      	ldr	r3, [r7, #4]
 80038ce:	2200      	movs	r2, #0
 80038d0:	f04f 1101 	mov.w	r1, #65537	@ 0x10001
 80038d4:	68f8      	ldr	r0, [r7, #12]
 80038d6:	f000 f91d 	bl	8003b14 <I2C_WaitOnFlagUntilTimeout>
 80038da:	4603      	mov	r3, r0
 80038dc:	2b00      	cmp	r3, #0
 80038de:	d00d      	beq.n	80038fc <I2C_MasterRequestWrite+0x88>
  {
    if (READ_BIT(hi2c->Instance->CR1, I2C_CR1_START) == I2C_CR1_START)
 80038e0:	68fb      	ldr	r3, [r7, #12]
 80038e2:	681b      	ldr	r3, [r3, #0]
 80038e4:	681b      	ldr	r3, [r3, #0]
 80038e6:	f403 7380 	and.w	r3, r3, #256	@ 0x100
 80038ea:	f5b3 7f80 	cmp.w	r3, #256	@ 0x100
 80038ee:	d103      	bne.n	80038f8 <I2C_MasterRequestWrite+0x84>
    {
      hi2c->ErrorCode = HAL_I2C_WRONG_START;
 80038f0:	68fb      	ldr	r3, [r7, #12]
 80038f2:	f44f 7200 	mov.w	r2, #512	@ 0x200
 80038f6:	641a      	str	r2, [r3, #64]	@ 0x40
    }
    return HAL_TIMEOUT;
 80038f8:	2303      	movs	r3, #3
 80038fa:	e035      	b.n	8003968 <I2C_MasterRequestWrite+0xf4>
  }

  if (hi2c->Init.AddressingMode == I2C_ADDRESSINGMODE_7BIT)
 80038fc:	68fb      	ldr	r3, [r7, #12]
 80038fe:	691b      	ldr	r3, [r3, #16]
 8003900:	f5b3 4f80 	cmp.w	r3, #16384	@ 0x4000
 8003904:	d108      	bne.n	8003918 <I2C_MasterRequestWrite+0xa4>
  {
    /* Send slave address */
    hi2c->Instance->DR = I2C_7BIT_ADD_WRITE(DevAddress);
 8003906:	897b      	ldrh	r3, [r7, #10]
 8003908:	b2db      	uxtb	r3, r3
 800390a:	461a      	mov	r2, r3
 800390c:	68fb      	ldr	r3, [r7, #12]
 800390e:	681b      	ldr	r3, [r3, #0]
 8003910:	f002 02fe 	and.w	r2, r2, #254	@ 0xfe
 8003914:	611a      	str	r2, [r3, #16]
 8003916:	e01b      	b.n	8003950 <I2C_MasterRequestWrite+0xdc>
  }
  else
  {
    /* Send header of slave address */
    hi2c->Instance->DR = I2C_10BIT_HEADER_WRITE(DevAddress);
 8003918:	897b      	ldrh	r3, [r7, #10]
 800391a:	11db      	asrs	r3, r3, #7
 800391c:	b2db      	uxtb	r3, r3
 800391e:	f003 0306 	and.w	r3, r3, #6
 8003922:	b2db      	uxtb	r3, r3
 8003924:	f063 030f 	orn	r3, r3, #15
 8003928:	b2da      	uxtb	r2, r3
 800392a:	68fb      	ldr	r3, [r7, #12]
 800392c:	681b      	ldr	r3, [r3, #0]
 800392e:	611a      	str	r2, [r3, #16]

    /* Wait until ADD10 flag is set */
    if (I2C_WaitOnMasterAddressFlagUntilTimeout(hi2c, I2C_FLAG_ADD10, Timeout, Tickstart) != HAL_OK)
 8003930:	683b      	ldr	r3, [r7, #0]
 8003932:	687a      	ldr	r2, [r7, #4]
 8003934:	490e      	ldr	r1, [pc, #56]	@ (8003970 <I2C_MasterRequestWrite+0xfc>)
 8003936:	68f8      	ldr	r0, [r7, #12]
 8003938:	f000 f966 	bl	8003c08 <I2C_WaitOnMasterAddressFlagUntilTimeout>
 800393c:	4603      	mov	r3, r0
 800393e:	2b00      	cmp	r3, #0
 8003940:	d001      	beq.n	8003946 <I2C_MasterRequestWrite+0xd2>
    {
      return HAL_ERROR;
 8003942:	2301      	movs	r3, #1
 8003944:	e010      	b.n	8003968 <I2C_MasterRequestWrite+0xf4>
    }

    /* Send slave address */
    hi2c->Instance->DR = I2C_10BIT_ADDRESS(DevAddress);
 8003946:	897b      	ldrh	r3, [r7, #10]
 8003948:	b2da      	uxtb	r2, r3
 800394a:	68fb      	ldr	r3, [r7, #12]
 800394c:	681b      	ldr	r3, [r3, #0]
 800394e:	611a      	str	r2, [r3, #16]
  }

  /* Wait until ADDR flag is set */
  if (I2C_WaitOnMasterAddressFlagUntilTimeout(hi2c, I2C_FLAG_ADDR, Timeout, Tickstart) != HAL_OK)
 8003950:	683b      	ldr	r3, [r7, #0]
 8003952:	687a      	ldr	r2, [r7, #4]
 8003954:	4907      	ldr	r1, [pc, #28]	@ (8003974 <I2C_MasterRequestWrite+0x100>)
 8003956:	68f8      	ldr	r0, [r7, #12]
 8003958:	f000 f956 	bl	8003c08 <I2C_WaitOnMasterAddressFlagUntilTimeout>
 800395c:	4603      	mov	r3, r0
 800395e:	2b00      	cmp	r3, #0
 8003960:	d001      	beq.n	8003966 <I2C_MasterRequestWrite+0xf2>
  {
    return HAL_ERROR;
 8003962:	2301      	movs	r3, #1
 8003964:	e000      	b.n	8003968 <I2C_MasterRequestWrite+0xf4>
  }

  return HAL_OK;
 8003966:	2300      	movs	r3, #0
}
 8003968:	4618      	mov	r0, r3
 800396a:	3718      	adds	r7, #24
 800396c:	46bd      	mov	sp, r7
 800396e:	bd80      	pop	{r7, pc}
 8003970:	00010008 	.word	0x00010008
 8003974:	00010002 	.word	0x00010002

08003978 <I2C_MasterRequestRead>:
  * @param  Timeout Timeout duration
  * @param  Tickstart Tick start value
  * @retval HAL status
  */
static HAL_StatusTypeDef I2C_MasterRequestRead(I2C_HandleTypeDef *hi2c, uint16_t DevAddress, uint32_t Timeout, uint32_t Tickstart)
{
 8003978:	b580      	push	{r7, lr}
 800397a:	b088      	sub	sp, #32
 800397c:	af02      	add	r7, sp, #8
 800397e:	60f8      	str	r0, [r7, #12]
 8003980:	607a      	str	r2, [r7, #4]
 8003982:	603b      	str	r3, [r7, #0]
 8003984:	460b      	mov	r3, r1
 8003986:	817b      	strh	r3, [r7, #10]
  /* Declaration of temporary variable to prevent undefined behavior of volatile usage */
  uint32_t CurrentXferOptions = hi2c->XferOptions;
 8003988:	68fb      	ldr	r3, [r7, #12]
 800398a:	6adb      	ldr	r3, [r3, #44]	@ 0x2c
 800398c:	617b      	str	r3, [r7, #20]

  /* Enable Acknowledge */
  SET_BIT(hi2c->Instance->CR1, I2C_CR1_ACK);
 800398e:	68fb      	ldr	r3, [r7, #12]
 8003990:	681b      	ldr	r3, [r3, #0]
 8003992:	681a      	ldr	r2, [r3, #0]
 8003994:	68fb      	ldr	r3, [r7, #12]
 8003996:	681b      	ldr	r3, [r3, #0]
 8003998:	f442 6280 	orr.w	r2, r2, #1024	@ 0x400
 800399c:	601a      	str	r2, [r3, #0]

  /* Generate Start condition if first transfer */
  if ((CurrentXferOptions == I2C_FIRST_AND_LAST_FRAME) || (CurrentXferOptions == I2C_FIRST_FRAME)  || (CurrentXferOptions == I2C_NO_OPTION_FRAME))
 800399e:	697b      	ldr	r3, [r7, #20]
 80039a0:	2b08      	cmp	r3, #8
 80039a2:	d006      	beq.n	80039b2 <I2C_MasterRequestRead+0x3a>
 80039a4:	697b      	ldr	r3, [r7, #20]
 80039a6:	2b01      	cmp	r3, #1
 80039a8:	d003      	beq.n	80039b2 <I2C_MasterRequestRead+0x3a>
 80039aa:	697b      	ldr	r3, [r7, #20]
 80039ac:	f513 3f80 	cmn.w	r3, #65536	@ 0x10000
 80039b0:	d108      	bne.n	80039c4 <I2C_MasterRequestRead+0x4c>
  {
    /* Generate Start */
    SET_BIT(hi2c->Instance->CR1, I2C_CR1_START);
 80039b2:	68fb      	ldr	r3, [r7, #12]
 80039b4:	681b      	ldr	r3, [r3, #0]
 80039b6:	681a      	ldr	r2, [r3, #0]
 80039b8:	68fb      	ldr	r3, [r7, #12]
 80039ba:	681b      	ldr	r3, [r3, #0]
 80039bc:	f442 7280 	orr.w	r2, r2, #256	@ 0x100
 80039c0:	601a      	str	r2, [r3, #0]
 80039c2:	e00b      	b.n	80039dc <I2C_MasterRequestRead+0x64>
  }
  else if (hi2c->PreviousState == I2C_STATE_MASTER_BUSY_TX)
 80039c4:	68fb      	ldr	r3, [r7, #12]
 80039c6:	6b1b      	ldr	r3, [r3, #48]	@ 0x30
 80039c8:	2b11      	cmp	r3, #17
 80039ca:	d107      	bne.n	80039dc <I2C_MasterRequestRead+0x64>
  {
    /* Generate ReStart */
    SET_BIT(hi2c->Instance->CR1, I2C_CR1_START);
 80039cc:	68fb      	ldr	r3, [r7, #12]
 80039ce:	681b      	ldr	r3, [r3, #0]
 80039d0:	681a      	ldr	r2, [r3, #0]
 80039d2:	68fb      	ldr	r3, [r7, #12]
 80039d4:	681b      	ldr	r3, [r3, #0]
 80039d6:	f442 7280 	orr.w	r2, r2, #256	@ 0x100
 80039da:	601a      	str	r2, [r3, #0]
  {
    /* Do nothing */
  }

  /* Wait until SB flag is set */
  if (I2C_WaitOnFlagUntilTimeout(hi2c, I2C_FLAG_SB, RESET, Timeout, Tickstart) != HAL_OK)
 80039dc:	683b      	ldr	r3, [r7, #0]
 80039de:	9300      	str	r3, [sp, #0]
 80039e0:	687b      	ldr	r3, [r7, #4]
 80039e2:	2200      	movs	r2, #0
 80039e4:	f04f 1101 	mov.w	r1, #65537	@ 0x10001
 80039e8:	68f8      	ldr	r0, [r7, #12]
 80039ea:	f000 f893 	bl	8003b14 <I2C_WaitOnFlagUntilTimeout>
 80039ee:	4603      	mov	r3, r0
 80039f0:	2b00      	cmp	r3, #0
 80039f2:	d00d      	beq.n	8003a10 <I2C_MasterRequestRead+0x98>
  {
    if (READ_BIT(hi2c->Instance->CR1, I2C_CR1_START) == I2C_CR1_START)
 80039f4:	68fb      	ldr	r3, [r7, #12]
 80039f6:	681b      	ldr	r3, [r3, #0]
 80039f8:	681b      	ldr	r3, [r3, #0]
 80039fa:	f403 7380 	and.w	r3, r3, #256	@ 0x100
 80039fe:	f5b3 7f80 	cmp.w	r3, #256	@ 0x100
 8003a02:	d103      	bne.n	8003a0c <I2C_MasterRequestRead+0x94>
    {
      hi2c->ErrorCode = HAL_I2C_WRONG_START;
 8003a04:	68fb      	ldr	r3, [r7, #12]
 8003a06:	f44f 7200 	mov.w	r2, #512	@ 0x200
 8003a0a:	641a      	str	r2, [r3, #64]	@ 0x40
    }
    return HAL_TIMEOUT;
 8003a0c:	2303      	movs	r3, #3
 8003a0e:	e079      	b.n	8003b04 <I2C_MasterRequestRead+0x18c>
  }

  if (hi2c->Init.AddressingMode == I2C_ADDRESSINGMODE_7BIT)
 8003a10:	68fb      	ldr	r3, [r7, #12]
 8003a12:	691b      	ldr	r3, [r3, #16]
 8003a14:	f5b3 4f80 	cmp.w	r3, #16384	@ 0x4000
 8003a18:	d108      	bne.n	8003a2c <I2C_MasterRequestRead+0xb4>
  {
    /* Send slave address */
    hi2c->Instance->DR = I2C_7BIT_ADD_READ(DevAddress);
 8003a1a:	897b      	ldrh	r3, [r7, #10]
 8003a1c:	b2db      	uxtb	r3, r3
 8003a1e:	f043 0301 	orr.w	r3, r3, #1
 8003a22:	b2da      	uxtb	r2, r3
 8003a24:	68fb      	ldr	r3, [r7, #12]
 8003a26:	681b      	ldr	r3, [r3, #0]
 8003a28:	611a      	str	r2, [r3, #16]
 8003a2a:	e05f      	b.n	8003aec <I2C_MasterRequestRead+0x174>
  }
  else
  {
    /* Send header of slave address */
    hi2c->Instance->DR = I2C_10BIT_HEADER_WRITE(DevAddress);
 8003a2c:	897b      	ldrh	r3, [r7, #10]
 8003a2e:	11db      	asrs	r3, r3, #7
 8003a30:	b2db      	uxtb	r3, r3
 8003a32:	f003 0306 	and.w	r3, r3, #6
 8003a36:	b2db      	uxtb	r3, r3
 8003a38:	f063 030f 	orn	r3, r3, #15
 8003a3c:	b2da      	uxtb	r2, r3
 8003a3e:	68fb      	ldr	r3, [r7, #12]
 8003a40:	681b      	ldr	r3, [r3, #0]
 8003a42:	611a      	str	r2, [r3, #16]

    /* Wait until ADD10 flag is set */
    if (I2C_WaitOnMasterAddressFlagUntilTimeout(hi2c, I2C_FLAG_ADD10, Timeout, Tickstart) != HAL_OK)
 8003a44:	683b      	ldr	r3, [r7, #0]
 8003a46:	687a      	ldr	r2, [r7, #4]
 8003a48:	4930      	ldr	r1, [pc, #192]	@ (8003b0c <I2C_MasterRequestRead+0x194>)
 8003a4a:	68f8      	ldr	r0, [r7, #12]
 8003a4c:	f000 f8dc 	bl	8003c08 <I2C_WaitOnMasterAddressFlagUntilTimeout>
 8003a50:	4603      	mov	r3, r0
 8003a52:	2b00      	cmp	r3, #0
 8003a54:	d001      	beq.n	8003a5a <I2C_MasterRequestRead+0xe2>
    {
      return HAL_ERROR;
 8003a56:	2301      	movs	r3, #1
 8003a58:	e054      	b.n	8003b04 <I2C_MasterRequestRead+0x18c>
    }

    /* Send slave address */
    hi2c->Instance->DR = I2C_10BIT_ADDRESS(DevAddress);
 8003a5a:	897b      	ldrh	r3, [r7, #10]
 8003a5c:	b2da      	uxtb	r2, r3
 8003a5e:	68fb      	ldr	r3, [r7, #12]
 8003a60:	681b      	ldr	r3, [r3, #0]
 8003a62:	611a      	str	r2, [r3, #16]

    /* Wait until ADDR flag is set */
    if (I2C_WaitOnMasterAddressFlagUntilTimeout(hi2c, I2C_FLAG_ADDR, Timeout, Tickstart) != HAL_OK)
 8003a64:	683b      	ldr	r3, [r7, #0]
 8003a66:	687a      	ldr	r2, [r7, #4]
 8003a68:	4929      	ldr	r1, [pc, #164]	@ (8003b10 <I2C_MasterRequestRead+0x198>)
 8003a6a:	68f8      	ldr	r0, [r7, #12]
 8003a6c:	f000 f8cc 	bl	8003c08 <I2C_WaitOnMasterAddressFlagUntilTimeout>
 8003a70:	4603      	mov	r3, r0
 8003a72:	2b00      	cmp	r3, #0
 8003a74:	d001      	beq.n	8003a7a <I2C_MasterRequestRead+0x102>
    {
      return HAL_ERROR;
 8003a76:	2301      	movs	r3, #1
 8003a78:	e044      	b.n	8003b04 <I2C_MasterRequestRead+0x18c>
    }

    /* Clear ADDR flag */
    __HAL_I2C_CLEAR_ADDRFLAG(hi2c);
 8003a7a:	2300      	movs	r3, #0
 8003a7c:	613b      	str	r3, [r7, #16]
 8003a7e:	68fb      	ldr	r3, [r7, #12]
 8003a80:	681b      	ldr	r3, [r3, #0]
 8003a82:	695b      	ldr	r3, [r3, #20]
 8003a84:	613b      	str	r3, [r7, #16]
 8003a86:	68fb      	ldr	r3, [r7, #12]
 8003a88:	681b      	ldr	r3, [r3, #0]
 8003a8a:	699b      	ldr	r3, [r3, #24]
 8003a8c:	613b      	str	r3, [r7, #16]
 8003a8e:	693b      	ldr	r3, [r7, #16]

    /* Generate Restart */
    SET_BIT(hi2c->Instance->CR1, I2C_CR1_START);
 8003a90:	68fb      	ldr	r3, [r7, #12]
 8003a92:	681b      	ldr	r3, [r3, #0]
 8003a94:	681a      	ldr	r2, [r3, #0]
 8003a96:	68fb      	ldr	r3, [r7, #12]
 8003a98:	681b      	ldr	r3, [r3, #0]
 8003a9a:	f442 7280 	orr.w	r2, r2, #256	@ 0x100
 8003a9e:	601a      	str	r2, [r3, #0]

    /* Wait until SB flag is set */
    if (I2C_WaitOnFlagUntilTimeout(hi2c, I2C_FLAG_SB, RESET, Timeout, Tickstart) != HAL_OK)
 8003aa0:	683b      	ldr	r3, [r7, #0]
 8003aa2:	9300      	str	r3, [sp, #0]
 8003aa4:	687b      	ldr	r3, [r7, #4]
 8003aa6:	2200      	movs	r2, #0
 8003aa8:	f04f 1101 	mov.w	r1, #65537	@ 0x10001
 8003aac:	68f8      	ldr	r0, [r7, #12]
 8003aae:	f000 f831 	bl	8003b14 <I2C_WaitOnFlagUntilTimeout>
 8003ab2:	4603      	mov	r3, r0
 8003ab4:	2b00      	cmp	r3, #0
 8003ab6:	d00d      	beq.n	8003ad4 <I2C_MasterRequestRead+0x15c>
    {
      if (READ_BIT(hi2c->Instance->CR1, I2C_CR1_START) == I2C_CR1_START)
 8003ab8:	68fb      	ldr	r3, [r7, #12]
 8003aba:	681b      	ldr	r3, [r3, #0]
 8003abc:	681b      	ldr	r3, [r3, #0]
 8003abe:	f403 7380 	and.w	r3, r3, #256	@ 0x100
 8003ac2:	f5b3 7f80 	cmp.w	r3, #256	@ 0x100
 8003ac6:	d103      	bne.n	8003ad0 <I2C_MasterRequestRead+0x158>
      {
        hi2c->ErrorCode = HAL_I2C_WRONG_START;
 8003ac8:	68fb      	ldr	r3, [r7, #12]
 8003aca:	f44f 7200 	mov.w	r2, #512	@ 0x200
 8003ace:	641a      	str	r2, [r3, #64]	@ 0x40
      }
      return HAL_TIMEOUT;
 8003ad0:	2303      	movs	r3, #3
 8003ad2:	e017      	b.n	8003b04 <I2C_MasterRequestRead+0x18c>
    }

    /* Send header of slave address */
    hi2c->Instance->DR = I2C_10BIT_HEADER_READ(DevAddress);
 8003ad4:	897b      	ldrh	r3, [r7, #10]
 8003ad6:	11db      	asrs	r3, r3, #7
 8003ad8:	b2db      	uxtb	r3, r3
 8003ada:	f003 0306 	and.w	r3, r3, #6
 8003ade:	b2db      	uxtb	r3, r3
 8003ae0:	f063 030e 	orn	r3, r3, #14
 8003ae4:	b2da      	uxtb	r2, r3
 8003ae6:	68fb      	ldr	r3, [r7, #12]
 8003ae8:	681b      	ldr	r3, [r3, #0]
 8003aea:	611a      	str	r2, [r3, #16]
  }

  /* Wait until ADDR flag is set */
  if (I2C_WaitOnMasterAddressFlagUntilTimeout(hi2c, I2C_FLAG_ADDR, Timeout, Tickstart) != HAL_OK)
 8003aec:	683b      	ldr	r3, [r7, #0]
 8003aee:	687a      	ldr	r2, [r7, #4]
 8003af0:	4907      	ldr	r1, [pc, #28]	@ (8003b10 <I2C_MasterRequestRead+0x198>)
 8003af2:	68f8      	ldr	r0, [r7, #12]
 8003af4:	f000 f888 	bl	8003c08 <I2C_WaitOnMasterAddressFlagUntilTimeout>
 8003af8:	4603      	mov	r3, r0
 8003afa:	2b00      	cmp	r3, #0
 8003afc:	d001      	beq.n	8003b02 <I2C_MasterRequestRead+0x18a>
  {
    return HAL_ERROR;
 8003afe:	2301      	movs	r3, #1
 8003b00:	e000      	b.n	8003b04 <I2C_MasterRequestRead+0x18c>
  }

  return HAL_OK;
 8003b02:	2300      	movs	r3, #0
}
 8003b04:	4618      	mov	r0, r3
 8003b06:	3718      	adds	r7, #24
 8003b08:	46bd      	mov	sp, r7
 8003b0a:	bd80      	pop	{r7, pc}
 8003b0c:	00010008 	.word	0x00010008
 8003b10:	00010002 	.word	0x00010002

08003b14 <I2C_WaitOnFlagUntilTimeout>:
  * @param  Timeout Timeout duration
  * @param  Tickstart Tick start value
  * @retval HAL status
  */
static HAL_StatusTypeDef I2C_WaitOnFlagUntilTimeout(I2C_HandleTypeDef *hi2c, uint32_t Flag, FlagStatus Status, uint32_t Timeout, uint32_t Tickstart)
{
 8003b14:	b580      	push	{r7, lr}
 8003b16:	b084      	sub	sp, #16
 8003b18:	af00      	add	r7, sp, #0
 8003b1a:	60f8      	str	r0, [r7, #12]
 8003b1c:	60b9      	str	r1, [r7, #8]
 8003b1e:	603b      	str	r3, [r7, #0]
 8003b20:	4613      	mov	r3, r2
 8003b22:	71fb      	strb	r3, [r7, #7]
  /* Wait until flag is set */
  while (__HAL_I2C_GET_FLAG(hi2c, Flag) == Status)
 8003b24:	e048      	b.n	8003bb8 <I2C_WaitOnFlagUntilTimeout+0xa4>
  {
    /* Check for the Timeout */
    if (Timeout != HAL_MAX_DELAY)
 8003b26:	683b      	ldr	r3, [r7, #0]
 8003b28:	f1b3 3fff 	cmp.w	r3, #4294967295	@ 0xffffffff
 8003b2c:	d044      	beq.n	8003bb8 <I2C_WaitOnFlagUntilTimeout+0xa4>
    {
      if (((HAL_GetTick() - Tickstart) > Timeout) || (Timeout == 0U))
 8003b2e:	f7fe fadd 	bl	80020ec <HAL_GetTick>
 8003b32:	4602      	mov	r2, r0
 8003b34:	69bb      	ldr	r3, [r7, #24]
 8003b36:	1ad3      	subs	r3, r2, r3
 8003b38:	683a      	ldr	r2, [r7, #0]
 8003b3a:	429a      	cmp	r2, r3
 8003b3c:	d302      	bcc.n	8003b44 <I2C_WaitOnFlagUntilTimeout+0x30>
 8003b3e:	683b      	ldr	r3, [r7, #0]
 8003b40:	2b00      	cmp	r3, #0
 8003b42:	d139      	bne.n	8003bb8 <I2C_WaitOnFlagUntilTimeout+0xa4>
      {
        if ((__HAL_I2C_GET_FLAG(hi2c, Flag) == Status))
 8003b44:	68bb      	ldr	r3, [r7, #8]
 8003b46:	0c1b      	lsrs	r3, r3, #16
 8003b48:	b2db      	uxtb	r3, r3
 8003b4a:	2b01      	cmp	r3, #1
 8003b4c:	d10d      	bne.n	8003b6a <I2C_WaitOnFlagUntilTimeout+0x56>
 8003b4e:	68fb      	ldr	r3, [r7, #12]
 8003b50:	681b      	ldr	r3, [r3, #0]
 8003b52:	695b      	ldr	r3, [r3, #20]
 8003b54:	43da      	mvns	r2, r3
 8003b56:	68bb      	ldr	r3, [r7, #8]
 8003b58:	4013      	ands	r3, r2
 8003b5a:	b29b      	uxth	r3, r3
 8003b5c:	2b00      	cmp	r3, #0
 8003b5e:	bf0c      	ite	eq
 8003b60:	2301      	moveq	r3, #1
 8003b62:	2300      	movne	r3, #0
 8003b64:	b2db      	uxtb	r3, r3
 8003b66:	461a      	mov	r2, r3
 8003b68:	e00c      	b.n	8003b84 <I2C_WaitOnFlagUntilTimeout+0x70>
 8003b6a:	68fb      	ldr	r3, [r7, #12]
 8003b6c:	681b      	ldr	r3, [r3, #0]
 8003b6e:	699b      	ldr	r3, [r3, #24]
 8003b70:	43da      	mvns	r2, r3
 8003b72:	68bb      	ldr	r3, [r7, #8]
 8003b74:	4013      	ands	r3, r2
 8003b76:	b29b      	uxth	r3, r3
 8003b78:	2b00      	cmp	r3, #0
 8003b7a:	bf0c      	ite	eq
 8003b7c:	2301      	moveq	r3, #1
 8003b7e:	2300      	movne	r3, #0
 8003b80:	b2db      	uxtb	r3, r3
 8003b82:	461a      	mov	r2, r3
 8003b84:	79fb      	ldrb	r3, [r7, #7]
 8003b86:	429a      	cmp	r2, r3
 8003b88:	d116      	bne.n	8003bb8 <I2C_WaitOnFlagUntilTimeout+0xa4>
        {
          hi2c->PreviousState     = I2C_STATE_NONE;
 8003b8a:	68fb      	ldr	r3, [r7, #12]
 8003b8c:	2200      	movs	r2, #0
 8003b8e:	631a      	str	r2, [r3, #48]	@ 0x30
          hi2c->State             = HAL_I2C_STATE_READY;
 8003b90:	68fb      	ldr	r3, [r7, #12]
 8003b92:	2220      	movs	r2, #32
 8003b94:	f883 203d 	strb.w	r2, [r3, #61]	@ 0x3d
          hi2c->Mode              = HAL_I2C_MODE_NONE;
 8003b98:	68fb      	ldr	r3, [r7, #12]
 8003b9a:	2200      	movs	r2, #0
 8003b9c:	f883 203e 	strb.w	r2, [r3, #62]	@ 0x3e
          hi2c->ErrorCode         |= HAL_I2C_ERROR_TIMEOUT;
 8003ba0:	68fb      	ldr	r3, [r7, #12]
 8003ba2:	6c1b      	ldr	r3, [r3, #64]	@ 0x40
 8003ba4:	f043 0220 	orr.w	r2, r3, #32
 8003ba8:	68fb      	ldr	r3, [r7, #12]
 8003baa:	641a      	str	r2, [r3, #64]	@ 0x40

          /* Process Unlocked */
          __HAL_UNLOCK(hi2c);
 8003bac:	68fb      	ldr	r3, [r7, #12]
 8003bae:	2200      	movs	r2, #0
 8003bb0:	f883 203c 	strb.w	r2, [r3, #60]	@ 0x3c

          return HAL_ERROR;
 8003bb4:	2301      	movs	r3, #1
 8003bb6:	e023      	b.n	8003c00 <I2C_WaitOnFlagUntilTimeout+0xec>
  while (__HAL_I2C_GET_FLAG(hi2c, Flag) == Status)
 8003bb8:	68bb      	ldr	r3, [r7, #8]
 8003bba:	0c1b      	lsrs	r3, r3, #16
 8003bbc:	b2db      	uxtb	r3, r3
 8003bbe:	2b01      	cmp	r3, #1
 8003bc0:	d10d      	bne.n	8003bde <I2C_WaitOnFlagUntilTimeout+0xca>
 8003bc2:	68fb      	ldr	r3, [r7, #12]
 8003bc4:	681b      	ldr	r3, [r3, #0]
 8003bc6:	695b      	ldr	r3, [r3, #20]
 8003bc8:	43da      	mvns	r2, r3
 8003bca:	68bb      	ldr	r3, [r7, #8]
 8003bcc:	4013      	ands	r3, r2
 8003bce:	b29b      	uxth	r3, r3
 8003bd0:	2b00      	cmp	r3, #0
 8003bd2:	bf0c      	ite	eq
 8003bd4:	2301      	moveq	r3, #1
 8003bd6:	2300      	movne	r3, #0
 8003bd8:	b2db      	uxtb	r3, r3
 8003bda:	461a      	mov	r2, r3
 8003bdc:	e00c      	b.n	8003bf8 <I2C_WaitOnFlagUntilTimeout+0xe4>
 8003bde:	68fb      	ldr	r3, [r7, #12]
 8003be0:	681b      	ldr	r3, [r3, #0]
 8003be2:	699b      	ldr	r3, [r3, #24]
 8003be4:	43da      	mvns	r2, r3
 8003be6:	68bb      	ldr	r3, [r7, #8]
 8003be8:	4013      	ands	r3, r2
 8003bea:	b29b      	uxth	r3, r3
 8003bec:	2b00      	cmp	r3, #0
 8003bee:	bf0c      	ite	eq
 8003bf0:	2301      	moveq	r3, #1
 8003bf2:	2300      	movne	r3, #0
 8003bf4:	b2db      	uxtb	r3, r3
 8003bf6:	461a      	mov	r2, r3
 8003bf8:	79fb      	ldrb	r3, [r7, #7]
 8003bfa:	429a      	cmp	r2, r3
 8003bfc:	d093      	beq.n	8003b26 <I2C_WaitOnFlagUntilTimeout+0x12>
        }
      }
    }
  }
  return HAL_OK;
 8003bfe:	2300      	movs	r3, #0
}
 8003c00:	4618      	mov	r0, r3
 8003c02:	3710      	adds	r7, #16
 8003c04:	46bd      	mov	sp, r7
 8003c06:	bd80      	pop	{r7, pc}

08003c08 <I2C_WaitOnMasterAddressFlagUntilTimeout>:
  * @param  Timeout Timeout duration
  * @param  Tickstart Tick start value
  * @retval HAL status
  */
static HAL_StatusTypeDef I2C_WaitOnMasterAddressFlagUntilTimeout(I2C_HandleTypeDef *hi2c, uint32_t Flag, uint32_t Timeout, uint32_t Tickstart)
{
 8003c08:	b580      	push	{r7, lr}
 8003c0a:	b084      	sub	sp, #16
 8003c0c:	af00      	add	r7, sp, #0
 8003c0e:	60f8      	str	r0, [r7, #12]
 8003c10:	60b9      	str	r1, [r7, #8]
 8003c12:	607a      	str	r2, [r7, #4]
 8003c14:	603b      	str	r3, [r7, #0]
  while (__HAL_I2C_GET_FLAG(hi2c, Flag) == RESET)
 8003c16:	e071      	b.n	8003cfc <I2C_WaitOnMasterAddressFlagUntilTimeout+0xf4>
  {
    if (__HAL_I2C_GET_FLAG(hi2c, I2C_FLAG_AF) == SET)
 8003c18:	68fb      	ldr	r3, [r7, #12]
 8003c1a:	681b      	ldr	r3, [r3, #0]
 8003c1c:	695b      	ldr	r3, [r3, #20]
 8003c1e:	f403 6380 	and.w	r3, r3, #1024	@ 0x400
 8003c22:	f5b3 6f80 	cmp.w	r3, #1024	@ 0x400
 8003c26:	d123      	bne.n	8003c70 <I2C_WaitOnMasterAddressFlagUntilTimeout+0x68>
    {
      /* Generate Stop */
      SET_BIT(hi2c->Instance->CR1, I2C_CR1_STOP);
 8003c28:	68fb      	ldr	r3, [r7, #12]
 8003c2a:	681b      	ldr	r3, [r3, #0]
 8003c2c:	681a      	ldr	r2, [r3, #0]
 8003c2e:	68fb      	ldr	r3, [r7, #12]
 8003c30:	681b      	ldr	r3, [r3, #0]
 8003c32:	f442 7200 	orr.w	r2, r2, #512	@ 0x200
 8003c36:	601a      	str	r2, [r3, #0]

      /* Clear AF Flag */
      __HAL_I2C_CLEAR_FLAG(hi2c, I2C_FLAG_AF);
 8003c38:	68fb      	ldr	r3, [r7, #12]
 8003c3a:	681b      	ldr	r3, [r3, #0]
 8003c3c:	f46f 6280 	mvn.w	r2, #1024	@ 0x400
 8003c40:	615a      	str	r2, [r3, #20]

      hi2c->PreviousState       = I2C_STATE_NONE;
 8003c42:	68fb      	ldr	r3, [r7, #12]
 8003c44:	2200      	movs	r2, #0
 8003c46:	631a      	str	r2, [r3, #48]	@ 0x30
      hi2c->State               = HAL_I2C_STATE_READY;
 8003c48:	68fb      	ldr	r3, [r7, #12]
 8003c4a:	2220      	movs	r2, #32
 8003c4c:	f883 203d 	strb.w	r2, [r3, #61]	@ 0x3d
      hi2c->Mode                = HAL_I2C_MODE_NONE;
 8003c50:	68fb      	ldr	r3, [r7, #12]
 8003c52:	2200      	movs	r2, #0
 8003c54:	f883 203e 	strb.w	r2, [r3, #62]	@ 0x3e
      hi2c->ErrorCode           |= HAL_I2C_ERROR_AF;
 8003c58:	68fb      	ldr	r3, [r7, #12]
 8003c5a:	6c1b      	ldr	r3, [r3, #64]	@ 0x40
 8003c5c:	f043 0204 	orr.w	r2, r3, #4
 8003c60:	68fb      	ldr	r3, [r7, #12]
 8003c62:	641a      	str	r2, [r3, #64]	@ 0x40

      /* Process Unlocked */
      __HAL_UNLOCK(hi2c);
 8003c64:	68fb      	ldr	r3, [r7, #12]
 8003c66:	2200      	movs	r2, #0
 8003c68:	f883 203c 	strb.w	r2, [r3, #60]	@ 0x3c

      return HAL_ERROR;
 8003c6c:	2301      	movs	r3, #1
 8003c6e:	e067      	b.n	8003d40 <I2C_WaitOnMasterAddressFlagUntilTimeout+0x138>
    }

    /* Check for the Timeout */
    if (Timeout != HAL_MAX_DELAY)
 8003c70:	687b      	ldr	r3, [r7, #4]
 8003c72:	f1b3 3fff 	cmp.w	r3, #4294967295	@ 0xffffffff
 8003c76:	d041      	beq.n	8003cfc <I2C_WaitOnMasterAddressFlagUntilTimeout+0xf4>
    {
      if (((HAL_GetTick() - Tickstart) > Timeout) || (Timeout == 0U))
 8003c78:	f7fe fa38 	bl	80020ec <HAL_GetTick>
 8003c7c:	4602      	mov	r2, r0
 8003c7e:	683b      	ldr	r3, [r7, #0]
 8003c80:	1ad3      	subs	r3, r2, r3
 8003c82:	687a      	ldr	r2, [r7, #4]
 8003c84:	429a      	cmp	r2, r3
 8003c86:	d302      	bcc.n	8003c8e <I2C_WaitOnMasterAddressFlagUntilTimeout+0x86>
 8003c88:	687b      	ldr	r3, [r7, #4]
 8003c8a:	2b00      	cmp	r3, #0
 8003c8c:	d136      	bne.n	8003cfc <I2C_WaitOnMasterAddressFlagUntilTimeout+0xf4>
      {
        if ((__HAL_I2C_GET_FLAG(hi2c, Flag) == RESET))
 8003c8e:	68bb      	ldr	r3, [r7, #8]
 8003c90:	0c1b      	lsrs	r3, r3, #16
 8003c92:	b2db      	uxtb	r3, r3
 8003c94:	2b01      	cmp	r3, #1
 8003c96:	d10c      	bne.n	8003cb2 <I2C_WaitOnMasterAddressFlagUntilTimeout+0xaa>
 8003c98:	68fb      	ldr	r3, [r7, #12]
 8003c9a:	681b      	ldr	r3, [r3, #0]
 8003c9c:	695b      	ldr	r3, [r3, #20]
 8003c9e:	43da      	mvns	r2, r3
 8003ca0:	68bb      	ldr	r3, [r7, #8]
 8003ca2:	4013      	ands	r3, r2
 8003ca4:	b29b      	uxth	r3, r3
 8003ca6:	2b00      	cmp	r3, #0
 8003ca8:	bf14      	ite	ne
 8003caa:	2301      	movne	r3, #1
 8003cac:	2300      	moveq	r3, #0
 8003cae:	b2db      	uxtb	r3, r3
 8003cb0:	e00b      	b.n	8003cca <I2C_WaitOnMasterAddressFlagUntilTimeout+0xc2>
 8003cb2:	68fb      	ldr	r3, [r7, #12]
 8003cb4:	681b      	ldr	r3, [r3, #0]
 8003cb6:	699b      	ldr	r3, [r3, #24]
 8003cb8:	43da      	mvns	r2, r3
 8003cba:	68bb      	ldr	r3, [r7, #8]
 8003cbc:	4013      	ands	r3, r2
 8003cbe:	b29b      	uxth	r3, r3
 8003cc0:	2b00      	cmp	r3, #0
 8003cc2:	bf14      	ite	ne
 8003cc4:	2301      	movne	r3, #1
 8003cc6:	2300      	moveq	r3, #0
 8003cc8:	b2db      	uxtb	r3, r3
 8003cca:	2b00      	cmp	r3, #0
 8003ccc:	d016      	beq.n	8003cfc <I2C_WaitOnMasterAddressFlagUntilTimeout+0xf4>
        {
          hi2c->PreviousState       = I2C_STATE_NONE;
 8003cce:	68fb      	ldr	r3, [r7, #12]
 8003cd0:	2200      	movs	r2, #0
 8003cd2:	631a      	str	r2, [r3, #48]	@ 0x30
          hi2c->State               = HAL_I2C_STATE_READY;
 8003cd4:	68fb      	ldr	r3, [r7, #12]
 8003cd6:	2220      	movs	r2, #32
 8003cd8:	f883 203d 	strb.w	r2, [r3, #61]	@ 0x3d
          hi2c->Mode                = HAL_I2C_MODE_NONE;
 8003cdc:	68fb      	ldr	r3, [r7, #12]
 8003cde:	2200      	movs	r2, #0
 8003ce0:	f883 203e 	strb.w	r2, [r3, #62]	@ 0x3e
          hi2c->ErrorCode           |= HAL_I2C_ERROR_TIMEOUT;
 8003ce4:	68fb      	ldr	r3, [r7, #12]
 8003ce6:	6c1b      	ldr	r3, [r3, #64]	@ 0x40
 8003ce8:	f043 0220 	orr.w	r2, r3, #32
 8003cec:	68fb      	ldr	r3, [r7, #12]
 8003cee:	641a      	str	r2, [r3, #64]	@ 0x40

          /* Process Unlocked */
          __HAL_UNLOCK(hi2c);
 8003cf0:	68fb      	ldr	r3, [r7, #12]
 8003cf2:	2200      	movs	r2, #0
 8003cf4:	f883 203c 	strb.w	r2, [r3, #60]	@ 0x3c

          return HAL_ERROR;
 8003cf8:	2301      	movs	r3, #1
 8003cfa:	e021      	b.n	8003d40 <I2C_WaitOnMasterAddressFlagUntilTimeout+0x138>
  while (__HAL_I2C_GET_FLAG(hi2c, Flag) == RESET)
 8003cfc:	68bb      	ldr	r3, [r7, #8]
 8003cfe:	0c1b      	lsrs	r3, r3, #16
 8003d00:	b2db      	uxtb	r3, r3
 8003d02:	2b01      	cmp	r3, #1
 8003d04:	d10c      	bne.n	8003d20 <I2C_WaitOnMasterAddressFlagUntilTimeout+0x118>
 8003d06:	68fb      	ldr	r3, [r7, #12]
 8003d08:	681b      	ldr	r3, [r3, #0]
 8003d0a:	695b      	ldr	r3, [r3, #20]
 8003d0c:	43da      	mvns	r2, r3
 8003d0e:	68bb      	ldr	r3, [r7, #8]
 8003d10:	4013      	ands	r3, r2
 8003d12:	b29b      	uxth	r3, r3
 8003d14:	2b00      	cmp	r3, #0
 8003d16:	bf14      	ite	ne
 8003d18:	2301      	movne	r3, #1
 8003d1a:	2300      	moveq	r3, #0
 8003d1c:	b2db      	uxtb	r3, r3
 8003d1e:	e00b      	b.n	8003d38 <I2C_WaitOnMasterAddressFlagUntilTimeout+0x130>
 8003d20:	68fb      	ldr	r3, [r7, #12]
 8003d22:	681b      	ldr	r3, [r3, #0]
 8003d24:	699b      	ldr	r3, [r3, #24]
 8003d26:	43da      	mvns	r2, r3
 8003d28:	68bb      	ldr	r3, [r7, #8]
 8003d2a:	4013      	ands	r3, r2
 8003d2c:	b29b      	uxth	r3, r3
 8003d2e:	2b00      	cmp	r3, #0
 8003d30:	bf14      	ite	ne
 8003d32:	2301      	movne	r3, #1
 8003d34:	2300      	moveq	r3, #0
 8003d36:	b2db      	uxtb	r3, r3
 8003d38:	2b00      	cmp	r3, #0
 8003d3a:	f47f af6d 	bne.w	8003c18 <I2C_WaitOnMasterAddressFlagUntilTimeout+0x10>
        }
      }
    }
  }
  return HAL_OK;
 8003d3e:	2300      	movs	r3, #0
}
 8003d40:	4618      	mov	r0, r3
 8003d42:	3710      	adds	r7, #16
 8003d44:	46bd      	mov	sp, r7
 8003d46:	bd80      	pop	{r7, pc}

08003d48 <I2C_WaitOnTXEFlagUntilTimeout>:
  * @param  Timeout Timeout duration
  * @param  Tickstart Tick start value
  * @retval HAL status
  */
static HAL_StatusTypeDef I2C_WaitOnTXEFlagUntilTimeout(I2C_HandleTypeDef *hi2c, uint32_t Timeout, uint32_t Tickstart)
{
 8003d48:	b580      	push	{r7, lr}
 8003d4a:	b084      	sub	sp, #16
 8003d4c:	af00      	add	r7, sp, #0
 8003d4e:	60f8      	str	r0, [r7, #12]
 8003d50:	60b9      	str	r1, [r7, #8]
 8003d52:	607a      	str	r2, [r7, #4]
  while (__HAL_I2C_GET_FLAG(hi2c, I2C_FLAG_TXE) == RESET)
 8003d54:	e034      	b.n	8003dc0 <I2C_WaitOnTXEFlagUntilTimeout+0x78>
  {
    /* Check if a NACK is detected */
    if (I2C_IsAcknowledgeFailed(hi2c) != HAL_OK)
 8003d56:	68f8      	ldr	r0, [r7, #12]
 8003d58:	f000 f8e3 	bl	8003f22 <I2C_IsAcknowledgeFailed>
 8003d5c:	4603      	mov	r3, r0
 8003d5e:	2b00      	cmp	r3, #0
 8003d60:	d001      	beq.n	8003d66 <I2C_WaitOnTXEFlagUntilTimeout+0x1e>
    {
      return HAL_ERROR;
 8003d62:	2301      	movs	r3, #1
 8003d64:	e034      	b.n	8003dd0 <I2C_WaitOnTXEFlagUntilTimeout+0x88>
    }

    /* Check for the Timeout */
    if (Timeout != HAL_MAX_DELAY)
 8003d66:	68bb      	ldr	r3, [r7, #8]
 8003d68:	f1b3 3fff 	cmp.w	r3, #4294967295	@ 0xffffffff
 8003d6c:	d028      	beq.n	8003dc0 <I2C_WaitOnTXEFlagUntilTimeout+0x78>
    {
      if (((HAL_GetTick() - Tickstart) > Timeout) || (Timeout == 0U))
 8003d6e:	f7fe f9bd 	bl	80020ec <HAL_GetTick>
 8003d72:	4602      	mov	r2, r0
 8003d74:	687b      	ldr	r3, [r7, #4]
 8003d76:	1ad3      	subs	r3, r2, r3
 8003d78:	68ba      	ldr	r2, [r7, #8]
 8003d7a:	429a      	cmp	r2, r3
 8003d7c:	d302      	bcc.n	8003d84 <I2C_WaitOnTXEFlagUntilTimeout+0x3c>
 8003d7e:	68bb      	ldr	r3, [r7, #8]
 8003d80:	2b00      	cmp	r3, #0
 8003d82:	d11d      	bne.n	8003dc0 <I2C_WaitOnTXEFlagUntilTimeout+0x78>
      {
        if ((__HAL_I2C_GET_FLAG(hi2c, I2C_FLAG_TXE) == RESET))
 8003d84:	68fb      	ldr	r3, [r7, #12]
 8003d86:	681b      	ldr	r3, [r3, #0]
 8003d88:	695b      	ldr	r3, [r3, #20]
 8003d8a:	f003 0380 	and.w	r3, r3, #128	@ 0x80
 8003d8e:	2b80      	cmp	r3, #128	@ 0x80
 8003d90:	d016      	beq.n	8003dc0 <I2C_WaitOnTXEFlagUntilTimeout+0x78>
        {
          hi2c->PreviousState       = I2C_STATE_NONE;
 8003d92:	68fb      	ldr	r3, [r7, #12]
 8003d94:	2200      	movs	r2, #0
 8003d96:	631a      	str	r2, [r3, #48]	@ 0x30
          hi2c->State               = HAL_I2C_STATE_READY;
 8003d98:	68fb      	ldr	r3, [r7, #12]
 8003d9a:	2220      	movs	r2, #32
 8003d9c:	f883 203d 	strb.w	r2, [r3, #61]	@ 0x3d
          hi2c->Mode                = HAL_I2C_MODE_NONE;
 8003da0:	68fb      	ldr	r3, [r7, #12]
 8003da2:	2200      	movs	r2, #0
 8003da4:	f883 203e 	strb.w	r2, [r3, #62]	@ 0x3e
          hi2c->ErrorCode           |= HAL_I2C_ERROR_TIMEOUT;
 8003da8:	68fb      	ldr	r3, [r7, #12]
 8003daa:	6c1b      	ldr	r3, [r3, #64]	@ 0x40
 8003dac:	f043 0220 	orr.w	r2, r3, #32
 8003db0:	68fb      	ldr	r3, [r7, #12]
 8003db2:	641a      	str	r2, [r3, #64]	@ 0x40

          /* Process Unlocked */
          __HAL_UNLOCK(hi2c);
 8003db4:	68fb      	ldr	r3, [r7, #12]
 8003db6:	2200      	movs	r2, #0
 8003db8:	f883 203c 	strb.w	r2, [r3, #60]	@ 0x3c

          return HAL_ERROR;
 8003dbc:	2301      	movs	r3, #1
 8003dbe:	e007      	b.n	8003dd0 <I2C_WaitOnTXEFlagUntilTimeout+0x88>
  while (__HAL_I2C_GET_FLAG(hi2c, I2C_FLAG_TXE) == RESET)
 8003dc0:	68fb      	ldr	r3, [r7, #12]
 8003dc2:	681b      	ldr	r3, [r3, #0]
 8003dc4:	695b      	ldr	r3, [r3, #20]
 8003dc6:	f003 0380 	and.w	r3, r3, #128	@ 0x80
 8003dca:	2b80      	cmp	r3, #128	@ 0x80
 8003dcc:	d1c3      	bne.n	8003d56 <I2C_WaitOnTXEFlagUntilTimeout+0xe>
        }
      }
    }
  }
  return HAL_OK;
 8003dce:	2300      	movs	r3, #0
}
 8003dd0:	4618      	mov	r0, r3
 8003dd2:	3710      	adds	r7, #16
 8003dd4:	46bd      	mov	sp, r7
 8003dd6:	bd80      	pop	{r7, pc}

08003dd8 <I2C_WaitOnBTFFlagUntilTimeout>:
  * @param  Timeout Timeout duration
  * @param  Tickstart Tick start value
  * @retval HAL status
  */
static HAL_StatusTypeDef I2C_WaitOnBTFFlagUntilTimeout(I2C_HandleTypeDef *hi2c, uint32_t Timeout, uint32_t Tickstart)
{
 8003dd8:	b580      	push	{r7, lr}
 8003dda:	b084      	sub	sp, #16
 8003ddc:	af00      	add	r7, sp, #0
 8003dde:	60f8      	str	r0, [r7, #12]
 8003de0:	60b9      	str	r1, [r7, #8]
 8003de2:	607a      	str	r2, [r7, #4]
  while (__HAL_I2C_GET_FLAG(hi2c, I2C_FLAG_BTF) == RESET)
 8003de4:	e034      	b.n	8003e50 <I2C_WaitOnBTFFlagUntilTimeout+0x78>
  {
    /* Check if a NACK is detected */
    if (I2C_IsAcknowledgeFailed(hi2c) != HAL_OK)
 8003de6:	68f8      	ldr	r0, [r7, #12]
 8003de8:	f000 f89b 	bl	8003f22 <I2C_IsAcknowledgeFailed>
 8003dec:	4603      	mov	r3, r0
 8003dee:	2b00      	cmp	r3, #0
 8003df0:	d001      	beq.n	8003df6 <I2C_WaitOnBTFFlagUntilTimeout+0x1e>
    {
      return HAL_ERROR;
 8003df2:	2301      	movs	r3, #1
 8003df4:	e034      	b.n	8003e60 <I2C_WaitOnBTFFlagUntilTimeout+0x88>
    }

    /* Check for the Timeout */
    if (Timeout != HAL_MAX_DELAY)
 8003df6:	68bb      	ldr	r3, [r7, #8]
 8003df8:	f1b3 3fff 	cmp.w	r3, #4294967295	@ 0xffffffff
 8003dfc:	d028      	beq.n	8003e50 <I2C_WaitOnBTFFlagUntilTimeout+0x78>
    {
      if (((HAL_GetTick() - Tickstart) > Timeout) || (Timeout == 0U))
 8003dfe:	f7fe f975 	bl	80020ec <HAL_GetTick>
 8003e02:	4602      	mov	r2, r0
 8003e04:	687b      	ldr	r3, [r7, #4]
 8003e06:	1ad3      	subs	r3, r2, r3
 8003e08:	68ba      	ldr	r2, [r7, #8]
 8003e0a:	429a      	cmp	r2, r3
 8003e0c:	d302      	bcc.n	8003e14 <I2C_WaitOnBTFFlagUntilTimeout+0x3c>
 8003e0e:	68bb      	ldr	r3, [r7, #8]
 8003e10:	2b00      	cmp	r3, #0
 8003e12:	d11d      	bne.n	8003e50 <I2C_WaitOnBTFFlagUntilTimeout+0x78>
      {
        if ((__HAL_I2C_GET_FLAG(hi2c, I2C_FLAG_BTF) == RESET))
 8003e14:	68fb      	ldr	r3, [r7, #12]
 8003e16:	681b      	ldr	r3, [r3, #0]
 8003e18:	695b      	ldr	r3, [r3, #20]
 8003e1a:	f003 0304 	and.w	r3, r3, #4
 8003e1e:	2b04      	cmp	r3, #4
 8003e20:	d016      	beq.n	8003e50 <I2C_WaitOnBTFFlagUntilTimeout+0x78>
        {
          hi2c->PreviousState       = I2C_STATE_NONE;
 8003e22:	68fb      	ldr	r3, [r7, #12]
 8003e24:	2200      	movs	r2, #0
 8003e26:	631a      	str	r2, [r3, #48]	@ 0x30
          hi2c->State               = HAL_I2C_STATE_READY;
 8003e28:	68fb      	ldr	r3, [r7, #12]
 8003e2a:	2220      	movs	r2, #32
 8003e2c:	f883 203d 	strb.w	r2, [r3, #61]	@ 0x3d
          hi2c->Mode                = HAL_I2C_MODE_NONE;
 8003e30:	68fb      	ldr	r3, [r7, #12]
 8003e32:	2200      	movs	r2, #0
 8003e34:	f883 203e 	strb.w	r2, [r3, #62]	@ 0x3e
          hi2c->ErrorCode           |= HAL_I2C_ERROR_TIMEOUT;
 8003e38:	68fb      	ldr	r3, [r7, #12]
 8003e3a:	6c1b      	ldr	r3, [r3, #64]	@ 0x40
 8003e3c:	f043 0220 	orr.w	r2, r3, #32
 8003e40:	68fb      	ldr	r3, [r7, #12]
 8003e42:	641a      	str	r2, [r3, #64]	@ 0x40

          /* Process Unlocked */
          __HAL_UNLOCK(hi2c);
 8003e44:	68fb      	ldr	r3, [r7, #12]
 8003e46:	2200      	movs	r2, #0
 8003e48:	f883 203c 	strb.w	r2, [r3, #60]	@ 0x3c

          return HAL_ERROR;
 8003e4c:	2301      	movs	r3, #1
 8003e4e:	e007      	b.n	8003e60 <I2C_WaitOnBTFFlagUntilTimeout+0x88>
  while (__HAL_I2C_GET_FLAG(hi2c, I2C_FLAG_BTF) == RESET)
 8003e50:	68fb      	ldr	r3, [r7, #12]
 8003e52:	681b      	ldr	r3, [r3, #0]
 8003e54:	695b      	ldr	r3, [r3, #20]
 8003e56:	f003 0304 	and.w	r3, r3, #4
 8003e5a:	2b04      	cmp	r3, #4
 8003e5c:	d1c3      	bne.n	8003de6 <I2C_WaitOnBTFFlagUntilTimeout+0xe>
        }
      }
    }
  }
  return HAL_OK;
 8003e5e:	2300      	movs	r3, #0
}
 8003e60:	4618      	mov	r0, r3
 8003e62:	3710      	adds	r7, #16
 8003e64:	46bd      	mov	sp, r7
 8003e66:	bd80      	pop	{r7, pc}

08003e68 <I2C_WaitOnRXNEFlagUntilTimeout>:
  * @param  Timeout Timeout duration
  * @param  Tickstart Tick start value
  * @retval HAL status
  */
static HAL_StatusTypeDef I2C_WaitOnRXNEFlagUntilTimeout(I2C_HandleTypeDef *hi2c, uint32_t Timeout, uint32_t Tickstart)
{
 8003e68:	b580      	push	{r7, lr}
 8003e6a:	b084      	sub	sp, #16
 8003e6c:	af00      	add	r7, sp, #0
 8003e6e:	60f8      	str	r0, [r7, #12]
 8003e70:	60b9      	str	r1, [r7, #8]
 8003e72:	607a      	str	r2, [r7, #4]

  while (__HAL_I2C_GET_FLAG(hi2c, I2C_FLAG_RXNE) == RESET)
 8003e74:	e049      	b.n	8003f0a <I2C_WaitOnRXNEFlagUntilTimeout+0xa2>
  {
    /* Check if a STOPF is detected */
    if (__HAL_I2C_GET_FLAG(hi2c, I2C_FLAG_STOPF) == SET)
 8003e76:	68fb      	ldr	r3, [r7, #12]
 8003e78:	681b      	ldr	r3, [r3, #0]
 8003e7a:	695b      	ldr	r3, [r3, #20]
 8003e7c:	f003 0310 	and.w	r3, r3, #16
 8003e80:	2b10      	cmp	r3, #16
 8003e82:	d119      	bne.n	8003eb8 <I2C_WaitOnRXNEFlagUntilTimeout+0x50>
    {
      /* Clear STOP Flag */
      __HAL_I2C_CLEAR_FLAG(hi2c, I2C_FLAG_STOPF);
 8003e84:	68fb      	ldr	r3, [r7, #12]
 8003e86:	681b      	ldr	r3, [r3, #0]
 8003e88:	f06f 0210 	mvn.w	r2, #16
 8003e8c:	615a      	str	r2, [r3, #20]

      hi2c->PreviousState       = I2C_STATE_NONE;
 8003e8e:	68fb      	ldr	r3, [r7, #12]
 8003e90:	2200      	movs	r2, #0
 8003e92:	631a      	str	r2, [r3, #48]	@ 0x30
      hi2c->State               = HAL_I2C_STATE_READY;
 8003e94:	68fb      	ldr	r3, [r7, #12]
 8003e96:	2220      	movs	r2, #32
 8003e98:	f883 203d 	strb.w	r2, [r3, #61]	@ 0x3d
      hi2c->Mode                = HAL_I2C_MODE_NONE;
 8003e9c:	68fb      	ldr	r3, [r7, #12]
 8003e9e:	2200      	movs	r2, #0
 8003ea0:	f883 203e 	strb.w	r2, [r3, #62]	@ 0x3e
      hi2c->ErrorCode           |= HAL_I2C_ERROR_NONE;
 8003ea4:	68fb      	ldr	r3, [r7, #12]
 8003ea6:	6c1a      	ldr	r2, [r3, #64]	@ 0x40
 8003ea8:	68fb      	ldr	r3, [r7, #12]
 8003eaa:	641a      	str	r2, [r3, #64]	@ 0x40

      /* Process Unlocked */
      __HAL_UNLOCK(hi2c);
 8003eac:	68fb      	ldr	r3, [r7, #12]
 8003eae:	2200      	movs	r2, #0
 8003eb0:	f883 203c 	strb.w	r2, [r3, #60]	@ 0x3c

      return HAL_ERROR;
 8003eb4:	2301      	movs	r3, #1
 8003eb6:	e030      	b.n	8003f1a <I2C_WaitOnRXNEFlagUntilTimeout+0xb2>
    }

    /* Check for the Timeout */
    if (((HAL_GetTick() - Tickstart) > Timeout) || (Timeout == 0U))
 8003eb8:	f7fe f918 	bl	80020ec <HAL_GetTick>
 8003ebc:	4602      	mov	r2, r0
 8003ebe:	687b      	ldr	r3, [r7, #4]
 8003ec0:	1ad3      	subs	r3, r2, r3
 8003ec2:	68ba      	ldr	r2, [r7, #8]
 8003ec4:	429a      	cmp	r2, r3
 8003ec6:	d302      	bcc.n	8003ece <I2C_WaitOnRXNEFlagUntilTimeout+0x66>
 8003ec8:	68bb      	ldr	r3, [r7, #8]
 8003eca:	2b00      	cmp	r3, #0
 8003ecc:	d11d      	bne.n	8003f0a <I2C_WaitOnRXNEFlagUntilTimeout+0xa2>
    {
      if ((__HAL_I2C_GET_FLAG(hi2c, I2C_FLAG_RXNE) == RESET))
 8003ece:	68fb      	ldr	r3, [r7, #12]
 8003ed0:	681b      	ldr	r3, [r3, #0]
 8003ed2:	695b      	ldr	r3, [r3, #20]
 8003ed4:	f003 0340 	and.w	r3, r3, #64	@ 0x40
 8003ed8:	2b40      	cmp	r3, #64	@ 0x40
 8003eda:	d016      	beq.n	8003f0a <I2C_WaitOnRXNEFlagUntilTimeout+0xa2>
      {
        hi2c->PreviousState       = I2C_STATE_NONE;
 8003edc:	68fb      	ldr	r3, [r7, #12]
 8003ede:	2200      	movs	r2, #0
 8003ee0:	631a      	str	r2, [r3, #48]	@ 0x30
        hi2c->State               = HAL_I2C_STATE_READY;
 8003ee2:	68fb      	ldr	r3, [r7, #12]
 8003ee4:	2220      	movs	r2, #32
 8003ee6:	f883 203d 	strb.w	r2, [r3, #61]	@ 0x3d
        hi2c->Mode                = HAL_I2C_MODE_NONE;
 8003eea:	68fb      	ldr	r3, [r7, #12]
 8003eec:	2200      	movs	r2, #0
 8003eee:	f883 203e 	strb.w	r2, [r3, #62]	@ 0x3e
        hi2c->ErrorCode           |= HAL_I2C_ERROR_TIMEOUT;
 8003ef2:	68fb      	ldr	r3, [r7, #12]
 8003ef4:	6c1b      	ldr	r3, [r3, #64]	@ 0x40
 8003ef6:	f043 0220 	orr.w	r2, r3, #32
 8003efa:	68fb      	ldr	r3, [r7, #12]
 8003efc:	641a      	str	r2, [r3, #64]	@ 0x40

        /* Process Unlocked */
        __HAL_UNLOCK(hi2c);
 8003efe:	68fb      	ldr	r3, [r7, #12]
 8003f00:	2200      	movs	r2, #0
 8003f02:	f883 203c 	strb.w	r2, [r3, #60]	@ 0x3c

        return HAL_ERROR;
 8003f06:	2301      	movs	r3, #1
 8003f08:	e007      	b.n	8003f1a <I2C_WaitOnRXNEFlagUntilTimeout+0xb2>
  while (__HAL_I2C_GET_FLAG(hi2c, I2C_FLAG_RXNE) == RESET)
 8003f0a:	68fb      	ldr	r3, [r7, #12]
 8003f0c:	681b      	ldr	r3, [r3, #0]
 8003f0e:	695b      	ldr	r3, [r3, #20]
 8003f10:	f003 0340 	and.w	r3, r3, #64	@ 0x40
 8003f14:	2b40      	cmp	r3, #64	@ 0x40
 8003f16:	d1ae      	bne.n	8003e76 <I2C_WaitOnRXNEFlagUntilTimeout+0xe>
      }
    }
  }
  return HAL_OK;
 8003f18:	2300      	movs	r3, #0
}
 8003f1a:	4618      	mov	r0, r3
 8003f1c:	3710      	adds	r7, #16
 8003f1e:	46bd      	mov	sp, r7
 8003f20:	bd80      	pop	{r7, pc}

08003f22 <I2C_IsAcknowledgeFailed>:
  * @param  hi2c Pointer to a I2C_HandleTypeDef structure that contains
  *                the configuration information for the specified I2C.
  * @retval HAL status
  */
static HAL_StatusTypeDef I2C_IsAcknowledgeFailed(I2C_HandleTypeDef *hi2c)
{
 8003f22:	b480      	push	{r7}
 8003f24:	b083      	sub	sp, #12
 8003f26:	af00      	add	r7, sp, #0
 8003f28:	6078      	str	r0, [r7, #4]
  if (__HAL_I2C_GET_FLAG(hi2c, I2C_FLAG_AF) == SET)
 8003f2a:	687b      	ldr	r3, [r7, #4]
 8003f2c:	681b      	ldr	r3, [r3, #0]
 8003f2e:	695b      	ldr	r3, [r3, #20]
 8003f30:	f403 6380 	and.w	r3, r3, #1024	@ 0x400
 8003f34:	f5b3 6f80 	cmp.w	r3, #1024	@ 0x400
 8003f38:	d11b      	bne.n	8003f72 <I2C_IsAcknowledgeFailed+0x50>
  {
    /* Clear NACKF Flag */
    __HAL_I2C_CLEAR_FLAG(hi2c, I2C_FLAG_AF);
 8003f3a:	687b      	ldr	r3, [r7, #4]
 8003f3c:	681b      	ldr	r3, [r3, #0]
 8003f3e:	f46f 6280 	mvn.w	r2, #1024	@ 0x400
 8003f42:	615a      	str	r2, [r3, #20]

    hi2c->PreviousState       = I2C_STATE_NONE;
 8003f44:	687b      	ldr	r3, [r7, #4]
 8003f46:	2200      	movs	r2, #0
 8003f48:	631a      	str	r2, [r3, #48]	@ 0x30
    hi2c->State               = HAL_I2C_STATE_READY;
 8003f4a:	687b      	ldr	r3, [r7, #4]
 8003f4c:	2220      	movs	r2, #32
 8003f4e:	f883 203d 	strb.w	r2, [r3, #61]	@ 0x3d
    hi2c->Mode                = HAL_I2C_MODE_NONE;
 8003f52:	687b      	ldr	r3, [r7, #4]
 8003f54:	2200      	movs	r2, #0
 8003f56:	f883 203e 	strb.w	r2, [r3, #62]	@ 0x3e
    hi2c->ErrorCode           |= HAL_I2C_ERROR_AF;
 8003f5a:	687b      	ldr	r3, [r7, #4]
 8003f5c:	6c1b      	ldr	r3, [r3, #64]	@ 0x40
 8003f5e:	f043 0204 	orr.w	r2, r3, #4
 8003f62:	687b      	ldr	r3, [r7, #4]
 8003f64:	641a      	str	r2, [r3, #64]	@ 0x40

    /* Process Unlocked */
    __HAL_UNLOCK(hi2c);
 8003f66:	687b      	ldr	r3, [r7, #4]
 8003f68:	2200      	movs	r2, #0
 8003f6a:	f883 203c 	strb.w	r2, [r3, #60]	@ 0x3c

    return HAL_ERROR;
 8003f6e:	2301      	movs	r3, #1
 8003f70:	e000      	b.n	8003f74 <I2C_IsAcknowledgeFailed+0x52>
  }
  return HAL_OK;
 8003f72:	2300      	movs	r3, #0
}
 8003f74:	4618      	mov	r0, r3
 8003f76:	370c      	adds	r7, #12
 8003f78:	46bd      	mov	sp, r7
 8003f7a:	f85d 7b04 	ldr.w	r7, [sp], #4
 8003f7e:	4770      	bx	lr

08003f80 <HAL_RCC_OscConfig>:
  *         supported by this API. User should request a transition to HSE Off
  *         first and then HSE On or HSE Bypass.
  * @retval HAL status
  */
__weak HAL_StatusTypeDef HAL_RCC_OscConfig(RCC_OscInitTypeDef  *RCC_OscInitStruct)
{
 8003f80:	b580      	push	{r7, lr}
 8003f82:	b086      	sub	sp, #24
 8003f84:	af00      	add	r7, sp, #0
 8003f86:	6078      	str	r0, [r7, #4]
  uint32_t tickstart;
  uint32_t pll_config;
  /* Check Null pointer */
  if (RCC_OscInitStruct == NULL)
 8003f88:	687b      	ldr	r3, [r7, #4]
 8003f8a:	2b00      	cmp	r3, #0
 8003f8c:	d101      	bne.n	8003f92 <HAL_RCC_OscConfig+0x12>
  {
    return HAL_ERROR;
 8003f8e:	2301      	movs	r3, #1
 8003f90:	e267      	b.n	8004462 <HAL_RCC_OscConfig+0x4e2>
  }

  /* Check the parameters */
  assert_param(IS_RCC_OSCILLATORTYPE(RCC_OscInitStruct->OscillatorType));
  /*------------------------------- HSE Configuration ------------------------*/
  if (((RCC_OscInitStruct->OscillatorType) & RCC_OSCILLATORTYPE_HSE) == RCC_OSCILLATORTYPE_HSE)
 8003f92:	687b      	ldr	r3, [r7, #4]
 8003f94:	681b      	ldr	r3, [r3, #0]
 8003f96:	f003 0301 	and.w	r3, r3, #1
 8003f9a:	2b00      	cmp	r3, #0
 8003f9c:	d075      	beq.n	800408a <HAL_RCC_OscConfig+0x10a>
  {
    /* Check the parameters */
    assert_param(IS_RCC_HSE(RCC_OscInitStruct->HSEState));
    /* When the HSE is used as system clock or clock source for PLL in these cases HSE will not disabled */
    if ((__HAL_RCC_GET_SYSCLK_SOURCE() == RCC_CFGR_SWS_HSE) || \
 8003f9e:	4b88      	ldr	r3, [pc, #544]	@ (80041c0 <HAL_RCC_OscConfig+0x240>)
 8003fa0:	689b      	ldr	r3, [r3, #8]
 8003fa2:	f003 030c 	and.w	r3, r3, #12
 8003fa6:	2b04      	cmp	r3, #4
 8003fa8:	d00c      	beq.n	8003fc4 <HAL_RCC_OscConfig+0x44>
        ((__HAL_RCC_GET_SYSCLK_SOURCE() == RCC_CFGR_SWS_PLL) && ((RCC->PLLCFGR & RCC_PLLCFGR_PLLSRC) == RCC_PLLCFGR_PLLSRC_HSE)))
 8003faa:	4b85      	ldr	r3, [pc, #532]	@ (80041c0 <HAL_RCC_OscConfig+0x240>)
 8003fac:	689b      	ldr	r3, [r3, #8]
 8003fae:	f003 030c 	and.w	r3, r3, #12
    if ((__HAL_RCC_GET_SYSCLK_SOURCE() == RCC_CFGR_SWS_HSE) || \
 8003fb2:	2b08      	cmp	r3, #8
 8003fb4:	d112      	bne.n	8003fdc <HAL_RCC_OscConfig+0x5c>
        ((__HAL_RCC_GET_SYSCLK_SOURCE() == RCC_CFGR_SWS_PLL) && ((RCC->PLLCFGR & RCC_PLLCFGR_PLLSRC) == RCC_PLLCFGR_PLLSRC_HSE)))
 8003fb6:	4b82      	ldr	r3, [pc, #520]	@ (80041c0 <HAL_RCC_OscConfig+0x240>)
 8003fb8:	685b      	ldr	r3, [r3, #4]
 8003fba:	f403 0380 	and.w	r3, r3, #4194304	@ 0x400000
 8003fbe:	f5b3 0f80 	cmp.w	r3, #4194304	@ 0x400000
 8003fc2:	d10b      	bne.n	8003fdc <HAL_RCC_OscConfig+0x5c>
    {
      if ((__HAL_RCC_GET_FLAG(RCC_FLAG_HSERDY) != RESET) && (RCC_OscInitStruct->HSEState == RCC_HSE_OFF))
 8003fc4:	4b7e      	ldr	r3, [pc, #504]	@ (80041c0 <HAL_RCC_OscConfig+0x240>)
 8003fc6:	681b      	ldr	r3, [r3, #0]
 8003fc8:	f403 3300 	and.w	r3, r3, #131072	@ 0x20000
 8003fcc:	2b00      	cmp	r3, #0
 8003fce:	d05b      	beq.n	8004088 <HAL_RCC_OscConfig+0x108>
 8003fd0:	687b      	ldr	r3, [r7, #4]
 8003fd2:	685b      	ldr	r3, [r3, #4]
 8003fd4:	2b00      	cmp	r3, #0
 8003fd6:	d157      	bne.n	8004088 <HAL_RCC_OscConfig+0x108>
      {
        return HAL_ERROR;
 8003fd8:	2301      	movs	r3, #1
 8003fda:	e242      	b.n	8004462 <HAL_RCC_OscConfig+0x4e2>
      }
    }
    else
    {
      /* Set the new HSE configuration ---------------------------------------*/
      __HAL_RCC_HSE_CONFIG(RCC_OscInitStruct->HSEState);
 8003fdc:	687b      	ldr	r3, [r7, #4]
 8003fde:	685b      	ldr	r3, [r3, #4]
 8003fe0:	f5b3 3f80 	cmp.w	r3, #65536	@ 0x10000
 8003fe4:	d106      	bne.n	8003ff4 <HAL_RCC_OscConfig+0x74>
 8003fe6:	4b76      	ldr	r3, [pc, #472]	@ (80041c0 <HAL_RCC_OscConfig+0x240>)
 8003fe8:	681b      	ldr	r3, [r3, #0]
 8003fea:	4a75      	ldr	r2, [pc, #468]	@ (80041c0 <HAL_RCC_OscConfig+0x240>)
 8003fec:	f443 3380 	orr.w	r3, r3, #65536	@ 0x10000
 8003ff0:	6013      	str	r3, [r2, #0]
 8003ff2:	e01d      	b.n	8004030 <HAL_RCC_OscConfig+0xb0>
 8003ff4:	687b      	ldr	r3, [r7, #4]
 8003ff6:	685b      	ldr	r3, [r3, #4]
 8003ff8:	f5b3 2fa0 	cmp.w	r3, #327680	@ 0x50000
 8003ffc:	d10c      	bne.n	8004018 <HAL_RCC_OscConfig+0x98>
 8003ffe:	4b70      	ldr	r3, [pc, #448]	@ (80041c0 <HAL_RCC_OscConfig+0x240>)
 8004000:	681b      	ldr	r3, [r3, #0]
 8004002:	4a6f      	ldr	r2, [pc, #444]	@ (80041c0 <HAL_RCC_OscConfig+0x240>)
 8004004:	f443 2380 	orr.w	r3, r3, #262144	@ 0x40000
 8004008:	6013      	str	r3, [r2, #0]
 800400a:	4b6d      	ldr	r3, [pc, #436]	@ (80041c0 <HAL_RCC_OscConfig+0x240>)
 800400c:	681b      	ldr	r3, [r3, #0]
 800400e:	4a6c      	ldr	r2, [pc, #432]	@ (80041c0 <HAL_RCC_OscConfig+0x240>)
 8004010:	f443 3380 	orr.w	r3, r3, #65536	@ 0x10000
 8004014:	6013      	str	r3, [r2, #0]
 8004016:	e00b      	b.n	8004030 <HAL_RCC_OscConfig+0xb0>
 8004018:	4b69      	ldr	r3, [pc, #420]	@ (80041c0 <HAL_RCC_OscConfig+0x240>)
 800401a:	681b      	ldr	r3, [r3, #0]
 800401c:	4a68      	ldr	r2, [pc, #416]	@ (80041c0 <HAL_RCC_OscConfig+0x240>)
 800401e:	f423 3380 	bic.w	r3, r3, #65536	@ 0x10000
 8004022:	6013      	str	r3, [r2, #0]
 8004024:	4b66      	ldr	r3, [pc, #408]	@ (80041c0 <HAL_RCC_OscConfig+0x240>)
 8004026:	681b      	ldr	r3, [r3, #0]
 8004028:	4a65      	ldr	r2, [pc, #404]	@ (80041c0 <HAL_RCC_OscConfig+0x240>)
 800402a:	f423 2380 	bic.w	r3, r3, #262144	@ 0x40000
 800402e:	6013      	str	r3, [r2, #0]

      /* Check the HSE State */
      if ((RCC_OscInitStruct->HSEState) != RCC_HSE_OFF)
 8004030:	687b      	ldr	r3, [r7, #4]
 8004032:	685b      	ldr	r3, [r3, #4]
 8004034:	2b00      	cmp	r3, #0
 8004036:	d013      	beq.n	8004060 <HAL_RCC_OscConfig+0xe0>
      {
        /* Get Start Tick */
        tickstart = HAL_GetTick();
 8004038:	f7fe f858 	bl	80020ec <HAL_GetTick>
 800403c:	6138      	str	r0, [r7, #16]

        /* Wait till HSE is ready */
        while (__HAL_RCC_GET_FLAG(RCC_FLAG_HSERDY) == RESET)
 800403e:	e008      	b.n	8004052 <HAL_RCC_OscConfig+0xd2>
        {
          if ((HAL_GetTick() - tickstart) > HSE_TIMEOUT_VALUE)
 8004040:	f7fe f854 	bl	80020ec <HAL_GetTick>
 8004044:	4602      	mov	r2, r0
 8004046:	693b      	ldr	r3, [r7, #16]
 8004048:	1ad3      	subs	r3, r2, r3
 800404a:	2b64      	cmp	r3, #100	@ 0x64
 800404c:	d901      	bls.n	8004052 <HAL_RCC_OscConfig+0xd2>
          {
            return HAL_TIMEOUT;
 800404e:	2303      	movs	r3, #3
 8004050:	e207      	b.n	8004462 <HAL_RCC_OscConfig+0x4e2>
        while (__HAL_RCC_GET_FLAG(RCC_FLAG_HSERDY) == RESET)
 8004052:	4b5b      	ldr	r3, [pc, #364]	@ (80041c0 <HAL_RCC_OscConfig+0x240>)
 8004054:	681b      	ldr	r3, [r3, #0]
 8004056:	f403 3300 	and.w	r3, r3, #131072	@ 0x20000
 800405a:	2b00      	cmp	r3, #0
 800405c:	d0f0      	beq.n	8004040 <HAL_RCC_OscConfig+0xc0>
 800405e:	e014      	b.n	800408a <HAL_RCC_OscConfig+0x10a>
        }
      }
      else
      {
        /* Get Start Tick */
        tickstart = HAL_GetTick();
 8004060:	f7fe f844 	bl	80020ec <HAL_GetTick>
 8004064:	6138      	str	r0, [r7, #16]

        /* Wait till HSE is bypassed or disabled */
        while (__HAL_RCC_GET_FLAG(RCC_FLAG_HSERDY) != RESET)
 8004066:	e008      	b.n	800407a <HAL_RCC_OscConfig+0xfa>
        {
          if ((HAL_GetTick() - tickstart) > HSE_TIMEOUT_VALUE)
 8004068:	f7fe f840 	bl	80020ec <HAL_GetTick>
 800406c:	4602      	mov	r2, r0
 800406e:	693b      	ldr	r3, [r7, #16]
 8004070:	1ad3      	subs	r3, r2, r3
 8004072:	2b64      	cmp	r3, #100	@ 0x64
 8004074:	d901      	bls.n	800407a <HAL_RCC_OscConfig+0xfa>
          {
            return HAL_TIMEOUT;
 8004076:	2303      	movs	r3, #3
 8004078:	e1f3      	b.n	8004462 <HAL_RCC_OscConfig+0x4e2>
        while (__HAL_RCC_GET_FLAG(RCC_FLAG_HSERDY) != RESET)
 800407a:	4b51      	ldr	r3, [pc, #324]	@ (80041c0 <HAL_RCC_OscConfig+0x240>)
 800407c:	681b      	ldr	r3, [r3, #0]
 800407e:	f403 3300 	and.w	r3, r3, #131072	@ 0x20000
 8004082:	2b00      	cmp	r3, #0
 8004084:	d1f0      	bne.n	8004068 <HAL_RCC_OscConfig+0xe8>
 8004086:	e000      	b.n	800408a <HAL_RCC_OscConfig+0x10a>
      if ((__HAL_RCC_GET_FLAG(RCC_FLAG_HSERDY) != RESET) && (RCC_OscInitStruct->HSEState == RCC_HSE_OFF))
 8004088:	bf00      	nop
        }
      }
    }
  }
  /*----------------------------- HSI Configuration --------------------------*/
  if (((RCC_OscInitStruct->OscillatorType) & RCC_OSCILLATORTYPE_HSI) == RCC_OSCILLATORTYPE_HSI)
 800408a:	687b      	ldr	r3, [r7, #4]
 800408c:	681b      	ldr	r3, [r3, #0]
 800408e:	f003 0302 	and.w	r3, r3, #2
 8004092:	2b00      	cmp	r3, #0
 8004094:	d063      	beq.n	800415e <HAL_RCC_OscConfig+0x1de>
    /* Check the parameters */
    assert_param(IS_RCC_HSI(RCC_OscInitStruct->HSIState));
    assert_param(IS_RCC_CALIBRATION_VALUE(RCC_OscInitStruct->HSICalibrationValue));

    /* Check if HSI is used as system clock or as PLL source when PLL is selected as system clock */
    if ((__HAL_RCC_GET_SYSCLK_SOURCE() == RCC_CFGR_SWS_HSI) || \
 8004096:	4b4a      	ldr	r3, [pc, #296]	@ (80041c0 <HAL_RCC_OscConfig+0x240>)
 8004098:	689b      	ldr	r3, [r3, #8]
 800409a:	f003 030c 	and.w	r3, r3, #12
 800409e:	2b00      	cmp	r3, #0
 80040a0:	d00b      	beq.n	80040ba <HAL_RCC_OscConfig+0x13a>
        ((__HAL_RCC_GET_SYSCLK_SOURCE() == RCC_CFGR_SWS_PLL) && ((RCC->PLLCFGR & RCC_PLLCFGR_PLLSRC) == RCC_PLLCFGR_PLLSRC_HSI)))
 80040a2:	4b47      	ldr	r3, [pc, #284]	@ (80041c0 <HAL_RCC_OscConfig+0x240>)
 80040a4:	689b      	ldr	r3, [r3, #8]
 80040a6:	f003 030c 	and.w	r3, r3, #12
    if ((__HAL_RCC_GET_SYSCLK_SOURCE() == RCC_CFGR_SWS_HSI) || \
 80040aa:	2b08      	cmp	r3, #8
 80040ac:	d11c      	bne.n	80040e8 <HAL_RCC_OscConfig+0x168>
        ((__HAL_RCC_GET_SYSCLK_SOURCE() == RCC_CFGR_SWS_PLL) && ((RCC->PLLCFGR & RCC_PLLCFGR_PLLSRC) == RCC_PLLCFGR_PLLSRC_HSI)))
 80040ae:	4b44      	ldr	r3, [pc, #272]	@ (80041c0 <HAL_RCC_OscConfig+0x240>)
 80040b0:	685b      	ldr	r3, [r3, #4]
 80040b2:	f403 0380 	and.w	r3, r3, #4194304	@ 0x400000
 80040b6:	2b00      	cmp	r3, #0
 80040b8:	d116      	bne.n	80040e8 <HAL_RCC_OscConfig+0x168>
    {
      /* When HSI is used as system clock it will not disabled */
      if ((__HAL_RCC_GET_FLAG(RCC_FLAG_HSIRDY) != RESET) && (RCC_OscInitStruct->HSIState != RCC_HSI_ON))
 80040ba:	4b41      	ldr	r3, [pc, #260]	@ (80041c0 <HAL_RCC_OscConfig+0x240>)
 80040bc:	681b      	ldr	r3, [r3, #0]
 80040be:	f003 0302 	and.w	r3, r3, #2
 80040c2:	2b00      	cmp	r3, #0
 80040c4:	d005      	beq.n	80040d2 <HAL_RCC_OscConfig+0x152>
 80040c6:	687b      	ldr	r3, [r7, #4]
 80040c8:	68db      	ldr	r3, [r3, #12]
 80040ca:	2b01      	cmp	r3, #1
 80040cc:	d001      	beq.n	80040d2 <HAL_RCC_OscConfig+0x152>
      {
        return HAL_ERROR;
 80040ce:	2301      	movs	r3, #1
 80040d0:	e1c7      	b.n	8004462 <HAL_RCC_OscConfig+0x4e2>
      }
      /* Otherwise, just the calibration is allowed */
      else
      {
        /* Adjusts the Internal High Speed oscillator (HSI) calibration value.*/
        __HAL_RCC_HSI_CALIBRATIONVALUE_ADJUST(RCC_OscInitStruct->HSICalibrationValue);
 80040d2:	4b3b      	ldr	r3, [pc, #236]	@ (80041c0 <HAL_RCC_OscConfig+0x240>)
 80040d4:	681b      	ldr	r3, [r3, #0]
 80040d6:	f023 02f8 	bic.w	r2, r3, #248	@ 0xf8
 80040da:	687b      	ldr	r3, [r7, #4]
 80040dc:	691b      	ldr	r3, [r3, #16]
 80040de:	00db      	lsls	r3, r3, #3
 80040e0:	4937      	ldr	r1, [pc, #220]	@ (80041c0 <HAL_RCC_OscConfig+0x240>)
 80040e2:	4313      	orrs	r3, r2
 80040e4:	600b      	str	r3, [r1, #0]
      if ((__HAL_RCC_GET_FLAG(RCC_FLAG_HSIRDY) != RESET) && (RCC_OscInitStruct->HSIState != RCC_HSI_ON))
 80040e6:	e03a      	b.n	800415e <HAL_RCC_OscConfig+0x1de>
      }
    }
    else
    {
      /* Check the HSI State */
      if ((RCC_OscInitStruct->HSIState) != RCC_HSI_OFF)
 80040e8:	687b      	ldr	r3, [r7, #4]
 80040ea:	68db      	ldr	r3, [r3, #12]
 80040ec:	2b00      	cmp	r3, #0
 80040ee:	d020      	beq.n	8004132 <HAL_RCC_OscConfig+0x1b2>
      {
        /* Enable the Internal High Speed oscillator (HSI). */
        __HAL_RCC_HSI_ENABLE();
 80040f0:	4b34      	ldr	r3, [pc, #208]	@ (80041c4 <HAL_RCC_OscConfig+0x244>)
 80040f2:	2201      	movs	r2, #1
 80040f4:	601a      	str	r2, [r3, #0]

        /* Get Start Tick*/
        tickstart = HAL_GetTick();
 80040f6:	f7fd fff9 	bl	80020ec <HAL_GetTick>
 80040fa:	6138      	str	r0, [r7, #16]

        /* Wait till HSI is ready */
        while (__HAL_RCC_GET_FLAG(RCC_FLAG_HSIRDY) == RESET)
 80040fc:	e008      	b.n	8004110 <HAL_RCC_OscConfig+0x190>
        {
          if ((HAL_GetTick() - tickstart) > HSI_TIMEOUT_VALUE)
 80040fe:	f7fd fff5 	bl	80020ec <HAL_GetTick>
 8004102:	4602      	mov	r2, r0
 8004104:	693b      	ldr	r3, [r7, #16]
 8004106:	1ad3      	subs	r3, r2, r3
 8004108:	2b02      	cmp	r3, #2
 800410a:	d901      	bls.n	8004110 <HAL_RCC_OscConfig+0x190>
          {
            return HAL_TIMEOUT;
 800410c:	2303      	movs	r3, #3
 800410e:	e1a8      	b.n	8004462 <HAL_RCC_OscConfig+0x4e2>
        while (__HAL_RCC_GET_FLAG(RCC_FLAG_HSIRDY) == RESET)
 8004110:	4b2b      	ldr	r3, [pc, #172]	@ (80041c0 <HAL_RCC_OscConfig+0x240>)
 8004112:	681b      	ldr	r3, [r3, #0]
 8004114:	f003 0302 	and.w	r3, r3, #2
 8004118:	2b00      	cmp	r3, #0
 800411a:	d0f0      	beq.n	80040fe <HAL_RCC_OscConfig+0x17e>
          }
        }

        /* Adjusts the Internal High Speed oscillator (HSI) calibration value. */
        __HAL_RCC_HSI_CALIBRATIONVALUE_ADJUST(RCC_OscInitStruct->HSICalibrationValue);
 800411c:	4b28      	ldr	r3, [pc, #160]	@ (80041c0 <HAL_RCC_OscConfig+0x240>)
 800411e:	681b      	ldr	r3, [r3, #0]
 8004120:	f023 02f8 	bic.w	r2, r3, #248	@ 0xf8
 8004124:	687b      	ldr	r3, [r7, #4]
 8004126:	691b      	ldr	r3, [r3, #16]
 8004128:	00db      	lsls	r3, r3, #3
 800412a:	4925      	ldr	r1, [pc, #148]	@ (80041c0 <HAL_RCC_OscConfig+0x240>)
 800412c:	4313      	orrs	r3, r2
 800412e:	600b      	str	r3, [r1, #0]
 8004130:	e015      	b.n	800415e <HAL_RCC_OscConfig+0x1de>
      }
      else
      {
        /* Disable the Internal High Speed oscillator (HSI). */
        __HAL_RCC_HSI_DISABLE();
 8004132:	4b24      	ldr	r3, [pc, #144]	@ (80041c4 <HAL_RCC_OscConfig+0x244>)
 8004134:	2200      	movs	r2, #0
 8004136:	601a      	str	r2, [r3, #0]

        /* Get Start Tick*/
        tickstart = HAL_GetTick();
 8004138:	f7fd ffd8 	bl	80020ec <HAL_GetTick>
 800413c:	6138      	str	r0, [r7, #16]

        /* Wait till HSI is ready */
        while (__HAL_RCC_GET_FLAG(RCC_FLAG_HSIRDY) != RESET)
 800413e:	e008      	b.n	8004152 <HAL_RCC_OscConfig+0x1d2>
        {
          if ((HAL_GetTick() - tickstart) > HSI_TIMEOUT_VALUE)
 8004140:	f7fd ffd4 	bl	80020ec <HAL_GetTick>
 8004144:	4602      	mov	r2, r0
 8004146:	693b      	ldr	r3, [r7, #16]
 8004148:	1ad3      	subs	r3, r2, r3
 800414a:	2b02      	cmp	r3, #2
 800414c:	d901      	bls.n	8004152 <HAL_RCC_OscConfig+0x1d2>
          {
            return HAL_TIMEOUT;
 800414e:	2303      	movs	r3, #3
 8004150:	e187      	b.n	8004462 <HAL_RCC_OscConfig+0x4e2>
        while (__HAL_RCC_GET_FLAG(RCC_FLAG_HSIRDY) != RESET)
 8004152:	4b1b      	ldr	r3, [pc, #108]	@ (80041c0 <HAL_RCC_OscConfig+0x240>)
 8004154:	681b      	ldr	r3, [r3, #0]
 8004156:	f003 0302 	and.w	r3, r3, #2
 800415a:	2b00      	cmp	r3, #0
 800415c:	d1f0      	bne.n	8004140 <HAL_RCC_OscConfig+0x1c0>
        }
      }
    }
  }
  /*------------------------------ LSI Configuration -------------------------*/
  if (((RCC_OscInitStruct->OscillatorType) & RCC_OSCILLATORTYPE_LSI) == RCC_OSCILLATORTYPE_LSI)
 800415e:	687b      	ldr	r3, [r7, #4]
 8004160:	681b      	ldr	r3, [r3, #0]
 8004162:	f003 0308 	and.w	r3, r3, #8
 8004166:	2b00      	cmp	r3, #0
 8004168:	d036      	beq.n	80041d8 <HAL_RCC_OscConfig+0x258>
  {
    /* Check the parameters */
    assert_param(IS_RCC_LSI(RCC_OscInitStruct->LSIState));

    /* Check the LSI State */
    if ((RCC_OscInitStruct->LSIState) != RCC_LSI_OFF)
 800416a:	687b      	ldr	r3, [r7, #4]
 800416c:	695b      	ldr	r3, [r3, #20]
 800416e:	2b00      	cmp	r3, #0
 8004170:	d016      	beq.n	80041a0 <HAL_RCC_OscConfig+0x220>
    {
      /* Enable the Internal Low Speed oscillator (LSI). */
      __HAL_RCC_LSI_ENABLE();
 8004172:	4b15      	ldr	r3, [pc, #84]	@ (80041c8 <HAL_RCC_OscConfig+0x248>)
 8004174:	2201      	movs	r2, #1
 8004176:	601a      	str	r2, [r3, #0]

      /* Get Start Tick*/
      tickstart = HAL_GetTick();
 8004178:	f7fd ffb8 	bl	80020ec <HAL_GetTick>
 800417c:	6138      	str	r0, [r7, #16]

      /* Wait till LSI is ready */
      while (__HAL_RCC_GET_FLAG(RCC_FLAG_LSIRDY) == RESET)
 800417e:	e008      	b.n	8004192 <HAL_RCC_OscConfig+0x212>
      {
        if ((HAL_GetTick() - tickstart) > LSI_TIMEOUT_VALUE)
 8004180:	f7fd ffb4 	bl	80020ec <HAL_GetTick>
 8004184:	4602      	mov	r2, r0
 8004186:	693b      	ldr	r3, [r7, #16]
 8004188:	1ad3      	subs	r3, r2, r3
 800418a:	2b02      	cmp	r3, #2
 800418c:	d901      	bls.n	8004192 <HAL_RCC_OscConfig+0x212>
        {
          return HAL_TIMEOUT;
 800418e:	2303      	movs	r3, #3
 8004190:	e167      	b.n	8004462 <HAL_RCC_OscConfig+0x4e2>
      while (__HAL_RCC_GET_FLAG(RCC_FLAG_LSIRDY) == RESET)
 8004192:	4b0b      	ldr	r3, [pc, #44]	@ (80041c0 <HAL_RCC_OscConfig+0x240>)
 8004194:	6f5b      	ldr	r3, [r3, #116]	@ 0x74
 8004196:	f003 0302 	and.w	r3, r3, #2
 800419a:	2b00      	cmp	r3, #0
 800419c:	d0f0      	beq.n	8004180 <HAL_RCC_OscConfig+0x200>
 800419e:	e01b      	b.n	80041d8 <HAL_RCC_OscConfig+0x258>
      }
    }
    else
    {
      /* Disable the Internal Low Speed oscillator (LSI). */
      __HAL_RCC_LSI_DISABLE();
 80041a0:	4b09      	ldr	r3, [pc, #36]	@ (80041c8 <HAL_RCC_OscConfig+0x248>)
 80041a2:	2200      	movs	r2, #0
 80041a4:	601a      	str	r2, [r3, #0]

      /* Get Start Tick */
      tickstart = HAL_GetTick();
 80041a6:	f7fd ffa1 	bl	80020ec <HAL_GetTick>
 80041aa:	6138      	str	r0, [r7, #16]

      /* Wait till LSI is ready */
      while (__HAL_RCC_GET_FLAG(RCC_FLAG_LSIRDY) != RESET)
 80041ac:	e00e      	b.n	80041cc <HAL_RCC_OscConfig+0x24c>
      {
        if ((HAL_GetTick() - tickstart) > LSI_TIMEOUT_VALUE)
 80041ae:	f7fd ff9d 	bl	80020ec <HAL_GetTick>
 80041b2:	4602      	mov	r2, r0
 80041b4:	693b      	ldr	r3, [r7, #16]
 80041b6:	1ad3      	subs	r3, r2, r3
 80041b8:	2b02      	cmp	r3, #2
 80041ba:	d907      	bls.n	80041cc <HAL_RCC_OscConfig+0x24c>
        {
          return HAL_TIMEOUT;
 80041bc:	2303      	movs	r3, #3
 80041be:	e150      	b.n	8004462 <HAL_RCC_OscConfig+0x4e2>
 80041c0:	40023800 	.word	0x40023800
 80041c4:	42470000 	.word	0x42470000
 80041c8:	42470e80 	.word	0x42470e80
      while (__HAL_RCC_GET_FLAG(RCC_FLAG_LSIRDY) != RESET)
 80041cc:	4b88      	ldr	r3, [pc, #544]	@ (80043f0 <HAL_RCC_OscConfig+0x470>)
 80041ce:	6f5b      	ldr	r3, [r3, #116]	@ 0x74
 80041d0:	f003 0302 	and.w	r3, r3, #2
 80041d4:	2b00      	cmp	r3, #0
 80041d6:	d1ea      	bne.n	80041ae <HAL_RCC_OscConfig+0x22e>
        }
      }
    }
  }
  /*------------------------------ LSE Configuration -------------------------*/
  if (((RCC_OscInitStruct->OscillatorType) & RCC_OSCILLATORTYPE_LSE) == RCC_OSCILLATORTYPE_LSE)
 80041d8:	687b      	ldr	r3, [r7, #4]
 80041da:	681b      	ldr	r3, [r3, #0]
 80041dc:	f003 0304 	and.w	r3, r3, #4
 80041e0:	2b00      	cmp	r3, #0
 80041e2:	f000 8097 	beq.w	8004314 <HAL_RCC_OscConfig+0x394>
  {
    FlagStatus       pwrclkchanged = RESET;
 80041e6:	2300      	movs	r3, #0
 80041e8:	75fb      	strb	r3, [r7, #23]
    /* Check the parameters */
    assert_param(IS_RCC_LSE(RCC_OscInitStruct->LSEState));

    /* Update LSE configuration in Backup Domain control register    */
    /* Requires to enable write access to Backup Domain of necessary */
    if (__HAL_RCC_PWR_IS_CLK_DISABLED())
 80041ea:	4b81      	ldr	r3, [pc, #516]	@ (80043f0 <HAL_RCC_OscConfig+0x470>)
 80041ec:	6c1b      	ldr	r3, [r3, #64]	@ 0x40
 80041ee:	f003 5380 	and.w	r3, r3, #268435456	@ 0x10000000
 80041f2:	2b00      	cmp	r3, #0
 80041f4:	d10f      	bne.n	8004216 <HAL_RCC_OscConfig+0x296>
    {
      __HAL_RCC_PWR_CLK_ENABLE();
 80041f6:	2300      	movs	r3, #0
 80041f8:	60bb      	str	r3, [r7, #8]
 80041fa:	4b7d      	ldr	r3, [pc, #500]	@ (80043f0 <HAL_RCC_OscConfig+0x470>)
 80041fc:	6c1b      	ldr	r3, [r3, #64]	@ 0x40
 80041fe:	4a7c      	ldr	r2, [pc, #496]	@ (80043f0 <HAL_RCC_OscConfig+0x470>)
 8004200:	f043 5380 	orr.w	r3, r3, #268435456	@ 0x10000000
 8004204:	6413      	str	r3, [r2, #64]	@ 0x40
 8004206:	4b7a      	ldr	r3, [pc, #488]	@ (80043f0 <HAL_RCC_OscConfig+0x470>)
 8004208:	6c1b      	ldr	r3, [r3, #64]	@ 0x40
 800420a:	f003 5380 	and.w	r3, r3, #268435456	@ 0x10000000
 800420e:	60bb      	str	r3, [r7, #8]
 8004210:	68bb      	ldr	r3, [r7, #8]
      pwrclkchanged = SET;
 8004212:	2301      	movs	r3, #1
 8004214:	75fb      	strb	r3, [r7, #23]
    }

    if (HAL_IS_BIT_CLR(PWR->CR, PWR_CR_DBP))
 8004216:	4b77      	ldr	r3, [pc, #476]	@ (80043f4 <HAL_RCC_OscConfig+0x474>)
 8004218:	681b      	ldr	r3, [r3, #0]
 800421a:	f403 7380 	and.w	r3, r3, #256	@ 0x100
 800421e:	2b00      	cmp	r3, #0
 8004220:	d118      	bne.n	8004254 <HAL_RCC_OscConfig+0x2d4>
    {
      /* Enable write access to Backup domain */
      SET_BIT(PWR->CR, PWR_CR_DBP);
 8004222:	4b74      	ldr	r3, [pc, #464]	@ (80043f4 <HAL_RCC_OscConfig+0x474>)
 8004224:	681b      	ldr	r3, [r3, #0]
 8004226:	4a73      	ldr	r2, [pc, #460]	@ (80043f4 <HAL_RCC_OscConfig+0x474>)
 8004228:	f443 7380 	orr.w	r3, r3, #256	@ 0x100
 800422c:	6013      	str	r3, [r2, #0]

      /* Wait for Backup domain Write protection disable */
      tickstart = HAL_GetTick();
 800422e:	f7fd ff5d 	bl	80020ec <HAL_GetTick>
 8004232:	6138      	str	r0, [r7, #16]

      while (HAL_IS_BIT_CLR(PWR->CR, PWR_CR_DBP))
 8004234:	e008      	b.n	8004248 <HAL_RCC_OscConfig+0x2c8>
      {
        if ((HAL_GetTick() - tickstart) > RCC_DBP_TIMEOUT_VALUE)
 8004236:	f7fd ff59 	bl	80020ec <HAL_GetTick>
 800423a:	4602      	mov	r2, r0
 800423c:	693b      	ldr	r3, [r7, #16]
 800423e:	1ad3      	subs	r3, r2, r3
 8004240:	2b02      	cmp	r3, #2
 8004242:	d901      	bls.n	8004248 <HAL_RCC_OscConfig+0x2c8>
        {
          return HAL_TIMEOUT;
 8004244:	2303      	movs	r3, #3
 8004246:	e10c      	b.n	8004462 <HAL_RCC_OscConfig+0x4e2>
      while (HAL_IS_BIT_CLR(PWR->CR, PWR_CR_DBP))
 8004248:	4b6a      	ldr	r3, [pc, #424]	@ (80043f4 <HAL_RCC_OscConfig+0x474>)
 800424a:	681b      	ldr	r3, [r3, #0]
 800424c:	f403 7380 	and.w	r3, r3, #256	@ 0x100
 8004250:	2b00      	cmp	r3, #0
 8004252:	d0f0      	beq.n	8004236 <HAL_RCC_OscConfig+0x2b6>
        }
      }
    }

    /* Set the new LSE configuration -----------------------------------------*/
    __HAL_RCC_LSE_CONFIG(RCC_OscInitStruct->LSEState);
 8004254:	687b      	ldr	r3, [r7, #4]
 8004256:	689b      	ldr	r3, [r3, #8]
 8004258:	2b01      	cmp	r3, #1
 800425a:	d106      	bne.n	800426a <HAL_RCC_OscConfig+0x2ea>
 800425c:	4b64      	ldr	r3, [pc, #400]	@ (80043f0 <HAL_RCC_OscConfig+0x470>)
 800425e:	6f1b      	ldr	r3, [r3, #112]	@ 0x70
 8004260:	4a63      	ldr	r2, [pc, #396]	@ (80043f0 <HAL_RCC_OscConfig+0x470>)
 8004262:	f043 0301 	orr.w	r3, r3, #1
 8004266:	6713      	str	r3, [r2, #112]	@ 0x70
 8004268:	e01c      	b.n	80042a4 <HAL_RCC_OscConfig+0x324>
 800426a:	687b      	ldr	r3, [r7, #4]
 800426c:	689b      	ldr	r3, [r3, #8]
 800426e:	2b05      	cmp	r3, #5
 8004270:	d10c      	bne.n	800428c <HAL_RCC_OscConfig+0x30c>
 8004272:	4b5f      	ldr	r3, [pc, #380]	@ (80043f0 <HAL_RCC_OscConfig+0x470>)
 8004274:	6f1b      	ldr	r3, [r3, #112]	@ 0x70
 8004276:	4a5e      	ldr	r2, [pc, #376]	@ (80043f0 <HAL_RCC_OscConfig+0x470>)
 8004278:	f043 0304 	orr.w	r3, r3, #4
 800427c:	6713      	str	r3, [r2, #112]	@ 0x70
 800427e:	4b5c      	ldr	r3, [pc, #368]	@ (80043f0 <HAL_RCC_OscConfig+0x470>)
 8004280:	6f1b      	ldr	r3, [r3, #112]	@ 0x70
 8004282:	4a5b      	ldr	r2, [pc, #364]	@ (80043f0 <HAL_RCC_OscConfig+0x470>)
 8004284:	f043 0301 	orr.w	r3, r3, #1
 8004288:	6713      	str	r3, [r2, #112]	@ 0x70
 800428a:	e00b      	b.n	80042a4 <HAL_RCC_OscConfig+0x324>
 800428c:	4b58      	ldr	r3, [pc, #352]	@ (80043f0 <HAL_RCC_OscConfig+0x470>)
 800428e:	6f1b      	ldr	r3, [r3, #112]	@ 0x70
 8004290:	4a57      	ldr	r2, [pc, #348]	@ (80043f0 <HAL_RCC_OscConfig+0x470>)
 8004292:	f023 0301 	bic.w	r3, r3, #1
 8004296:	6713      	str	r3, [r2, #112]	@ 0x70
 8004298:	4b55      	ldr	r3, [pc, #340]	@ (80043f0 <HAL_RCC_OscConfig+0x470>)
 800429a:	6f1b      	ldr	r3, [r3, #112]	@ 0x70
 800429c:	4a54      	ldr	r2, [pc, #336]	@ (80043f0 <HAL_RCC_OscConfig+0x470>)
 800429e:	f023 0304 	bic.w	r3, r3, #4
 80042a2:	6713      	str	r3, [r2, #112]	@ 0x70
    /* Check the LSE State */
    if ((RCC_OscInitStruct->LSEState) != RCC_LSE_OFF)
 80042a4:	687b      	ldr	r3, [r7, #4]
 80042a6:	689b      	ldr	r3, [r3, #8]
 80042a8:	2b00      	cmp	r3, #0
 80042aa:	d015      	beq.n	80042d8 <HAL_RCC_OscConfig+0x358>
    {
      /* Get Start Tick*/
      tickstart = HAL_GetTick();
 80042ac:	f7fd ff1e 	bl	80020ec <HAL_GetTick>
 80042b0:	6138      	str	r0, [r7, #16]

      /* Wait till LSE is ready */
      while (__HAL_RCC_GET_FLAG(RCC_FLAG_LSERDY) == RESET)
 80042b2:	e00a      	b.n	80042ca <HAL_RCC_OscConfig+0x34a>
      {
        if ((HAL_GetTick() - tickstart) > RCC_LSE_TIMEOUT_VALUE)
 80042b4:	f7fd ff1a 	bl	80020ec <HAL_GetTick>
 80042b8:	4602      	mov	r2, r0
 80042ba:	693b      	ldr	r3, [r7, #16]
 80042bc:	1ad3      	subs	r3, r2, r3
 80042be:	f241 3288 	movw	r2, #5000	@ 0x1388
 80042c2:	4293      	cmp	r3, r2
 80042c4:	d901      	bls.n	80042ca <HAL_RCC_OscConfig+0x34a>
        {
          return HAL_TIMEOUT;
 80042c6:	2303      	movs	r3, #3
 80042c8:	e0cb      	b.n	8004462 <HAL_RCC_OscConfig+0x4e2>
      while (__HAL_RCC_GET_FLAG(RCC_FLAG_LSERDY) == RESET)
 80042ca:	4b49      	ldr	r3, [pc, #292]	@ (80043f0 <HAL_RCC_OscConfig+0x470>)
 80042cc:	6f1b      	ldr	r3, [r3, #112]	@ 0x70
 80042ce:	f003 0302 	and.w	r3, r3, #2
 80042d2:	2b00      	cmp	r3, #0
 80042d4:	d0ee      	beq.n	80042b4 <HAL_RCC_OscConfig+0x334>
 80042d6:	e014      	b.n	8004302 <HAL_RCC_OscConfig+0x382>
      }
    }
    else
    {
      /* Get Start Tick */
      tickstart = HAL_GetTick();
 80042d8:	f7fd ff08 	bl	80020ec <HAL_GetTick>
 80042dc:	6138      	str	r0, [r7, #16]

      /* Wait till LSE is ready */
      while (__HAL_RCC_GET_FLAG(RCC_FLAG_LSERDY) != RESET)
 80042de:	e00a      	b.n	80042f6 <HAL_RCC_OscConfig+0x376>
      {
        if ((HAL_GetTick() - tickstart) > RCC_LSE_TIMEOUT_VALUE)
 80042e0:	f7fd ff04 	bl	80020ec <HAL_GetTick>
 80042e4:	4602      	mov	r2, r0
 80042e6:	693b      	ldr	r3, [r7, #16]
 80042e8:	1ad3      	subs	r3, r2, r3
 80042ea:	f241 3288 	movw	r2, #5000	@ 0x1388
 80042ee:	4293      	cmp	r3, r2
 80042f0:	d901      	bls.n	80042f6 <HAL_RCC_OscConfig+0x376>
        {
          return HAL_TIMEOUT;
 80042f2:	2303      	movs	r3, #3
 80042f4:	e0b5      	b.n	8004462 <HAL_RCC_OscConfig+0x4e2>
      while (__HAL_RCC_GET_FLAG(RCC_FLAG_LSERDY) != RESET)
 80042f6:	4b3e      	ldr	r3, [pc, #248]	@ (80043f0 <HAL_RCC_OscConfig+0x470>)
 80042f8:	6f1b      	ldr	r3, [r3, #112]	@ 0x70
 80042fa:	f003 0302 	and.w	r3, r3, #2
 80042fe:	2b00      	cmp	r3, #0
 8004300:	d1ee      	bne.n	80042e0 <HAL_RCC_OscConfig+0x360>
        }
      }
    }

    /* Restore clock configuration if changed */
    if (pwrclkchanged == SET)
 8004302:	7dfb      	ldrb	r3, [r7, #23]
 8004304:	2b01      	cmp	r3, #1
 8004306:	d105      	bne.n	8004314 <HAL_RCC_OscConfig+0x394>
    {
      __HAL_RCC_PWR_CLK_DISABLE();
 8004308:	4b39      	ldr	r3, [pc, #228]	@ (80043f0 <HAL_RCC_OscConfig+0x470>)
 800430a:	6c1b      	ldr	r3, [r3, #64]	@ 0x40
 800430c:	4a38      	ldr	r2, [pc, #224]	@ (80043f0 <HAL_RCC_OscConfig+0x470>)
 800430e:	f023 5380 	bic.w	r3, r3, #268435456	@ 0x10000000
 8004312:	6413      	str	r3, [r2, #64]	@ 0x40
    }
  }
  /*-------------------------------- PLL Configuration -----------------------*/
  /* Check the parameters */
  assert_param(IS_RCC_PLL(RCC_OscInitStruct->PLL.PLLState));
  if ((RCC_OscInitStruct->PLL.PLLState) != RCC_PLL_NONE)
 8004314:	687b      	ldr	r3, [r7, #4]
 8004316:	699b      	ldr	r3, [r3, #24]
 8004318:	2b00      	cmp	r3, #0
 800431a:	f000 80a1 	beq.w	8004460 <HAL_RCC_OscConfig+0x4e0>
  {
    /* Check if the PLL is used as system clock or not */
    if (__HAL_RCC_GET_SYSCLK_SOURCE() != RCC_CFGR_SWS_PLL)
 800431e:	4b34      	ldr	r3, [pc, #208]	@ (80043f0 <HAL_RCC_OscConfig+0x470>)
 8004320:	689b      	ldr	r3, [r3, #8]
 8004322:	f003 030c 	and.w	r3, r3, #12
 8004326:	2b08      	cmp	r3, #8
 8004328:	d05c      	beq.n	80043e4 <HAL_RCC_OscConfig+0x464>
    {
      if ((RCC_OscInitStruct->PLL.PLLState) == RCC_PLL_ON)
 800432a:	687b      	ldr	r3, [r7, #4]
 800432c:	699b      	ldr	r3, [r3, #24]
 800432e:	2b02      	cmp	r3, #2
 8004330:	d141      	bne.n	80043b6 <HAL_RCC_OscConfig+0x436>
        assert_param(IS_RCC_PLLN_VALUE(RCC_OscInitStruct->PLL.PLLN));
        assert_param(IS_RCC_PLLP_VALUE(RCC_OscInitStruct->PLL.PLLP));
        assert_param(IS_RCC_PLLQ_VALUE(RCC_OscInitStruct->PLL.PLLQ));

        /* Disable the main PLL. */
        __HAL_RCC_PLL_DISABLE();
 8004332:	4b31      	ldr	r3, [pc, #196]	@ (80043f8 <HAL_RCC_OscConfig+0x478>)
 8004334:	2200      	movs	r2, #0
 8004336:	601a      	str	r2, [r3, #0]

        /* Get Start Tick */
        tickstart = HAL_GetTick();
 8004338:	f7fd fed8 	bl	80020ec <HAL_GetTick>
 800433c:	6138      	str	r0, [r7, #16]

        /* Wait till PLL is disabled */
        while (__HAL_RCC_GET_FLAG(RCC_FLAG_PLLRDY) != RESET)
 800433e:	e008      	b.n	8004352 <HAL_RCC_OscConfig+0x3d2>
        {
          if ((HAL_GetTick() - tickstart) > PLL_TIMEOUT_VALUE)
 8004340:	f7fd fed4 	bl	80020ec <HAL_GetTick>
 8004344:	4602      	mov	r2, r0
 8004346:	693b      	ldr	r3, [r7, #16]
 8004348:	1ad3      	subs	r3, r2, r3
 800434a:	2b02      	cmp	r3, #2
 800434c:	d901      	bls.n	8004352 <HAL_RCC_OscConfig+0x3d2>
          {
            return HAL_TIMEOUT;
 800434e:	2303      	movs	r3, #3
 8004350:	e087      	b.n	8004462 <HAL_RCC_OscConfig+0x4e2>
        while (__HAL_RCC_GET_FLAG(RCC_FLAG_PLLRDY) != RESET)
 8004352:	4b27      	ldr	r3, [pc, #156]	@ (80043f0 <HAL_RCC_OscConfig+0x470>)
 8004354:	681b      	ldr	r3, [r3, #0]
 8004356:	f003 7300 	and.w	r3, r3, #33554432	@ 0x2000000
 800435a:	2b00      	cmp	r3, #0
 800435c:	d1f0      	bne.n	8004340 <HAL_RCC_OscConfig+0x3c0>
          }
        }

        /* Configure the main PLL clock source, multiplication and division factors. */
        WRITE_REG(RCC->PLLCFGR, (RCC_OscInitStruct->PLL.PLLSource                                            | \
 800435e:	687b      	ldr	r3, [r7, #4]
 8004360:	69da      	ldr	r2, [r3, #28]
 8004362:	687b      	ldr	r3, [r7, #4]
 8004364:	6a1b      	ldr	r3, [r3, #32]
 8004366:	431a      	orrs	r2, r3
 8004368:	687b      	ldr	r3, [r7, #4]
 800436a:	6a5b      	ldr	r3, [r3, #36]	@ 0x24
 800436c:	019b      	lsls	r3, r3, #6
 800436e:	431a      	orrs	r2, r3
 8004370:	687b      	ldr	r3, [r7, #4]
 8004372:	6a9b      	ldr	r3, [r3, #40]	@ 0x28
 8004374:	085b      	lsrs	r3, r3, #1
 8004376:	3b01      	subs	r3, #1
 8004378:	041b      	lsls	r3, r3, #16
 800437a:	431a      	orrs	r2, r3
 800437c:	687b      	ldr	r3, [r7, #4]
 800437e:	6adb      	ldr	r3, [r3, #44]	@ 0x2c
 8004380:	061b      	lsls	r3, r3, #24
 8004382:	491b      	ldr	r1, [pc, #108]	@ (80043f0 <HAL_RCC_OscConfig+0x470>)
 8004384:	4313      	orrs	r3, r2
 8004386:	604b      	str	r3, [r1, #4]
                                 RCC_OscInitStruct->PLL.PLLM                                                 | \
                                 (RCC_OscInitStruct->PLL.PLLN << RCC_PLLCFGR_PLLN_Pos)             | \
                                 (((RCC_OscInitStruct->PLL.PLLP >> 1U) - 1U) << RCC_PLLCFGR_PLLP_Pos) | \
                                 (RCC_OscInitStruct->PLL.PLLQ << RCC_PLLCFGR_PLLQ_Pos)));
        /* Enable the main PLL. */
        __HAL_RCC_PLL_ENABLE();
 8004388:	4b1b      	ldr	r3, [pc, #108]	@ (80043f8 <HAL_RCC_OscConfig+0x478>)
 800438a:	2201      	movs	r2, #1
 800438c:	601a      	str	r2, [r3, #0]

        /* Get Start Tick */
        tickstart = HAL_GetTick();
 800438e:	f7fd fead 	bl	80020ec <HAL_GetTick>
 8004392:	6138      	str	r0, [r7, #16]

        /* Wait till PLL is ready */
        while (__HAL_RCC_GET_FLAG(RCC_FLAG_PLLRDY) == RESET)
 8004394:	e008      	b.n	80043a8 <HAL_RCC_OscConfig+0x428>
        {
          if ((HAL_GetTick() - tickstart) > PLL_TIMEOUT_VALUE)
 8004396:	f7fd fea9 	bl	80020ec <HAL_GetTick>
 800439a:	4602      	mov	r2, r0
 800439c:	693b      	ldr	r3, [r7, #16]
 800439e:	1ad3      	subs	r3, r2, r3
 80043a0:	2b02      	cmp	r3, #2
 80043a2:	d901      	bls.n	80043a8 <HAL_RCC_OscConfig+0x428>
          {
            return HAL_TIMEOUT;
 80043a4:	2303      	movs	r3, #3
 80043a6:	e05c      	b.n	8004462 <HAL_RCC_OscConfig+0x4e2>
        while (__HAL_RCC_GET_FLAG(RCC_FLAG_PLLRDY) == RESET)
 80043a8:	4b11      	ldr	r3, [pc, #68]	@ (80043f0 <HAL_RCC_OscConfig+0x470>)
 80043aa:	681b      	ldr	r3, [r3, #0]
 80043ac:	f003 7300 	and.w	r3, r3, #33554432	@ 0x2000000
 80043b0:	2b00      	cmp	r3, #0
 80043b2:	d0f0      	beq.n	8004396 <HAL_RCC_OscConfig+0x416>
 80043b4:	e054      	b.n	8004460 <HAL_RCC_OscConfig+0x4e0>
        }
      }
      else
      {
        /* Disable the main PLL. */
        __HAL_RCC_PLL_DISABLE();
 80043b6:	4b10      	ldr	r3, [pc, #64]	@ (80043f8 <HAL_RCC_OscConfig+0x478>)
 80043b8:	2200      	movs	r2, #0
 80043ba:	601a      	str	r2, [r3, #0]

        /* Get Start Tick */
        tickstart = HAL_GetTick();
 80043bc:	f7fd fe96 	bl	80020ec <HAL_GetTick>
 80043c0:	6138      	str	r0, [r7, #16]

        /* Wait till PLL is disabled */
        while (__HAL_RCC_GET_FLAG(RCC_FLAG_PLLRDY) != RESET)
 80043c2:	e008      	b.n	80043d6 <HAL_RCC_OscConfig+0x456>
        {
          if ((HAL_GetTick() - tickstart) > PLL_TIMEOUT_VALUE)
 80043c4:	f7fd fe92 	bl	80020ec <HAL_GetTick>
 80043c8:	4602      	mov	r2, r0
 80043ca:	693b      	ldr	r3, [r7, #16]
 80043cc:	1ad3      	subs	r3, r2, r3
 80043ce:	2b02      	cmp	r3, #2
 80043d0:	d901      	bls.n	80043d6 <HAL_RCC_OscConfig+0x456>
          {
            return HAL_TIMEOUT;
 80043d2:	2303      	movs	r3, #3
 80043d4:	e045      	b.n	8004462 <HAL_RCC_OscConfig+0x4e2>
        while (__HAL_RCC_GET_FLAG(RCC_FLAG_PLLRDY) != RESET)
 80043d6:	4b06      	ldr	r3, [pc, #24]	@ (80043f0 <HAL_RCC_OscConfig+0x470>)
 80043d8:	681b      	ldr	r3, [r3, #0]
 80043da:	f003 7300 	and.w	r3, r3, #33554432	@ 0x2000000
 80043de:	2b00      	cmp	r3, #0
 80043e0:	d1f0      	bne.n	80043c4 <HAL_RCC_OscConfig+0x444>
 80043e2:	e03d      	b.n	8004460 <HAL_RCC_OscConfig+0x4e0>
      }
    }
    else
    {
      /* Check if there is a request to disable the PLL used as System clock source */
      if ((RCC_OscInitStruct->PLL.PLLState) == RCC_PLL_OFF)
 80043e4:	687b      	ldr	r3, [r7, #4]
 80043e6:	699b      	ldr	r3, [r3, #24]
 80043e8:	2b01      	cmp	r3, #1
 80043ea:	d107      	bne.n	80043fc <HAL_RCC_OscConfig+0x47c>
      {
        return HAL_ERROR;
 80043ec:	2301      	movs	r3, #1
 80043ee:	e038      	b.n	8004462 <HAL_RCC_OscConfig+0x4e2>
 80043f0:	40023800 	.word	0x40023800
 80043f4:	40007000 	.word	0x40007000
 80043f8:	42470060 	.word	0x42470060
      }
      else
      {
        /* Do not return HAL_ERROR if request repeats the current configuration */
        pll_config = RCC->PLLCFGR;
 80043fc:	4b1b      	ldr	r3, [pc, #108]	@ (800446c <HAL_RCC_OscConfig+0x4ec>)
 80043fe:	685b      	ldr	r3, [r3, #4]
 8004400:	60fb      	str	r3, [r7, #12]
            (READ_BIT(pll_config, RCC_PLLCFGR_PLLN) != (RCC_OscInitStruct->PLL.PLLN) << RCC_PLLCFGR_PLLN_Pos) ||
            (READ_BIT(pll_config, RCC_PLLCFGR_PLLP) != (((RCC_OscInitStruct->PLL.PLLP >> 1U) - 1U)) << RCC_PLLCFGR_PLLP_Pos) ||
            (READ_BIT(pll_config, RCC_PLLCFGR_PLLQ) != (RCC_OscInitStruct->PLL.PLLQ << RCC_PLLCFGR_PLLQ_Pos)) ||
            (READ_BIT(pll_config, RCC_PLLCFGR_PLLR) != (RCC_OscInitStruct->PLL.PLLR << RCC_PLLCFGR_PLLR_Pos)))
#else
        if (((RCC_OscInitStruct->PLL.PLLState) == RCC_PLL_OFF) ||
 8004402:	687b      	ldr	r3, [r7, #4]
 8004404:	699b      	ldr	r3, [r3, #24]
 8004406:	2b01      	cmp	r3, #1
 8004408:	d028      	beq.n	800445c <HAL_RCC_OscConfig+0x4dc>
            (READ_BIT(pll_config, RCC_PLLCFGR_PLLSRC) != RCC_OscInitStruct->PLL.PLLSource) ||
 800440a:	68fb      	ldr	r3, [r7, #12]
 800440c:	f403 0280 	and.w	r2, r3, #4194304	@ 0x400000
 8004410:	687b      	ldr	r3, [r7, #4]
 8004412:	69db      	ldr	r3, [r3, #28]
        if (((RCC_OscInitStruct->PLL.PLLState) == RCC_PLL_OFF) ||
 8004414:	429a      	cmp	r2, r3
 8004416:	d121      	bne.n	800445c <HAL_RCC_OscConfig+0x4dc>
            (READ_BIT(pll_config, RCC_PLLCFGR_PLLM) != (RCC_OscInitStruct->PLL.PLLM) << RCC_PLLCFGR_PLLM_Pos) ||
 8004418:	68fb      	ldr	r3, [r7, #12]
 800441a:	f003 023f 	and.w	r2, r3, #63	@ 0x3f
 800441e:	687b      	ldr	r3, [r7, #4]
 8004420:	6a1b      	ldr	r3, [r3, #32]
            (READ_BIT(pll_config, RCC_PLLCFGR_PLLSRC) != RCC_OscInitStruct->PLL.PLLSource) ||
 8004422:	429a      	cmp	r2, r3
 8004424:	d11a      	bne.n	800445c <HAL_RCC_OscConfig+0x4dc>
            (READ_BIT(pll_config, RCC_PLLCFGR_PLLN) != (RCC_OscInitStruct->PLL.PLLN) << RCC_PLLCFGR_PLLN_Pos) ||
 8004426:	68fa      	ldr	r2, [r7, #12]
 8004428:	f647 73c0 	movw	r3, #32704	@ 0x7fc0
 800442c:	4013      	ands	r3, r2
 800442e:	687a      	ldr	r2, [r7, #4]
 8004430:	6a52      	ldr	r2, [r2, #36]	@ 0x24
 8004432:	0192      	lsls	r2, r2, #6
            (READ_BIT(pll_config, RCC_PLLCFGR_PLLM) != (RCC_OscInitStruct->PLL.PLLM) << RCC_PLLCFGR_PLLM_Pos) ||
 8004434:	4293      	cmp	r3, r2
 8004436:	d111      	bne.n	800445c <HAL_RCC_OscConfig+0x4dc>
            (READ_BIT(pll_config, RCC_PLLCFGR_PLLP) != (((RCC_OscInitStruct->PLL.PLLP >> 1U) - 1U)) << RCC_PLLCFGR_PLLP_Pos) ||
 8004438:	68fb      	ldr	r3, [r7, #12]
 800443a:	f403 3240 	and.w	r2, r3, #196608	@ 0x30000
 800443e:	687b      	ldr	r3, [r7, #4]
 8004440:	6a9b      	ldr	r3, [r3, #40]	@ 0x28
 8004442:	085b      	lsrs	r3, r3, #1
 8004444:	3b01      	subs	r3, #1
 8004446:	041b      	lsls	r3, r3, #16
            (READ_BIT(pll_config, RCC_PLLCFGR_PLLN) != (RCC_OscInitStruct->PLL.PLLN) << RCC_PLLCFGR_PLLN_Pos) ||
 8004448:	429a      	cmp	r2, r3
 800444a:	d107      	bne.n	800445c <HAL_RCC_OscConfig+0x4dc>
            (READ_BIT(pll_config, RCC_PLLCFGR_PLLQ) != (RCC_OscInitStruct->PLL.PLLQ << RCC_PLLCFGR_PLLQ_Pos)))
 800444c:	68fb      	ldr	r3, [r7, #12]
 800444e:	f003 6270 	and.w	r2, r3, #251658240	@ 0xf000000
 8004452:	687b      	ldr	r3, [r7, #4]
 8004454:	6adb      	ldr	r3, [r3, #44]	@ 0x2c
 8004456:	061b      	lsls	r3, r3, #24
            (READ_BIT(pll_config, RCC_PLLCFGR_PLLP) != (((RCC_OscInitStruct->PLL.PLLP >> 1U) - 1U)) << RCC_PLLCFGR_PLLP_Pos) ||
 8004458:	429a      	cmp	r2, r3
 800445a:	d001      	beq.n	8004460 <HAL_RCC_OscConfig+0x4e0>
#endif /* RCC_PLLCFGR_PLLR */
        {
          return HAL_ERROR;
 800445c:	2301      	movs	r3, #1
 800445e:	e000      	b.n	8004462 <HAL_RCC_OscConfig+0x4e2>
        }
      }
    }
  }
  return HAL_OK;
 8004460:	2300      	movs	r3, #0
}
 8004462:	4618      	mov	r0, r3
 8004464:	3718      	adds	r7, #24
 8004466:	46bd      	mov	sp, r7
 8004468:	bd80      	pop	{r7, pc}
 800446a:	bf00      	nop
 800446c:	40023800 	.word	0x40023800

08004470 <HAL_RCC_ClockConfig>:
  *         HPRE[3:0] bits to ensure that HCLK not exceed the maximum allowed frequency
  *         (for more details refer to section above "Initialization/de-initialization functions")
  * @retval None
  */
HAL_StatusTypeDef HAL_RCC_ClockConfig(RCC_ClkInitTypeDef  *RCC_ClkInitStruct, uint32_t FLatency)
{
 8004470:	b580      	push	{r7, lr}
 8004472:	b084      	sub	sp, #16
 8004474:	af00      	add	r7, sp, #0
 8004476:	6078      	str	r0, [r7, #4]
 8004478:	6039      	str	r1, [r7, #0]
  uint32_t tickstart;

  /* Check Null pointer */
  if (RCC_ClkInitStruct == NULL)
 800447a:	687b      	ldr	r3, [r7, #4]
 800447c:	2b00      	cmp	r3, #0
 800447e:	d101      	bne.n	8004484 <HAL_RCC_ClockConfig+0x14>
  {
    return HAL_ERROR;
 8004480:	2301      	movs	r3, #1
 8004482:	e0cc      	b.n	800461e <HAL_RCC_ClockConfig+0x1ae>
  /* To correctly read data from FLASH memory, the number of wait states (LATENCY)
    must be correctly programmed according to the frequency of the CPU clock
    (HCLK) and the supply voltage of the device. */

  /* Increasing the number of wait states because of higher CPU frequency */
  if (FLatency > __HAL_FLASH_GET_LATENCY())
 8004484:	4b68      	ldr	r3, [pc, #416]	@ (8004628 <HAL_RCC_ClockConfig+0x1b8>)
 8004486:	681b      	ldr	r3, [r3, #0]
 8004488:	f003 0307 	and.w	r3, r3, #7
 800448c:	683a      	ldr	r2, [r7, #0]
 800448e:	429a      	cmp	r2, r3
 8004490:	d90c      	bls.n	80044ac <HAL_RCC_ClockConfig+0x3c>
  {
    /* Program the new number of wait states to the LATENCY bits in the FLASH_ACR register */
    __HAL_FLASH_SET_LATENCY(FLatency);
 8004492:	4b65      	ldr	r3, [pc, #404]	@ (8004628 <HAL_RCC_ClockConfig+0x1b8>)
 8004494:	683a      	ldr	r2, [r7, #0]
 8004496:	b2d2      	uxtb	r2, r2
 8004498:	701a      	strb	r2, [r3, #0]

    /* Check that the new number of wait states is taken into account to access the Flash
    memory by reading the FLASH_ACR register */
    if (__HAL_FLASH_GET_LATENCY() != FLatency)
 800449a:	4b63      	ldr	r3, [pc, #396]	@ (8004628 <HAL_RCC_ClockConfig+0x1b8>)
 800449c:	681b      	ldr	r3, [r3, #0]
 800449e:	f003 0307 	and.w	r3, r3, #7
 80044a2:	683a      	ldr	r2, [r7, #0]
 80044a4:	429a      	cmp	r2, r3
 80044a6:	d001      	beq.n	80044ac <HAL_RCC_ClockConfig+0x3c>
    {
      return HAL_ERROR;
 80044a8:	2301      	movs	r3, #1
 80044aa:	e0b8      	b.n	800461e <HAL_RCC_ClockConfig+0x1ae>
    }
  }

  /*-------------------------- HCLK Configuration --------------------------*/
  if (((RCC_ClkInitStruct->ClockType) & RCC_CLOCKTYPE_HCLK) == RCC_CLOCKTYPE_HCLK)
 80044ac:	687b      	ldr	r3, [r7, #4]
 80044ae:	681b      	ldr	r3, [r3, #0]
 80044b0:	f003 0302 	and.w	r3, r3, #2
 80044b4:	2b00      	cmp	r3, #0
 80044b6:	d020      	beq.n	80044fa <HAL_RCC_ClockConfig+0x8a>
  {
    /* Set the highest APBx dividers in order to ensure that we do not go through
       a non-spec phase whatever we decrease or increase HCLK. */
    if (((RCC_ClkInitStruct->ClockType) & RCC_CLOCKTYPE_PCLK1) == RCC_CLOCKTYPE_PCLK1)
 80044b8:	687b      	ldr	r3, [r7, #4]
 80044ba:	681b      	ldr	r3, [r3, #0]
 80044bc:	f003 0304 	and.w	r3, r3, #4
 80044c0:	2b00      	cmp	r3, #0
 80044c2:	d005      	beq.n	80044d0 <HAL_RCC_ClockConfig+0x60>
    {
      MODIFY_REG(RCC->CFGR, RCC_CFGR_PPRE1, RCC_HCLK_DIV16);
 80044c4:	4b59      	ldr	r3, [pc, #356]	@ (800462c <HAL_RCC_ClockConfig+0x1bc>)
 80044c6:	689b      	ldr	r3, [r3, #8]
 80044c8:	4a58      	ldr	r2, [pc, #352]	@ (800462c <HAL_RCC_ClockConfig+0x1bc>)
 80044ca:	f443 53e0 	orr.w	r3, r3, #7168	@ 0x1c00
 80044ce:	6093      	str	r3, [r2, #8]
    }

    if (((RCC_ClkInitStruct->ClockType) & RCC_CLOCKTYPE_PCLK2) == RCC_CLOCKTYPE_PCLK2)
 80044d0:	687b      	ldr	r3, [r7, #4]
 80044d2:	681b      	ldr	r3, [r3, #0]
 80044d4:	f003 0308 	and.w	r3, r3, #8
 80044d8:	2b00      	cmp	r3, #0
 80044da:	d005      	beq.n	80044e8 <HAL_RCC_ClockConfig+0x78>
    {
      MODIFY_REG(RCC->CFGR, RCC_CFGR_PPRE2, (RCC_HCLK_DIV16 << 3));
 80044dc:	4b53      	ldr	r3, [pc, #332]	@ (800462c <HAL_RCC_ClockConfig+0x1bc>)
 80044de:	689b      	ldr	r3, [r3, #8]
 80044e0:	4a52      	ldr	r2, [pc, #328]	@ (800462c <HAL_RCC_ClockConfig+0x1bc>)
 80044e2:	f443 4360 	orr.w	r3, r3, #57344	@ 0xe000
 80044e6:	6093      	str	r3, [r2, #8]
    }

    assert_param(IS_RCC_HCLK(RCC_ClkInitStruct->AHBCLKDivider));
    MODIFY_REG(RCC->CFGR, RCC_CFGR_HPRE, RCC_ClkInitStruct->AHBCLKDivider);
 80044e8:	4b50      	ldr	r3, [pc, #320]	@ (800462c <HAL_RCC_ClockConfig+0x1bc>)
 80044ea:	689b      	ldr	r3, [r3, #8]
 80044ec:	f023 02f0 	bic.w	r2, r3, #240	@ 0xf0
 80044f0:	687b      	ldr	r3, [r7, #4]
 80044f2:	689b      	ldr	r3, [r3, #8]
 80044f4:	494d      	ldr	r1, [pc, #308]	@ (800462c <HAL_RCC_ClockConfig+0x1bc>)
 80044f6:	4313      	orrs	r3, r2
 80044f8:	608b      	str	r3, [r1, #8]
  }

  /*------------------------- SYSCLK Configuration ---------------------------*/
  if (((RCC_ClkInitStruct->ClockType) & RCC_CLOCKTYPE_SYSCLK) == RCC_CLOCKTYPE_SYSCLK)
 80044fa:	687b      	ldr	r3, [r7, #4]
 80044fc:	681b      	ldr	r3, [r3, #0]
 80044fe:	f003 0301 	and.w	r3, r3, #1
 8004502:	2b00      	cmp	r3, #0
 8004504:	d044      	beq.n	8004590 <HAL_RCC_ClockConfig+0x120>
  {
    assert_param(IS_RCC_SYSCLKSOURCE(RCC_ClkInitStruct->SYSCLKSource));

    /* HSE is selected as System Clock Source */
    if (RCC_ClkInitStruct->SYSCLKSource == RCC_SYSCLKSOURCE_HSE)
 8004506:	687b      	ldr	r3, [r7, #4]
 8004508:	685b      	ldr	r3, [r3, #4]
 800450a:	2b01      	cmp	r3, #1
 800450c:	d107      	bne.n	800451e <HAL_RCC_ClockConfig+0xae>
    {
      /* Check the HSE ready flag */
      if (__HAL_RCC_GET_FLAG(RCC_FLAG_HSERDY) == RESET)
 800450e:	4b47      	ldr	r3, [pc, #284]	@ (800462c <HAL_RCC_ClockConfig+0x1bc>)
 8004510:	681b      	ldr	r3, [r3, #0]
 8004512:	f403 3300 	and.w	r3, r3, #131072	@ 0x20000
 8004516:	2b00      	cmp	r3, #0
 8004518:	d119      	bne.n	800454e <HAL_RCC_ClockConfig+0xde>
      {
        return HAL_ERROR;
 800451a:	2301      	movs	r3, #1
 800451c:	e07f      	b.n	800461e <HAL_RCC_ClockConfig+0x1ae>
      }
    }
    /* PLL is selected as System Clock Source */
    else if ((RCC_ClkInitStruct->SYSCLKSource == RCC_SYSCLKSOURCE_PLLCLK)   ||
 800451e:	687b      	ldr	r3, [r7, #4]
 8004520:	685b      	ldr	r3, [r3, #4]
 8004522:	2b02      	cmp	r3, #2
 8004524:	d003      	beq.n	800452e <HAL_RCC_ClockConfig+0xbe>
             (RCC_ClkInitStruct->SYSCLKSource == RCC_SYSCLKSOURCE_PLLRCLK))
 8004526:	687b      	ldr	r3, [r7, #4]
 8004528:	685b      	ldr	r3, [r3, #4]
    else if ((RCC_ClkInitStruct->SYSCLKSource == RCC_SYSCLKSOURCE_PLLCLK)   ||
 800452a:	2b03      	cmp	r3, #3
 800452c:	d107      	bne.n	800453e <HAL_RCC_ClockConfig+0xce>
    {
      /* Check the PLL ready flag */
      if (__HAL_RCC_GET_FLAG(RCC_FLAG_PLLRDY) == RESET)
 800452e:	4b3f      	ldr	r3, [pc, #252]	@ (800462c <HAL_RCC_ClockConfig+0x1bc>)
 8004530:	681b      	ldr	r3, [r3, #0]
 8004532:	f003 7300 	and.w	r3, r3, #33554432	@ 0x2000000
 8004536:	2b00      	cmp	r3, #0
 8004538:	d109      	bne.n	800454e <HAL_RCC_ClockConfig+0xde>
      {
        return HAL_ERROR;
 800453a:	2301      	movs	r3, #1
 800453c:	e06f      	b.n	800461e <HAL_RCC_ClockConfig+0x1ae>
    }
    /* HSI is selected as System Clock Source */
    else
    {
      /* Check the HSI ready flag */
      if (__HAL_RCC_GET_FLAG(RCC_FLAG_HSIRDY) == RESET)
 800453e:	4b3b      	ldr	r3, [pc, #236]	@ (800462c <HAL_RCC_ClockConfig+0x1bc>)
 8004540:	681b      	ldr	r3, [r3, #0]
 8004542:	f003 0302 	and.w	r3, r3, #2
 8004546:	2b00      	cmp	r3, #0
 8004548:	d101      	bne.n	800454e <HAL_RCC_ClockConfig+0xde>
      {
        return HAL_ERROR;
 800454a:	2301      	movs	r3, #1
 800454c:	e067      	b.n	800461e <HAL_RCC_ClockConfig+0x1ae>
      }
    }

    __HAL_RCC_SYSCLK_CONFIG(RCC_ClkInitStruct->SYSCLKSource);
 800454e:	4b37      	ldr	r3, [pc, #220]	@ (800462c <HAL_RCC_ClockConfig+0x1bc>)
 8004550:	689b      	ldr	r3, [r3, #8]
 8004552:	f023 0203 	bic.w	r2, r3, #3
 8004556:	687b      	ldr	r3, [r7, #4]
 8004558:	685b      	ldr	r3, [r3, #4]
 800455a:	4934      	ldr	r1, [pc, #208]	@ (800462c <HAL_RCC_ClockConfig+0x1bc>)
 800455c:	4313      	orrs	r3, r2
 800455e:	608b      	str	r3, [r1, #8]

    /* Get Start Tick */
    tickstart = HAL_GetTick();
 8004560:	f7fd fdc4 	bl	80020ec <HAL_GetTick>
 8004564:	60f8      	str	r0, [r7, #12]

    while (__HAL_RCC_GET_SYSCLK_SOURCE() != (RCC_ClkInitStruct->SYSCLKSource << RCC_CFGR_SWS_Pos))
 8004566:	e00a      	b.n	800457e <HAL_RCC_ClockConfig+0x10e>
    {
      if ((HAL_GetTick() - tickstart) > CLOCKSWITCH_TIMEOUT_VALUE)
 8004568:	f7fd fdc0 	bl	80020ec <HAL_GetTick>
 800456c:	4602      	mov	r2, r0
 800456e:	68fb      	ldr	r3, [r7, #12]
 8004570:	1ad3      	subs	r3, r2, r3
 8004572:	f241 3288 	movw	r2, #5000	@ 0x1388
 8004576:	4293      	cmp	r3, r2
 8004578:	d901      	bls.n	800457e <HAL_RCC_ClockConfig+0x10e>
      {
        return HAL_TIMEOUT;
 800457a:	2303      	movs	r3, #3
 800457c:	e04f      	b.n	800461e <HAL_RCC_ClockConfig+0x1ae>
    while (__HAL_RCC_GET_SYSCLK_SOURCE() != (RCC_ClkInitStruct->SYSCLKSource << RCC_CFGR_SWS_Pos))
 800457e:	4b2b      	ldr	r3, [pc, #172]	@ (800462c <HAL_RCC_ClockConfig+0x1bc>)
 8004580:	689b      	ldr	r3, [r3, #8]
 8004582:	f003 020c 	and.w	r2, r3, #12
 8004586:	687b      	ldr	r3, [r7, #4]
 8004588:	685b      	ldr	r3, [r3, #4]
 800458a:	009b      	lsls	r3, r3, #2
 800458c:	429a      	cmp	r2, r3
 800458e:	d1eb      	bne.n	8004568 <HAL_RCC_ClockConfig+0xf8>
      }
    }
  }

  /* Decreasing the number of wait states because of lower CPU frequency */
  if (FLatency < __HAL_FLASH_GET_LATENCY())
 8004590:	4b25      	ldr	r3, [pc, #148]	@ (8004628 <HAL_RCC_ClockConfig+0x1b8>)
 8004592:	681b      	ldr	r3, [r3, #0]
 8004594:	f003 0307 	and.w	r3, r3, #7
 8004598:	683a      	ldr	r2, [r7, #0]
 800459a:	429a      	cmp	r2, r3
 800459c:	d20c      	bcs.n	80045b8 <HAL_RCC_ClockConfig+0x148>
  {
    /* Program the new number of wait states to the LATENCY bits in the FLASH_ACR register */
    __HAL_FLASH_SET_LATENCY(FLatency);
 800459e:	4b22      	ldr	r3, [pc, #136]	@ (8004628 <HAL_RCC_ClockConfig+0x1b8>)
 80045a0:	683a      	ldr	r2, [r7, #0]
 80045a2:	b2d2      	uxtb	r2, r2
 80045a4:	701a      	strb	r2, [r3, #0]

    /* Check that the new number of wait states is taken into account to access the Flash
    memory by reading the FLASH_ACR register */
    if (__HAL_FLASH_GET_LATENCY() != FLatency)
 80045a6:	4b20      	ldr	r3, [pc, #128]	@ (8004628 <HAL_RCC_ClockConfig+0x1b8>)
 80045a8:	681b      	ldr	r3, [r3, #0]
 80045aa:	f003 0307 	and.w	r3, r3, #7
 80045ae:	683a      	ldr	r2, [r7, #0]
 80045b0:	429a      	cmp	r2, r3
 80045b2:	d001      	beq.n	80045b8 <HAL_RCC_ClockConfig+0x148>
    {
      return HAL_ERROR;
 80045b4:	2301      	movs	r3, #1
 80045b6:	e032      	b.n	800461e <HAL_RCC_ClockConfig+0x1ae>
    }
  }

  /*-------------------------- PCLK1 Configuration ---------------------------*/
  if (((RCC_ClkInitStruct->ClockType) & RCC_CLOCKTYPE_PCLK1) == RCC_CLOCKTYPE_PCLK1)
 80045b8:	687b      	ldr	r3, [r7, #4]
 80045ba:	681b      	ldr	r3, [r3, #0]
 80045bc:	f003 0304 	and.w	r3, r3, #4
 80045c0:	2b00      	cmp	r3, #0
 80045c2:	d008      	beq.n	80045d6 <HAL_RCC_ClockConfig+0x166>
  {
    assert_param(IS_RCC_PCLK(RCC_ClkInitStruct->APB1CLKDivider));
    MODIFY_REG(RCC->CFGR, RCC_CFGR_PPRE1, RCC_ClkInitStruct->APB1CLKDivider);
 80045c4:	4b19      	ldr	r3, [pc, #100]	@ (800462c <HAL_RCC_ClockConfig+0x1bc>)
 80045c6:	689b      	ldr	r3, [r3, #8]
 80045c8:	f423 52e0 	bic.w	r2, r3, #7168	@ 0x1c00
 80045cc:	687b      	ldr	r3, [r7, #4]
 80045ce:	68db      	ldr	r3, [r3, #12]
 80045d0:	4916      	ldr	r1, [pc, #88]	@ (800462c <HAL_RCC_ClockConfig+0x1bc>)
 80045d2:	4313      	orrs	r3, r2
 80045d4:	608b      	str	r3, [r1, #8]
  }

  /*-------------------------- PCLK2 Configuration ---------------------------*/
  if (((RCC_ClkInitStruct->ClockType) & RCC_CLOCKTYPE_PCLK2) == RCC_CLOCKTYPE_PCLK2)
 80045d6:	687b      	ldr	r3, [r7, #4]
 80045d8:	681b      	ldr	r3, [r3, #0]
 80045da:	f003 0308 	and.w	r3, r3, #8
 80045de:	2b00      	cmp	r3, #0
 80045e0:	d009      	beq.n	80045f6 <HAL_RCC_ClockConfig+0x186>
  {
    assert_param(IS_RCC_PCLK(RCC_ClkInitStruct->APB2CLKDivider));
    MODIFY_REG(RCC->CFGR, RCC_CFGR_PPRE2, ((RCC_ClkInitStruct->APB2CLKDivider) << 3U));
 80045e2:	4b12      	ldr	r3, [pc, #72]	@ (800462c <HAL_RCC_ClockConfig+0x1bc>)
 80045e4:	689b      	ldr	r3, [r3, #8]
 80045e6:	f423 4260 	bic.w	r2, r3, #57344	@ 0xe000
 80045ea:	687b      	ldr	r3, [r7, #4]
 80045ec:	691b      	ldr	r3, [r3, #16]
 80045ee:	00db      	lsls	r3, r3, #3
 80045f0:	490e      	ldr	r1, [pc, #56]	@ (800462c <HAL_RCC_ClockConfig+0x1bc>)
 80045f2:	4313      	orrs	r3, r2
 80045f4:	608b      	str	r3, [r1, #8]
  }

  /* Update the SystemCoreClock global variable */
  SystemCoreClock = HAL_RCC_GetSysClockFreq() >> AHBPrescTable[(RCC->CFGR & RCC_CFGR_HPRE) >> RCC_CFGR_HPRE_Pos];
 80045f6:	f000 f821 	bl	800463c <HAL_RCC_GetSysClockFreq>
 80045fa:	4602      	mov	r2, r0
 80045fc:	4b0b      	ldr	r3, [pc, #44]	@ (800462c <HAL_RCC_ClockConfig+0x1bc>)
 80045fe:	689b      	ldr	r3, [r3, #8]
 8004600:	091b      	lsrs	r3, r3, #4
 8004602:	f003 030f 	and.w	r3, r3, #15
 8004606:	490a      	ldr	r1, [pc, #40]	@ (8004630 <HAL_RCC_ClockConfig+0x1c0>)
 8004608:	5ccb      	ldrb	r3, [r1, r3]
 800460a:	fa22 f303 	lsr.w	r3, r2, r3
 800460e:	4a09      	ldr	r2, [pc, #36]	@ (8004634 <HAL_RCC_ClockConfig+0x1c4>)
 8004610:	6013      	str	r3, [r2, #0]

  /* Configure the source of time base considering new system clocks settings */
  HAL_InitTick(uwTickPrio);
 8004612:	4b09      	ldr	r3, [pc, #36]	@ (8004638 <HAL_RCC_ClockConfig+0x1c8>)
 8004614:	681b      	ldr	r3, [r3, #0]
 8004616:	4618      	mov	r0, r3
 8004618:	f7fd fd24 	bl	8002064 <HAL_InitTick>

  return HAL_OK;
 800461c:	2300      	movs	r3, #0
}
 800461e:	4618      	mov	r0, r3
 8004620:	3710      	adds	r7, #16
 8004622:	46bd      	mov	sp, r7
 8004624:	bd80      	pop	{r7, pc}
 8004626:	bf00      	nop
 8004628:	40023c00 	.word	0x40023c00
 800462c:	40023800 	.word	0x40023800
 8004630:	08005824 	.word	0x08005824
 8004634:	20000008 	.word	0x20000008
 8004638:	2000000c 	.word	0x2000000c

0800463c <HAL_RCC_GetSysClockFreq>:
  *
  *
  * @retval SYSCLK frequency
  */
__weak uint32_t HAL_RCC_GetSysClockFreq(void)
{
 800463c:	e92d 4fb0 	stmdb	sp!, {r4, r5, r7, r8, r9, sl, fp, lr}
 8004640:	b090      	sub	sp, #64	@ 0x40
 8004642:	af00      	add	r7, sp, #0
  uint32_t pllm = 0U;
 8004644:	2300      	movs	r3, #0
 8004646:	637b      	str	r3, [r7, #52]	@ 0x34
  uint32_t pllvco = 0U;
 8004648:	2300      	movs	r3, #0
 800464a:	63fb      	str	r3, [r7, #60]	@ 0x3c
  uint32_t pllp = 0U;
 800464c:	2300      	movs	r3, #0
 800464e:	633b      	str	r3, [r7, #48]	@ 0x30
  uint32_t sysclockfreq = 0U;
 8004650:	2300      	movs	r3, #0
 8004652:	63bb      	str	r3, [r7, #56]	@ 0x38

  /* Get SYSCLK source -------------------------------------------------------*/
  switch (RCC->CFGR & RCC_CFGR_SWS)
 8004654:	4b59      	ldr	r3, [pc, #356]	@ (80047bc <HAL_RCC_GetSysClockFreq+0x180>)
 8004656:	689b      	ldr	r3, [r3, #8]
 8004658:	f003 030c 	and.w	r3, r3, #12
 800465c:	2b08      	cmp	r3, #8
 800465e:	d00d      	beq.n	800467c <HAL_RCC_GetSysClockFreq+0x40>
 8004660:	2b08      	cmp	r3, #8
 8004662:	f200 80a1 	bhi.w	80047a8 <HAL_RCC_GetSysClockFreq+0x16c>
 8004666:	2b00      	cmp	r3, #0
 8004668:	d002      	beq.n	8004670 <HAL_RCC_GetSysClockFreq+0x34>
 800466a:	2b04      	cmp	r3, #4
 800466c:	d003      	beq.n	8004676 <HAL_RCC_GetSysClockFreq+0x3a>
 800466e:	e09b      	b.n	80047a8 <HAL_RCC_GetSysClockFreq+0x16c>
  {
    case RCC_CFGR_SWS_HSI:  /* HSI used as system clock source */
    {
      sysclockfreq = HSI_VALUE;
 8004670:	4b53      	ldr	r3, [pc, #332]	@ (80047c0 <HAL_RCC_GetSysClockFreq+0x184>)
 8004672:	63bb      	str	r3, [r7, #56]	@ 0x38
      break;
 8004674:	e09b      	b.n	80047ae <HAL_RCC_GetSysClockFreq+0x172>
    }
    case RCC_CFGR_SWS_HSE:  /* HSE used as system clock  source */
    {
      sysclockfreq = HSE_VALUE;
 8004676:	4b53      	ldr	r3, [pc, #332]	@ (80047c4 <HAL_RCC_GetSysClockFreq+0x188>)
 8004678:	63bb      	str	r3, [r7, #56]	@ 0x38
      break;
 800467a:	e098      	b.n	80047ae <HAL_RCC_GetSysClockFreq+0x172>
    }
    case RCC_CFGR_SWS_PLL:  /* PLL used as system clock  source */
    {
      /* PLL_VCO = (HSE_VALUE or HSI_VALUE / PLLM) * PLLN
      SYSCLK = PLL_VCO / PLLP */
      pllm = RCC->PLLCFGR & RCC_PLLCFGR_PLLM;
 800467c:	4b4f      	ldr	r3, [pc, #316]	@ (80047bc <HAL_RCC_GetSysClockFreq+0x180>)
 800467e:	685b      	ldr	r3, [r3, #4]
 8004680:	f003 033f 	and.w	r3, r3, #63	@ 0x3f
 8004684:	637b      	str	r3, [r7, #52]	@ 0x34
      if (__HAL_RCC_GET_PLL_OSCSOURCE() != RCC_PLLSOURCE_HSI)
 8004686:	4b4d      	ldr	r3, [pc, #308]	@ (80047bc <HAL_RCC_GetSysClockFreq+0x180>)
 8004688:	685b      	ldr	r3, [r3, #4]
 800468a:	f403 0380 	and.w	r3, r3, #4194304	@ 0x400000
 800468e:	2b00      	cmp	r3, #0
 8004690:	d028      	beq.n	80046e4 <HAL_RCC_GetSysClockFreq+0xa8>
      {
        /* HSE used as PLL clock source */
        pllvco = (uint32_t)((((uint64_t) HSE_VALUE * ((uint64_t)((RCC->PLLCFGR & RCC_PLLCFGR_PLLN) >> RCC_PLLCFGR_PLLN_Pos)))) / (uint64_t)pllm);
 8004692:	4b4a      	ldr	r3, [pc, #296]	@ (80047bc <HAL_RCC_GetSysClockFreq+0x180>)
 8004694:	685b      	ldr	r3, [r3, #4]
 8004696:	099b      	lsrs	r3, r3, #6
 8004698:	2200      	movs	r2, #0
 800469a:	623b      	str	r3, [r7, #32]
 800469c:	627a      	str	r2, [r7, #36]	@ 0x24
 800469e:	6a3b      	ldr	r3, [r7, #32]
 80046a0:	f3c3 0008 	ubfx	r0, r3, #0, #9
 80046a4:	2100      	movs	r1, #0
 80046a6:	4b47      	ldr	r3, [pc, #284]	@ (80047c4 <HAL_RCC_GetSysClockFreq+0x188>)
 80046a8:	fb03 f201 	mul.w	r2, r3, r1
 80046ac:	2300      	movs	r3, #0
 80046ae:	fb00 f303 	mul.w	r3, r0, r3
 80046b2:	4413      	add	r3, r2
 80046b4:	4a43      	ldr	r2, [pc, #268]	@ (80047c4 <HAL_RCC_GetSysClockFreq+0x188>)
 80046b6:	fba0 1202 	umull	r1, r2, r0, r2
 80046ba:	62fa      	str	r2, [r7, #44]	@ 0x2c
 80046bc:	460a      	mov	r2, r1
 80046be:	62ba      	str	r2, [r7, #40]	@ 0x28
 80046c0:	6afa      	ldr	r2, [r7, #44]	@ 0x2c
 80046c2:	4413      	add	r3, r2
 80046c4:	62fb      	str	r3, [r7, #44]	@ 0x2c
 80046c6:	6b7b      	ldr	r3, [r7, #52]	@ 0x34
 80046c8:	2200      	movs	r2, #0
 80046ca:	61bb      	str	r3, [r7, #24]
 80046cc:	61fa      	str	r2, [r7, #28]
 80046ce:	e9d7 2306 	ldrd	r2, r3, [r7, #24]
 80046d2:	e9d7 010a 	ldrd	r0, r1, [r7, #40]	@ 0x28
 80046d6:	f7fc f995 	bl	8000a04 <__aeabi_uldivmod>
 80046da:	4602      	mov	r2, r0
 80046dc:	460b      	mov	r3, r1
 80046de:	4613      	mov	r3, r2
 80046e0:	63fb      	str	r3, [r7, #60]	@ 0x3c
 80046e2:	e053      	b.n	800478c <HAL_RCC_GetSysClockFreq+0x150>
      }
      else
      {
        /* HSI used as PLL clock source */
        pllvco = (uint32_t)((((uint64_t) HSI_VALUE * ((uint64_t)((RCC->PLLCFGR & RCC_PLLCFGR_PLLN) >> RCC_PLLCFGR_PLLN_Pos)))) / (uint64_t)pllm);
 80046e4:	4b35      	ldr	r3, [pc, #212]	@ (80047bc <HAL_RCC_GetSysClockFreq+0x180>)
 80046e6:	685b      	ldr	r3, [r3, #4]
 80046e8:	099b      	lsrs	r3, r3, #6
 80046ea:	2200      	movs	r2, #0
 80046ec:	613b      	str	r3, [r7, #16]
 80046ee:	617a      	str	r2, [r7, #20]
 80046f0:	693b      	ldr	r3, [r7, #16]
 80046f2:	f3c3 0a08 	ubfx	sl, r3, #0, #9
 80046f6:	f04f 0b00 	mov.w	fp, #0
 80046fa:	4652      	mov	r2, sl
 80046fc:	465b      	mov	r3, fp
 80046fe:	f04f 0000 	mov.w	r0, #0
 8004702:	f04f 0100 	mov.w	r1, #0
 8004706:	0159      	lsls	r1, r3, #5
 8004708:	ea41 61d2 	orr.w	r1, r1, r2, lsr #27
 800470c:	0150      	lsls	r0, r2, #5
 800470e:	4602      	mov	r2, r0
 8004710:	460b      	mov	r3, r1
 8004712:	ebb2 080a 	subs.w	r8, r2, sl
 8004716:	eb63 090b 	sbc.w	r9, r3, fp
 800471a:	f04f 0200 	mov.w	r2, #0
 800471e:	f04f 0300 	mov.w	r3, #0
 8004722:	ea4f 1389 	mov.w	r3, r9, lsl #6
 8004726:	ea43 6398 	orr.w	r3, r3, r8, lsr #26
 800472a:	ea4f 1288 	mov.w	r2, r8, lsl #6
 800472e:	ebb2 0408 	subs.w	r4, r2, r8
 8004732:	eb63 0509 	sbc.w	r5, r3, r9
 8004736:	f04f 0200 	mov.w	r2, #0
 800473a:	f04f 0300 	mov.w	r3, #0
 800473e:	00eb      	lsls	r3, r5, #3
 8004740:	ea43 7354 	orr.w	r3, r3, r4, lsr #29
 8004744:	00e2      	lsls	r2, r4, #3
 8004746:	4614      	mov	r4, r2
 8004748:	461d      	mov	r5, r3
 800474a:	eb14 030a 	adds.w	r3, r4, sl
 800474e:	603b      	str	r3, [r7, #0]
 8004750:	eb45 030b 	adc.w	r3, r5, fp
 8004754:	607b      	str	r3, [r7, #4]
 8004756:	f04f 0200 	mov.w	r2, #0
 800475a:	f04f 0300 	mov.w	r3, #0
 800475e:	e9d7 4500 	ldrd	r4, r5, [r7]
 8004762:	4629      	mov	r1, r5
 8004764:	028b      	lsls	r3, r1, #10
 8004766:	4621      	mov	r1, r4
 8004768:	ea43 5391 	orr.w	r3, r3, r1, lsr #22
 800476c:	4621      	mov	r1, r4
 800476e:	028a      	lsls	r2, r1, #10
 8004770:	4610      	mov	r0, r2
 8004772:	4619      	mov	r1, r3
 8004774:	6b7b      	ldr	r3, [r7, #52]	@ 0x34
 8004776:	2200      	movs	r2, #0
 8004778:	60bb      	str	r3, [r7, #8]
 800477a:	60fa      	str	r2, [r7, #12]
 800477c:	e9d7 2302 	ldrd	r2, r3, [r7, #8]
 8004780:	f7fc f940 	bl	8000a04 <__aeabi_uldivmod>
 8004784:	4602      	mov	r2, r0
 8004786:	460b      	mov	r3, r1
 8004788:	4613      	mov	r3, r2
 800478a:	63fb      	str	r3, [r7, #60]	@ 0x3c
      }
      pllp = ((((RCC->PLLCFGR & RCC_PLLCFGR_PLLP) >> RCC_PLLCFGR_PLLP_Pos) + 1U) * 2U);
 800478c:	4b0b      	ldr	r3, [pc, #44]	@ (80047bc <HAL_RCC_GetSysClockFreq+0x180>)
 800478e:	685b      	ldr	r3, [r3, #4]
 8004790:	0c1b      	lsrs	r3, r3, #16
 8004792:	f003 0303 	and.w	r3, r3, #3
 8004796:	3301      	adds	r3, #1
 8004798:	005b      	lsls	r3, r3, #1
 800479a:	633b      	str	r3, [r7, #48]	@ 0x30

      sysclockfreq = pllvco / pllp;
 800479c:	6bfa      	ldr	r2, [r7, #60]	@ 0x3c
 800479e:	6b3b      	ldr	r3, [r7, #48]	@ 0x30
 80047a0:	fbb2 f3f3 	udiv	r3, r2, r3
 80047a4:	63bb      	str	r3, [r7, #56]	@ 0x38
      break;
 80047a6:	e002      	b.n	80047ae <HAL_RCC_GetSysClockFreq+0x172>
    }
    default:
    {
      sysclockfreq = HSI_VALUE;
 80047a8:	4b05      	ldr	r3, [pc, #20]	@ (80047c0 <HAL_RCC_GetSysClockFreq+0x184>)
 80047aa:	63bb      	str	r3, [r7, #56]	@ 0x38
      break;
 80047ac:	bf00      	nop
    }
  }
  return sysclockfreq;
 80047ae:	6bbb      	ldr	r3, [r7, #56]	@ 0x38
}
 80047b0:	4618      	mov	r0, r3
 80047b2:	3740      	adds	r7, #64	@ 0x40
 80047b4:	46bd      	mov	sp, r7
 80047b6:	e8bd 8fb0 	ldmia.w	sp!, {r4, r5, r7, r8, r9, sl, fp, pc}
 80047ba:	bf00      	nop
 80047bc:	40023800 	.word	0x40023800
 80047c0:	00f42400 	.word	0x00f42400
 80047c4:	017d7840 	.word	0x017d7840

080047c8 <HAL_RCC_GetHCLKFreq>:
  * @note   The SystemCoreClock CMSIS variable is used to store System Clock Frequency
  *         and updated within this function
  * @retval HCLK frequency
  */
uint32_t HAL_RCC_GetHCLKFreq(void)
{
 80047c8:	b480      	push	{r7}
 80047ca:	af00      	add	r7, sp, #0
  return SystemCoreClock;
 80047cc:	4b03      	ldr	r3, [pc, #12]	@ (80047dc <HAL_RCC_GetHCLKFreq+0x14>)
 80047ce:	681b      	ldr	r3, [r3, #0]
}
 80047d0:	4618      	mov	r0, r3
 80047d2:	46bd      	mov	sp, r7
 80047d4:	f85d 7b04 	ldr.w	r7, [sp], #4
 80047d8:	4770      	bx	lr
 80047da:	bf00      	nop
 80047dc:	20000008 	.word	0x20000008

080047e0 <HAL_RCC_GetPCLK1Freq>:
  * @note   Each time PCLK1 changes, this function must be called to update the
  *         right PCLK1 value. Otherwise, any configuration based on this function will be incorrect.
  * @retval PCLK1 frequency
  */
uint32_t HAL_RCC_GetPCLK1Freq(void)
{
 80047e0:	b580      	push	{r7, lr}
 80047e2:	af00      	add	r7, sp, #0
  /* Get HCLK source and Compute PCLK1 frequency ---------------------------*/
  return (HAL_RCC_GetHCLKFreq() >> APBPrescTable[(RCC->CFGR & RCC_CFGR_PPRE1) >> RCC_CFGR_PPRE1_Pos]);
 80047e4:	f7ff fff0 	bl	80047c8 <HAL_RCC_GetHCLKFreq>
 80047e8:	4602      	mov	r2, r0
 80047ea:	4b05      	ldr	r3, [pc, #20]	@ (8004800 <HAL_RCC_GetPCLK1Freq+0x20>)
 80047ec:	689b      	ldr	r3, [r3, #8]
 80047ee:	0a9b      	lsrs	r3, r3, #10
 80047f0:	f003 0307 	and.w	r3, r3, #7
 80047f4:	4903      	ldr	r1, [pc, #12]	@ (8004804 <HAL_RCC_GetPCLK1Freq+0x24>)
 80047f6:	5ccb      	ldrb	r3, [r1, r3]
 80047f8:	fa22 f303 	lsr.w	r3, r2, r3
}
 80047fc:	4618      	mov	r0, r3
 80047fe:	bd80      	pop	{r7, pc}
 8004800:	40023800 	.word	0x40023800
 8004804:	08005834 	.word	0x08005834

08004808 <HAL_TIM_Base_Init>:
  *         Ex: call @ref HAL_TIM_Base_DeInit() before HAL_TIM_Base_Init()
  * @param  htim TIM Base handle
  * @retval HAL status
  */
HAL_StatusTypeDef HAL_TIM_Base_Init(TIM_HandleTypeDef *htim)
{
 8004808:	b580      	push	{r7, lr}
 800480a:	b082      	sub	sp, #8
 800480c:	af00      	add	r7, sp, #0
 800480e:	6078      	str	r0, [r7, #4]
  /* Check the TIM handle allocation */
  if (htim == NULL)
 8004810:	687b      	ldr	r3, [r7, #4]
 8004812:	2b00      	cmp	r3, #0
 8004814:	d101      	bne.n	800481a <HAL_TIM_Base_Init+0x12>
  {
    return HAL_ERROR;
 8004816:	2301      	movs	r3, #1
 8004818:	e041      	b.n	800489e <HAL_TIM_Base_Init+0x96>
  assert_param(IS_TIM_COUNTER_MODE(htim->Init.CounterMode));
  assert_param(IS_TIM_CLOCKDIVISION_DIV(htim->Init.ClockDivision));
  assert_param(IS_TIM_PERIOD(htim, htim->Init.Period));
  assert_param(IS_TIM_AUTORELOAD_PRELOAD(htim->Init.AutoReloadPreload));

  if (htim->State == HAL_TIM_STATE_RESET)
 800481a:	687b      	ldr	r3, [r7, #4]
 800481c:	f893 303d 	ldrb.w	r3, [r3, #61]	@ 0x3d
 8004820:	b2db      	uxtb	r3, r3
 8004822:	2b00      	cmp	r3, #0
 8004824:	d106      	bne.n	8004834 <HAL_TIM_Base_Init+0x2c>
  {
    /* Allocate lock resource and initialize it */
    htim->Lock = HAL_UNLOCKED;
 8004826:	687b      	ldr	r3, [r7, #4]
 8004828:	2200      	movs	r2, #0
 800482a:	f883 203c 	strb.w	r2, [r3, #60]	@ 0x3c
    }
    /* Init the low level hardware : GPIO, CLOCK, NVIC */
    htim->Base_MspInitCallback(htim);
#else
    /* Init the low level hardware : GPIO, CLOCK, NVIC */
    HAL_TIM_Base_MspInit(htim);
 800482e:	6878      	ldr	r0, [r7, #4]
 8004830:	f7fd fb10 	bl	8001e54 <HAL_TIM_Base_MspInit>
#endif /* USE_HAL_TIM_REGISTER_CALLBACKS */
  }

  /* Set the TIM state */
  htim->State = HAL_TIM_STATE_BUSY;
 8004834:	687b      	ldr	r3, [r7, #4]
 8004836:	2202      	movs	r2, #2
 8004838:	f883 203d 	strb.w	r2, [r3, #61]	@ 0x3d

  /* Set the Time Base configuration */
  TIM_Base_SetConfig(htim->Instance, &htim->Init);
 800483c:	687b      	ldr	r3, [r7, #4]
 800483e:	681a      	ldr	r2, [r3, #0]
 8004840:	687b      	ldr	r3, [r7, #4]
 8004842:	3304      	adds	r3, #4
 8004844:	4619      	mov	r1, r3
 8004846:	4610      	mov	r0, r2
 8004848:	f000 fbfa 	bl	8005040 <TIM_Base_SetConfig>

  /* Initialize the DMA burst operation state */
  htim->DMABurstState = HAL_DMA_BURST_STATE_READY;
 800484c:	687b      	ldr	r3, [r7, #4]
 800484e:	2201      	movs	r2, #1
 8004850:	f883 2046 	strb.w	r2, [r3, #70]	@ 0x46

  /* Initialize the TIM channels state */
  TIM_CHANNEL_STATE_SET_ALL(htim, HAL_TIM_CHANNEL_STATE_READY);
 8004854:	687b      	ldr	r3, [r7, #4]
 8004856:	2201      	movs	r2, #1
 8004858:	f883 203e 	strb.w	r2, [r3, #62]	@ 0x3e
 800485c:	687b      	ldr	r3, [r7, #4]
 800485e:	2201      	movs	r2, #1
 8004860:	f883 203f 	strb.w	r2, [r3, #63]	@ 0x3f
 8004864:	687b      	ldr	r3, [r7, #4]
 8004866:	2201      	movs	r2, #1
 8004868:	f883 2040 	strb.w	r2, [r3, #64]	@ 0x40
 800486c:	687b      	ldr	r3, [r7, #4]
 800486e:	2201      	movs	r2, #1
 8004870:	f883 2041 	strb.w	r2, [r3, #65]	@ 0x41
  TIM_CHANNEL_N_STATE_SET_ALL(htim, HAL_TIM_CHANNEL_STATE_READY);
 8004874:	687b      	ldr	r3, [r7, #4]
 8004876:	2201      	movs	r2, #1
 8004878:	f883 2042 	strb.w	r2, [r3, #66]	@ 0x42
 800487c:	687b      	ldr	r3, [r7, #4]
 800487e:	2201      	movs	r2, #1
 8004880:	f883 2043 	strb.w	r2, [r3, #67]	@ 0x43
 8004884:	687b      	ldr	r3, [r7, #4]
 8004886:	2201      	movs	r2, #1
 8004888:	f883 2044 	strb.w	r2, [r3, #68]	@ 0x44
 800488c:	687b      	ldr	r3, [r7, #4]
 800488e:	2201      	movs	r2, #1
 8004890:	f883 2045 	strb.w	r2, [r3, #69]	@ 0x45

  /* Initialize the TIM state*/
  htim->State = HAL_TIM_STATE_READY;
 8004894:	687b      	ldr	r3, [r7, #4]
 8004896:	2201      	movs	r2, #1
 8004898:	f883 203d 	strb.w	r2, [r3, #61]	@ 0x3d

  return HAL_OK;
 800489c:	2300      	movs	r3, #0
}
 800489e:	4618      	mov	r0, r3
 80048a0:	3708      	adds	r7, #8
 80048a2:	46bd      	mov	sp, r7
 80048a4:	bd80      	pop	{r7, pc}

080048a6 <HAL_TIM_PWM_Init>:
  *         Ex: call @ref HAL_TIM_PWM_DeInit() before HAL_TIM_PWM_Init()
  * @param  htim TIM PWM handle
  * @retval HAL status
  */
HAL_StatusTypeDef HAL_TIM_PWM_Init(TIM_HandleTypeDef *htim)
{
 80048a6:	b580      	push	{r7, lr}
 80048a8:	b082      	sub	sp, #8
 80048aa:	af00      	add	r7, sp, #0
 80048ac:	6078      	str	r0, [r7, #4]
  /* Check the TIM handle allocation */
  if (htim == NULL)
 80048ae:	687b      	ldr	r3, [r7, #4]
 80048b0:	2b00      	cmp	r3, #0
 80048b2:	d101      	bne.n	80048b8 <HAL_TIM_PWM_Init+0x12>
  {
    return HAL_ERROR;
 80048b4:	2301      	movs	r3, #1
 80048b6:	e041      	b.n	800493c <HAL_TIM_PWM_Init+0x96>
  assert_param(IS_TIM_COUNTER_MODE(htim->Init.CounterMode));
  assert_param(IS_TIM_CLOCKDIVISION_DIV(htim->Init.ClockDivision));
  assert_param(IS_TIM_PERIOD(htim, htim->Init.Period));
  assert_param(IS_TIM_AUTORELOAD_PRELOAD(htim->Init.AutoReloadPreload));

  if (htim->State == HAL_TIM_STATE_RESET)
 80048b8:	687b      	ldr	r3, [r7, #4]
 80048ba:	f893 303d 	ldrb.w	r3, [r3, #61]	@ 0x3d
 80048be:	b2db      	uxtb	r3, r3
 80048c0:	2b00      	cmp	r3, #0
 80048c2:	d106      	bne.n	80048d2 <HAL_TIM_PWM_Init+0x2c>
  {
    /* Allocate lock resource and initialize it */
    htim->Lock = HAL_UNLOCKED;
 80048c4:	687b      	ldr	r3, [r7, #4]
 80048c6:	2200      	movs	r2, #0
 80048c8:	f883 203c 	strb.w	r2, [r3, #60]	@ 0x3c
    }
    /* Init the low level hardware : GPIO, CLOCK, NVIC */
    htim->PWM_MspInitCallback(htim);
#else
    /* Init the low level hardware : GPIO, CLOCK, NVIC and DMA */
    HAL_TIM_PWM_MspInit(htim);
 80048cc:	6878      	ldr	r0, [r7, #4]
 80048ce:	f000 f839 	bl	8004944 <HAL_TIM_PWM_MspInit>
#endif /* USE_HAL_TIM_REGISTER_CALLBACKS */
  }

  /* Set the TIM state */
  htim->State = HAL_TIM_STATE_BUSY;
 80048d2:	687b      	ldr	r3, [r7, #4]
 80048d4:	2202      	movs	r2, #2
 80048d6:	f883 203d 	strb.w	r2, [r3, #61]	@ 0x3d

  /* Init the base time for the PWM */
  TIM_Base_SetConfig(htim->Instance, &htim->Init);
 80048da:	687b      	ldr	r3, [r7, #4]
 80048dc:	681a      	ldr	r2, [r3, #0]
 80048de:	687b      	ldr	r3, [r7, #4]
 80048e0:	3304      	adds	r3, #4
 80048e2:	4619      	mov	r1, r3
 80048e4:	4610      	mov	r0, r2
 80048e6:	f000 fbab 	bl	8005040 <TIM_Base_SetConfig>

  /* Initialize the DMA burst operation state */
  htim->DMABurstState = HAL_DMA_BURST_STATE_READY;
 80048ea:	687b      	ldr	r3, [r7, #4]
 80048ec:	2201      	movs	r2, #1
 80048ee:	f883 2046 	strb.w	r2, [r3, #70]	@ 0x46

  /* Initialize the TIM channels state */
  TIM_CHANNEL_STATE_SET_ALL(htim, HAL_TIM_CHANNEL_STATE_READY);
 80048f2:	687b      	ldr	r3, [r7, #4]
 80048f4:	2201      	movs	r2, #1
 80048f6:	f883 203e 	strb.w	r2, [r3, #62]	@ 0x3e
 80048fa:	687b      	ldr	r3, [r7, #4]
 80048fc:	2201      	movs	r2, #1
 80048fe:	f883 203f 	strb.w	r2, [r3, #63]	@ 0x3f
 8004902:	687b      	ldr	r3, [r7, #4]
 8004904:	2201      	movs	r2, #1
 8004906:	f883 2040 	strb.w	r2, [r3, #64]	@ 0x40
 800490a:	687b      	ldr	r3, [r7, #4]
 800490c:	2201      	movs	r2, #1
 800490e:	f883 2041 	strb.w	r2, [r3, #65]	@ 0x41
  TIM_CHANNEL_N_STATE_SET_ALL(htim, HAL_TIM_CHANNEL_STATE_READY);
 8004912:	687b      	ldr	r3, [r7, #4]
 8004914:	2201      	movs	r2, #1
 8004916:	f883 2042 	strb.w	r2, [r3, #66]	@ 0x42
 800491a:	687b      	ldr	r3, [r7, #4]
 800491c:	2201      	movs	r2, #1
 800491e:	f883 2043 	strb.w	r2, [r3, #67]	@ 0x43
 8004922:	687b      	ldr	r3, [r7, #4]
 8004924:	2201      	movs	r2, #1
 8004926:	f883 2044 	strb.w	r2, [r3, #68]	@ 0x44
 800492a:	687b      	ldr	r3, [r7, #4]
 800492c:	2201      	movs	r2, #1
 800492e:	f883 2045 	strb.w	r2, [r3, #69]	@ 0x45

  /* Initialize the TIM state*/
  htim->State = HAL_TIM_STATE_READY;
 8004932:	687b      	ldr	r3, [r7, #4]
 8004934:	2201      	movs	r2, #1
 8004936:	f883 203d 	strb.w	r2, [r3, #61]	@ 0x3d

  return HAL_OK;
 800493a:	2300      	movs	r3, #0
}
 800493c:	4618      	mov	r0, r3
 800493e:	3708      	adds	r7, #8
 8004940:	46bd      	mov	sp, r7
 8004942:	bd80      	pop	{r7, pc}

08004944 <HAL_TIM_PWM_MspInit>:
  * @brief  Initializes the TIM PWM MSP.
  * @param  htim TIM PWM handle
  * @retval None
  */
__weak void HAL_TIM_PWM_MspInit(TIM_HandleTypeDef *htim)
{
 8004944:	b480      	push	{r7}
 8004946:	b083      	sub	sp, #12
 8004948:	af00      	add	r7, sp, #0
 800494a:	6078      	str	r0, [r7, #4]
  UNUSED(htim);

  /* NOTE : This function should not be modified, when the callback is needed,
            the HAL_TIM_PWM_MspInit could be implemented in the user file
   */
}
 800494c:	bf00      	nop
 800494e:	370c      	adds	r7, #12
 8004950:	46bd      	mov	sp, r7
 8004952:	f85d 7b04 	ldr.w	r7, [sp], #4
 8004956:	4770      	bx	lr

08004958 <HAL_TIM_PWM_Start>:
  *            @arg TIM_CHANNEL_3: TIM Channel 3 selected
  *            @arg TIM_CHANNEL_4: TIM Channel 4 selected
  * @retval HAL status
  */
HAL_StatusTypeDef HAL_TIM_PWM_Start(TIM_HandleTypeDef *htim, uint32_t Channel)
{
 8004958:	b580      	push	{r7, lr}
 800495a:	b084      	sub	sp, #16
 800495c:	af00      	add	r7, sp, #0
 800495e:	6078      	str	r0, [r7, #4]
 8004960:	6039      	str	r1, [r7, #0]

  /* Check the parameters */
  assert_param(IS_TIM_CCX_INSTANCE(htim->Instance, Channel));

  /* Check the TIM channel state */
  if (TIM_CHANNEL_STATE_GET(htim, Channel) != HAL_TIM_CHANNEL_STATE_READY)
 8004962:	683b      	ldr	r3, [r7, #0]
 8004964:	2b00      	cmp	r3, #0
 8004966:	d109      	bne.n	800497c <HAL_TIM_PWM_Start+0x24>
 8004968:	687b      	ldr	r3, [r7, #4]
 800496a:	f893 303e 	ldrb.w	r3, [r3, #62]	@ 0x3e
 800496e:	b2db      	uxtb	r3, r3
 8004970:	2b01      	cmp	r3, #1
 8004972:	bf14      	ite	ne
 8004974:	2301      	movne	r3, #1
 8004976:	2300      	moveq	r3, #0
 8004978:	b2db      	uxtb	r3, r3
 800497a:	e022      	b.n	80049c2 <HAL_TIM_PWM_Start+0x6a>
 800497c:	683b      	ldr	r3, [r7, #0]
 800497e:	2b04      	cmp	r3, #4
 8004980:	d109      	bne.n	8004996 <HAL_TIM_PWM_Start+0x3e>
 8004982:	687b      	ldr	r3, [r7, #4]
 8004984:	f893 303f 	ldrb.w	r3, [r3, #63]	@ 0x3f
 8004988:	b2db      	uxtb	r3, r3
 800498a:	2b01      	cmp	r3, #1
 800498c:	bf14      	ite	ne
 800498e:	2301      	movne	r3, #1
 8004990:	2300      	moveq	r3, #0
 8004992:	b2db      	uxtb	r3, r3
 8004994:	e015      	b.n	80049c2 <HAL_TIM_PWM_Start+0x6a>
 8004996:	683b      	ldr	r3, [r7, #0]
 8004998:	2b08      	cmp	r3, #8
 800499a:	d109      	bne.n	80049b0 <HAL_TIM_PWM_Start+0x58>
 800499c:	687b      	ldr	r3, [r7, #4]
 800499e:	f893 3040 	ldrb.w	r3, [r3, #64]	@ 0x40
 80049a2:	b2db      	uxtb	r3, r3
 80049a4:	2b01      	cmp	r3, #1
 80049a6:	bf14      	ite	ne
 80049a8:	2301      	movne	r3, #1
 80049aa:	2300      	moveq	r3, #0
 80049ac:	b2db      	uxtb	r3, r3
 80049ae:	e008      	b.n	80049c2 <HAL_TIM_PWM_Start+0x6a>
 80049b0:	687b      	ldr	r3, [r7, #4]
 80049b2:	f893 3041 	ldrb.w	r3, [r3, #65]	@ 0x41
 80049b6:	b2db      	uxtb	r3, r3
 80049b8:	2b01      	cmp	r3, #1
 80049ba:	bf14      	ite	ne
 80049bc:	2301      	movne	r3, #1
 80049be:	2300      	moveq	r3, #0
 80049c0:	b2db      	uxtb	r3, r3
 80049c2:	2b00      	cmp	r3, #0
 80049c4:	d001      	beq.n	80049ca <HAL_TIM_PWM_Start+0x72>
  {
    return HAL_ERROR;
 80049c6:	2301      	movs	r3, #1
 80049c8:	e07c      	b.n	8004ac4 <HAL_TIM_PWM_Start+0x16c>
  }

  /* Set the TIM channel state */
  TIM_CHANNEL_STATE_SET(htim, Channel, HAL_TIM_CHANNEL_STATE_BUSY);
 80049ca:	683b      	ldr	r3, [r7, #0]
 80049cc:	2b00      	cmp	r3, #0
 80049ce:	d104      	bne.n	80049da <HAL_TIM_PWM_Start+0x82>
 80049d0:	687b      	ldr	r3, [r7, #4]
 80049d2:	2202      	movs	r2, #2
 80049d4:	f883 203e 	strb.w	r2, [r3, #62]	@ 0x3e
 80049d8:	e013      	b.n	8004a02 <HAL_TIM_PWM_Start+0xaa>
 80049da:	683b      	ldr	r3, [r7, #0]
 80049dc:	2b04      	cmp	r3, #4
 80049de:	d104      	bne.n	80049ea <HAL_TIM_PWM_Start+0x92>
 80049e0:	687b      	ldr	r3, [r7, #4]
 80049e2:	2202      	movs	r2, #2
 80049e4:	f883 203f 	strb.w	r2, [r3, #63]	@ 0x3f
 80049e8:	e00b      	b.n	8004a02 <HAL_TIM_PWM_Start+0xaa>
 80049ea:	683b      	ldr	r3, [r7, #0]
 80049ec:	2b08      	cmp	r3, #8
 80049ee:	d104      	bne.n	80049fa <HAL_TIM_PWM_Start+0xa2>
 80049f0:	687b      	ldr	r3, [r7, #4]
 80049f2:	2202      	movs	r2, #2
 80049f4:	f883 2040 	strb.w	r2, [r3, #64]	@ 0x40
 80049f8:	e003      	b.n	8004a02 <HAL_TIM_PWM_Start+0xaa>
 80049fa:	687b      	ldr	r3, [r7, #4]
 80049fc:	2202      	movs	r2, #2
 80049fe:	f883 2041 	strb.w	r2, [r3, #65]	@ 0x41

  /* Enable the Capture compare channel */
  TIM_CCxChannelCmd(htim->Instance, Channel, TIM_CCx_ENABLE);
 8004a02:	687b      	ldr	r3, [r7, #4]
 8004a04:	681b      	ldr	r3, [r3, #0]
 8004a06:	2201      	movs	r2, #1
 8004a08:	6839      	ldr	r1, [r7, #0]
 8004a0a:	4618      	mov	r0, r3
 8004a0c:	f000 fe0e 	bl	800562c <TIM_CCxChannelCmd>

  if (IS_TIM_BREAK_INSTANCE(htim->Instance) != RESET)
 8004a10:	687b      	ldr	r3, [r7, #4]
 8004a12:	681b      	ldr	r3, [r3, #0]
 8004a14:	4a2d      	ldr	r2, [pc, #180]	@ (8004acc <HAL_TIM_PWM_Start+0x174>)
 8004a16:	4293      	cmp	r3, r2
 8004a18:	d004      	beq.n	8004a24 <HAL_TIM_PWM_Start+0xcc>
 8004a1a:	687b      	ldr	r3, [r7, #4]
 8004a1c:	681b      	ldr	r3, [r3, #0]
 8004a1e:	4a2c      	ldr	r2, [pc, #176]	@ (8004ad0 <HAL_TIM_PWM_Start+0x178>)
 8004a20:	4293      	cmp	r3, r2
 8004a22:	d101      	bne.n	8004a28 <HAL_TIM_PWM_Start+0xd0>
 8004a24:	2301      	movs	r3, #1
 8004a26:	e000      	b.n	8004a2a <HAL_TIM_PWM_Start+0xd2>
 8004a28:	2300      	movs	r3, #0
 8004a2a:	2b00      	cmp	r3, #0
 8004a2c:	d007      	beq.n	8004a3e <HAL_TIM_PWM_Start+0xe6>
  {
    /* Enable the main output */
    __HAL_TIM_MOE_ENABLE(htim);
 8004a2e:	687b      	ldr	r3, [r7, #4]
 8004a30:	681b      	ldr	r3, [r3, #0]
 8004a32:	6c5a      	ldr	r2, [r3, #68]	@ 0x44
 8004a34:	687b      	ldr	r3, [r7, #4]
 8004a36:	681b      	ldr	r3, [r3, #0]
 8004a38:	f442 4200 	orr.w	r2, r2, #32768	@ 0x8000
 8004a3c:	645a      	str	r2, [r3, #68]	@ 0x44
  }

  /* Enable the Peripheral, except in trigger mode where enable is automatically done with trigger */
  if (IS_TIM_SLAVE_INSTANCE(htim->Instance))
 8004a3e:	687b      	ldr	r3, [r7, #4]
 8004a40:	681b      	ldr	r3, [r3, #0]
 8004a42:	4a22      	ldr	r2, [pc, #136]	@ (8004acc <HAL_TIM_PWM_Start+0x174>)
 8004a44:	4293      	cmp	r3, r2
 8004a46:	d022      	beq.n	8004a8e <HAL_TIM_PWM_Start+0x136>
 8004a48:	687b      	ldr	r3, [r7, #4]
 8004a4a:	681b      	ldr	r3, [r3, #0]
 8004a4c:	f1b3 4f80 	cmp.w	r3, #1073741824	@ 0x40000000
 8004a50:	d01d      	beq.n	8004a8e <HAL_TIM_PWM_Start+0x136>
 8004a52:	687b      	ldr	r3, [r7, #4]
 8004a54:	681b      	ldr	r3, [r3, #0]
 8004a56:	4a1f      	ldr	r2, [pc, #124]	@ (8004ad4 <HAL_TIM_PWM_Start+0x17c>)
 8004a58:	4293      	cmp	r3, r2
 8004a5a:	d018      	beq.n	8004a8e <HAL_TIM_PWM_Start+0x136>
 8004a5c:	687b      	ldr	r3, [r7, #4]
 8004a5e:	681b      	ldr	r3, [r3, #0]
 8004a60:	4a1d      	ldr	r2, [pc, #116]	@ (8004ad8 <HAL_TIM_PWM_Start+0x180>)
 8004a62:	4293      	cmp	r3, r2
 8004a64:	d013      	beq.n	8004a8e <HAL_TIM_PWM_Start+0x136>
 8004a66:	687b      	ldr	r3, [r7, #4]
 8004a68:	681b      	ldr	r3, [r3, #0]
 8004a6a:	4a1c      	ldr	r2, [pc, #112]	@ (8004adc <HAL_TIM_PWM_Start+0x184>)
 8004a6c:	4293      	cmp	r3, r2
 8004a6e:	d00e      	beq.n	8004a8e <HAL_TIM_PWM_Start+0x136>
 8004a70:	687b      	ldr	r3, [r7, #4]
 8004a72:	681b      	ldr	r3, [r3, #0]
 8004a74:	4a16      	ldr	r2, [pc, #88]	@ (8004ad0 <HAL_TIM_PWM_Start+0x178>)
 8004a76:	4293      	cmp	r3, r2
 8004a78:	d009      	beq.n	8004a8e <HAL_TIM_PWM_Start+0x136>
 8004a7a:	687b      	ldr	r3, [r7, #4]
 8004a7c:	681b      	ldr	r3, [r3, #0]
 8004a7e:	4a18      	ldr	r2, [pc, #96]	@ (8004ae0 <HAL_TIM_PWM_Start+0x188>)
 8004a80:	4293      	cmp	r3, r2
 8004a82:	d004      	beq.n	8004a8e <HAL_TIM_PWM_Start+0x136>
 8004a84:	687b      	ldr	r3, [r7, #4]
 8004a86:	681b      	ldr	r3, [r3, #0]
 8004a88:	4a16      	ldr	r2, [pc, #88]	@ (8004ae4 <HAL_TIM_PWM_Start+0x18c>)
 8004a8a:	4293      	cmp	r3, r2
 8004a8c:	d111      	bne.n	8004ab2 <HAL_TIM_PWM_Start+0x15a>
  {
    tmpsmcr = htim->Instance->SMCR & TIM_SMCR_SMS;
 8004a8e:	687b      	ldr	r3, [r7, #4]
 8004a90:	681b      	ldr	r3, [r3, #0]
 8004a92:	689b      	ldr	r3, [r3, #8]
 8004a94:	f003 0307 	and.w	r3, r3, #7
 8004a98:	60fb      	str	r3, [r7, #12]
    if (!IS_TIM_SLAVEMODE_TRIGGER_ENABLED(tmpsmcr))
 8004a9a:	68fb      	ldr	r3, [r7, #12]
 8004a9c:	2b06      	cmp	r3, #6
 8004a9e:	d010      	beq.n	8004ac2 <HAL_TIM_PWM_Start+0x16a>
    {
      __HAL_TIM_ENABLE(htim);
 8004aa0:	687b      	ldr	r3, [r7, #4]
 8004aa2:	681b      	ldr	r3, [r3, #0]
 8004aa4:	681a      	ldr	r2, [r3, #0]
 8004aa6:	687b      	ldr	r3, [r7, #4]
 8004aa8:	681b      	ldr	r3, [r3, #0]
 8004aaa:	f042 0201 	orr.w	r2, r2, #1
 8004aae:	601a      	str	r2, [r3, #0]
    if (!IS_TIM_SLAVEMODE_TRIGGER_ENABLED(tmpsmcr))
 8004ab0:	e007      	b.n	8004ac2 <HAL_TIM_PWM_Start+0x16a>
    }
  }
  else
  {
    __HAL_TIM_ENABLE(htim);
 8004ab2:	687b      	ldr	r3, [r7, #4]
 8004ab4:	681b      	ldr	r3, [r3, #0]
 8004ab6:	681a      	ldr	r2, [r3, #0]
 8004ab8:	687b      	ldr	r3, [r7, #4]
 8004aba:	681b      	ldr	r3, [r3, #0]
 8004abc:	f042 0201 	orr.w	r2, r2, #1
 8004ac0:	601a      	str	r2, [r3, #0]
  }

  /* Return function status */
  return HAL_OK;
 8004ac2:	2300      	movs	r3, #0
}
 8004ac4:	4618      	mov	r0, r3
 8004ac6:	3710      	adds	r7, #16
 8004ac8:	46bd      	mov	sp, r7
 8004aca:	bd80      	pop	{r7, pc}
 8004acc:	40010000 	.word	0x40010000
 8004ad0:	40010400 	.word	0x40010400
 8004ad4:	40000400 	.word	0x40000400
 8004ad8:	40000800 	.word	0x40000800
 8004adc:	40000c00 	.word	0x40000c00
 8004ae0:	40014000 	.word	0x40014000
 8004ae4:	40001800 	.word	0x40001800

08004ae8 <HAL_TIM_IRQHandler>:
  * @brief  This function handles TIM interrupts requests.
  * @param  htim TIM  handle
  * @retval None
  */
void HAL_TIM_IRQHandler(TIM_HandleTypeDef *htim)
{
 8004ae8:	b580      	push	{r7, lr}
 8004aea:	b084      	sub	sp, #16
 8004aec:	af00      	add	r7, sp, #0
 8004aee:	6078      	str	r0, [r7, #4]
  uint32_t itsource = htim->Instance->DIER;
 8004af0:	687b      	ldr	r3, [r7, #4]
 8004af2:	681b      	ldr	r3, [r3, #0]
 8004af4:	68db      	ldr	r3, [r3, #12]
 8004af6:	60fb      	str	r3, [r7, #12]
  uint32_t itflag   = htim->Instance->SR;
 8004af8:	687b      	ldr	r3, [r7, #4]
 8004afa:	681b      	ldr	r3, [r3, #0]
 8004afc:	691b      	ldr	r3, [r3, #16]
 8004afe:	60bb      	str	r3, [r7, #8]

  /* Capture compare 1 event */
  if ((itflag & (TIM_FLAG_CC1)) == (TIM_FLAG_CC1))
 8004b00:	68bb      	ldr	r3, [r7, #8]
 8004b02:	f003 0302 	and.w	r3, r3, #2
 8004b06:	2b00      	cmp	r3, #0
 8004b08:	d020      	beq.n	8004b4c <HAL_TIM_IRQHandler+0x64>
  {
    if ((itsource & (TIM_IT_CC1)) == (TIM_IT_CC1))
 8004b0a:	68fb      	ldr	r3, [r7, #12]
 8004b0c:	f003 0302 	and.w	r3, r3, #2
 8004b10:	2b00      	cmp	r3, #0
 8004b12:	d01b      	beq.n	8004b4c <HAL_TIM_IRQHandler+0x64>
    {
      {
        __HAL_TIM_CLEAR_FLAG(htim, TIM_FLAG_CC1);
 8004b14:	687b      	ldr	r3, [r7, #4]
 8004b16:	681b      	ldr	r3, [r3, #0]
 8004b18:	f06f 0202 	mvn.w	r2, #2
 8004b1c:	611a      	str	r2, [r3, #16]
        htim->Channel = HAL_TIM_ACTIVE_CHANNEL_1;
 8004b1e:	687b      	ldr	r3, [r7, #4]
 8004b20:	2201      	movs	r2, #1
 8004b22:	771a      	strb	r2, [r3, #28]

        /* Input capture event */
        if ((htim->Instance->CCMR1 & TIM_CCMR1_CC1S) != 0x00U)
 8004b24:	687b      	ldr	r3, [r7, #4]
 8004b26:	681b      	ldr	r3, [r3, #0]
 8004b28:	699b      	ldr	r3, [r3, #24]
 8004b2a:	f003 0303 	and.w	r3, r3, #3
 8004b2e:	2b00      	cmp	r3, #0
 8004b30:	d003      	beq.n	8004b3a <HAL_TIM_IRQHandler+0x52>
        {
#if (USE_HAL_TIM_REGISTER_CALLBACKS == 1)
          htim->IC_CaptureCallback(htim);
#else
          HAL_TIM_IC_CaptureCallback(htim);
 8004b32:	6878      	ldr	r0, [r7, #4]
 8004b34:	f000 fa65 	bl	8005002 <HAL_TIM_IC_CaptureCallback>
 8004b38:	e005      	b.n	8004b46 <HAL_TIM_IRQHandler+0x5e>
        {
#if (USE_HAL_TIM_REGISTER_CALLBACKS == 1)
          htim->OC_DelayElapsedCallback(htim);
          htim->PWM_PulseFinishedCallback(htim);
#else
          HAL_TIM_OC_DelayElapsedCallback(htim);
 8004b3a:	6878      	ldr	r0, [r7, #4]
 8004b3c:	f000 fa57 	bl	8004fee <HAL_TIM_OC_DelayElapsedCallback>
          HAL_TIM_PWM_PulseFinishedCallback(htim);
 8004b40:	6878      	ldr	r0, [r7, #4]
 8004b42:	f000 fa68 	bl	8005016 <HAL_TIM_PWM_PulseFinishedCallback>
#endif /* USE_HAL_TIM_REGISTER_CALLBACKS */
        }
        htim->Channel = HAL_TIM_ACTIVE_CHANNEL_CLEARED;
 8004b46:	687b      	ldr	r3, [r7, #4]
 8004b48:	2200      	movs	r2, #0
 8004b4a:	771a      	strb	r2, [r3, #28]
      }
    }
  }
  /* Capture compare 2 event */
  if ((itflag & (TIM_FLAG_CC2)) == (TIM_FLAG_CC2))
 8004b4c:	68bb      	ldr	r3, [r7, #8]
 8004b4e:	f003 0304 	and.w	r3, r3, #4
 8004b52:	2b00      	cmp	r3, #0
 8004b54:	d020      	beq.n	8004b98 <HAL_TIM_IRQHandler+0xb0>
  {
    if ((itsource & (TIM_IT_CC2)) == (TIM_IT_CC2))
 8004b56:	68fb      	ldr	r3, [r7, #12]
 8004b58:	f003 0304 	and.w	r3, r3, #4
 8004b5c:	2b00      	cmp	r3, #0
 8004b5e:	d01b      	beq.n	8004b98 <HAL_TIM_IRQHandler+0xb0>
    {
      __HAL_TIM_CLEAR_FLAG(htim, TIM_FLAG_CC2);
 8004b60:	687b      	ldr	r3, [r7, #4]
 8004b62:	681b      	ldr	r3, [r3, #0]
 8004b64:	f06f 0204 	mvn.w	r2, #4
 8004b68:	611a      	str	r2, [r3, #16]
      htim->Channel = HAL_TIM_ACTIVE_CHANNEL_2;
 8004b6a:	687b      	ldr	r3, [r7, #4]
 8004b6c:	2202      	movs	r2, #2
 8004b6e:	771a      	strb	r2, [r3, #28]
      /* Input capture event */
      if ((htim->Instance->CCMR1 & TIM_CCMR1_CC2S) != 0x00U)
 8004b70:	687b      	ldr	r3, [r7, #4]
 8004b72:	681b      	ldr	r3, [r3, #0]
 8004b74:	699b      	ldr	r3, [r3, #24]
 8004b76:	f403 7340 	and.w	r3, r3, #768	@ 0x300
 8004b7a:	2b00      	cmp	r3, #0
 8004b7c:	d003      	beq.n	8004b86 <HAL_TIM_IRQHandler+0x9e>
      {
#if (USE_HAL_TIM_REGISTER_CALLBACKS == 1)
        htim->IC_CaptureCallback(htim);
#else
        HAL_TIM_IC_CaptureCallback(htim);
 8004b7e:	6878      	ldr	r0, [r7, #4]
 8004b80:	f000 fa3f 	bl	8005002 <HAL_TIM_IC_CaptureCallback>
 8004b84:	e005      	b.n	8004b92 <HAL_TIM_IRQHandler+0xaa>
      {
#if (USE_HAL_TIM_REGISTER_CALLBACKS == 1)
        htim->OC_DelayElapsedCallback(htim);
        htim->PWM_PulseFinishedCallback(htim);
#else
        HAL_TIM_OC_DelayElapsedCallback(htim);
 8004b86:	6878      	ldr	r0, [r7, #4]
 8004b88:	f000 fa31 	bl	8004fee <HAL_TIM_OC_DelayElapsedCallback>
        HAL_TIM_PWM_PulseFinishedCallback(htim);
 8004b8c:	6878      	ldr	r0, [r7, #4]
 8004b8e:	f000 fa42 	bl	8005016 <HAL_TIM_PWM_PulseFinishedCallback>
#endif /* USE_HAL_TIM_REGISTER_CALLBACKS */
      }
      htim->Channel = HAL_TIM_ACTIVE_CHANNEL_CLEARED;
 8004b92:	687b      	ldr	r3, [r7, #4]
 8004b94:	2200      	movs	r2, #0
 8004b96:	771a      	strb	r2, [r3, #28]
    }
  }
  /* Capture compare 3 event */
  if ((itflag & (TIM_FLAG_CC3)) == (TIM_FLAG_CC3))
 8004b98:	68bb      	ldr	r3, [r7, #8]
 8004b9a:	f003 0308 	and.w	r3, r3, #8
 8004b9e:	2b00      	cmp	r3, #0
 8004ba0:	d020      	beq.n	8004be4 <HAL_TIM_IRQHandler+0xfc>
  {
    if ((itsource & (TIM_IT_CC3)) == (TIM_IT_CC3))
 8004ba2:	68fb      	ldr	r3, [r7, #12]
 8004ba4:	f003 0308 	and.w	r3, r3, #8
 8004ba8:	2b00      	cmp	r3, #0
 8004baa:	d01b      	beq.n	8004be4 <HAL_TIM_IRQHandler+0xfc>
    {
      __HAL_TIM_CLEAR_FLAG(htim, TIM_FLAG_CC3);
 8004bac:	687b      	ldr	r3, [r7, #4]
 8004bae:	681b      	ldr	r3, [r3, #0]
 8004bb0:	f06f 0208 	mvn.w	r2, #8
 8004bb4:	611a      	str	r2, [r3, #16]
      htim->Channel = HAL_TIM_ACTIVE_CHANNEL_3;
 8004bb6:	687b      	ldr	r3, [r7, #4]
 8004bb8:	2204      	movs	r2, #4
 8004bba:	771a      	strb	r2, [r3, #28]
      /* Input capture event */
      if ((htim->Instance->CCMR2 & TIM_CCMR2_CC3S) != 0x00U)
 8004bbc:	687b      	ldr	r3, [r7, #4]
 8004bbe:	681b      	ldr	r3, [r3, #0]
 8004bc0:	69db      	ldr	r3, [r3, #28]
 8004bc2:	f003 0303 	and.w	r3, r3, #3
 8004bc6:	2b00      	cmp	r3, #0
 8004bc8:	d003      	beq.n	8004bd2 <HAL_TIM_IRQHandler+0xea>
      {
#if (USE_HAL_TIM_REGISTER_CALLBACKS == 1)
        htim->IC_CaptureCallback(htim);
#else
        HAL_TIM_IC_CaptureCallback(htim);
 8004bca:	6878      	ldr	r0, [r7, #4]
 8004bcc:	f000 fa19 	bl	8005002 <HAL_TIM_IC_CaptureCallback>
 8004bd0:	e005      	b.n	8004bde <HAL_TIM_IRQHandler+0xf6>
      {
#if (USE_HAL_TIM_REGISTER_CALLBACKS == 1)
        htim->OC_DelayElapsedCallback(htim);
        htim->PWM_PulseFinishedCallback(htim);
#else
        HAL_TIM_OC_DelayElapsedCallback(htim);
 8004bd2:	6878      	ldr	r0, [r7, #4]
 8004bd4:	f000 fa0b 	bl	8004fee <HAL_TIM_OC_DelayElapsedCallback>
        HAL_TIM_PWM_PulseFinishedCallback(htim);
 8004bd8:	6878      	ldr	r0, [r7, #4]
 8004bda:	f000 fa1c 	bl	8005016 <HAL_TIM_PWM_PulseFinishedCallback>
#endif /* USE_HAL_TIM_REGISTER_CALLBACKS */
      }
      htim->Channel = HAL_TIM_ACTIVE_CHANNEL_CLEARED;
 8004bde:	687b      	ldr	r3, [r7, #4]
 8004be0:	2200      	movs	r2, #0
 8004be2:	771a      	strb	r2, [r3, #28]
    }
  }
  /* Capture compare 4 event */
  if ((itflag & (TIM_FLAG_CC4)) == (TIM_FLAG_CC4))
 8004be4:	68bb      	ldr	r3, [r7, #8]
 8004be6:	f003 0310 	and.w	r3, r3, #16
 8004bea:	2b00      	cmp	r3, #0
 8004bec:	d020      	beq.n	8004c30 <HAL_TIM_IRQHandler+0x148>
  {
    if ((itsource & (TIM_IT_CC4)) == (TIM_IT_CC4))
 8004bee:	68fb      	ldr	r3, [r7, #12]
 8004bf0:	f003 0310 	and.w	r3, r3, #16
 8004bf4:	2b00      	cmp	r3, #0
 8004bf6:	d01b      	beq.n	8004c30 <HAL_TIM_IRQHandler+0x148>
    {
      __HAL_TIM_CLEAR_FLAG(htim, TIM_FLAG_CC4);
 8004bf8:	687b      	ldr	r3, [r7, #4]
 8004bfa:	681b      	ldr	r3, [r3, #0]
 8004bfc:	f06f 0210 	mvn.w	r2, #16
 8004c00:	611a      	str	r2, [r3, #16]
      htim->Channel = HAL_TIM_ACTIVE_CHANNEL_4;
 8004c02:	687b      	ldr	r3, [r7, #4]
 8004c04:	2208      	movs	r2, #8
 8004c06:	771a      	strb	r2, [r3, #28]
      /* Input capture event */
      if ((htim->Instance->CCMR2 & TIM_CCMR2_CC4S) != 0x00U)
 8004c08:	687b      	ldr	r3, [r7, #4]
 8004c0a:	681b      	ldr	r3, [r3, #0]
 8004c0c:	69db      	ldr	r3, [r3, #28]
 8004c0e:	f403 7340 	and.w	r3, r3, #768	@ 0x300
 8004c12:	2b00      	cmp	r3, #0
 8004c14:	d003      	beq.n	8004c1e <HAL_TIM_IRQHandler+0x136>
      {
#if (USE_HAL_TIM_REGISTER_CALLBACKS == 1)
        htim->IC_CaptureCallback(htim);
#else
        HAL_TIM_IC_CaptureCallback(htim);
 8004c16:	6878      	ldr	r0, [r7, #4]
 8004c18:	f000 f9f3 	bl	8005002 <HAL_TIM_IC_CaptureCallback>
 8004c1c:	e005      	b.n	8004c2a <HAL_TIM_IRQHandler+0x142>
      {
#if (USE_HAL_TIM_REGISTER_CALLBACKS == 1)
        htim->OC_DelayElapsedCallback(htim);
        htim->PWM_PulseFinishedCallback(htim);
#else
        HAL_TIM_OC_DelayElapsedCallback(htim);
 8004c1e:	6878      	ldr	r0, [r7, #4]
 8004c20:	f000 f9e5 	bl	8004fee <HAL_TIM_OC_DelayElapsedCallback>
        HAL_TIM_PWM_PulseFinishedCallback(htim);
 8004c24:	6878      	ldr	r0, [r7, #4]
 8004c26:	f000 f9f6 	bl	8005016 <HAL_TIM_PWM_PulseFinishedCallback>
#endif /* USE_HAL_TIM_REGISTER_CALLBACKS */
      }
      htim->Channel = HAL_TIM_ACTIVE_CHANNEL_CLEARED;
 8004c2a:	687b      	ldr	r3, [r7, #4]
 8004c2c:	2200      	movs	r2, #0
 8004c2e:	771a      	strb	r2, [r3, #28]
    }
  }
  /* TIM Update event */
  if ((itflag & (TIM_FLAG_UPDATE)) == (TIM_FLAG_UPDATE))
 8004c30:	68bb      	ldr	r3, [r7, #8]
 8004c32:	f003 0301 	and.w	r3, r3, #1
 8004c36:	2b00      	cmp	r3, #0
 8004c38:	d00c      	beq.n	8004c54 <HAL_TIM_IRQHandler+0x16c>
  {
    if ((itsource & (TIM_IT_UPDATE)) == (TIM_IT_UPDATE))
 8004c3a:	68fb      	ldr	r3, [r7, #12]
 8004c3c:	f003 0301 	and.w	r3, r3, #1
 8004c40:	2b00      	cmp	r3, #0
 8004c42:	d007      	beq.n	8004c54 <HAL_TIM_IRQHandler+0x16c>
    {
      __HAL_TIM_CLEAR_FLAG(htim, TIM_FLAG_UPDATE);
 8004c44:	687b      	ldr	r3, [r7, #4]
 8004c46:	681b      	ldr	r3, [r3, #0]
 8004c48:	f06f 0201 	mvn.w	r2, #1
 8004c4c:	611a      	str	r2, [r3, #16]
#if (USE_HAL_TIM_REGISTER_CALLBACKS == 1)
      htim->PeriodElapsedCallback(htim);
#else
      HAL_TIM_PeriodElapsedCallback(htim);
 8004c4e:	6878      	ldr	r0, [r7, #4]
 8004c50:	f000 f9c3 	bl	8004fda <HAL_TIM_PeriodElapsedCallback>
#endif /* USE_HAL_TIM_REGISTER_CALLBACKS */
    }
  }
  /* TIM Break input event */
  if ((itflag & (TIM_FLAG_BREAK)) == (TIM_FLAG_BREAK))
 8004c54:	68bb      	ldr	r3, [r7, #8]
 8004c56:	f003 0380 	and.w	r3, r3, #128	@ 0x80
 8004c5a:	2b00      	cmp	r3, #0
 8004c5c:	d00c      	beq.n	8004c78 <HAL_TIM_IRQHandler+0x190>
  {
    if ((itsource & (TIM_IT_BREAK)) == (TIM_IT_BREAK))
 8004c5e:	68fb      	ldr	r3, [r7, #12]
 8004c60:	f003 0380 	and.w	r3, r3, #128	@ 0x80
 8004c64:	2b00      	cmp	r3, #0
 8004c66:	d007      	beq.n	8004c78 <HAL_TIM_IRQHandler+0x190>
    {
      __HAL_TIM_CLEAR_FLAG(htim, TIM_FLAG_BREAK);
 8004c68:	687b      	ldr	r3, [r7, #4]
 8004c6a:	681b      	ldr	r3, [r3, #0]
 8004c6c:	f06f 0280 	mvn.w	r2, #128	@ 0x80
 8004c70:	611a      	str	r2, [r3, #16]
#if (USE_HAL_TIM_REGISTER_CALLBACKS == 1)
      htim->BreakCallback(htim);
#else
      HAL_TIMEx_BreakCallback(htim);
 8004c72:	6878      	ldr	r0, [r7, #4]
 8004c74:	f000 fd86 	bl	8005784 <HAL_TIMEx_BreakCallback>
#endif /* USE_HAL_TIM_REGISTER_CALLBACKS */
    }
  }
  /* TIM Trigger detection event */
  if ((itflag & (TIM_FLAG_TRIGGER)) == (TIM_FLAG_TRIGGER))
 8004c78:	68bb      	ldr	r3, [r7, #8]
 8004c7a:	f003 0340 	and.w	r3, r3, #64	@ 0x40
 8004c7e:	2b00      	cmp	r3, #0
 8004c80:	d00c      	beq.n	8004c9c <HAL_TIM_IRQHandler+0x1b4>
  {
    if ((itsource & (TIM_IT_TRIGGER)) == (TIM_IT_TRIGGER))
 8004c82:	68fb      	ldr	r3, [r7, #12]
 8004c84:	f003 0340 	and.w	r3, r3, #64	@ 0x40
 8004c88:	2b00      	cmp	r3, #0
 8004c8a:	d007      	beq.n	8004c9c <HAL_TIM_IRQHandler+0x1b4>
    {
      __HAL_TIM_CLEAR_FLAG(htim, TIM_FLAG_TRIGGER);
 8004c8c:	687b      	ldr	r3, [r7, #4]
 8004c8e:	681b      	ldr	r3, [r3, #0]
 8004c90:	f06f 0240 	mvn.w	r2, #64	@ 0x40
 8004c94:	611a      	str	r2, [r3, #16]
#if (USE_HAL_TIM_REGISTER_CALLBACKS == 1)
      htim->TriggerCallback(htim);
#else
      HAL_TIM_TriggerCallback(htim);
 8004c96:	6878      	ldr	r0, [r7, #4]
 8004c98:	f000 f9c7 	bl	800502a <HAL_TIM_TriggerCallback>
#endif /* USE_HAL_TIM_REGISTER_CALLBACKS */
    }
  }
  /* TIM commutation event */
  if ((itflag & (TIM_FLAG_COM)) == (TIM_FLAG_COM))
 8004c9c:	68bb      	ldr	r3, [r7, #8]
 8004c9e:	f003 0320 	and.w	r3, r3, #32
 8004ca2:	2b00      	cmp	r3, #0
 8004ca4:	d00c      	beq.n	8004cc0 <HAL_TIM_IRQHandler+0x1d8>
  {
    if ((itsource & (TIM_IT_COM)) == (TIM_IT_COM))
 8004ca6:	68fb      	ldr	r3, [r7, #12]
 8004ca8:	f003 0320 	and.w	r3, r3, #32
 8004cac:	2b00      	cmp	r3, #0
 8004cae:	d007      	beq.n	8004cc0 <HAL_TIM_IRQHandler+0x1d8>
    {
      __HAL_TIM_CLEAR_FLAG(htim, TIM_FLAG_COM);
 8004cb0:	687b      	ldr	r3, [r7, #4]
 8004cb2:	681b      	ldr	r3, [r3, #0]
 8004cb4:	f06f 0220 	mvn.w	r2, #32
 8004cb8:	611a      	str	r2, [r3, #16]
#if (USE_HAL_TIM_REGISTER_CALLBACKS == 1)
      htim->CommutationCallback(htim);
#else
      HAL_TIMEx_CommutCallback(htim);
 8004cba:	6878      	ldr	r0, [r7, #4]
 8004cbc:	f000 fd58 	bl	8005770 <HAL_TIMEx_CommutCallback>
#endif /* USE_HAL_TIM_REGISTER_CALLBACKS */
    }
  }
}
 8004cc0:	bf00      	nop
 8004cc2:	3710      	adds	r7, #16
 8004cc4:	46bd      	mov	sp, r7
 8004cc6:	bd80      	pop	{r7, pc}

08004cc8 <HAL_TIM_PWM_ConfigChannel>:
  * @retval HAL status
  */
HAL_StatusTypeDef HAL_TIM_PWM_ConfigChannel(TIM_HandleTypeDef *htim,
                                            const TIM_OC_InitTypeDef *sConfig,
                                            uint32_t Channel)
{
 8004cc8:	b580      	push	{r7, lr}
 8004cca:	b086      	sub	sp, #24
 8004ccc:	af00      	add	r7, sp, #0
 8004cce:	60f8      	str	r0, [r7, #12]
 8004cd0:	60b9      	str	r1, [r7, #8]
 8004cd2:	607a      	str	r2, [r7, #4]
  HAL_StatusTypeDef status = HAL_OK;
 8004cd4:	2300      	movs	r3, #0
 8004cd6:	75fb      	strb	r3, [r7, #23]
  assert_param(IS_TIM_PWM_MODE(sConfig->OCMode));
  assert_param(IS_TIM_OC_POLARITY(sConfig->OCPolarity));
  assert_param(IS_TIM_FAST_STATE(sConfig->OCFastMode));

  /* Process Locked */
  __HAL_LOCK(htim);
 8004cd8:	68fb      	ldr	r3, [r7, #12]
 8004cda:	f893 303c 	ldrb.w	r3, [r3, #60]	@ 0x3c
 8004cde:	2b01      	cmp	r3, #1
 8004ce0:	d101      	bne.n	8004ce6 <HAL_TIM_PWM_ConfigChannel+0x1e>
 8004ce2:	2302      	movs	r3, #2
 8004ce4:	e0ae      	b.n	8004e44 <HAL_TIM_PWM_ConfigChannel+0x17c>
 8004ce6:	68fb      	ldr	r3, [r7, #12]
 8004ce8:	2201      	movs	r2, #1
 8004cea:	f883 203c 	strb.w	r2, [r3, #60]	@ 0x3c

  switch (Channel)
 8004cee:	687b      	ldr	r3, [r7, #4]
 8004cf0:	2b0c      	cmp	r3, #12
 8004cf2:	f200 809f 	bhi.w	8004e34 <HAL_TIM_PWM_ConfigChannel+0x16c>
 8004cf6:	a201      	add	r2, pc, #4	@ (adr r2, 8004cfc <HAL_TIM_PWM_ConfigChannel+0x34>)
 8004cf8:	f852 f023 	ldr.w	pc, [r2, r3, lsl #2]
 8004cfc:	08004d31 	.word	0x08004d31
 8004d00:	08004e35 	.word	0x08004e35
 8004d04:	08004e35 	.word	0x08004e35
 8004d08:	08004e35 	.word	0x08004e35
 8004d0c:	08004d71 	.word	0x08004d71
 8004d10:	08004e35 	.word	0x08004e35
 8004d14:	08004e35 	.word	0x08004e35
 8004d18:	08004e35 	.word	0x08004e35
 8004d1c:	08004db3 	.word	0x08004db3
 8004d20:	08004e35 	.word	0x08004e35
 8004d24:	08004e35 	.word	0x08004e35
 8004d28:	08004e35 	.word	0x08004e35
 8004d2c:	08004df3 	.word	0x08004df3
    {
      /* Check the parameters */
      assert_param(IS_TIM_CC1_INSTANCE(htim->Instance));

      /* Configure the Channel 1 in PWM mode */
      TIM_OC1_SetConfig(htim->Instance, sConfig);
 8004d30:	68fb      	ldr	r3, [r7, #12]
 8004d32:	681b      	ldr	r3, [r3, #0]
 8004d34:	68b9      	ldr	r1, [r7, #8]
 8004d36:	4618      	mov	r0, r3
 8004d38:	f000 fa2e 	bl	8005198 <TIM_OC1_SetConfig>

      /* Set the Preload enable bit for channel1 */
      htim->Instance->CCMR1 |= TIM_CCMR1_OC1PE;
 8004d3c:	68fb      	ldr	r3, [r7, #12]
 8004d3e:	681b      	ldr	r3, [r3, #0]
 8004d40:	699a      	ldr	r2, [r3, #24]
 8004d42:	68fb      	ldr	r3, [r7, #12]
 8004d44:	681b      	ldr	r3, [r3, #0]
 8004d46:	f042 0208 	orr.w	r2, r2, #8
 8004d4a:	619a      	str	r2, [r3, #24]

      /* Configure the Output Fast mode */
      htim->Instance->CCMR1 &= ~TIM_CCMR1_OC1FE;
 8004d4c:	68fb      	ldr	r3, [r7, #12]
 8004d4e:	681b      	ldr	r3, [r3, #0]
 8004d50:	699a      	ldr	r2, [r3, #24]
 8004d52:	68fb      	ldr	r3, [r7, #12]
 8004d54:	681b      	ldr	r3, [r3, #0]
 8004d56:	f022 0204 	bic.w	r2, r2, #4
 8004d5a:	619a      	str	r2, [r3, #24]
      htim->Instance->CCMR1 |= sConfig->OCFastMode;
 8004d5c:	68fb      	ldr	r3, [r7, #12]
 8004d5e:	681b      	ldr	r3, [r3, #0]
 8004d60:	6999      	ldr	r1, [r3, #24]
 8004d62:	68bb      	ldr	r3, [r7, #8]
 8004d64:	691a      	ldr	r2, [r3, #16]
 8004d66:	68fb      	ldr	r3, [r7, #12]
 8004d68:	681b      	ldr	r3, [r3, #0]
 8004d6a:	430a      	orrs	r2, r1
 8004d6c:	619a      	str	r2, [r3, #24]
      break;
 8004d6e:	e064      	b.n	8004e3a <HAL_TIM_PWM_ConfigChannel+0x172>
    {
      /* Check the parameters */
      assert_param(IS_TIM_CC2_INSTANCE(htim->Instance));

      /* Configure the Channel 2 in PWM mode */
      TIM_OC2_SetConfig(htim->Instance, sConfig);
 8004d70:	68fb      	ldr	r3, [r7, #12]
 8004d72:	681b      	ldr	r3, [r3, #0]
 8004d74:	68b9      	ldr	r1, [r7, #8]
 8004d76:	4618      	mov	r0, r3
 8004d78:	f000 fa7e 	bl	8005278 <TIM_OC2_SetConfig>

      /* Set the Preload enable bit for channel2 */
      htim->Instance->CCMR1 |= TIM_CCMR1_OC2PE;
 8004d7c:	68fb      	ldr	r3, [r7, #12]
 8004d7e:	681b      	ldr	r3, [r3, #0]
 8004d80:	699a      	ldr	r2, [r3, #24]
 8004d82:	68fb      	ldr	r3, [r7, #12]
 8004d84:	681b      	ldr	r3, [r3, #0]
 8004d86:	f442 6200 	orr.w	r2, r2, #2048	@ 0x800
 8004d8a:	619a      	str	r2, [r3, #24]

      /* Configure the Output Fast mode */
      htim->Instance->CCMR1 &= ~TIM_CCMR1_OC2FE;
 8004d8c:	68fb      	ldr	r3, [r7, #12]
 8004d8e:	681b      	ldr	r3, [r3, #0]
 8004d90:	699a      	ldr	r2, [r3, #24]
 8004d92:	68fb      	ldr	r3, [r7, #12]
 8004d94:	681b      	ldr	r3, [r3, #0]
 8004d96:	f422 6280 	bic.w	r2, r2, #1024	@ 0x400
 8004d9a:	619a      	str	r2, [r3, #24]
      htim->Instance->CCMR1 |= sConfig->OCFastMode << 8U;
 8004d9c:	68fb      	ldr	r3, [r7, #12]
 8004d9e:	681b      	ldr	r3, [r3, #0]
 8004da0:	6999      	ldr	r1, [r3, #24]
 8004da2:	68bb      	ldr	r3, [r7, #8]
 8004da4:	691b      	ldr	r3, [r3, #16]
 8004da6:	021a      	lsls	r2, r3, #8
 8004da8:	68fb      	ldr	r3, [r7, #12]
 8004daa:	681b      	ldr	r3, [r3, #0]
 8004dac:	430a      	orrs	r2, r1
 8004dae:	619a      	str	r2, [r3, #24]
      break;
 8004db0:	e043      	b.n	8004e3a <HAL_TIM_PWM_ConfigChannel+0x172>
    {
      /* Check the parameters */
      assert_param(IS_TIM_CC3_INSTANCE(htim->Instance));

      /* Configure the Channel 3 in PWM mode */
      TIM_OC3_SetConfig(htim->Instance, sConfig);
 8004db2:	68fb      	ldr	r3, [r7, #12]
 8004db4:	681b      	ldr	r3, [r3, #0]
 8004db6:	68b9      	ldr	r1, [r7, #8]
 8004db8:	4618      	mov	r0, r3
 8004dba:	f000 fad3 	bl	8005364 <TIM_OC3_SetConfig>

      /* Set the Preload enable bit for channel3 */
      htim->Instance->CCMR2 |= TIM_CCMR2_OC3PE;
 8004dbe:	68fb      	ldr	r3, [r7, #12]
 8004dc0:	681b      	ldr	r3, [r3, #0]
 8004dc2:	69da      	ldr	r2, [r3, #28]
 8004dc4:	68fb      	ldr	r3, [r7, #12]
 8004dc6:	681b      	ldr	r3, [r3, #0]
 8004dc8:	f042 0208 	orr.w	r2, r2, #8
 8004dcc:	61da      	str	r2, [r3, #28]

      /* Configure the Output Fast mode */
      htim->Instance->CCMR2 &= ~TIM_CCMR2_OC3FE;
 8004dce:	68fb      	ldr	r3, [r7, #12]
 8004dd0:	681b      	ldr	r3, [r3, #0]
 8004dd2:	69da      	ldr	r2, [r3, #28]
 8004dd4:	68fb      	ldr	r3, [r7, #12]
 8004dd6:	681b      	ldr	r3, [r3, #0]
 8004dd8:	f022 0204 	bic.w	r2, r2, #4
 8004ddc:	61da      	str	r2, [r3, #28]
      htim->Instance->CCMR2 |= sConfig->OCFastMode;
 8004dde:	68fb      	ldr	r3, [r7, #12]
 8004de0:	681b      	ldr	r3, [r3, #0]
 8004de2:	69d9      	ldr	r1, [r3, #28]
 8004de4:	68bb      	ldr	r3, [r7, #8]
 8004de6:	691a      	ldr	r2, [r3, #16]
 8004de8:	68fb      	ldr	r3, [r7, #12]
 8004dea:	681b      	ldr	r3, [r3, #0]
 8004dec:	430a      	orrs	r2, r1
 8004dee:	61da      	str	r2, [r3, #28]
      break;
 8004df0:	e023      	b.n	8004e3a <HAL_TIM_PWM_ConfigChannel+0x172>
    {
      /* Check the parameters */
      assert_param(IS_TIM_CC4_INSTANCE(htim->Instance));

      /* Configure the Channel 4 in PWM mode */
      TIM_OC4_SetConfig(htim->Instance, sConfig);
 8004df2:	68fb      	ldr	r3, [r7, #12]
 8004df4:	681b      	ldr	r3, [r3, #0]
 8004df6:	68b9      	ldr	r1, [r7, #8]
 8004df8:	4618      	mov	r0, r3
 8004dfa:	f000 fb27 	bl	800544c <TIM_OC4_SetConfig>

      /* Set the Preload enable bit for channel4 */
      htim->Instance->CCMR2 |= TIM_CCMR2_OC4PE;
 8004dfe:	68fb      	ldr	r3, [r7, #12]
 8004e00:	681b      	ldr	r3, [r3, #0]
 8004e02:	69da      	ldr	r2, [r3, #28]
 8004e04:	68fb      	ldr	r3, [r7, #12]
 8004e06:	681b      	ldr	r3, [r3, #0]
 8004e08:	f442 6200 	orr.w	r2, r2, #2048	@ 0x800
 8004e0c:	61da      	str	r2, [r3, #28]

      /* Configure the Output Fast mode */
      htim->Instance->CCMR2 &= ~TIM_CCMR2_OC4FE;
 8004e0e:	68fb      	ldr	r3, [r7, #12]
 8004e10:	681b      	ldr	r3, [r3, #0]
 8004e12:	69da      	ldr	r2, [r3, #28]
 8004e14:	68fb      	ldr	r3, [r7, #12]
 8004e16:	681b      	ldr	r3, [r3, #0]
 8004e18:	f422 6280 	bic.w	r2, r2, #1024	@ 0x400
 8004e1c:	61da      	str	r2, [r3, #28]
      htim->Instance->CCMR2 |= sConfig->OCFastMode << 8U;
 8004e1e:	68fb      	ldr	r3, [r7, #12]
 8004e20:	681b      	ldr	r3, [r3, #0]
 8004e22:	69d9      	ldr	r1, [r3, #28]
 8004e24:	68bb      	ldr	r3, [r7, #8]
 8004e26:	691b      	ldr	r3, [r3, #16]
 8004e28:	021a      	lsls	r2, r3, #8
 8004e2a:	68fb      	ldr	r3, [r7, #12]
 8004e2c:	681b      	ldr	r3, [r3, #0]
 8004e2e:	430a      	orrs	r2, r1
 8004e30:	61da      	str	r2, [r3, #28]
      break;
 8004e32:	e002      	b.n	8004e3a <HAL_TIM_PWM_ConfigChannel+0x172>
    }

    default:
      status = HAL_ERROR;
 8004e34:	2301      	movs	r3, #1
 8004e36:	75fb      	strb	r3, [r7, #23]
      break;
 8004e38:	bf00      	nop
  }

  __HAL_UNLOCK(htim);
 8004e3a:	68fb      	ldr	r3, [r7, #12]
 8004e3c:	2200      	movs	r2, #0
 8004e3e:	f883 203c 	strb.w	r2, [r3, #60]	@ 0x3c

  return status;
 8004e42:	7dfb      	ldrb	r3, [r7, #23]
}
 8004e44:	4618      	mov	r0, r3
 8004e46:	3718      	adds	r7, #24
 8004e48:	46bd      	mov	sp, r7
 8004e4a:	bd80      	pop	{r7, pc}

08004e4c <HAL_TIM_ConfigClockSource>:
  * @param  sClockSourceConfig pointer to a TIM_ClockConfigTypeDef structure that
  *         contains the clock source information for the TIM peripheral.
  * @retval HAL status
  */
HAL_StatusTypeDef HAL_TIM_ConfigClockSource(TIM_HandleTypeDef *htim, const TIM_ClockConfigTypeDef *sClockSourceConfig)
{
 8004e4c:	b580      	push	{r7, lr}
 8004e4e:	b084      	sub	sp, #16
 8004e50:	af00      	add	r7, sp, #0
 8004e52:	6078      	str	r0, [r7, #4]
 8004e54:	6039      	str	r1, [r7, #0]
  HAL_StatusTypeDef status = HAL_OK;
 8004e56:	2300      	movs	r3, #0
 8004e58:	73fb      	strb	r3, [r7, #15]
  uint32_t tmpsmcr;

  /* Process Locked */
  __HAL_LOCK(htim);
 8004e5a:	687b      	ldr	r3, [r7, #4]
 8004e5c:	f893 303c 	ldrb.w	r3, [r3, #60]	@ 0x3c
 8004e60:	2b01      	cmp	r3, #1
 8004e62:	d101      	bne.n	8004e68 <HAL_TIM_ConfigClockSource+0x1c>
 8004e64:	2302      	movs	r3, #2
 8004e66:	e0b4      	b.n	8004fd2 <HAL_TIM_ConfigClockSource+0x186>
 8004e68:	687b      	ldr	r3, [r7, #4]
 8004e6a:	2201      	movs	r2, #1
 8004e6c:	f883 203c 	strb.w	r2, [r3, #60]	@ 0x3c

  htim->State = HAL_TIM_STATE_BUSY;
 8004e70:	687b      	ldr	r3, [r7, #4]
 8004e72:	2202      	movs	r2, #2
 8004e74:	f883 203d 	strb.w	r2, [r3, #61]	@ 0x3d

  /* Check the parameters */
  assert_param(IS_TIM_CLOCKSOURCE(sClockSourceConfig->ClockSource));

  /* Reset the SMS, TS, ECE, ETPS and ETRF bits */
  tmpsmcr = htim->Instance->SMCR;
 8004e78:	687b      	ldr	r3, [r7, #4]
 8004e7a:	681b      	ldr	r3, [r3, #0]
 8004e7c:	689b      	ldr	r3, [r3, #8]
 8004e7e:	60bb      	str	r3, [r7, #8]
  tmpsmcr &= ~(TIM_SMCR_SMS | TIM_SMCR_TS);
 8004e80:	68bb      	ldr	r3, [r7, #8]
 8004e82:	f023 0377 	bic.w	r3, r3, #119	@ 0x77
 8004e86:	60bb      	str	r3, [r7, #8]
  tmpsmcr &= ~(TIM_SMCR_ETF | TIM_SMCR_ETPS | TIM_SMCR_ECE | TIM_SMCR_ETP);
 8004e88:	68bb      	ldr	r3, [r7, #8]
 8004e8a:	f423 437f 	bic.w	r3, r3, #65280	@ 0xff00
 8004e8e:	60bb      	str	r3, [r7, #8]
  htim->Instance->SMCR = tmpsmcr;
 8004e90:	687b      	ldr	r3, [r7, #4]
 8004e92:	681b      	ldr	r3, [r3, #0]
 8004e94:	68ba      	ldr	r2, [r7, #8]
 8004e96:	609a      	str	r2, [r3, #8]

  switch (sClockSourceConfig->ClockSource)
 8004e98:	683b      	ldr	r3, [r7, #0]
 8004e9a:	681b      	ldr	r3, [r3, #0]
 8004e9c:	f5b3 5f00 	cmp.w	r3, #8192	@ 0x2000
 8004ea0:	d03e      	beq.n	8004f20 <HAL_TIM_ConfigClockSource+0xd4>
 8004ea2:	f5b3 5f00 	cmp.w	r3, #8192	@ 0x2000
 8004ea6:	f200 8087 	bhi.w	8004fb8 <HAL_TIM_ConfigClockSource+0x16c>
 8004eaa:	f5b3 5f80 	cmp.w	r3, #4096	@ 0x1000
 8004eae:	f000 8086 	beq.w	8004fbe <HAL_TIM_ConfigClockSource+0x172>
 8004eb2:	f5b3 5f80 	cmp.w	r3, #4096	@ 0x1000
 8004eb6:	d87f      	bhi.n	8004fb8 <HAL_TIM_ConfigClockSource+0x16c>
 8004eb8:	2b70      	cmp	r3, #112	@ 0x70
 8004eba:	d01a      	beq.n	8004ef2 <HAL_TIM_ConfigClockSource+0xa6>
 8004ebc:	2b70      	cmp	r3, #112	@ 0x70
 8004ebe:	d87b      	bhi.n	8004fb8 <HAL_TIM_ConfigClockSource+0x16c>
 8004ec0:	2b60      	cmp	r3, #96	@ 0x60
 8004ec2:	d050      	beq.n	8004f66 <HAL_TIM_ConfigClockSource+0x11a>
 8004ec4:	2b60      	cmp	r3, #96	@ 0x60
 8004ec6:	d877      	bhi.n	8004fb8 <HAL_TIM_ConfigClockSource+0x16c>
 8004ec8:	2b50      	cmp	r3, #80	@ 0x50
 8004eca:	d03c      	beq.n	8004f46 <HAL_TIM_ConfigClockSource+0xfa>
 8004ecc:	2b50      	cmp	r3, #80	@ 0x50
 8004ece:	d873      	bhi.n	8004fb8 <HAL_TIM_ConfigClockSource+0x16c>
 8004ed0:	2b40      	cmp	r3, #64	@ 0x40
 8004ed2:	d058      	beq.n	8004f86 <HAL_TIM_ConfigClockSource+0x13a>
 8004ed4:	2b40      	cmp	r3, #64	@ 0x40
 8004ed6:	d86f      	bhi.n	8004fb8 <HAL_TIM_ConfigClockSource+0x16c>
 8004ed8:	2b30      	cmp	r3, #48	@ 0x30
 8004eda:	d064      	beq.n	8004fa6 <HAL_TIM_ConfigClockSource+0x15a>
 8004edc:	2b30      	cmp	r3, #48	@ 0x30
 8004ede:	d86b      	bhi.n	8004fb8 <HAL_TIM_ConfigClockSource+0x16c>
 8004ee0:	2b20      	cmp	r3, #32
 8004ee2:	d060      	beq.n	8004fa6 <HAL_TIM_ConfigClockSource+0x15a>
 8004ee4:	2b20      	cmp	r3, #32
 8004ee6:	d867      	bhi.n	8004fb8 <HAL_TIM_ConfigClockSource+0x16c>
 8004ee8:	2b00      	cmp	r3, #0
 8004eea:	d05c      	beq.n	8004fa6 <HAL_TIM_ConfigClockSource+0x15a>
 8004eec:	2b10      	cmp	r3, #16
 8004eee:	d05a      	beq.n	8004fa6 <HAL_TIM_ConfigClockSource+0x15a>
 8004ef0:	e062      	b.n	8004fb8 <HAL_TIM_ConfigClockSource+0x16c>
      assert_param(IS_TIM_CLOCKPRESCALER(sClockSourceConfig->ClockPrescaler));
      assert_param(IS_TIM_CLOCKPOLARITY(sClockSourceConfig->ClockPolarity));
      assert_param(IS_TIM_CLOCKFILTER(sClockSourceConfig->ClockFilter));

      /* Configure the ETR Clock source */
      TIM_ETR_SetConfig(htim->Instance,
 8004ef2:	687b      	ldr	r3, [r7, #4]
 8004ef4:	6818      	ldr	r0, [r3, #0]
                        sClockSourceConfig->ClockPrescaler,
 8004ef6:	683b      	ldr	r3, [r7, #0]
 8004ef8:	6899      	ldr	r1, [r3, #8]
                        sClockSourceConfig->ClockPolarity,
 8004efa:	683b      	ldr	r3, [r7, #0]
 8004efc:	685a      	ldr	r2, [r3, #4]
                        sClockSourceConfig->ClockFilter);
 8004efe:	683b      	ldr	r3, [r7, #0]
 8004f00:	68db      	ldr	r3, [r3, #12]
      TIM_ETR_SetConfig(htim->Instance,
 8004f02:	f000 fb73 	bl	80055ec <TIM_ETR_SetConfig>

      /* Select the External clock mode1 and the ETRF trigger */
      tmpsmcr = htim->Instance->SMCR;
 8004f06:	687b      	ldr	r3, [r7, #4]
 8004f08:	681b      	ldr	r3, [r3, #0]
 8004f0a:	689b      	ldr	r3, [r3, #8]
 8004f0c:	60bb      	str	r3, [r7, #8]
      tmpsmcr |= (TIM_SLAVEMODE_EXTERNAL1 | TIM_CLOCKSOURCE_ETRMODE1);
 8004f0e:	68bb      	ldr	r3, [r7, #8]
 8004f10:	f043 0377 	orr.w	r3, r3, #119	@ 0x77
 8004f14:	60bb      	str	r3, [r7, #8]
      /* Write to TIMx SMCR */
      htim->Instance->SMCR = tmpsmcr;
 8004f16:	687b      	ldr	r3, [r7, #4]
 8004f18:	681b      	ldr	r3, [r3, #0]
 8004f1a:	68ba      	ldr	r2, [r7, #8]
 8004f1c:	609a      	str	r2, [r3, #8]
      break;
 8004f1e:	e04f      	b.n	8004fc0 <HAL_TIM_ConfigClockSource+0x174>
      assert_param(IS_TIM_CLOCKPRESCALER(sClockSourceConfig->ClockPrescaler));
      assert_param(IS_TIM_CLOCKPOLARITY(sClockSourceConfig->ClockPolarity));
      assert_param(IS_TIM_CLOCKFILTER(sClockSourceConfig->ClockFilter));

      /* Configure the ETR Clock source */
      TIM_ETR_SetConfig(htim->Instance,
 8004f20:	687b      	ldr	r3, [r7, #4]
 8004f22:	6818      	ldr	r0, [r3, #0]
                        sClockSourceConfig->ClockPrescaler,
 8004f24:	683b      	ldr	r3, [r7, #0]
 8004f26:	6899      	ldr	r1, [r3, #8]
                        sClockSourceConfig->ClockPolarity,
 8004f28:	683b      	ldr	r3, [r7, #0]
 8004f2a:	685a      	ldr	r2, [r3, #4]
                        sClockSourceConfig->ClockFilter);
 8004f2c:	683b      	ldr	r3, [r7, #0]
 8004f2e:	68db      	ldr	r3, [r3, #12]
      TIM_ETR_SetConfig(htim->Instance,
 8004f30:	f000 fb5c 	bl	80055ec <TIM_ETR_SetConfig>
      /* Enable the External clock mode2 */
      htim->Instance->SMCR |= TIM_SMCR_ECE;
 8004f34:	687b      	ldr	r3, [r7, #4]
 8004f36:	681b      	ldr	r3, [r3, #0]
 8004f38:	689a      	ldr	r2, [r3, #8]
 8004f3a:	687b      	ldr	r3, [r7, #4]
 8004f3c:	681b      	ldr	r3, [r3, #0]
 8004f3e:	f442 4280 	orr.w	r2, r2, #16384	@ 0x4000
 8004f42:	609a      	str	r2, [r3, #8]
      break;
 8004f44:	e03c      	b.n	8004fc0 <HAL_TIM_ConfigClockSource+0x174>

      /* Check TI1 input conditioning related parameters */
      assert_param(IS_TIM_CLOCKPOLARITY(sClockSourceConfig->ClockPolarity));
      assert_param(IS_TIM_CLOCKFILTER(sClockSourceConfig->ClockFilter));

      TIM_TI1_ConfigInputStage(htim->Instance,
 8004f46:	687b      	ldr	r3, [r7, #4]
 8004f48:	6818      	ldr	r0, [r3, #0]
                               sClockSourceConfig->ClockPolarity,
 8004f4a:	683b      	ldr	r3, [r7, #0]
 8004f4c:	6859      	ldr	r1, [r3, #4]
                               sClockSourceConfig->ClockFilter);
 8004f4e:	683b      	ldr	r3, [r7, #0]
 8004f50:	68db      	ldr	r3, [r3, #12]
      TIM_TI1_ConfigInputStage(htim->Instance,
 8004f52:	461a      	mov	r2, r3
 8004f54:	f000 fad0 	bl	80054f8 <TIM_TI1_ConfigInputStage>
      TIM_ITRx_SetConfig(htim->Instance, TIM_CLOCKSOURCE_TI1);
 8004f58:	687b      	ldr	r3, [r7, #4]
 8004f5a:	681b      	ldr	r3, [r3, #0]
 8004f5c:	2150      	movs	r1, #80	@ 0x50
 8004f5e:	4618      	mov	r0, r3
 8004f60:	f000 fb29 	bl	80055b6 <TIM_ITRx_SetConfig>
      break;
 8004f64:	e02c      	b.n	8004fc0 <HAL_TIM_ConfigClockSource+0x174>

      /* Check TI2 input conditioning related parameters */
      assert_param(IS_TIM_CLOCKPOLARITY(sClockSourceConfig->ClockPolarity));
      assert_param(IS_TIM_CLOCKFILTER(sClockSourceConfig->ClockFilter));

      TIM_TI2_ConfigInputStage(htim->Instance,
 8004f66:	687b      	ldr	r3, [r7, #4]
 8004f68:	6818      	ldr	r0, [r3, #0]
                               sClockSourceConfig->ClockPolarity,
 8004f6a:	683b      	ldr	r3, [r7, #0]
 8004f6c:	6859      	ldr	r1, [r3, #4]
                               sClockSourceConfig->ClockFilter);
 8004f6e:	683b      	ldr	r3, [r7, #0]
 8004f70:	68db      	ldr	r3, [r3, #12]
      TIM_TI2_ConfigInputStage(htim->Instance,
 8004f72:	461a      	mov	r2, r3
 8004f74:	f000 faef 	bl	8005556 <TIM_TI2_ConfigInputStage>
      TIM_ITRx_SetConfig(htim->Instance, TIM_CLOCKSOURCE_TI2);
 8004f78:	687b      	ldr	r3, [r7, #4]
 8004f7a:	681b      	ldr	r3, [r3, #0]
 8004f7c:	2160      	movs	r1, #96	@ 0x60
 8004f7e:	4618      	mov	r0, r3
 8004f80:	f000 fb19 	bl	80055b6 <TIM_ITRx_SetConfig>
      break;
 8004f84:	e01c      	b.n	8004fc0 <HAL_TIM_ConfigClockSource+0x174>

      /* Check TI1 input conditioning related parameters */
      assert_param(IS_TIM_CLOCKPOLARITY(sClockSourceConfig->ClockPolarity));
      assert_param(IS_TIM_CLOCKFILTER(sClockSourceConfig->ClockFilter));

      TIM_TI1_ConfigInputStage(htim->Instance,
 8004f86:	687b      	ldr	r3, [r7, #4]
 8004f88:	6818      	ldr	r0, [r3, #0]
                               sClockSourceConfig->ClockPolarity,
 8004f8a:	683b      	ldr	r3, [r7, #0]
 8004f8c:	6859      	ldr	r1, [r3, #4]
                               sClockSourceConfig->ClockFilter);
 8004f8e:	683b      	ldr	r3, [r7, #0]
 8004f90:	68db      	ldr	r3, [r3, #12]
      TIM_TI1_ConfigInputStage(htim->Instance,
 8004f92:	461a      	mov	r2, r3
 8004f94:	f000 fab0 	bl	80054f8 <TIM_TI1_ConfigInputStage>
      TIM_ITRx_SetConfig(htim->Instance, TIM_CLOCKSOURCE_TI1ED);
 8004f98:	687b      	ldr	r3, [r7, #4]
 8004f9a:	681b      	ldr	r3, [r3, #0]
 8004f9c:	2140      	movs	r1, #64	@ 0x40
 8004f9e:	4618      	mov	r0, r3
 8004fa0:	f000 fb09 	bl	80055b6 <TIM_ITRx_SetConfig>
      break;
 8004fa4:	e00c      	b.n	8004fc0 <HAL_TIM_ConfigClockSource+0x174>
    case TIM_CLOCKSOURCE_ITR3:
    {
      /* Check whether or not the timer instance supports internal trigger input */
      assert_param(IS_TIM_CLOCKSOURCE_ITRX_INSTANCE(htim->Instance));

      TIM_ITRx_SetConfig(htim->Instance, sClockSourceConfig->ClockSource);
 8004fa6:	687b      	ldr	r3, [r7, #4]
 8004fa8:	681a      	ldr	r2, [r3, #0]
 8004faa:	683b      	ldr	r3, [r7, #0]
 8004fac:	681b      	ldr	r3, [r3, #0]
 8004fae:	4619      	mov	r1, r3
 8004fb0:	4610      	mov	r0, r2
 8004fb2:	f000 fb00 	bl	80055b6 <TIM_ITRx_SetConfig>
      break;
 8004fb6:	e003      	b.n	8004fc0 <HAL_TIM_ConfigClockSource+0x174>
    }

    default:
      status = HAL_ERROR;
 8004fb8:	2301      	movs	r3, #1
 8004fba:	73fb      	strb	r3, [r7, #15]
      break;
 8004fbc:	e000      	b.n	8004fc0 <HAL_TIM_ConfigClockSource+0x174>
      break;
 8004fbe:	bf00      	nop
  }
  htim->State = HAL_TIM_STATE_READY;
 8004fc0:	687b      	ldr	r3, [r7, #4]
 8004fc2:	2201      	movs	r2, #1
 8004fc4:	f883 203d 	strb.w	r2, [r3, #61]	@ 0x3d

  __HAL_UNLOCK(htim);
 8004fc8:	687b      	ldr	r3, [r7, #4]
 8004fca:	2200      	movs	r2, #0
 8004fcc:	f883 203c 	strb.w	r2, [r3, #60]	@ 0x3c

  return status;
 8004fd0:	7bfb      	ldrb	r3, [r7, #15]
}
 8004fd2:	4618      	mov	r0, r3
 8004fd4:	3710      	adds	r7, #16
 8004fd6:	46bd      	mov	sp, r7
 8004fd8:	bd80      	pop	{r7, pc}

08004fda <HAL_TIM_PeriodElapsedCallback>:
  * @brief  Period elapsed callback in non-blocking mode
  * @param  htim TIM handle
  * @retval None
  */
__weak void HAL_TIM_PeriodElapsedCallback(TIM_HandleTypeDef *htim)
{
 8004fda:	b480      	push	{r7}
 8004fdc:	b083      	sub	sp, #12
 8004fde:	af00      	add	r7, sp, #0
 8004fe0:	6078      	str	r0, [r7, #4]
  UNUSED(htim);

  /* NOTE : This function should not be modified, when the callback is needed,
            the HAL_TIM_PeriodElapsedCallback could be implemented in the user file
   */
}
 8004fe2:	bf00      	nop
 8004fe4:	370c      	adds	r7, #12
 8004fe6:	46bd      	mov	sp, r7
 8004fe8:	f85d 7b04 	ldr.w	r7, [sp], #4
 8004fec:	4770      	bx	lr

08004fee <HAL_TIM_OC_DelayElapsedCallback>:
  * @brief  Output Compare callback in non-blocking mode
  * @param  htim TIM OC handle
  * @retval None
  */
__weak void HAL_TIM_OC_DelayElapsedCallback(TIM_HandleTypeDef *htim)
{
 8004fee:	b480      	push	{r7}
 8004ff0:	b083      	sub	sp, #12
 8004ff2:	af00      	add	r7, sp, #0
 8004ff4:	6078      	str	r0, [r7, #4]
  UNUSED(htim);

  /* NOTE : This function should not be modified, when the callback is needed,
            the HAL_TIM_OC_DelayElapsedCallback could be implemented in the user file
   */
}
 8004ff6:	bf00      	nop
 8004ff8:	370c      	adds	r7, #12
 8004ffa:	46bd      	mov	sp, r7
 8004ffc:	f85d 7b04 	ldr.w	r7, [sp], #4
 8005000:	4770      	bx	lr

08005002 <HAL_TIM_IC_CaptureCallback>:
  * @brief  Input Capture callback in non-blocking mode
  * @param  htim TIM IC handle
  * @retval None
  */
__weak void HAL_TIM_IC_CaptureCallback(TIM_HandleTypeDef *htim)
{
 8005002:	b480      	push	{r7}
 8005004:	b083      	sub	sp, #12
 8005006:	af00      	add	r7, sp, #0
 8005008:	6078      	str	r0, [r7, #4]
  UNUSED(htim);

  /* NOTE : This function should not be modified, when the callback is needed,
            the HAL_TIM_IC_CaptureCallback could be implemented in the user file
   */
}
 800500a:	bf00      	nop
 800500c:	370c      	adds	r7, #12
 800500e:	46bd      	mov	sp, r7
 8005010:	f85d 7b04 	ldr.w	r7, [sp], #4
 8005014:	4770      	bx	lr

08005016 <HAL_TIM_PWM_PulseFinishedCallback>:
  * @brief  PWM Pulse finished callback in non-blocking mode
  * @param  htim TIM handle
  * @retval None
  */
__weak void HAL_TIM_PWM_PulseFinishedCallback(TIM_HandleTypeDef *htim)
{
 8005016:	b480      	push	{r7}
 8005018:	b083      	sub	sp, #12
 800501a:	af00      	add	r7, sp, #0
 800501c:	6078      	str	r0, [r7, #4]
  UNUSED(htim);

  /* NOTE : This function should not be modified, when the callback is needed,
            the HAL_TIM_PWM_PulseFinishedCallback could be implemented in the user file
   */
}
 800501e:	bf00      	nop
 8005020:	370c      	adds	r7, #12
 8005022:	46bd      	mov	sp, r7
 8005024:	f85d 7b04 	ldr.w	r7, [sp], #4
 8005028:	4770      	bx	lr

0800502a <HAL_TIM_TriggerCallback>:
  * @brief  Hall Trigger detection callback in non-blocking mode
  * @param  htim TIM handle
  * @retval None
  */
__weak void HAL_TIM_TriggerCallback(TIM_HandleTypeDef *htim)
{
 800502a:	b480      	push	{r7}
 800502c:	b083      	sub	sp, #12
 800502e:	af00      	add	r7, sp, #0
 8005030:	6078      	str	r0, [r7, #4]
  UNUSED(htim);

  /* NOTE : This function should not be modified, when the callback is needed,
            the HAL_TIM_TriggerCallback could be implemented in the user file
   */
}
 8005032:	bf00      	nop
 8005034:	370c      	adds	r7, #12
 8005036:	46bd      	mov	sp, r7
 8005038:	f85d 7b04 	ldr.w	r7, [sp], #4
 800503c:	4770      	bx	lr
	...

08005040 <TIM_Base_SetConfig>:
  * @param  TIMx TIM peripheral
  * @param  Structure TIM Base configuration structure
  * @retval None
  */
void TIM_Base_SetConfig(TIM_TypeDef *TIMx, const TIM_Base_InitTypeDef *Structure)
{
 8005040:	b480      	push	{r7}
 8005042:	b085      	sub	sp, #20
 8005044:	af00      	add	r7, sp, #0
 8005046:	6078      	str	r0, [r7, #4]
 8005048:	6039      	str	r1, [r7, #0]
  uint32_t tmpcr1;
  tmpcr1 = TIMx->CR1;
 800504a:	687b      	ldr	r3, [r7, #4]
 800504c:	681b      	ldr	r3, [r3, #0]
 800504e:	60fb      	str	r3, [r7, #12]

  /* Set TIM Time Base Unit parameters ---------------------------------------*/
  if (IS_TIM_COUNTER_MODE_SELECT_INSTANCE(TIMx))
 8005050:	687b      	ldr	r3, [r7, #4]
 8005052:	4a46      	ldr	r2, [pc, #280]	@ (800516c <TIM_Base_SetConfig+0x12c>)
 8005054:	4293      	cmp	r3, r2
 8005056:	d013      	beq.n	8005080 <TIM_Base_SetConfig+0x40>
 8005058:	687b      	ldr	r3, [r7, #4]
 800505a:	f1b3 4f80 	cmp.w	r3, #1073741824	@ 0x40000000
 800505e:	d00f      	beq.n	8005080 <TIM_Base_SetConfig+0x40>
 8005060:	687b      	ldr	r3, [r7, #4]
 8005062:	4a43      	ldr	r2, [pc, #268]	@ (8005170 <TIM_Base_SetConfig+0x130>)
 8005064:	4293      	cmp	r3, r2
 8005066:	d00b      	beq.n	8005080 <TIM_Base_SetConfig+0x40>
 8005068:	687b      	ldr	r3, [r7, #4]
 800506a:	4a42      	ldr	r2, [pc, #264]	@ (8005174 <TIM_Base_SetConfig+0x134>)
 800506c:	4293      	cmp	r3, r2
 800506e:	d007      	beq.n	8005080 <TIM_Base_SetConfig+0x40>
 8005070:	687b      	ldr	r3, [r7, #4]
 8005072:	4a41      	ldr	r2, [pc, #260]	@ (8005178 <TIM_Base_SetConfig+0x138>)
 8005074:	4293      	cmp	r3, r2
 8005076:	d003      	beq.n	8005080 <TIM_Base_SetConfig+0x40>
 8005078:	687b      	ldr	r3, [r7, #4]
 800507a:	4a40      	ldr	r2, [pc, #256]	@ (800517c <TIM_Base_SetConfig+0x13c>)
 800507c:	4293      	cmp	r3, r2
 800507e:	d108      	bne.n	8005092 <TIM_Base_SetConfig+0x52>
  {
    /* Select the Counter Mode */
    tmpcr1 &= ~(TIM_CR1_DIR | TIM_CR1_CMS);
 8005080:	68fb      	ldr	r3, [r7, #12]
 8005082:	f023 0370 	bic.w	r3, r3, #112	@ 0x70
 8005086:	60fb      	str	r3, [r7, #12]
    tmpcr1 |= Structure->CounterMode;
 8005088:	683b      	ldr	r3, [r7, #0]
 800508a:	685b      	ldr	r3, [r3, #4]
 800508c:	68fa      	ldr	r2, [r7, #12]
 800508e:	4313      	orrs	r3, r2
 8005090:	60fb      	str	r3, [r7, #12]
  }

  if (IS_TIM_CLOCK_DIVISION_INSTANCE(TIMx))
 8005092:	687b      	ldr	r3, [r7, #4]
 8005094:	4a35      	ldr	r2, [pc, #212]	@ (800516c <TIM_Base_SetConfig+0x12c>)
 8005096:	4293      	cmp	r3, r2
 8005098:	d02b      	beq.n	80050f2 <TIM_Base_SetConfig+0xb2>
 800509a:	687b      	ldr	r3, [r7, #4]
 800509c:	f1b3 4f80 	cmp.w	r3, #1073741824	@ 0x40000000
 80050a0:	d027      	beq.n	80050f2 <TIM_Base_SetConfig+0xb2>
 80050a2:	687b      	ldr	r3, [r7, #4]
 80050a4:	4a32      	ldr	r2, [pc, #200]	@ (8005170 <TIM_Base_SetConfig+0x130>)
 80050a6:	4293      	cmp	r3, r2
 80050a8:	d023      	beq.n	80050f2 <TIM_Base_SetConfig+0xb2>
 80050aa:	687b      	ldr	r3, [r7, #4]
 80050ac:	4a31      	ldr	r2, [pc, #196]	@ (8005174 <TIM_Base_SetConfig+0x134>)
 80050ae:	4293      	cmp	r3, r2
 80050b0:	d01f      	beq.n	80050f2 <TIM_Base_SetConfig+0xb2>
 80050b2:	687b      	ldr	r3, [r7, #4]
 80050b4:	4a30      	ldr	r2, [pc, #192]	@ (8005178 <TIM_Base_SetConfig+0x138>)
 80050b6:	4293      	cmp	r3, r2
 80050b8:	d01b      	beq.n	80050f2 <TIM_Base_SetConfig+0xb2>
 80050ba:	687b      	ldr	r3, [r7, #4]
 80050bc:	4a2f      	ldr	r2, [pc, #188]	@ (800517c <TIM_Base_SetConfig+0x13c>)
 80050be:	4293      	cmp	r3, r2
 80050c0:	d017      	beq.n	80050f2 <TIM_Base_SetConfig+0xb2>
 80050c2:	687b      	ldr	r3, [r7, #4]
 80050c4:	4a2e      	ldr	r2, [pc, #184]	@ (8005180 <TIM_Base_SetConfig+0x140>)
 80050c6:	4293      	cmp	r3, r2
 80050c8:	d013      	beq.n	80050f2 <TIM_Base_SetConfig+0xb2>
 80050ca:	687b      	ldr	r3, [r7, #4]
 80050cc:	4a2d      	ldr	r2, [pc, #180]	@ (8005184 <TIM_Base_SetConfig+0x144>)
 80050ce:	4293      	cmp	r3, r2
 80050d0:	d00f      	beq.n	80050f2 <TIM_Base_SetConfig+0xb2>
 80050d2:	687b      	ldr	r3, [r7, #4]
 80050d4:	4a2c      	ldr	r2, [pc, #176]	@ (8005188 <TIM_Base_SetConfig+0x148>)
 80050d6:	4293      	cmp	r3, r2
 80050d8:	d00b      	beq.n	80050f2 <TIM_Base_SetConfig+0xb2>
 80050da:	687b      	ldr	r3, [r7, #4]
 80050dc:	4a2b      	ldr	r2, [pc, #172]	@ (800518c <TIM_Base_SetConfig+0x14c>)
 80050de:	4293      	cmp	r3, r2
 80050e0:	d007      	beq.n	80050f2 <TIM_Base_SetConfig+0xb2>
 80050e2:	687b      	ldr	r3, [r7, #4]
 80050e4:	4a2a      	ldr	r2, [pc, #168]	@ (8005190 <TIM_Base_SetConfig+0x150>)
 80050e6:	4293      	cmp	r3, r2
 80050e8:	d003      	beq.n	80050f2 <TIM_Base_SetConfig+0xb2>
 80050ea:	687b      	ldr	r3, [r7, #4]
 80050ec:	4a29      	ldr	r2, [pc, #164]	@ (8005194 <TIM_Base_SetConfig+0x154>)
 80050ee:	4293      	cmp	r3, r2
 80050f0:	d108      	bne.n	8005104 <TIM_Base_SetConfig+0xc4>
  {
    /* Set the clock division */
    tmpcr1 &= ~TIM_CR1_CKD;
 80050f2:	68fb      	ldr	r3, [r7, #12]
 80050f4:	f423 7340 	bic.w	r3, r3, #768	@ 0x300
 80050f8:	60fb      	str	r3, [r7, #12]
    tmpcr1 |= (uint32_t)Structure->ClockDivision;
 80050fa:	683b      	ldr	r3, [r7, #0]
 80050fc:	68db      	ldr	r3, [r3, #12]
 80050fe:	68fa      	ldr	r2, [r7, #12]
 8005100:	4313      	orrs	r3, r2
 8005102:	60fb      	str	r3, [r7, #12]
  }

  /* Set the auto-reload preload */
  MODIFY_REG(tmpcr1, TIM_CR1_ARPE, Structure->AutoReloadPreload);
 8005104:	68fb      	ldr	r3, [r7, #12]
 8005106:	f023 0280 	bic.w	r2, r3, #128	@ 0x80
 800510a:	683b      	ldr	r3, [r7, #0]
 800510c:	695b      	ldr	r3, [r3, #20]
 800510e:	4313      	orrs	r3, r2
 8005110:	60fb      	str	r3, [r7, #12]

  TIMx->CR1 = tmpcr1;
 8005112:	687b      	ldr	r3, [r7, #4]
 8005114:	68fa      	ldr	r2, [r7, #12]
 8005116:	601a      	str	r2, [r3, #0]

  /* Set the Autoreload value */
  TIMx->ARR = (uint32_t)Structure->Period ;
 8005118:	683b      	ldr	r3, [r7, #0]
 800511a:	689a      	ldr	r2, [r3, #8]
 800511c:	687b      	ldr	r3, [r7, #4]
 800511e:	62da      	str	r2, [r3, #44]	@ 0x2c

  /* Set the Prescaler value */
  TIMx->PSC = Structure->Prescaler;
 8005120:	683b      	ldr	r3, [r7, #0]
 8005122:	681a      	ldr	r2, [r3, #0]
 8005124:	687b      	ldr	r3, [r7, #4]
 8005126:	629a      	str	r2, [r3, #40]	@ 0x28

  if (IS_TIM_REPETITION_COUNTER_INSTANCE(TIMx))
 8005128:	687b      	ldr	r3, [r7, #4]
 800512a:	4a10      	ldr	r2, [pc, #64]	@ (800516c <TIM_Base_SetConfig+0x12c>)
 800512c:	4293      	cmp	r3, r2
 800512e:	d003      	beq.n	8005138 <TIM_Base_SetConfig+0xf8>
 8005130:	687b      	ldr	r3, [r7, #4]
 8005132:	4a12      	ldr	r2, [pc, #72]	@ (800517c <TIM_Base_SetConfig+0x13c>)
 8005134:	4293      	cmp	r3, r2
 8005136:	d103      	bne.n	8005140 <TIM_Base_SetConfig+0x100>
  {
    /* Set the Repetition Counter value */
    TIMx->RCR = Structure->RepetitionCounter;
 8005138:	683b      	ldr	r3, [r7, #0]
 800513a:	691a      	ldr	r2, [r3, #16]
 800513c:	687b      	ldr	r3, [r7, #4]
 800513e:	631a      	str	r2, [r3, #48]	@ 0x30
  }

  /* Generate an update event to reload the Prescaler
     and the repetition counter (only for advanced timer) value immediately */
  TIMx->EGR = TIM_EGR_UG;
 8005140:	687b      	ldr	r3, [r7, #4]
 8005142:	2201      	movs	r2, #1
 8005144:	615a      	str	r2, [r3, #20]

  /* Check if the update flag is set after the Update Generation, if so clear the UIF flag */
  if (HAL_IS_BIT_SET(TIMx->SR, TIM_FLAG_UPDATE))
 8005146:	687b      	ldr	r3, [r7, #4]
 8005148:	691b      	ldr	r3, [r3, #16]
 800514a:	f003 0301 	and.w	r3, r3, #1
 800514e:	2b01      	cmp	r3, #1
 8005150:	d105      	bne.n	800515e <TIM_Base_SetConfig+0x11e>
  {
    /* Clear the update flag */
    CLEAR_BIT(TIMx->SR, TIM_FLAG_UPDATE);
 8005152:	687b      	ldr	r3, [r7, #4]
 8005154:	691b      	ldr	r3, [r3, #16]
 8005156:	f023 0201 	bic.w	r2, r3, #1
 800515a:	687b      	ldr	r3, [r7, #4]
 800515c:	611a      	str	r2, [r3, #16]
  }
}
 800515e:	bf00      	nop
 8005160:	3714      	adds	r7, #20
 8005162:	46bd      	mov	sp, r7
 8005164:	f85d 7b04 	ldr.w	r7, [sp], #4
 8005168:	4770      	bx	lr
 800516a:	bf00      	nop
 800516c:	40010000 	.word	0x40010000
 8005170:	40000400 	.word	0x40000400
 8005174:	40000800 	.word	0x40000800
 8005178:	40000c00 	.word	0x40000c00
 800517c:	40010400 	.word	0x40010400
 8005180:	40014000 	.word	0x40014000
 8005184:	40014400 	.word	0x40014400
 8005188:	40014800 	.word	0x40014800
 800518c:	40001800 	.word	0x40001800
 8005190:	40001c00 	.word	0x40001c00
 8005194:	40002000 	.word	0x40002000

08005198 <TIM_OC1_SetConfig>:
  * @param  TIMx to select the TIM peripheral
  * @param  OC_Config The output configuration structure
  * @retval None
  */
static void TIM_OC1_SetConfig(TIM_TypeDef *TIMx, const TIM_OC_InitTypeDef *OC_Config)
{
 8005198:	b480      	push	{r7}
 800519a:	b087      	sub	sp, #28
 800519c:	af00      	add	r7, sp, #0
 800519e:	6078      	str	r0, [r7, #4]
 80051a0:	6039      	str	r1, [r7, #0]
  uint32_t tmpccmrx;
  uint32_t tmpccer;
  uint32_t tmpcr2;

  /* Get the TIMx CCER register value */
  tmpccer = TIMx->CCER;
 80051a2:	687b      	ldr	r3, [r7, #4]
 80051a4:	6a1b      	ldr	r3, [r3, #32]
 80051a6:	617b      	str	r3, [r7, #20]

  /* Disable the Channel 1: Reset the CC1E Bit */
  TIMx->CCER &= ~TIM_CCER_CC1E;
 80051a8:	687b      	ldr	r3, [r7, #4]
 80051aa:	6a1b      	ldr	r3, [r3, #32]
 80051ac:	f023 0201 	bic.w	r2, r3, #1
 80051b0:	687b      	ldr	r3, [r7, #4]
 80051b2:	621a      	str	r2, [r3, #32]

  /* Get the TIMx CR2 register value */
  tmpcr2 =  TIMx->CR2;
 80051b4:	687b      	ldr	r3, [r7, #4]
 80051b6:	685b      	ldr	r3, [r3, #4]
 80051b8:	613b      	str	r3, [r7, #16]

  /* Get the TIMx CCMR1 register value */
  tmpccmrx = TIMx->CCMR1;
 80051ba:	687b      	ldr	r3, [r7, #4]
 80051bc:	699b      	ldr	r3, [r3, #24]
 80051be:	60fb      	str	r3, [r7, #12]

  /* Reset the Output Compare Mode Bits */
  tmpccmrx &= ~TIM_CCMR1_OC1M;
 80051c0:	68fb      	ldr	r3, [r7, #12]
 80051c2:	f023 0370 	bic.w	r3, r3, #112	@ 0x70
 80051c6:	60fb      	str	r3, [r7, #12]
  tmpccmrx &= ~TIM_CCMR1_CC1S;
 80051c8:	68fb      	ldr	r3, [r7, #12]
 80051ca:	f023 0303 	bic.w	r3, r3, #3
 80051ce:	60fb      	str	r3, [r7, #12]
  /* Select the Output Compare Mode */
  tmpccmrx |= OC_Config->OCMode;
 80051d0:	683b      	ldr	r3, [r7, #0]
 80051d2:	681b      	ldr	r3, [r3, #0]
 80051d4:	68fa      	ldr	r2, [r7, #12]
 80051d6:	4313      	orrs	r3, r2
 80051d8:	60fb      	str	r3, [r7, #12]

  /* Reset the Output Polarity level */
  tmpccer &= ~TIM_CCER_CC1P;
 80051da:	697b      	ldr	r3, [r7, #20]
 80051dc:	f023 0302 	bic.w	r3, r3, #2
 80051e0:	617b      	str	r3, [r7, #20]
  /* Set the Output Compare Polarity */
  tmpccer |= OC_Config->OCPolarity;
 80051e2:	683b      	ldr	r3, [r7, #0]
 80051e4:	689b      	ldr	r3, [r3, #8]
 80051e6:	697a      	ldr	r2, [r7, #20]
 80051e8:	4313      	orrs	r3, r2
 80051ea:	617b      	str	r3, [r7, #20]

  if (IS_TIM_CCXN_INSTANCE(TIMx, TIM_CHANNEL_1))
 80051ec:	687b      	ldr	r3, [r7, #4]
 80051ee:	4a20      	ldr	r2, [pc, #128]	@ (8005270 <TIM_OC1_SetConfig+0xd8>)
 80051f0:	4293      	cmp	r3, r2
 80051f2:	d003      	beq.n	80051fc <TIM_OC1_SetConfig+0x64>
 80051f4:	687b      	ldr	r3, [r7, #4]
 80051f6:	4a1f      	ldr	r2, [pc, #124]	@ (8005274 <TIM_OC1_SetConfig+0xdc>)
 80051f8:	4293      	cmp	r3, r2
 80051fa:	d10c      	bne.n	8005216 <TIM_OC1_SetConfig+0x7e>
  {
    /* Check parameters */
    assert_param(IS_TIM_OCN_POLARITY(OC_Config->OCNPolarity));

    /* Reset the Output N Polarity level */
    tmpccer &= ~TIM_CCER_CC1NP;
 80051fc:	697b      	ldr	r3, [r7, #20]
 80051fe:	f023 0308 	bic.w	r3, r3, #8
 8005202:	617b      	str	r3, [r7, #20]
    /* Set the Output N Polarity */
    tmpccer |= OC_Config->OCNPolarity;
 8005204:	683b      	ldr	r3, [r7, #0]
 8005206:	68db      	ldr	r3, [r3, #12]
 8005208:	697a      	ldr	r2, [r7, #20]
 800520a:	4313      	orrs	r3, r2
 800520c:	617b      	str	r3, [r7, #20]
    /* Reset the Output N State */
    tmpccer &= ~TIM_CCER_CC1NE;
 800520e:	697b      	ldr	r3, [r7, #20]
 8005210:	f023 0304 	bic.w	r3, r3, #4
 8005214:	617b      	str	r3, [r7, #20]
  }

  if (IS_TIM_BREAK_INSTANCE(TIMx))
 8005216:	687b      	ldr	r3, [r7, #4]
 8005218:	4a15      	ldr	r2, [pc, #84]	@ (8005270 <TIM_OC1_SetConfig+0xd8>)
 800521a:	4293      	cmp	r3, r2
 800521c:	d003      	beq.n	8005226 <TIM_OC1_SetConfig+0x8e>
 800521e:	687b      	ldr	r3, [r7, #4]
 8005220:	4a14      	ldr	r2, [pc, #80]	@ (8005274 <TIM_OC1_SetConfig+0xdc>)
 8005222:	4293      	cmp	r3, r2
 8005224:	d111      	bne.n	800524a <TIM_OC1_SetConfig+0xb2>
    /* Check parameters */
    assert_param(IS_TIM_OCNIDLE_STATE(OC_Config->OCNIdleState));
    assert_param(IS_TIM_OCIDLE_STATE(OC_Config->OCIdleState));

    /* Reset the Output Compare and Output Compare N IDLE State */
    tmpcr2 &= ~TIM_CR2_OIS1;
 8005226:	693b      	ldr	r3, [r7, #16]
 8005228:	f423 7380 	bic.w	r3, r3, #256	@ 0x100
 800522c:	613b      	str	r3, [r7, #16]
    tmpcr2 &= ~TIM_CR2_OIS1N;
 800522e:	693b      	ldr	r3, [r7, #16]
 8005230:	f423 7300 	bic.w	r3, r3, #512	@ 0x200
 8005234:	613b      	str	r3, [r7, #16]
    /* Set the Output Idle state */
    tmpcr2 |= OC_Config->OCIdleState;
 8005236:	683b      	ldr	r3, [r7, #0]
 8005238:	695b      	ldr	r3, [r3, #20]
 800523a:	693a      	ldr	r2, [r7, #16]
 800523c:	4313      	orrs	r3, r2
 800523e:	613b      	str	r3, [r7, #16]
    /* Set the Output N Idle state */
    tmpcr2 |= OC_Config->OCNIdleState;
 8005240:	683b      	ldr	r3, [r7, #0]
 8005242:	699b      	ldr	r3, [r3, #24]
 8005244:	693a      	ldr	r2, [r7, #16]
 8005246:	4313      	orrs	r3, r2
 8005248:	613b      	str	r3, [r7, #16]
  }

  /* Write to TIMx CR2 */
  TIMx->CR2 = tmpcr2;
 800524a:	687b      	ldr	r3, [r7, #4]
 800524c:	693a      	ldr	r2, [r7, #16]
 800524e:	605a      	str	r2, [r3, #4]

  /* Write to TIMx CCMR1 */
  TIMx->CCMR1 = tmpccmrx;
 8005250:	687b      	ldr	r3, [r7, #4]
 8005252:	68fa      	ldr	r2, [r7, #12]
 8005254:	619a      	str	r2, [r3, #24]

  /* Set the Capture Compare Register value */
  TIMx->CCR1 = OC_Config->Pulse;
 8005256:	683b      	ldr	r3, [r7, #0]
 8005258:	685a      	ldr	r2, [r3, #4]
 800525a:	687b      	ldr	r3, [r7, #4]
 800525c:	635a      	str	r2, [r3, #52]	@ 0x34

  /* Write to TIMx CCER */
  TIMx->CCER = tmpccer;
 800525e:	687b      	ldr	r3, [r7, #4]
 8005260:	697a      	ldr	r2, [r7, #20]
 8005262:	621a      	str	r2, [r3, #32]
}
 8005264:	bf00      	nop
 8005266:	371c      	adds	r7, #28
 8005268:	46bd      	mov	sp, r7
 800526a:	f85d 7b04 	ldr.w	r7, [sp], #4
 800526e:	4770      	bx	lr
 8005270:	40010000 	.word	0x40010000
 8005274:	40010400 	.word	0x40010400

08005278 <TIM_OC2_SetConfig>:
  * @param  TIMx to select the TIM peripheral
  * @param  OC_Config The output configuration structure
  * @retval None
  */
void TIM_OC2_SetConfig(TIM_TypeDef *TIMx, const TIM_OC_InitTypeDef *OC_Config)
{
 8005278:	b480      	push	{r7}
 800527a:	b087      	sub	sp, #28
 800527c:	af00      	add	r7, sp, #0
 800527e:	6078      	str	r0, [r7, #4]
 8005280:	6039      	str	r1, [r7, #0]
  uint32_t tmpccmrx;
  uint32_t tmpccer;
  uint32_t tmpcr2;

  /* Get the TIMx CCER register value */
  tmpccer = TIMx->CCER;
 8005282:	687b      	ldr	r3, [r7, #4]
 8005284:	6a1b      	ldr	r3, [r3, #32]
 8005286:	617b      	str	r3, [r7, #20]

  /* Disable the Channel 2: Reset the CC2E Bit */
  TIMx->CCER &= ~TIM_CCER_CC2E;
 8005288:	687b      	ldr	r3, [r7, #4]
 800528a:	6a1b      	ldr	r3, [r3, #32]
 800528c:	f023 0210 	bic.w	r2, r3, #16
 8005290:	687b      	ldr	r3, [r7, #4]
 8005292:	621a      	str	r2, [r3, #32]

  /* Get the TIMx CR2 register value */
  tmpcr2 =  TIMx->CR2;
 8005294:	687b      	ldr	r3, [r7, #4]
 8005296:	685b      	ldr	r3, [r3, #4]
 8005298:	613b      	str	r3, [r7, #16]

  /* Get the TIMx CCMR1 register value */
  tmpccmrx = TIMx->CCMR1;
 800529a:	687b      	ldr	r3, [r7, #4]
 800529c:	699b      	ldr	r3, [r3, #24]
 800529e:	60fb      	str	r3, [r7, #12]

  /* Reset the Output Compare mode and Capture/Compare selection Bits */
  tmpccmrx &= ~TIM_CCMR1_OC2M;
 80052a0:	68fb      	ldr	r3, [r7, #12]
 80052a2:	f423 43e0 	bic.w	r3, r3, #28672	@ 0x7000
 80052a6:	60fb      	str	r3, [r7, #12]
  tmpccmrx &= ~TIM_CCMR1_CC2S;
 80052a8:	68fb      	ldr	r3, [r7, #12]
 80052aa:	f423 7340 	bic.w	r3, r3, #768	@ 0x300
 80052ae:	60fb      	str	r3, [r7, #12]

  /* Select the Output Compare Mode */
  tmpccmrx |= (OC_Config->OCMode << 8U);
 80052b0:	683b      	ldr	r3, [r7, #0]
 80052b2:	681b      	ldr	r3, [r3, #0]
 80052b4:	021b      	lsls	r3, r3, #8
 80052b6:	68fa      	ldr	r2, [r7, #12]
 80052b8:	4313      	orrs	r3, r2
 80052ba:	60fb      	str	r3, [r7, #12]

  /* Reset the Output Polarity level */
  tmpccer &= ~TIM_CCER_CC2P;
 80052bc:	697b      	ldr	r3, [r7, #20]
 80052be:	f023 0320 	bic.w	r3, r3, #32
 80052c2:	617b      	str	r3, [r7, #20]
  /* Set the Output Compare Polarity */
  tmpccer |= (OC_Config->OCPolarity << 4U);
 80052c4:	683b      	ldr	r3, [r7, #0]
 80052c6:	689b      	ldr	r3, [r3, #8]
 80052c8:	011b      	lsls	r3, r3, #4
 80052ca:	697a      	ldr	r2, [r7, #20]
 80052cc:	4313      	orrs	r3, r2
 80052ce:	617b      	str	r3, [r7, #20]

  if (IS_TIM_CCXN_INSTANCE(TIMx, TIM_CHANNEL_2))
 80052d0:	687b      	ldr	r3, [r7, #4]
 80052d2:	4a22      	ldr	r2, [pc, #136]	@ (800535c <TIM_OC2_SetConfig+0xe4>)
 80052d4:	4293      	cmp	r3, r2
 80052d6:	d003      	beq.n	80052e0 <TIM_OC2_SetConfig+0x68>
 80052d8:	687b      	ldr	r3, [r7, #4]
 80052da:	4a21      	ldr	r2, [pc, #132]	@ (8005360 <TIM_OC2_SetConfig+0xe8>)
 80052dc:	4293      	cmp	r3, r2
 80052de:	d10d      	bne.n	80052fc <TIM_OC2_SetConfig+0x84>
  {
    assert_param(IS_TIM_OCN_POLARITY(OC_Config->OCNPolarity));

    /* Reset the Output N Polarity level */
    tmpccer &= ~TIM_CCER_CC2NP;
 80052e0:	697b      	ldr	r3, [r7, #20]
 80052e2:	f023 0380 	bic.w	r3, r3, #128	@ 0x80
 80052e6:	617b      	str	r3, [r7, #20]
    /* Set the Output N Polarity */
    tmpccer |= (OC_Config->OCNPolarity << 4U);
 80052e8:	683b      	ldr	r3, [r7, #0]
 80052ea:	68db      	ldr	r3, [r3, #12]
 80052ec:	011b      	lsls	r3, r3, #4
 80052ee:	697a      	ldr	r2, [r7, #20]
 80052f0:	4313      	orrs	r3, r2
 80052f2:	617b      	str	r3, [r7, #20]
    /* Reset the Output N State */
    tmpccer &= ~TIM_CCER_CC2NE;
 80052f4:	697b      	ldr	r3, [r7, #20]
 80052f6:	f023 0340 	bic.w	r3, r3, #64	@ 0x40
 80052fa:	617b      	str	r3, [r7, #20]
  }

  if (IS_TIM_BREAK_INSTANCE(TIMx))
 80052fc:	687b      	ldr	r3, [r7, #4]
 80052fe:	4a17      	ldr	r2, [pc, #92]	@ (800535c <TIM_OC2_SetConfig+0xe4>)
 8005300:	4293      	cmp	r3, r2
 8005302:	d003      	beq.n	800530c <TIM_OC2_SetConfig+0x94>
 8005304:	687b      	ldr	r3, [r7, #4]
 8005306:	4a16      	ldr	r2, [pc, #88]	@ (8005360 <TIM_OC2_SetConfig+0xe8>)
 8005308:	4293      	cmp	r3, r2
 800530a:	d113      	bne.n	8005334 <TIM_OC2_SetConfig+0xbc>
    /* Check parameters */
    assert_param(IS_TIM_OCNIDLE_STATE(OC_Config->OCNIdleState));
    assert_param(IS_TIM_OCIDLE_STATE(OC_Config->OCIdleState));

    /* Reset the Output Compare and Output Compare N IDLE State */
    tmpcr2 &= ~TIM_CR2_OIS2;
 800530c:	693b      	ldr	r3, [r7, #16]
 800530e:	f423 6380 	bic.w	r3, r3, #1024	@ 0x400
 8005312:	613b      	str	r3, [r7, #16]
    tmpcr2 &= ~TIM_CR2_OIS2N;
 8005314:	693b      	ldr	r3, [r7, #16]
 8005316:	f423 6300 	bic.w	r3, r3, #2048	@ 0x800
 800531a:	613b      	str	r3, [r7, #16]
    /* Set the Output Idle state */
    tmpcr2 |= (OC_Config->OCIdleState << 2U);
 800531c:	683b      	ldr	r3, [r7, #0]
 800531e:	695b      	ldr	r3, [r3, #20]
 8005320:	009b      	lsls	r3, r3, #2
 8005322:	693a      	ldr	r2, [r7, #16]
 8005324:	4313      	orrs	r3, r2
 8005326:	613b      	str	r3, [r7, #16]
    /* Set the Output N Idle state */
    tmpcr2 |= (OC_Config->OCNIdleState << 2U);
 8005328:	683b      	ldr	r3, [r7, #0]
 800532a:	699b      	ldr	r3, [r3, #24]
 800532c:	009b      	lsls	r3, r3, #2
 800532e:	693a      	ldr	r2, [r7, #16]
 8005330:	4313      	orrs	r3, r2
 8005332:	613b      	str	r3, [r7, #16]
  }

  /* Write to TIMx CR2 */
  TIMx->CR2 = tmpcr2;
 8005334:	687b      	ldr	r3, [r7, #4]
 8005336:	693a      	ldr	r2, [r7, #16]
 8005338:	605a      	str	r2, [r3, #4]

  /* Write to TIMx CCMR1 */
  TIMx->CCMR1 = tmpccmrx;
 800533a:	687b      	ldr	r3, [r7, #4]
 800533c:	68fa      	ldr	r2, [r7, #12]
 800533e:	619a      	str	r2, [r3, #24]

  /* Set the Capture Compare Register value */
  TIMx->CCR2 = OC_Config->Pulse;
 8005340:	683b      	ldr	r3, [r7, #0]
 8005342:	685a      	ldr	r2, [r3, #4]
 8005344:	687b      	ldr	r3, [r7, #4]
 8005346:	639a      	str	r2, [r3, #56]	@ 0x38

  /* Write to TIMx CCER */
  TIMx->CCER = tmpccer;
 8005348:	687b      	ldr	r3, [r7, #4]
 800534a:	697a      	ldr	r2, [r7, #20]
 800534c:	621a      	str	r2, [r3, #32]
}
 800534e:	bf00      	nop
 8005350:	371c      	adds	r7, #28
 8005352:	46bd      	mov	sp, r7
 8005354:	f85d 7b04 	ldr.w	r7, [sp], #4
 8005358:	4770      	bx	lr
 800535a:	bf00      	nop
 800535c:	40010000 	.word	0x40010000
 8005360:	40010400 	.word	0x40010400

08005364 <TIM_OC3_SetConfig>:
  * @param  TIMx to select the TIM peripheral
  * @param  OC_Config The output configuration structure
  * @retval None
  */
static void TIM_OC3_SetConfig(TIM_TypeDef *TIMx, const TIM_OC_InitTypeDef *OC_Config)
{
 8005364:	b480      	push	{r7}
 8005366:	b087      	sub	sp, #28
 8005368:	af00      	add	r7, sp, #0
 800536a:	6078      	str	r0, [r7, #4]
 800536c:	6039      	str	r1, [r7, #0]
  uint32_t tmpccmrx;
  uint32_t tmpccer;
  uint32_t tmpcr2;

  /* Get the TIMx CCER register value */
  tmpccer = TIMx->CCER;
 800536e:	687b      	ldr	r3, [r7, #4]
 8005370:	6a1b      	ldr	r3, [r3, #32]
 8005372:	617b      	str	r3, [r7, #20]

  /* Disable the Channel 3: Reset the CC2E Bit */
  TIMx->CCER &= ~TIM_CCER_CC3E;
 8005374:	687b      	ldr	r3, [r7, #4]
 8005376:	6a1b      	ldr	r3, [r3, #32]
 8005378:	f423 7280 	bic.w	r2, r3, #256	@ 0x100
 800537c:	687b      	ldr	r3, [r7, #4]
 800537e:	621a      	str	r2, [r3, #32]

  /* Get the TIMx CR2 register value */
  tmpcr2 =  TIMx->CR2;
 8005380:	687b      	ldr	r3, [r7, #4]
 8005382:	685b      	ldr	r3, [r3, #4]
 8005384:	613b      	str	r3, [r7, #16]

  /* Get the TIMx CCMR2 register value */
  tmpccmrx = TIMx->CCMR2;
 8005386:	687b      	ldr	r3, [r7, #4]
 8005388:	69db      	ldr	r3, [r3, #28]
 800538a:	60fb      	str	r3, [r7, #12]

  /* Reset the Output Compare mode and Capture/Compare selection Bits */
  tmpccmrx &= ~TIM_CCMR2_OC3M;
 800538c:	68fb      	ldr	r3, [r7, #12]
 800538e:	f023 0370 	bic.w	r3, r3, #112	@ 0x70
 8005392:	60fb      	str	r3, [r7, #12]
  tmpccmrx &= ~TIM_CCMR2_CC3S;
 8005394:	68fb      	ldr	r3, [r7, #12]
 8005396:	f023 0303 	bic.w	r3, r3, #3
 800539a:	60fb      	str	r3, [r7, #12]
  /* Select the Output Compare Mode */
  tmpccmrx |= OC_Config->OCMode;
 800539c:	683b      	ldr	r3, [r7, #0]
 800539e:	681b      	ldr	r3, [r3, #0]
 80053a0:	68fa      	ldr	r2, [r7, #12]
 80053a2:	4313      	orrs	r3, r2
 80053a4:	60fb      	str	r3, [r7, #12]

  /* Reset the Output Polarity level */
  tmpccer &= ~TIM_CCER_CC3P;
 80053a6:	697b      	ldr	r3, [r7, #20]
 80053a8:	f423 7300 	bic.w	r3, r3, #512	@ 0x200
 80053ac:	617b      	str	r3, [r7, #20]
  /* Set the Output Compare Polarity */
  tmpccer |= (OC_Config->OCPolarity << 8U);
 80053ae:	683b      	ldr	r3, [r7, #0]
 80053b0:	689b      	ldr	r3, [r3, #8]
 80053b2:	021b      	lsls	r3, r3, #8
 80053b4:	697a      	ldr	r2, [r7, #20]
 80053b6:	4313      	orrs	r3, r2
 80053b8:	617b      	str	r3, [r7, #20]

  if (IS_TIM_CCXN_INSTANCE(TIMx, TIM_CHANNEL_3))
 80053ba:	687b      	ldr	r3, [r7, #4]
 80053bc:	4a21      	ldr	r2, [pc, #132]	@ (8005444 <TIM_OC3_SetConfig+0xe0>)
 80053be:	4293      	cmp	r3, r2
 80053c0:	d003      	beq.n	80053ca <TIM_OC3_SetConfig+0x66>
 80053c2:	687b      	ldr	r3, [r7, #4]
 80053c4:	4a20      	ldr	r2, [pc, #128]	@ (8005448 <TIM_OC3_SetConfig+0xe4>)
 80053c6:	4293      	cmp	r3, r2
 80053c8:	d10d      	bne.n	80053e6 <TIM_OC3_SetConfig+0x82>
  {
    assert_param(IS_TIM_OCN_POLARITY(OC_Config->OCNPolarity));

    /* Reset the Output N Polarity level */
    tmpccer &= ~TIM_CCER_CC3NP;
 80053ca:	697b      	ldr	r3, [r7, #20]
 80053cc:	f423 6300 	bic.w	r3, r3, #2048	@ 0x800
 80053d0:	617b      	str	r3, [r7, #20]
    /* Set the Output N Polarity */
    tmpccer |= (OC_Config->OCNPolarity << 8U);
 80053d2:	683b      	ldr	r3, [r7, #0]
 80053d4:	68db      	ldr	r3, [r3, #12]
 80053d6:	021b      	lsls	r3, r3, #8
 80053d8:	697a      	ldr	r2, [r7, #20]
 80053da:	4313      	orrs	r3, r2
 80053dc:	617b      	str	r3, [r7, #20]
    /* Reset the Output N State */
    tmpccer &= ~TIM_CCER_CC3NE;
 80053de:	697b      	ldr	r3, [r7, #20]
 80053e0:	f423 6380 	bic.w	r3, r3, #1024	@ 0x400
 80053e4:	617b      	str	r3, [r7, #20]
  }

  if (IS_TIM_BREAK_INSTANCE(TIMx))
 80053e6:	687b      	ldr	r3, [r7, #4]
 80053e8:	4a16      	ldr	r2, [pc, #88]	@ (8005444 <TIM_OC3_SetConfig+0xe0>)
 80053ea:	4293      	cmp	r3, r2
 80053ec:	d003      	beq.n	80053f6 <TIM_OC3_SetConfig+0x92>
 80053ee:	687b      	ldr	r3, [r7, #4]
 80053f0:	4a15      	ldr	r2, [pc, #84]	@ (8005448 <TIM_OC3_SetConfig+0xe4>)
 80053f2:	4293      	cmp	r3, r2
 80053f4:	d113      	bne.n	800541e <TIM_OC3_SetConfig+0xba>
    /* Check parameters */
    assert_param(IS_TIM_OCNIDLE_STATE(OC_Config->OCNIdleState));
    assert_param(IS_TIM_OCIDLE_STATE(OC_Config->OCIdleState));

    /* Reset the Output Compare and Output Compare N IDLE State */
    tmpcr2 &= ~TIM_CR2_OIS3;
 80053f6:	693b      	ldr	r3, [r7, #16]
 80053f8:	f423 5380 	bic.w	r3, r3, #4096	@ 0x1000
 80053fc:	613b      	str	r3, [r7, #16]
    tmpcr2 &= ~TIM_CR2_OIS3N;
 80053fe:	693b      	ldr	r3, [r7, #16]
 8005400:	f423 5300 	bic.w	r3, r3, #8192	@ 0x2000
 8005404:	613b      	str	r3, [r7, #16]
    /* Set the Output Idle state */
    tmpcr2 |= (OC_Config->OCIdleState << 4U);
 8005406:	683b      	ldr	r3, [r7, #0]
 8005408:	695b      	ldr	r3, [r3, #20]
 800540a:	011b      	lsls	r3, r3, #4
 800540c:	693a      	ldr	r2, [r7, #16]
 800540e:	4313      	orrs	r3, r2
 8005410:	613b      	str	r3, [r7, #16]
    /* Set the Output N Idle state */
    tmpcr2 |= (OC_Config->OCNIdleState << 4U);
 8005412:	683b      	ldr	r3, [r7, #0]
 8005414:	699b      	ldr	r3, [r3, #24]
 8005416:	011b      	lsls	r3, r3, #4
 8005418:	693a      	ldr	r2, [r7, #16]
 800541a:	4313      	orrs	r3, r2
 800541c:	613b      	str	r3, [r7, #16]
  }

  /* Write to TIMx CR2 */
  TIMx->CR2 = tmpcr2;
 800541e:	687b      	ldr	r3, [r7, #4]
 8005420:	693a      	ldr	r2, [r7, #16]
 8005422:	605a      	str	r2, [r3, #4]

  /* Write to TIMx CCMR2 */
  TIMx->CCMR2 = tmpccmrx;
 8005424:	687b      	ldr	r3, [r7, #4]
 8005426:	68fa      	ldr	r2, [r7, #12]
 8005428:	61da      	str	r2, [r3, #28]

  /* Set the Capture Compare Register value */
  TIMx->CCR3 = OC_Config->Pulse;
 800542a:	683b      	ldr	r3, [r7, #0]
 800542c:	685a      	ldr	r2, [r3, #4]
 800542e:	687b      	ldr	r3, [r7, #4]
 8005430:	63da      	str	r2, [r3, #60]	@ 0x3c

  /* Write to TIMx CCER */
  TIMx->CCER = tmpccer;
 8005432:	687b      	ldr	r3, [r7, #4]
 8005434:	697a      	ldr	r2, [r7, #20]
 8005436:	621a      	str	r2, [r3, #32]
}
 8005438:	bf00      	nop
 800543a:	371c      	adds	r7, #28
 800543c:	46bd      	mov	sp, r7
 800543e:	f85d 7b04 	ldr.w	r7, [sp], #4
 8005442:	4770      	bx	lr
 8005444:	40010000 	.word	0x40010000
 8005448:	40010400 	.word	0x40010400

0800544c <TIM_OC4_SetConfig>:
  * @param  TIMx to select the TIM peripheral
  * @param  OC_Config The output configuration structure
  * @retval None
  */
static void TIM_OC4_SetConfig(TIM_TypeDef *TIMx, const TIM_OC_InitTypeDef *OC_Config)
{
 800544c:	b480      	push	{r7}
 800544e:	b087      	sub	sp, #28
 8005450:	af00      	add	r7, sp, #0
 8005452:	6078      	str	r0, [r7, #4]
 8005454:	6039      	str	r1, [r7, #0]
  uint32_t tmpccmrx;
  uint32_t tmpccer;
  uint32_t tmpcr2;

  /* Get the TIMx CCER register value */
  tmpccer = TIMx->CCER;
 8005456:	687b      	ldr	r3, [r7, #4]
 8005458:	6a1b      	ldr	r3, [r3, #32]
 800545a:	613b      	str	r3, [r7, #16]

  /* Disable the Channel 4: Reset the CC4E Bit */
  TIMx->CCER &= ~TIM_CCER_CC4E;
 800545c:	687b      	ldr	r3, [r7, #4]
 800545e:	6a1b      	ldr	r3, [r3, #32]
 8005460:	f423 5280 	bic.w	r2, r3, #4096	@ 0x1000
 8005464:	687b      	ldr	r3, [r7, #4]
 8005466:	621a      	str	r2, [r3, #32]

  /* Get the TIMx CR2 register value */
  tmpcr2 =  TIMx->CR2;
 8005468:	687b      	ldr	r3, [r7, #4]
 800546a:	685b      	ldr	r3, [r3, #4]
 800546c:	617b      	str	r3, [r7, #20]

  /* Get the TIMx CCMR2 register value */
  tmpccmrx = TIMx->CCMR2;
 800546e:	687b      	ldr	r3, [r7, #4]
 8005470:	69db      	ldr	r3, [r3, #28]
 8005472:	60fb      	str	r3, [r7, #12]

  /* Reset the Output Compare mode and Capture/Compare selection Bits */
  tmpccmrx &= ~TIM_CCMR2_OC4M;
 8005474:	68fb      	ldr	r3, [r7, #12]
 8005476:	f423 43e0 	bic.w	r3, r3, #28672	@ 0x7000
 800547a:	60fb      	str	r3, [r7, #12]
  tmpccmrx &= ~TIM_CCMR2_CC4S;
 800547c:	68fb      	ldr	r3, [r7, #12]
 800547e:	f423 7340 	bic.w	r3, r3, #768	@ 0x300
 8005482:	60fb      	str	r3, [r7, #12]

  /* Select the Output Compare Mode */
  tmpccmrx |= (OC_Config->OCMode << 8U);
 8005484:	683b      	ldr	r3, [r7, #0]
 8005486:	681b      	ldr	r3, [r3, #0]
 8005488:	021b      	lsls	r3, r3, #8
 800548a:	68fa      	ldr	r2, [r7, #12]
 800548c:	4313      	orrs	r3, r2
 800548e:	60fb      	str	r3, [r7, #12]

  /* Reset the Output Polarity level */
  tmpccer &= ~TIM_CCER_CC4P;
 8005490:	693b      	ldr	r3, [r7, #16]
 8005492:	f423 5300 	bic.w	r3, r3, #8192	@ 0x2000
 8005496:	613b      	str	r3, [r7, #16]
  /* Set the Output Compare Polarity */
  tmpccer |= (OC_Config->OCPolarity << 12U);
 8005498:	683b      	ldr	r3, [r7, #0]
 800549a:	689b      	ldr	r3, [r3, #8]
 800549c:	031b      	lsls	r3, r3, #12
 800549e:	693a      	ldr	r2, [r7, #16]
 80054a0:	4313      	orrs	r3, r2
 80054a2:	613b      	str	r3, [r7, #16]

  if (IS_TIM_BREAK_INSTANCE(TIMx))
 80054a4:	687b      	ldr	r3, [r7, #4]
 80054a6:	4a12      	ldr	r2, [pc, #72]	@ (80054f0 <TIM_OC4_SetConfig+0xa4>)
 80054a8:	4293      	cmp	r3, r2
 80054aa:	d003      	beq.n	80054b4 <TIM_OC4_SetConfig+0x68>
 80054ac:	687b      	ldr	r3, [r7, #4]
 80054ae:	4a11      	ldr	r2, [pc, #68]	@ (80054f4 <TIM_OC4_SetConfig+0xa8>)
 80054b0:	4293      	cmp	r3, r2
 80054b2:	d109      	bne.n	80054c8 <TIM_OC4_SetConfig+0x7c>
  {
    /* Check parameters */
    assert_param(IS_TIM_OCIDLE_STATE(OC_Config->OCIdleState));

    /* Reset the Output Compare IDLE State */
    tmpcr2 &= ~TIM_CR2_OIS4;
 80054b4:	697b      	ldr	r3, [r7, #20]
 80054b6:	f423 4380 	bic.w	r3, r3, #16384	@ 0x4000
 80054ba:	617b      	str	r3, [r7, #20]

    /* Set the Output Idle state */
    tmpcr2 |= (OC_Config->OCIdleState << 6U);
 80054bc:	683b      	ldr	r3, [r7, #0]
 80054be:	695b      	ldr	r3, [r3, #20]
 80054c0:	019b      	lsls	r3, r3, #6
 80054c2:	697a      	ldr	r2, [r7, #20]
 80054c4:	4313      	orrs	r3, r2
 80054c6:	617b      	str	r3, [r7, #20]
  }

  /* Write to TIMx CR2 */
  TIMx->CR2 = tmpcr2;
 80054c8:	687b      	ldr	r3, [r7, #4]
 80054ca:	697a      	ldr	r2, [r7, #20]
 80054cc:	605a      	str	r2, [r3, #4]

  /* Write to TIMx CCMR2 */
  TIMx->CCMR2 = tmpccmrx;
 80054ce:	687b      	ldr	r3, [r7, #4]
 80054d0:	68fa      	ldr	r2, [r7, #12]
 80054d2:	61da      	str	r2, [r3, #28]

  /* Set the Capture Compare Register value */
  TIMx->CCR4 = OC_Config->Pulse;
 80054d4:	683b      	ldr	r3, [r7, #0]
 80054d6:	685a      	ldr	r2, [r3, #4]
 80054d8:	687b      	ldr	r3, [r7, #4]
 80054da:	641a      	str	r2, [r3, #64]	@ 0x40

  /* Write to TIMx CCER */
  TIMx->CCER = tmpccer;
 80054dc:	687b      	ldr	r3, [r7, #4]
 80054de:	693a      	ldr	r2, [r7, #16]
 80054e0:	621a      	str	r2, [r3, #32]
}
 80054e2:	bf00      	nop
 80054e4:	371c      	adds	r7, #28
 80054e6:	46bd      	mov	sp, r7
 80054e8:	f85d 7b04 	ldr.w	r7, [sp], #4
 80054ec:	4770      	bx	lr
 80054ee:	bf00      	nop
 80054f0:	40010000 	.word	0x40010000
 80054f4:	40010400 	.word	0x40010400

080054f8 <TIM_TI1_ConfigInputStage>:
  * @param  TIM_ICFilter Specifies the Input Capture Filter.
  *          This parameter must be a value between 0x00 and 0x0F.
  * @retval None
  */
static void TIM_TI1_ConfigInputStage(TIM_TypeDef *TIMx, uint32_t TIM_ICPolarity, uint32_t TIM_ICFilter)
{
 80054f8:	b480      	push	{r7}
 80054fa:	b087      	sub	sp, #28
 80054fc:	af00      	add	r7, sp, #0
 80054fe:	60f8      	str	r0, [r7, #12]
 8005500:	60b9      	str	r1, [r7, #8]
 8005502:	607a      	str	r2, [r7, #4]
  uint32_t tmpccmr1;
  uint32_t tmpccer;

  /* Disable the Channel 1: Reset the CC1E Bit */
  tmpccer = TIMx->CCER;
 8005504:	68fb      	ldr	r3, [r7, #12]
 8005506:	6a1b      	ldr	r3, [r3, #32]
 8005508:	617b      	str	r3, [r7, #20]
  TIMx->CCER &= ~TIM_CCER_CC1E;
 800550a:	68fb      	ldr	r3, [r7, #12]
 800550c:	6a1b      	ldr	r3, [r3, #32]
 800550e:	f023 0201 	bic.w	r2, r3, #1
 8005512:	68fb      	ldr	r3, [r7, #12]
 8005514:	621a      	str	r2, [r3, #32]
  tmpccmr1 = TIMx->CCMR1;
 8005516:	68fb      	ldr	r3, [r7, #12]
 8005518:	699b      	ldr	r3, [r3, #24]
 800551a:	613b      	str	r3, [r7, #16]

  /* Set the filter */
  tmpccmr1 &= ~TIM_CCMR1_IC1F;
 800551c:	693b      	ldr	r3, [r7, #16]
 800551e:	f023 03f0 	bic.w	r3, r3, #240	@ 0xf0
 8005522:	613b      	str	r3, [r7, #16]
  tmpccmr1 |= (TIM_ICFilter << 4U);
 8005524:	687b      	ldr	r3, [r7, #4]
 8005526:	011b      	lsls	r3, r3, #4
 8005528:	693a      	ldr	r2, [r7, #16]
 800552a:	4313      	orrs	r3, r2
 800552c:	613b      	str	r3, [r7, #16]

  /* Select the Polarity and set the CC1E Bit */
  tmpccer &= ~(TIM_CCER_CC1P | TIM_CCER_CC1NP);
 800552e:	697b      	ldr	r3, [r7, #20]
 8005530:	f023 030a 	bic.w	r3, r3, #10
 8005534:	617b      	str	r3, [r7, #20]
  tmpccer |= TIM_ICPolarity;
 8005536:	697a      	ldr	r2, [r7, #20]
 8005538:	68bb      	ldr	r3, [r7, #8]
 800553a:	4313      	orrs	r3, r2
 800553c:	617b      	str	r3, [r7, #20]

  /* Write to TIMx CCMR1 and CCER registers */
  TIMx->CCMR1 = tmpccmr1;
 800553e:	68fb      	ldr	r3, [r7, #12]
 8005540:	693a      	ldr	r2, [r7, #16]
 8005542:	619a      	str	r2, [r3, #24]
  TIMx->CCER = tmpccer;
 8005544:	68fb      	ldr	r3, [r7, #12]
 8005546:	697a      	ldr	r2, [r7, #20]
 8005548:	621a      	str	r2, [r3, #32]
}
 800554a:	bf00      	nop
 800554c:	371c      	adds	r7, #28
 800554e:	46bd      	mov	sp, r7
 8005550:	f85d 7b04 	ldr.w	r7, [sp], #4
 8005554:	4770      	bx	lr

08005556 <TIM_TI2_ConfigInputStage>:
  * @param  TIM_ICFilter Specifies the Input Capture Filter.
  *          This parameter must be a value between 0x00 and 0x0F.
  * @retval None
  */
static void TIM_TI2_ConfigInputStage(TIM_TypeDef *TIMx, uint32_t TIM_ICPolarity, uint32_t TIM_ICFilter)
{
 8005556:	b480      	push	{r7}
 8005558:	b087      	sub	sp, #28
 800555a:	af00      	add	r7, sp, #0
 800555c:	60f8      	str	r0, [r7, #12]
 800555e:	60b9      	str	r1, [r7, #8]
 8005560:	607a      	str	r2, [r7, #4]
  uint32_t tmpccmr1;
  uint32_t tmpccer;

  /* Disable the Channel 2: Reset the CC2E Bit */
  tmpccer = TIMx->CCER;
 8005562:	68fb      	ldr	r3, [r7, #12]
 8005564:	6a1b      	ldr	r3, [r3, #32]
 8005566:	617b      	str	r3, [r7, #20]
  TIMx->CCER &= ~TIM_CCER_CC2E;
 8005568:	68fb      	ldr	r3, [r7, #12]
 800556a:	6a1b      	ldr	r3, [r3, #32]
 800556c:	f023 0210 	bic.w	r2, r3, #16
 8005570:	68fb      	ldr	r3, [r7, #12]
 8005572:	621a      	str	r2, [r3, #32]
  tmpccmr1 = TIMx->CCMR1;
 8005574:	68fb      	ldr	r3, [r7, #12]
 8005576:	699b      	ldr	r3, [r3, #24]
 8005578:	613b      	str	r3, [r7, #16]

  /* Set the filter */
  tmpccmr1 &= ~TIM_CCMR1_IC2F;
 800557a:	693b      	ldr	r3, [r7, #16]
 800557c:	f423 4370 	bic.w	r3, r3, #61440	@ 0xf000
 8005580:	613b      	str	r3, [r7, #16]
  tmpccmr1 |= (TIM_ICFilter << 12U);
 8005582:	687b      	ldr	r3, [r7, #4]
 8005584:	031b      	lsls	r3, r3, #12
 8005586:	693a      	ldr	r2, [r7, #16]
 8005588:	4313      	orrs	r3, r2
 800558a:	613b      	str	r3, [r7, #16]

  /* Select the Polarity and set the CC2E Bit */
  tmpccer &= ~(TIM_CCER_CC2P | TIM_CCER_CC2NP);
 800558c:	697b      	ldr	r3, [r7, #20]
 800558e:	f023 03a0 	bic.w	r3, r3, #160	@ 0xa0
 8005592:	617b      	str	r3, [r7, #20]
  tmpccer |= (TIM_ICPolarity << 4U);
 8005594:	68bb      	ldr	r3, [r7, #8]
 8005596:	011b      	lsls	r3, r3, #4
 8005598:	697a      	ldr	r2, [r7, #20]
 800559a:	4313      	orrs	r3, r2
 800559c:	617b      	str	r3, [r7, #20]

  /* Write to TIMx CCMR1 and CCER registers */
  TIMx->CCMR1 = tmpccmr1 ;
 800559e:	68fb      	ldr	r3, [r7, #12]
 80055a0:	693a      	ldr	r2, [r7, #16]
 80055a2:	619a      	str	r2, [r3, #24]
  TIMx->CCER = tmpccer;
 80055a4:	68fb      	ldr	r3, [r7, #12]
 80055a6:	697a      	ldr	r2, [r7, #20]
 80055a8:	621a      	str	r2, [r3, #32]
}
 80055aa:	bf00      	nop
 80055ac:	371c      	adds	r7, #28
 80055ae:	46bd      	mov	sp, r7
 80055b0:	f85d 7b04 	ldr.w	r7, [sp], #4
 80055b4:	4770      	bx	lr

080055b6 <TIM_ITRx_SetConfig>:
  *            @arg TIM_TS_TI2FP2: Filtered Timer Input 2
  *            @arg TIM_TS_ETRF: External Trigger input
  * @retval None
  */
static void TIM_ITRx_SetConfig(TIM_TypeDef *TIMx, uint32_t InputTriggerSource)
{
 80055b6:	b480      	push	{r7}
 80055b8:	b085      	sub	sp, #20
 80055ba:	af00      	add	r7, sp, #0
 80055bc:	6078      	str	r0, [r7, #4]
 80055be:	6039      	str	r1, [r7, #0]
  uint32_t tmpsmcr;

  /* Get the TIMx SMCR register value */
  tmpsmcr = TIMx->SMCR;
 80055c0:	687b      	ldr	r3, [r7, #4]
 80055c2:	689b      	ldr	r3, [r3, #8]
 80055c4:	60fb      	str	r3, [r7, #12]
  /* Reset the TS Bits */
  tmpsmcr &= ~TIM_SMCR_TS;
 80055c6:	68fb      	ldr	r3, [r7, #12]
 80055c8:	f023 0370 	bic.w	r3, r3, #112	@ 0x70
 80055cc:	60fb      	str	r3, [r7, #12]
  /* Set the Input Trigger source and the slave mode*/
  tmpsmcr |= (InputTriggerSource | TIM_SLAVEMODE_EXTERNAL1);
 80055ce:	683a      	ldr	r2, [r7, #0]
 80055d0:	68fb      	ldr	r3, [r7, #12]
 80055d2:	4313      	orrs	r3, r2
 80055d4:	f043 0307 	orr.w	r3, r3, #7
 80055d8:	60fb      	str	r3, [r7, #12]
  /* Write to TIMx SMCR */
  TIMx->SMCR = tmpsmcr;
 80055da:	687b      	ldr	r3, [r7, #4]
 80055dc:	68fa      	ldr	r2, [r7, #12]
 80055de:	609a      	str	r2, [r3, #8]
}
 80055e0:	bf00      	nop
 80055e2:	3714      	adds	r7, #20
 80055e4:	46bd      	mov	sp, r7
 80055e6:	f85d 7b04 	ldr.w	r7, [sp], #4
 80055ea:	4770      	bx	lr

080055ec <TIM_ETR_SetConfig>:
  *          This parameter must be a value between 0x00 and 0x0F
  * @retval None
  */
void TIM_ETR_SetConfig(TIM_TypeDef *TIMx, uint32_t TIM_ExtTRGPrescaler,
                       uint32_t TIM_ExtTRGPolarity, uint32_t ExtTRGFilter)
{
 80055ec:	b480      	push	{r7}
 80055ee:	b087      	sub	sp, #28
 80055f0:	af00      	add	r7, sp, #0
 80055f2:	60f8      	str	r0, [r7, #12]
 80055f4:	60b9      	str	r1, [r7, #8]
 80055f6:	607a      	str	r2, [r7, #4]
 80055f8:	603b      	str	r3, [r7, #0]
  uint32_t tmpsmcr;

  tmpsmcr = TIMx->SMCR;
 80055fa:	68fb      	ldr	r3, [r7, #12]
 80055fc:	689b      	ldr	r3, [r3, #8]
 80055fe:	617b      	str	r3, [r7, #20]

  /* Reset the ETR Bits */
  tmpsmcr &= ~(TIM_SMCR_ETF | TIM_SMCR_ETPS | TIM_SMCR_ECE | TIM_SMCR_ETP);
 8005600:	697b      	ldr	r3, [r7, #20]
 8005602:	f423 437f 	bic.w	r3, r3, #65280	@ 0xff00
 8005606:	617b      	str	r3, [r7, #20]

  /* Set the Prescaler, the Filter value and the Polarity */
  tmpsmcr |= (uint32_t)(TIM_ExtTRGPrescaler | (TIM_ExtTRGPolarity | (ExtTRGFilter << 8U)));
 8005608:	683b      	ldr	r3, [r7, #0]
 800560a:	021a      	lsls	r2, r3, #8
 800560c:	687b      	ldr	r3, [r7, #4]
 800560e:	431a      	orrs	r2, r3
 8005610:	68bb      	ldr	r3, [r7, #8]
 8005612:	4313      	orrs	r3, r2
 8005614:	697a      	ldr	r2, [r7, #20]
 8005616:	4313      	orrs	r3, r2
 8005618:	617b      	str	r3, [r7, #20]

  /* Write to TIMx SMCR */
  TIMx->SMCR = tmpsmcr;
 800561a:	68fb      	ldr	r3, [r7, #12]
 800561c:	697a      	ldr	r2, [r7, #20]
 800561e:	609a      	str	r2, [r3, #8]
}
 8005620:	bf00      	nop
 8005622:	371c      	adds	r7, #28
 8005624:	46bd      	mov	sp, r7
 8005626:	f85d 7b04 	ldr.w	r7, [sp], #4
 800562a:	4770      	bx	lr

0800562c <TIM_CCxChannelCmd>:
  * @param  ChannelState specifies the TIM Channel CCxE bit new state.
  *          This parameter can be: TIM_CCx_ENABLE or TIM_CCx_DISABLE.
  * @retval None
  */
void TIM_CCxChannelCmd(TIM_TypeDef *TIMx, uint32_t Channel, uint32_t ChannelState)
{
 800562c:	b480      	push	{r7}
 800562e:	b087      	sub	sp, #28
 8005630:	af00      	add	r7, sp, #0
 8005632:	60f8      	str	r0, [r7, #12]
 8005634:	60b9      	str	r1, [r7, #8]
 8005636:	607a      	str	r2, [r7, #4]

  /* Check the parameters */
  assert_param(IS_TIM_CC1_INSTANCE(TIMx));
  assert_param(IS_TIM_CHANNELS(Channel));

  tmp = TIM_CCER_CC1E << (Channel & 0x1FU); /* 0x1FU = 31 bits max shift */
 8005638:	68bb      	ldr	r3, [r7, #8]
 800563a:	f003 031f 	and.w	r3, r3, #31
 800563e:	2201      	movs	r2, #1
 8005640:	fa02 f303 	lsl.w	r3, r2, r3
 8005644:	617b      	str	r3, [r7, #20]

  /* Reset the CCxE Bit */
  TIMx->CCER &= ~tmp;
 8005646:	68fb      	ldr	r3, [r7, #12]
 8005648:	6a1a      	ldr	r2, [r3, #32]
 800564a:	697b      	ldr	r3, [r7, #20]
 800564c:	43db      	mvns	r3, r3
 800564e:	401a      	ands	r2, r3
 8005650:	68fb      	ldr	r3, [r7, #12]
 8005652:	621a      	str	r2, [r3, #32]

  /* Set or reset the CCxE Bit */
  TIMx->CCER |= (uint32_t)(ChannelState << (Channel & 0x1FU)); /* 0x1FU = 31 bits max shift */
 8005654:	68fb      	ldr	r3, [r7, #12]
 8005656:	6a1a      	ldr	r2, [r3, #32]
 8005658:	68bb      	ldr	r3, [r7, #8]
 800565a:	f003 031f 	and.w	r3, r3, #31
 800565e:	6879      	ldr	r1, [r7, #4]
 8005660:	fa01 f303 	lsl.w	r3, r1, r3
 8005664:	431a      	orrs	r2, r3
 8005666:	68fb      	ldr	r3, [r7, #12]
 8005668:	621a      	str	r2, [r3, #32]
}
 800566a:	bf00      	nop
 800566c:	371c      	adds	r7, #28
 800566e:	46bd      	mov	sp, r7
 8005670:	f85d 7b04 	ldr.w	r7, [sp], #4
 8005674:	4770      	bx	lr
	...

08005678 <HAL_TIMEx_MasterConfigSynchronization>:
  *         mode.
  * @retval HAL status
  */
HAL_StatusTypeDef HAL_TIMEx_MasterConfigSynchronization(TIM_HandleTypeDef *htim,
                                                        const TIM_MasterConfigTypeDef *sMasterConfig)
{
 8005678:	b480      	push	{r7}
 800567a:	b085      	sub	sp, #20
 800567c:	af00      	add	r7, sp, #0
 800567e:	6078      	str	r0, [r7, #4]
 8005680:	6039      	str	r1, [r7, #0]
  assert_param(IS_TIM_MASTER_INSTANCE(htim->Instance));
  assert_param(IS_TIM_TRGO_SOURCE(sMasterConfig->MasterOutputTrigger));
  assert_param(IS_TIM_MSM_STATE(sMasterConfig->MasterSlaveMode));

  /* Check input state */
  __HAL_LOCK(htim);
 8005682:	687b      	ldr	r3, [r7, #4]
 8005684:	f893 303c 	ldrb.w	r3, [r3, #60]	@ 0x3c
 8005688:	2b01      	cmp	r3, #1
 800568a:	d101      	bne.n	8005690 <HAL_TIMEx_MasterConfigSynchronization+0x18>
 800568c:	2302      	movs	r3, #2
 800568e:	e05a      	b.n	8005746 <HAL_TIMEx_MasterConfigSynchronization+0xce>
 8005690:	687b      	ldr	r3, [r7, #4]
 8005692:	2201      	movs	r2, #1
 8005694:	f883 203c 	strb.w	r2, [r3, #60]	@ 0x3c

  /* Change the handler state */
  htim->State = HAL_TIM_STATE_BUSY;
 8005698:	687b      	ldr	r3, [r7, #4]
 800569a:	2202      	movs	r2, #2
 800569c:	f883 203d 	strb.w	r2, [r3, #61]	@ 0x3d

  /* Get the TIMx CR2 register value */
  tmpcr2 = htim->Instance->CR2;
 80056a0:	687b      	ldr	r3, [r7, #4]
 80056a2:	681b      	ldr	r3, [r3, #0]
 80056a4:	685b      	ldr	r3, [r3, #4]
 80056a6:	60fb      	str	r3, [r7, #12]

  /* Get the TIMx SMCR register value */
  tmpsmcr = htim->Instance->SMCR;
 80056a8:	687b      	ldr	r3, [r7, #4]
 80056aa:	681b      	ldr	r3, [r3, #0]
 80056ac:	689b      	ldr	r3, [r3, #8]
 80056ae:	60bb      	str	r3, [r7, #8]

  /* Reset the MMS Bits */
  tmpcr2 &= ~TIM_CR2_MMS;
 80056b0:	68fb      	ldr	r3, [r7, #12]
 80056b2:	f023 0370 	bic.w	r3, r3, #112	@ 0x70
 80056b6:	60fb      	str	r3, [r7, #12]
  /* Select the TRGO source */
  tmpcr2 |=  sMasterConfig->MasterOutputTrigger;
 80056b8:	683b      	ldr	r3, [r7, #0]
 80056ba:	681b      	ldr	r3, [r3, #0]
 80056bc:	68fa      	ldr	r2, [r7, #12]
 80056be:	4313      	orrs	r3, r2
 80056c0:	60fb      	str	r3, [r7, #12]

  /* Update TIMx CR2 */
  htim->Instance->CR2 = tmpcr2;
 80056c2:	687b      	ldr	r3, [r7, #4]
 80056c4:	681b      	ldr	r3, [r3, #0]
 80056c6:	68fa      	ldr	r2, [r7, #12]
 80056c8:	605a      	str	r2, [r3, #4]

  if (IS_TIM_SLAVE_INSTANCE(htim->Instance))
 80056ca:	687b      	ldr	r3, [r7, #4]
 80056cc:	681b      	ldr	r3, [r3, #0]
 80056ce:	4a21      	ldr	r2, [pc, #132]	@ (8005754 <HAL_TIMEx_MasterConfigSynchronization+0xdc>)
 80056d0:	4293      	cmp	r3, r2
 80056d2:	d022      	beq.n	800571a <HAL_TIMEx_MasterConfigSynchronization+0xa2>
 80056d4:	687b      	ldr	r3, [r7, #4]
 80056d6:	681b      	ldr	r3, [r3, #0]
 80056d8:	f1b3 4f80 	cmp.w	r3, #1073741824	@ 0x40000000
 80056dc:	d01d      	beq.n	800571a <HAL_TIMEx_MasterConfigSynchronization+0xa2>
 80056de:	687b      	ldr	r3, [r7, #4]
 80056e0:	681b      	ldr	r3, [r3, #0]
 80056e2:	4a1d      	ldr	r2, [pc, #116]	@ (8005758 <HAL_TIMEx_MasterConfigSynchronization+0xe0>)
 80056e4:	4293      	cmp	r3, r2
 80056e6:	d018      	beq.n	800571a <HAL_TIMEx_MasterConfigSynchronization+0xa2>
 80056e8:	687b      	ldr	r3, [r7, #4]
 80056ea:	681b      	ldr	r3, [r3, #0]
 80056ec:	4a1b      	ldr	r2, [pc, #108]	@ (800575c <HAL_TIMEx_MasterConfigSynchronization+0xe4>)
 80056ee:	4293      	cmp	r3, r2
 80056f0:	d013      	beq.n	800571a <HAL_TIMEx_MasterConfigSynchronization+0xa2>
 80056f2:	687b      	ldr	r3, [r7, #4]
 80056f4:	681b      	ldr	r3, [r3, #0]
 80056f6:	4a1a      	ldr	r2, [pc, #104]	@ (8005760 <HAL_TIMEx_MasterConfigSynchronization+0xe8>)
 80056f8:	4293      	cmp	r3, r2
 80056fa:	d00e      	beq.n	800571a <HAL_TIMEx_MasterConfigSynchronization+0xa2>
 80056fc:	687b      	ldr	r3, [r7, #4]
 80056fe:	681b      	ldr	r3, [r3, #0]
 8005700:	4a18      	ldr	r2, [pc, #96]	@ (8005764 <HAL_TIMEx_MasterConfigSynchronization+0xec>)
 8005702:	4293      	cmp	r3, r2
 8005704:	d009      	beq.n	800571a <HAL_TIMEx_MasterConfigSynchronization+0xa2>
 8005706:	687b      	ldr	r3, [r7, #4]
 8005708:	681b      	ldr	r3, [r3, #0]
 800570a:	4a17      	ldr	r2, [pc, #92]	@ (8005768 <HAL_TIMEx_MasterConfigSynchronization+0xf0>)
 800570c:	4293      	cmp	r3, r2
 800570e:	d004      	beq.n	800571a <HAL_TIMEx_MasterConfigSynchronization+0xa2>
 8005710:	687b      	ldr	r3, [r7, #4]
 8005712:	681b      	ldr	r3, [r3, #0]
 8005714:	4a15      	ldr	r2, [pc, #84]	@ (800576c <HAL_TIMEx_MasterConfigSynchronization+0xf4>)
 8005716:	4293      	cmp	r3, r2
 8005718:	d10c      	bne.n	8005734 <HAL_TIMEx_MasterConfigSynchronization+0xbc>
  {
    /* Reset the MSM Bit */
    tmpsmcr &= ~TIM_SMCR_MSM;
 800571a:	68bb      	ldr	r3, [r7, #8]
 800571c:	f023 0380 	bic.w	r3, r3, #128	@ 0x80
 8005720:	60bb      	str	r3, [r7, #8]
    /* Set master mode */
    tmpsmcr |= sMasterConfig->MasterSlaveMode;
 8005722:	683b      	ldr	r3, [r7, #0]
 8005724:	685b      	ldr	r3, [r3, #4]
 8005726:	68ba      	ldr	r2, [r7, #8]
 8005728:	4313      	orrs	r3, r2
 800572a:	60bb      	str	r3, [r7, #8]

    /* Update TIMx SMCR */
    htim->Instance->SMCR = tmpsmcr;
 800572c:	687b      	ldr	r3, [r7, #4]
 800572e:	681b      	ldr	r3, [r3, #0]
 8005730:	68ba      	ldr	r2, [r7, #8]
 8005732:	609a      	str	r2, [r3, #8]
  }

  /* Change the htim state */
  htim->State = HAL_TIM_STATE_READY;
 8005734:	687b      	ldr	r3, [r7, #4]
 8005736:	2201      	movs	r2, #1
 8005738:	f883 203d 	strb.w	r2, [r3, #61]	@ 0x3d

  __HAL_UNLOCK(htim);
 800573c:	687b      	ldr	r3, [r7, #4]
 800573e:	2200      	movs	r2, #0
 8005740:	f883 203c 	strb.w	r2, [r3, #60]	@ 0x3c

  return HAL_OK;
 8005744:	2300      	movs	r3, #0
}
 8005746:	4618      	mov	r0, r3
 8005748:	3714      	adds	r7, #20
 800574a:	46bd      	mov	sp, r7
 800574c:	f85d 7b04 	ldr.w	r7, [sp], #4
 8005750:	4770      	bx	lr
 8005752:	bf00      	nop
 8005754:	40010000 	.word	0x40010000
 8005758:	40000400 	.word	0x40000400
 800575c:	40000800 	.word	0x40000800
 8005760:	40000c00 	.word	0x40000c00
 8005764:	40010400 	.word	0x40010400
 8005768:	40014000 	.word	0x40014000
 800576c:	40001800 	.word	0x40001800

08005770 <HAL_TIMEx_CommutCallback>:
  * @brief  Commutation callback in non-blocking mode
  * @param  htim TIM handle
  * @retval None
  */
__weak void HAL_TIMEx_CommutCallback(TIM_HandleTypeDef *htim)
{
 8005770:	b480      	push	{r7}
 8005772:	b083      	sub	sp, #12
 8005774:	af00      	add	r7, sp, #0
 8005776:	6078      	str	r0, [r7, #4]
  UNUSED(htim);

  /* NOTE : This function should not be modified, when the callback is needed,
            the HAL_TIMEx_CommutCallback could be implemented in the user file
   */
}
 8005778:	bf00      	nop
 800577a:	370c      	adds	r7, #12
 800577c:	46bd      	mov	sp, r7
 800577e:	f85d 7b04 	ldr.w	r7, [sp], #4
 8005782:	4770      	bx	lr

08005784 <HAL_TIMEx_BreakCallback>:
  * @brief  Break detection callback in non-blocking mode
  * @param  htim TIM handle
  * @retval None
  */
__weak void HAL_TIMEx_BreakCallback(TIM_HandleTypeDef *htim)
{
 8005784:	b480      	push	{r7}
 8005786:	b083      	sub	sp, #12
 8005788:	af00      	add	r7, sp, #0
 800578a:	6078      	str	r0, [r7, #4]
  UNUSED(htim);

  /* NOTE : This function should not be modified, when the callback is needed,
            the HAL_TIMEx_BreakCallback could be implemented in the user file
   */
}
 800578c:	bf00      	nop
 800578e:	370c      	adds	r7, #12
 8005790:	46bd      	mov	sp, r7
 8005792:	f85d 7b04 	ldr.w	r7, [sp], #4
 8005796:	4770      	bx	lr

08005798 <memset>:
 8005798:	4402      	add	r2, r0
 800579a:	4603      	mov	r3, r0
 800579c:	4293      	cmp	r3, r2
 800579e:	d100      	bne.n	80057a2 <memset+0xa>
 80057a0:	4770      	bx	lr
 80057a2:	f803 1b01 	strb.w	r1, [r3], #1
 80057a6:	e7f9      	b.n	800579c <memset+0x4>

080057a8 <__libc_init_array>:
 80057a8:	b570      	push	{r4, r5, r6, lr}
 80057aa:	4d0d      	ldr	r5, [pc, #52]	@ (80057e0 <__libc_init_array+0x38>)
 80057ac:	4c0d      	ldr	r4, [pc, #52]	@ (80057e4 <__libc_init_array+0x3c>)
 80057ae:	1b64      	subs	r4, r4, r5
 80057b0:	10a4      	asrs	r4, r4, #2
 80057b2:	2600      	movs	r6, #0
 80057b4:	42a6      	cmp	r6, r4
 80057b6:	d109      	bne.n	80057cc <__libc_init_array+0x24>
 80057b8:	4d0b      	ldr	r5, [pc, #44]	@ (80057e8 <__libc_init_array+0x40>)
 80057ba:	4c0c      	ldr	r4, [pc, #48]	@ (80057ec <__libc_init_array+0x44>)
 80057bc:	f000 f818 	bl	80057f0 <_init>
 80057c0:	1b64      	subs	r4, r4, r5
 80057c2:	10a4      	asrs	r4, r4, #2
 80057c4:	2600      	movs	r6, #0
 80057c6:	42a6      	cmp	r6, r4
 80057c8:	d105      	bne.n	80057d6 <__libc_init_array+0x2e>
 80057ca:	bd70      	pop	{r4, r5, r6, pc}
 80057cc:	f855 3b04 	ldr.w	r3, [r5], #4
 80057d0:	4798      	blx	r3
 80057d2:	3601      	adds	r6, #1
 80057d4:	e7ee      	b.n	80057b4 <__libc_init_array+0xc>
 80057d6:	f855 3b04 	ldr.w	r3, [r5], #4
 80057da:	4798      	blx	r3
 80057dc:	3601      	adds	r6, #1
 80057de:	e7f2      	b.n	80057c6 <__libc_init_array+0x1e>
 80057e0:	08005844 	.word	0x08005844
 80057e4:	08005844 	.word	0x08005844
 80057e8:	08005844 	.word	0x08005844
 80057ec:	08005848 	.word	0x08005848

080057f0 <_init>:
 80057f0:	b5f8      	push	{r3, r4, r5, r6, r7, lr}
 80057f2:	bf00      	nop
 80057f4:	bcf8      	pop	{r3, r4, r5, r6, r7}
 80057f6:	bc08      	pop	{r3}
 80057f8:	469e      	mov	lr, r3
 80057fa:	4770      	bx	lr

080057fc <_fini>:
 80057fc:	b5f8      	push	{r3, r4, r5, r6, r7, lr}
 80057fe:	bf00      	nop
 8005800:	bcf8      	pop	{r3, r4, r5, r6, r7}
 8005802:	bc08      	pop	{r3}
 8005804:	469e      	mov	lr, r3
 8005806:	4770      	bx	lr
