
Test.elf:     file format elf32-littlearm

Sections:
Idx Name          Size      VMA       LMA       File off  Algn
  0 .isr_vector   00000188  08000000  08000000  00001000  2**0
                  CONTENTS, ALLOC, LOAD, READONLY, DATA
  1 .text         000088a0  08000190  08000190  00001190  2**4
                  CONTENTS, ALLOC, LOAD, READONLY, CODE
  2 .rodata       00000398  08008a30  08008a30  00009a30  2**3
                  CONTENTS, ALLOC, LOAD, READONLY, DATA
  3 .ARM.extab    00000000  08008dc8  08008dc8  0000a1e0  2**0
                  CONTENTS
  4 .ARM          00000008  08008dc8  08008dc8  00009dc8  2**2
                  CONTENTS, ALLOC, LOAD, READONLY, DATA
  5 .preinit_array 00000000  08008dd0  08008dd0  0000a1e0  2**0
                  CONTENTS, ALLOC, LOAD, DATA
  6 .init_array   00000004  08008dd0  08008dd0  00009dd0  2**2
                  CONTENTS, ALLOC, LOAD, DATA
  7 .fini_array   00000004  08008dd4  08008dd4  00009dd4  2**2
                  CONTENTS, ALLOC, LOAD, DATA
  8 .data         000001e0  20000000  08008dd8  0000a000  2**2
                  CONTENTS, ALLOC, LOAD, DATA
  9 .ccmram       00000000  10000000  10000000  0000a1e0  2**0
                  CONTENTS
 10 .bss          000002fc  200001e0  200001e0  0000a1e0  2**2
                  ALLOC
 11 ._user_heap_stack 00000604  200004dc  200004dc  0000a1e0  2**0
                  ALLOC
 12 .ARM.attributes 00000030  00000000  00000000  0000a1e0  2**0
                  CONTENTS, READONLY
 13 .debug_info   0000f1c0  00000000  00000000  0000a210  2**0
                  CONTENTS, READONLY, DEBUGGING, OCTETS
 14 .debug_abbrev 000025d8  00000000  00000000  000193d0  2**0
                  CONTENTS, READONLY, DEBUGGING, OCTETS
 15 .debug_aranges 00001000  00000000  00000000  0001b9a8  2**3
                  CONTENTS, READONLY, DEBUGGING, OCTETS
 16 .debug_rnglists 00000c78  00000000  00000000  0001c9a8  2**0
                  CONTENTS, READONLY, DEBUGGING, OCTETS
 17 .debug_macro  00023ad8  00000000  00000000  0001d620  2**0
                  CONTENTS, READONLY, DEBUGGING, OCTETS
 18 .debug_line   00012df1  00000000  00000000  000410f8  2**0
                  CONTENTS, READONLY, DEBUGGING, OCTETS
 19 .debug_str    000da7eb  00000000  00000000  00053ee9  2**0
                  CONTENTS, READONLY, DEBUGGING, OCTETS
 20 .comment      00000043  00000000  00000000  0012e6d4  2**0
                  CONTENTS, READONLY
 21 .debug_frame  00005538  00000000  00000000  0012e718  2**2
                  CONTENTS, READONLY, DEBUGGING, OCTETS
 22 .debug_line_str 0000005e  00000000  00000000  00133c50  2**0
                  CONTENTS, READONLY, DEBUGGING, OCTETS

Disassembly of section .text:

08000190 <__do_global_dtors_aux>:
 8000190:	b510      	push	{r4, lr}
 8000192:	4c05      	ldr	r4, [pc, #20]	@ (80001a8 <__do_global_dtors_aux+0x18>)
 8000194:	7823      	ldrb	r3, [r4, #0]
 8000196:	b933      	cbnz	r3, 80001a6 <__do_global_dtors_aux+0x16>
 8000198:	4b04      	ldr	r3, [pc, #16]	@ (80001ac <__do_global_dtors_aux+0x1c>)
 800019a:	b113      	cbz	r3, 80001a2 <__do_global_dtors_aux+0x12>
 800019c:	4804      	ldr	r0, [pc, #16]	@ (80001b0 <__do_global_dtors_aux+0x20>)
 800019e:	f3af 8000 	nop.w
 80001a2:	2301      	movs	r3, #1
 80001a4:	7023      	strb	r3, [r4, #0]
 80001a6:	bd10      	pop	{r4, pc}
 80001a8:	200001e0 	.word	0x200001e0
 80001ac:	00000000 	.word	0x00000000
 80001b0:	08008a18 	.word	0x08008a18

080001b4 <frame_dummy>:
 80001b4:	b508      	push	{r3, lr}
 80001b6:	4b03      	ldr	r3, [pc, #12]	@ (80001c4 <frame_dummy+0x10>)
 80001b8:	b11b      	cbz	r3, 80001c2 <frame_dummy+0xe>
 80001ba:	4903      	ldr	r1, [pc, #12]	@ (80001c8 <frame_dummy+0x14>)
 80001bc:	4803      	ldr	r0, [pc, #12]	@ (80001cc <frame_dummy+0x18>)
 80001be:	f3af 8000 	nop.w
 80001c2:	bd08      	pop	{r3, pc}
 80001c4:	00000000 	.word	0x00000000
 80001c8:	200001e4 	.word	0x200001e4
 80001cc:	08008a18 	.word	0x08008a18

080001d0 <memchr>:
 80001d0:	f001 01ff 	and.w	r1, r1, #255	@ 0xff
 80001d4:	2a10      	cmp	r2, #16
 80001d6:	db2b      	blt.n	8000230 <memchr+0x60>
 80001d8:	f010 0f07 	tst.w	r0, #7
 80001dc:	d008      	beq.n	80001f0 <memchr+0x20>
 80001de:	f810 3b01 	ldrb.w	r3, [r0], #1
 80001e2:	3a01      	subs	r2, #1
 80001e4:	428b      	cmp	r3, r1
 80001e6:	d02d      	beq.n	8000244 <memchr+0x74>
 80001e8:	f010 0f07 	tst.w	r0, #7
 80001ec:	b342      	cbz	r2, 8000240 <memchr+0x70>
 80001ee:	d1f6      	bne.n	80001de <memchr+0xe>
 80001f0:	b4f0      	push	{r4, r5, r6, r7}
 80001f2:	ea41 2101 	orr.w	r1, r1, r1, lsl #8
 80001f6:	ea41 4101 	orr.w	r1, r1, r1, lsl #16
 80001fa:	f022 0407 	bic.w	r4, r2, #7
 80001fe:	f07f 0700 	mvns.w	r7, #0
 8000202:	2300      	movs	r3, #0
 8000204:	e8f0 5602 	ldrd	r5, r6, [r0], #8
 8000208:	3c08      	subs	r4, #8
 800020a:	ea85 0501 	eor.w	r5, r5, r1
 800020e:	ea86 0601 	eor.w	r6, r6, r1
 8000212:	fa85 f547 	uadd8	r5, r5, r7
 8000216:	faa3 f587 	sel	r5, r3, r7
 800021a:	fa86 f647 	uadd8	r6, r6, r7
 800021e:	faa5 f687 	sel	r6, r5, r7
 8000222:	b98e      	cbnz	r6, 8000248 <memchr+0x78>
 8000224:	d1ee      	bne.n	8000204 <memchr+0x34>
 8000226:	bcf0      	pop	{r4, r5, r6, r7}
 8000228:	f001 01ff 	and.w	r1, r1, #255	@ 0xff
 800022c:	f002 0207 	and.w	r2, r2, #7
 8000230:	b132      	cbz	r2, 8000240 <memchr+0x70>
 8000232:	f810 3b01 	ldrb.w	r3, [r0], #1
 8000236:	3a01      	subs	r2, #1
 8000238:	ea83 0301 	eor.w	r3, r3, r1
 800023c:	b113      	cbz	r3, 8000244 <memchr+0x74>
 800023e:	d1f8      	bne.n	8000232 <memchr+0x62>
 8000240:	2000      	movs	r0, #0
 8000242:	4770      	bx	lr
 8000244:	3801      	subs	r0, #1
 8000246:	4770      	bx	lr
 8000248:	2d00      	cmp	r5, #0
 800024a:	bf06      	itte	eq
 800024c:	4635      	moveq	r5, r6
 800024e:	3803      	subeq	r0, #3
 8000250:	3807      	subne	r0, #7
 8000252:	f015 0f01 	tst.w	r5, #1
 8000256:	d107      	bne.n	8000268 <memchr+0x98>
 8000258:	3001      	adds	r0, #1
 800025a:	f415 7f80 	tst.w	r5, #256	@ 0x100
 800025e:	bf02      	ittt	eq
 8000260:	3001      	addeq	r0, #1
 8000262:	f415 3fc0 	tsteq.w	r5, #98304	@ 0x18000
 8000266:	3001      	addeq	r0, #1
 8000268:	bcf0      	pop	{r4, r5, r6, r7}
 800026a:	3801      	subs	r0, #1
 800026c:	4770      	bx	lr
 800026e:	bf00      	nop

08000270 <strlen>:
 8000270:	4603      	mov	r3, r0
 8000272:	f813 2b01 	ldrb.w	r2, [r3], #1
 8000276:	2a00      	cmp	r2, #0
 8000278:	d1fb      	bne.n	8000272 <strlen+0x2>
 800027a:	1a18      	subs	r0, r3, r0
 800027c:	3801      	subs	r0, #1
 800027e:	4770      	bx	lr

08000280 <__aeabi_drsub>:
 8000280:	f081 4100 	eor.w	r1, r1, #2147483648	@ 0x80000000
 8000284:	e002      	b.n	800028c <__adddf3>
 8000286:	bf00      	nop

08000288 <__aeabi_dsub>:
 8000288:	f083 4300 	eor.w	r3, r3, #2147483648	@ 0x80000000

0800028c <__adddf3>:
 800028c:	b530      	push	{r4, r5, lr}
 800028e:	ea4f 0441 	mov.w	r4, r1, lsl #1
 8000292:	ea4f 0543 	mov.w	r5, r3, lsl #1
 8000296:	ea94 0f05 	teq	r4, r5
 800029a:	bf08      	it	eq
 800029c:	ea90 0f02 	teqeq	r0, r2
 80002a0:	bf1f      	itttt	ne
 80002a2:	ea54 0c00 	orrsne.w	ip, r4, r0
 80002a6:	ea55 0c02 	orrsne.w	ip, r5, r2
 80002aa:	ea7f 5c64 	mvnsne.w	ip, r4, asr #21
 80002ae:	ea7f 5c65 	mvnsne.w	ip, r5, asr #21
 80002b2:	f000 80e2 	beq.w	800047a <__adddf3+0x1ee>
 80002b6:	ea4f 5454 	mov.w	r4, r4, lsr #21
 80002ba:	ebd4 5555 	rsbs	r5, r4, r5, lsr #21
 80002be:	bfb8      	it	lt
 80002c0:	426d      	neglt	r5, r5
 80002c2:	dd0c      	ble.n	80002de <__adddf3+0x52>
 80002c4:	442c      	add	r4, r5
 80002c6:	ea80 0202 	eor.w	r2, r0, r2
 80002ca:	ea81 0303 	eor.w	r3, r1, r3
 80002ce:	ea82 0000 	eor.w	r0, r2, r0
 80002d2:	ea83 0101 	eor.w	r1, r3, r1
 80002d6:	ea80 0202 	eor.w	r2, r0, r2
 80002da:	ea81 0303 	eor.w	r3, r1, r3
 80002de:	2d36      	cmp	r5, #54	@ 0x36
 80002e0:	bf88      	it	hi
 80002e2:	bd30      	pophi	{r4, r5, pc}
 80002e4:	f011 4f00 	tst.w	r1, #2147483648	@ 0x80000000
 80002e8:	ea4f 3101 	mov.w	r1, r1, lsl #12
 80002ec:	f44f 1c80 	mov.w	ip, #1048576	@ 0x100000
 80002f0:	ea4c 3111 	orr.w	r1, ip, r1, lsr #12
 80002f4:	d002      	beq.n	80002fc <__adddf3+0x70>
 80002f6:	4240      	negs	r0, r0
 80002f8:	eb61 0141 	sbc.w	r1, r1, r1, lsl #1
 80002fc:	f013 4f00 	tst.w	r3, #2147483648	@ 0x80000000
 8000300:	ea4f 3303 	mov.w	r3, r3, lsl #12
 8000304:	ea4c 3313 	orr.w	r3, ip, r3, lsr #12
 8000308:	d002      	beq.n	8000310 <__adddf3+0x84>
 800030a:	4252      	negs	r2, r2
 800030c:	eb63 0343 	sbc.w	r3, r3, r3, lsl #1
 8000310:	ea94 0f05 	teq	r4, r5
 8000314:	f000 80a7 	beq.w	8000466 <__adddf3+0x1da>
 8000318:	f1a4 0401 	sub.w	r4, r4, #1
 800031c:	f1d5 0e20 	rsbs	lr, r5, #32
 8000320:	db0d      	blt.n	800033e <__adddf3+0xb2>
 8000322:	fa02 fc0e 	lsl.w	ip, r2, lr
 8000326:	fa22 f205 	lsr.w	r2, r2, r5
 800032a:	1880      	adds	r0, r0, r2
 800032c:	f141 0100 	adc.w	r1, r1, #0
 8000330:	fa03 f20e 	lsl.w	r2, r3, lr
 8000334:	1880      	adds	r0, r0, r2
 8000336:	fa43 f305 	asr.w	r3, r3, r5
 800033a:	4159      	adcs	r1, r3
 800033c:	e00e      	b.n	800035c <__adddf3+0xd0>
 800033e:	f1a5 0520 	sub.w	r5, r5, #32
 8000342:	f10e 0e20 	add.w	lr, lr, #32
 8000346:	2a01      	cmp	r2, #1
 8000348:	fa03 fc0e 	lsl.w	ip, r3, lr
 800034c:	bf28      	it	cs
 800034e:	f04c 0c02 	orrcs.w	ip, ip, #2
 8000352:	fa43 f305 	asr.w	r3, r3, r5
 8000356:	18c0      	adds	r0, r0, r3
 8000358:	eb51 71e3 	adcs.w	r1, r1, r3, asr #31
 800035c:	f001 4500 	and.w	r5, r1, #2147483648	@ 0x80000000
 8000360:	d507      	bpl.n	8000372 <__adddf3+0xe6>
 8000362:	f04f 0e00 	mov.w	lr, #0
 8000366:	f1dc 0c00 	rsbs	ip, ip, #0
 800036a:	eb7e 0000 	sbcs.w	r0, lr, r0
 800036e:	eb6e 0101 	sbc.w	r1, lr, r1
 8000372:	f5b1 1f80 	cmp.w	r1, #1048576	@ 0x100000
 8000376:	d31b      	bcc.n	80003b0 <__adddf3+0x124>
 8000378:	f5b1 1f00 	cmp.w	r1, #2097152	@ 0x200000
 800037c:	d30c      	bcc.n	8000398 <__adddf3+0x10c>
 800037e:	0849      	lsrs	r1, r1, #1
 8000380:	ea5f 0030 	movs.w	r0, r0, rrx
 8000384:	ea4f 0c3c 	mov.w	ip, ip, rrx
 8000388:	f104 0401 	add.w	r4, r4, #1
 800038c:	ea4f 5244 	mov.w	r2, r4, lsl #21
 8000390:	f512 0f80 	cmn.w	r2, #4194304	@ 0x400000
 8000394:	f080 809a 	bcs.w	80004cc <__adddf3+0x240>
 8000398:	f1bc 4f00 	cmp.w	ip, #2147483648	@ 0x80000000
 800039c:	bf08      	it	eq
 800039e:	ea5f 0c50 	movseq.w	ip, r0, lsr #1
 80003a2:	f150 0000 	adcs.w	r0, r0, #0
 80003a6:	eb41 5104 	adc.w	r1, r1, r4, lsl #20
 80003aa:	ea41 0105 	orr.w	r1, r1, r5
 80003ae:	bd30      	pop	{r4, r5, pc}
 80003b0:	ea5f 0c4c 	movs.w	ip, ip, lsl #1
 80003b4:	4140      	adcs	r0, r0
 80003b6:	eb41 0101 	adc.w	r1, r1, r1
 80003ba:	3c01      	subs	r4, #1
 80003bc:	bf28      	it	cs
 80003be:	f5b1 1f80 	cmpcs.w	r1, #1048576	@ 0x100000
 80003c2:	d2e9      	bcs.n	8000398 <__adddf3+0x10c>
 80003c4:	f091 0f00 	teq	r1, #0
 80003c8:	bf04      	itt	eq
 80003ca:	4601      	moveq	r1, r0
 80003cc:	2000      	moveq	r0, #0
 80003ce:	fab1 f381 	clz	r3, r1
 80003d2:	bf08      	it	eq
 80003d4:	3320      	addeq	r3, #32
 80003d6:	f1a3 030b 	sub.w	r3, r3, #11
 80003da:	f1b3 0220 	subs.w	r2, r3, #32
 80003de:	da0c      	bge.n	80003fa <__adddf3+0x16e>
 80003e0:	320c      	adds	r2, #12
 80003e2:	dd08      	ble.n	80003f6 <__adddf3+0x16a>
 80003e4:	f102 0c14 	add.w	ip, r2, #20
 80003e8:	f1c2 020c 	rsb	r2, r2, #12
 80003ec:	fa01 f00c 	lsl.w	r0, r1, ip
 80003f0:	fa21 f102 	lsr.w	r1, r1, r2
 80003f4:	e00c      	b.n	8000410 <__adddf3+0x184>
 80003f6:	f102 0214 	add.w	r2, r2, #20
 80003fa:	bfd8      	it	le
 80003fc:	f1c2 0c20 	rsble	ip, r2, #32
 8000400:	fa01 f102 	lsl.w	r1, r1, r2
 8000404:	fa20 fc0c 	lsr.w	ip, r0, ip
 8000408:	bfdc      	itt	le
 800040a:	ea41 010c 	orrle.w	r1, r1, ip
 800040e:	4090      	lslle	r0, r2
 8000410:	1ae4      	subs	r4, r4, r3
 8000412:	bfa2      	ittt	ge
 8000414:	eb01 5104 	addge.w	r1, r1, r4, lsl #20
 8000418:	4329      	orrge	r1, r5
 800041a:	bd30      	popge	{r4, r5, pc}
 800041c:	ea6f 0404 	mvn.w	r4, r4
 8000420:	3c1f      	subs	r4, #31
 8000422:	da1c      	bge.n	800045e <__adddf3+0x1d2>
 8000424:	340c      	adds	r4, #12
 8000426:	dc0e      	bgt.n	8000446 <__adddf3+0x1ba>
 8000428:	f104 0414 	add.w	r4, r4, #20
 800042c:	f1c4 0220 	rsb	r2, r4, #32
 8000430:	fa20 f004 	lsr.w	r0, r0, r4
 8000434:	fa01 f302 	lsl.w	r3, r1, r2
 8000438:	ea40 0003 	orr.w	r0, r0, r3
 800043c:	fa21 f304 	lsr.w	r3, r1, r4
 8000440:	ea45 0103 	orr.w	r1, r5, r3
 8000444:	bd30      	pop	{r4, r5, pc}
 8000446:	f1c4 040c 	rsb	r4, r4, #12
 800044a:	f1c4 0220 	rsb	r2, r4, #32
 800044e:	fa20 f002 	lsr.w	r0, r0, r2
 8000452:	fa01 f304 	lsl.w	r3, r1, r4
 8000456:	ea40 0003 	orr.w	r0, r0, r3
 800045a:	4629      	mov	r1, r5
 800045c:	bd30      	pop	{r4, r5, pc}
 800045e:	fa21 f004 	lsr.w	r0, r1, r4
 8000462:	4629      	mov	r1, r5
 8000464:	bd30      	pop	{r4, r5, pc}
 8000466:	f094 0f00 	teq	r4, #0
 800046a:	f483 1380 	eor.w	r3, r3, #1048576	@ 0x100000
 800046e:	bf06      	itte	eq
 8000470:	f481 1180 	eoreq.w	r1, r1, #1048576	@ 0x100000
 8000474:	3401      	addeq	r4, #1
 8000476:	3d01      	subne	r5, #1
 8000478:	e74e      	b.n	8000318 <__adddf3+0x8c>
 800047a:	ea7f 5c64 	mvns.w	ip, r4, asr #21
 800047e:	bf18      	it	ne
 8000480:	ea7f 5c65 	mvnsne.w	ip, r5, asr #21
 8000484:	d029      	beq.n	80004da <__adddf3+0x24e>
 8000486:	ea94 0f05 	teq	r4, r5
 800048a:	bf08      	it	eq
 800048c:	ea90 0f02 	teqeq	r0, r2
 8000490:	d005      	beq.n	800049e <__adddf3+0x212>
 8000492:	ea54 0c00 	orrs.w	ip, r4, r0
 8000496:	bf04      	itt	eq
 8000498:	4619      	moveq	r1, r3
 800049a:	4610      	moveq	r0, r2
 800049c:	bd30      	pop	{r4, r5, pc}
 800049e:	ea91 0f03 	teq	r1, r3
 80004a2:	bf1e      	ittt	ne
 80004a4:	2100      	movne	r1, #0
 80004a6:	2000      	movne	r0, #0
 80004a8:	bd30      	popne	{r4, r5, pc}
 80004aa:	ea5f 5c54 	movs.w	ip, r4, lsr #21
 80004ae:	d105      	bne.n	80004bc <__adddf3+0x230>
 80004b0:	0040      	lsls	r0, r0, #1
 80004b2:	4149      	adcs	r1, r1
 80004b4:	bf28      	it	cs
 80004b6:	f041 4100 	orrcs.w	r1, r1, #2147483648	@ 0x80000000
 80004ba:	bd30      	pop	{r4, r5, pc}
 80004bc:	f514 0480 	adds.w	r4, r4, #4194304	@ 0x400000
 80004c0:	bf3c      	itt	cc
 80004c2:	f501 1180 	addcc.w	r1, r1, #1048576	@ 0x100000
 80004c6:	bd30      	popcc	{r4, r5, pc}
 80004c8:	f001 4500 	and.w	r5, r1, #2147483648	@ 0x80000000
 80004cc:	f045 41fe 	orr.w	r1, r5, #2130706432	@ 0x7f000000
 80004d0:	f441 0170 	orr.w	r1, r1, #15728640	@ 0xf00000
 80004d4:	f04f 0000 	mov.w	r0, #0
 80004d8:	bd30      	pop	{r4, r5, pc}
 80004da:	ea7f 5c64 	mvns.w	ip, r4, asr #21
 80004de:	bf1a      	itte	ne
 80004e0:	4619      	movne	r1, r3
 80004e2:	4610      	movne	r0, r2
 80004e4:	ea7f 5c65 	mvnseq.w	ip, r5, asr #21
 80004e8:	bf1c      	itt	ne
 80004ea:	460b      	movne	r3, r1
 80004ec:	4602      	movne	r2, r0
 80004ee:	ea50 3401 	orrs.w	r4, r0, r1, lsl #12
 80004f2:	bf06      	itte	eq
 80004f4:	ea52 3503 	orrseq.w	r5, r2, r3, lsl #12
 80004f8:	ea91 0f03 	teqeq	r1, r3
 80004fc:	f441 2100 	orrne.w	r1, r1, #524288	@ 0x80000
 8000500:	bd30      	pop	{r4, r5, pc}
 8000502:	bf00      	nop

08000504 <__aeabi_ui2d>:
 8000504:	f090 0f00 	teq	r0, #0
 8000508:	bf04      	itt	eq
 800050a:	2100      	moveq	r1, #0
 800050c:	4770      	bxeq	lr
 800050e:	b530      	push	{r4, r5, lr}
 8000510:	f44f 6480 	mov.w	r4, #1024	@ 0x400
 8000514:	f104 0432 	add.w	r4, r4, #50	@ 0x32
 8000518:	f04f 0500 	mov.w	r5, #0
 800051c:	f04f 0100 	mov.w	r1, #0
 8000520:	e750      	b.n	80003c4 <__adddf3+0x138>
 8000522:	bf00      	nop

08000524 <__aeabi_i2d>:
 8000524:	f090 0f00 	teq	r0, #0
 8000528:	bf04      	itt	eq
 800052a:	2100      	moveq	r1, #0
 800052c:	4770      	bxeq	lr
 800052e:	b530      	push	{r4, r5, lr}
 8000530:	f44f 6480 	mov.w	r4, #1024	@ 0x400
 8000534:	f104 0432 	add.w	r4, r4, #50	@ 0x32
 8000538:	f010 4500 	ands.w	r5, r0, #2147483648	@ 0x80000000
 800053c:	bf48      	it	mi
 800053e:	4240      	negmi	r0, r0
 8000540:	f04f 0100 	mov.w	r1, #0
 8000544:	e73e      	b.n	80003c4 <__adddf3+0x138>
 8000546:	bf00      	nop

08000548 <__aeabi_f2d>:
 8000548:	0042      	lsls	r2, r0, #1
 800054a:	ea4f 01e2 	mov.w	r1, r2, asr #3
 800054e:	ea4f 0131 	mov.w	r1, r1, rrx
 8000552:	ea4f 7002 	mov.w	r0, r2, lsl #28
 8000556:	bf1f      	itttt	ne
 8000558:	f012 437f 	andsne.w	r3, r2, #4278190080	@ 0xff000000
 800055c:	f093 4f7f 	teqne	r3, #4278190080	@ 0xff000000
 8000560:	f081 5160 	eorne.w	r1, r1, #939524096	@ 0x38000000
 8000564:	4770      	bxne	lr
 8000566:	f032 427f 	bics.w	r2, r2, #4278190080	@ 0xff000000
 800056a:	bf08      	it	eq
 800056c:	4770      	bxeq	lr
 800056e:	f093 4f7f 	teq	r3, #4278190080	@ 0xff000000
 8000572:	bf04      	itt	eq
 8000574:	f441 2100 	orreq.w	r1, r1, #524288	@ 0x80000
 8000578:	4770      	bxeq	lr
 800057a:	b530      	push	{r4, r5, lr}
 800057c:	f44f 7460 	mov.w	r4, #896	@ 0x380
 8000580:	f001 4500 	and.w	r5, r1, #2147483648	@ 0x80000000
 8000584:	f021 4100 	bic.w	r1, r1, #2147483648	@ 0x80000000
 8000588:	e71c      	b.n	80003c4 <__adddf3+0x138>
 800058a:	bf00      	nop

0800058c <__aeabi_ul2d>:
 800058c:	ea50 0201 	orrs.w	r2, r0, r1
 8000590:	bf08      	it	eq
 8000592:	4770      	bxeq	lr
 8000594:	b530      	push	{r4, r5, lr}
 8000596:	f04f 0500 	mov.w	r5, #0
 800059a:	e00a      	b.n	80005b2 <__aeabi_l2d+0x16>

0800059c <__aeabi_l2d>:
 800059c:	ea50 0201 	orrs.w	r2, r0, r1
 80005a0:	bf08      	it	eq
 80005a2:	4770      	bxeq	lr
 80005a4:	b530      	push	{r4, r5, lr}
 80005a6:	f011 4500 	ands.w	r5, r1, #2147483648	@ 0x80000000
 80005aa:	d502      	bpl.n	80005b2 <__aeabi_l2d+0x16>
 80005ac:	4240      	negs	r0, r0
 80005ae:	eb61 0141 	sbc.w	r1, r1, r1, lsl #1
 80005b2:	f44f 6480 	mov.w	r4, #1024	@ 0x400
 80005b6:	f104 0432 	add.w	r4, r4, #50	@ 0x32
 80005ba:	ea5f 5c91 	movs.w	ip, r1, lsr #22
 80005be:	f43f aed8 	beq.w	8000372 <__adddf3+0xe6>
 80005c2:	f04f 0203 	mov.w	r2, #3
 80005c6:	ea5f 0cdc 	movs.w	ip, ip, lsr #3
 80005ca:	bf18      	it	ne
 80005cc:	3203      	addne	r2, #3
 80005ce:	ea5f 0cdc 	movs.w	ip, ip, lsr #3
 80005d2:	bf18      	it	ne
 80005d4:	3203      	addne	r2, #3
 80005d6:	eb02 02dc 	add.w	r2, r2, ip, lsr #3
 80005da:	f1c2 0320 	rsb	r3, r2, #32
 80005de:	fa00 fc03 	lsl.w	ip, r0, r3
 80005e2:	fa20 f002 	lsr.w	r0, r0, r2
 80005e6:	fa01 fe03 	lsl.w	lr, r1, r3
 80005ea:	ea40 000e 	orr.w	r0, r0, lr
 80005ee:	fa21 f102 	lsr.w	r1, r1, r2
 80005f2:	4414      	add	r4, r2
 80005f4:	e6bd      	b.n	8000372 <__adddf3+0xe6>
 80005f6:	bf00      	nop

080005f8 <__aeabi_dmul>:
 80005f8:	b570      	push	{r4, r5, r6, lr}
 80005fa:	f04f 0cff 	mov.w	ip, #255	@ 0xff
 80005fe:	f44c 6ce0 	orr.w	ip, ip, #1792	@ 0x700
 8000602:	ea1c 5411 	ands.w	r4, ip, r1, lsr #20
 8000606:	bf1d      	ittte	ne
 8000608:	ea1c 5513 	andsne.w	r5, ip, r3, lsr #20
 800060c:	ea94 0f0c 	teqne	r4, ip
 8000610:	ea95 0f0c 	teqne	r5, ip
 8000614:	f000 f8de 	bleq	80007d4 <__aeabi_dmul+0x1dc>
 8000618:	442c      	add	r4, r5
 800061a:	ea81 0603 	eor.w	r6, r1, r3
 800061e:	ea21 514c 	bic.w	r1, r1, ip, lsl #21
 8000622:	ea23 534c 	bic.w	r3, r3, ip, lsl #21
 8000626:	ea50 3501 	orrs.w	r5, r0, r1, lsl #12
 800062a:	bf18      	it	ne
 800062c:	ea52 3503 	orrsne.w	r5, r2, r3, lsl #12
 8000630:	f441 1180 	orr.w	r1, r1, #1048576	@ 0x100000
 8000634:	f443 1380 	orr.w	r3, r3, #1048576	@ 0x100000
 8000638:	d038      	beq.n	80006ac <__aeabi_dmul+0xb4>
 800063a:	fba0 ce02 	umull	ip, lr, r0, r2
 800063e:	f04f 0500 	mov.w	r5, #0
 8000642:	fbe1 e502 	umlal	lr, r5, r1, r2
 8000646:	f006 4200 	and.w	r2, r6, #2147483648	@ 0x80000000
 800064a:	fbe0 e503 	umlal	lr, r5, r0, r3
 800064e:	f04f 0600 	mov.w	r6, #0
 8000652:	fbe1 5603 	umlal	r5, r6, r1, r3
 8000656:	f09c 0f00 	teq	ip, #0
 800065a:	bf18      	it	ne
 800065c:	f04e 0e01 	orrne.w	lr, lr, #1
 8000660:	f1a4 04ff 	sub.w	r4, r4, #255	@ 0xff
 8000664:	f5b6 7f00 	cmp.w	r6, #512	@ 0x200
 8000668:	f564 7440 	sbc.w	r4, r4, #768	@ 0x300
 800066c:	d204      	bcs.n	8000678 <__aeabi_dmul+0x80>
 800066e:	ea5f 0e4e 	movs.w	lr, lr, lsl #1
 8000672:	416d      	adcs	r5, r5
 8000674:	eb46 0606 	adc.w	r6, r6, r6
 8000678:	ea42 21c6 	orr.w	r1, r2, r6, lsl #11
 800067c:	ea41 5155 	orr.w	r1, r1, r5, lsr #21
 8000680:	ea4f 20c5 	mov.w	r0, r5, lsl #11
 8000684:	ea40 505e 	orr.w	r0, r0, lr, lsr #21
 8000688:	ea4f 2ece 	mov.w	lr, lr, lsl #11
 800068c:	f1b4 0cfd 	subs.w	ip, r4, #253	@ 0xfd
 8000690:	bf88      	it	hi
 8000692:	f5bc 6fe0 	cmphi.w	ip, #1792	@ 0x700
 8000696:	d81e      	bhi.n	80006d6 <__aeabi_dmul+0xde>
 8000698:	f1be 4f00 	cmp.w	lr, #2147483648	@ 0x80000000
 800069c:	bf08      	it	eq
 800069e:	ea5f 0e50 	movseq.w	lr, r0, lsr #1
 80006a2:	f150 0000 	adcs.w	r0, r0, #0
 80006a6:	eb41 5104 	adc.w	r1, r1, r4, lsl #20
 80006aa:	bd70      	pop	{r4, r5, r6, pc}
 80006ac:	f006 4600 	and.w	r6, r6, #2147483648	@ 0x80000000
 80006b0:	ea46 0101 	orr.w	r1, r6, r1
 80006b4:	ea40 0002 	orr.w	r0, r0, r2
 80006b8:	ea81 0103 	eor.w	r1, r1, r3
 80006bc:	ebb4 045c 	subs.w	r4, r4, ip, lsr #1
 80006c0:	bfc2      	ittt	gt
 80006c2:	ebd4 050c 	rsbsgt	r5, r4, ip
 80006c6:	ea41 5104 	orrgt.w	r1, r1, r4, lsl #20
 80006ca:	bd70      	popgt	{r4, r5, r6, pc}
 80006cc:	f441 1180 	orr.w	r1, r1, #1048576	@ 0x100000
 80006d0:	f04f 0e00 	mov.w	lr, #0
 80006d4:	3c01      	subs	r4, #1
 80006d6:	f300 80ab 	bgt.w	8000830 <__aeabi_dmul+0x238>
 80006da:	f114 0f36 	cmn.w	r4, #54	@ 0x36
 80006de:	bfde      	ittt	le
 80006e0:	2000      	movle	r0, #0
 80006e2:	f001 4100 	andle.w	r1, r1, #2147483648	@ 0x80000000
 80006e6:	bd70      	pople	{r4, r5, r6, pc}
 80006e8:	f1c4 0400 	rsb	r4, r4, #0
 80006ec:	3c20      	subs	r4, #32
 80006ee:	da35      	bge.n	800075c <__aeabi_dmul+0x164>
 80006f0:	340c      	adds	r4, #12
 80006f2:	dc1b      	bgt.n	800072c <__aeabi_dmul+0x134>
 80006f4:	f104 0414 	add.w	r4, r4, #20
 80006f8:	f1c4 0520 	rsb	r5, r4, #32
 80006fc:	fa00 f305 	lsl.w	r3, r0, r5
 8000700:	fa20 f004 	lsr.w	r0, r0, r4
 8000704:	fa01 f205 	lsl.w	r2, r1, r5
 8000708:	ea40 0002 	orr.w	r0, r0, r2
 800070c:	f001 4200 	and.w	r2, r1, #2147483648	@ 0x80000000
 8000710:	f021 4100 	bic.w	r1, r1, #2147483648	@ 0x80000000
 8000714:	eb10 70d3 	adds.w	r0, r0, r3, lsr #31
 8000718:	fa21 f604 	lsr.w	r6, r1, r4
 800071c:	eb42 0106 	adc.w	r1, r2, r6
 8000720:	ea5e 0e43 	orrs.w	lr, lr, r3, lsl #1
 8000724:	bf08      	it	eq
 8000726:	ea20 70d3 	biceq.w	r0, r0, r3, lsr #31
 800072a:	bd70      	pop	{r4, r5, r6, pc}
 800072c:	f1c4 040c 	rsb	r4, r4, #12
 8000730:	f1c4 0520 	rsb	r5, r4, #32
 8000734:	fa00 f304 	lsl.w	r3, r0, r4
 8000738:	fa20 f005 	lsr.w	r0, r0, r5
 800073c:	fa01 f204 	lsl.w	r2, r1, r4
 8000740:	ea40 0002 	orr.w	r0, r0, r2
 8000744:	f001 4100 	and.w	r1, r1, #2147483648	@ 0x80000000
 8000748:	eb10 70d3 	adds.w	r0, r0, r3, lsr #31
 800074c:	f141 0100 	adc.w	r1, r1, #0
 8000750:	ea5e 0e43 	orrs.w	lr, lr, r3, lsl #1
 8000754:	bf08      	it	eq
 8000756:	ea20 70d3 	biceq.w	r0, r0, r3, lsr #31
 800075a:	bd70      	pop	{r4, r5, r6, pc}
 800075c:	f1c4 0520 	rsb	r5, r4, #32
 8000760:	fa00 f205 	lsl.w	r2, r0, r5
 8000764:	ea4e 0e02 	orr.w	lr, lr, r2
 8000768:	fa20 f304 	lsr.w	r3, r0, r4
 800076c:	fa01 f205 	lsl.w	r2, r1, r5
 8000770:	ea43 0302 	orr.w	r3, r3, r2
 8000774:	fa21 f004 	lsr.w	r0, r1, r4
 8000778:	f001 4100 	and.w	r1, r1, #2147483648	@ 0x80000000
 800077c:	fa21 f204 	lsr.w	r2, r1, r4
 8000780:	ea20 0002 	bic.w	r0, r0, r2
 8000784:	eb00 70d3 	add.w	r0, r0, r3, lsr #31
 8000788:	ea5e 0e43 	orrs.w	lr, lr, r3, lsl #1
 800078c:	bf08      	it	eq
 800078e:	ea20 70d3 	biceq.w	r0, r0, r3, lsr #31
 8000792:	bd70      	pop	{r4, r5, r6, pc}
 8000794:	f094 0f00 	teq	r4, #0
 8000798:	d10f      	bne.n	80007ba <__aeabi_dmul+0x1c2>
 800079a:	f001 4600 	and.w	r6, r1, #2147483648	@ 0x80000000
 800079e:	0040      	lsls	r0, r0, #1
 80007a0:	eb41 0101 	adc.w	r1, r1, r1
 80007a4:	f411 1f80 	tst.w	r1, #1048576	@ 0x100000
 80007a8:	bf08      	it	eq
 80007aa:	3c01      	subeq	r4, #1
 80007ac:	d0f7      	beq.n	800079e <__aeabi_dmul+0x1a6>
 80007ae:	ea41 0106 	orr.w	r1, r1, r6
 80007b2:	f095 0f00 	teq	r5, #0
 80007b6:	bf18      	it	ne
 80007b8:	4770      	bxne	lr
 80007ba:	f003 4600 	and.w	r6, r3, #2147483648	@ 0x80000000
 80007be:	0052      	lsls	r2, r2, #1
 80007c0:	eb43 0303 	adc.w	r3, r3, r3
 80007c4:	f413 1f80 	tst.w	r3, #1048576	@ 0x100000
 80007c8:	bf08      	it	eq
 80007ca:	3d01      	subeq	r5, #1
 80007cc:	d0f7      	beq.n	80007be <__aeabi_dmul+0x1c6>
 80007ce:	ea43 0306 	orr.w	r3, r3, r6
 80007d2:	4770      	bx	lr
 80007d4:	ea94 0f0c 	teq	r4, ip
 80007d8:	ea0c 5513 	and.w	r5, ip, r3, lsr #20
 80007dc:	bf18      	it	ne
 80007de:	ea95 0f0c 	teqne	r5, ip
 80007e2:	d00c      	beq.n	80007fe <__aeabi_dmul+0x206>
 80007e4:	ea50 0641 	orrs.w	r6, r0, r1, lsl #1
 80007e8:	bf18      	it	ne
 80007ea:	ea52 0643 	orrsne.w	r6, r2, r3, lsl #1
 80007ee:	d1d1      	bne.n	8000794 <__aeabi_dmul+0x19c>
 80007f0:	ea81 0103 	eor.w	r1, r1, r3
 80007f4:	f001 4100 	and.w	r1, r1, #2147483648	@ 0x80000000
 80007f8:	f04f 0000 	mov.w	r0, #0
 80007fc:	bd70      	pop	{r4, r5, r6, pc}
 80007fe:	ea50 0641 	orrs.w	r6, r0, r1, lsl #1
 8000802:	bf06      	itte	eq
 8000804:	4610      	moveq	r0, r2
 8000806:	4619      	moveq	r1, r3
 8000808:	ea52 0643 	orrsne.w	r6, r2, r3, lsl #1
 800080c:	d019      	beq.n	8000842 <__aeabi_dmul+0x24a>
 800080e:	ea94 0f0c 	teq	r4, ip
 8000812:	d102      	bne.n	800081a <__aeabi_dmul+0x222>
 8000814:	ea50 3601 	orrs.w	r6, r0, r1, lsl #12
 8000818:	d113      	bne.n	8000842 <__aeabi_dmul+0x24a>
 800081a:	ea95 0f0c 	teq	r5, ip
 800081e:	d105      	bne.n	800082c <__aeabi_dmul+0x234>
 8000820:	ea52 3603 	orrs.w	r6, r2, r3, lsl #12
 8000824:	bf1c      	itt	ne
 8000826:	4610      	movne	r0, r2
 8000828:	4619      	movne	r1, r3
 800082a:	d10a      	bne.n	8000842 <__aeabi_dmul+0x24a>
 800082c:	ea81 0103 	eor.w	r1, r1, r3
 8000830:	f001 4100 	and.w	r1, r1, #2147483648	@ 0x80000000
 8000834:	f041 41fe 	orr.w	r1, r1, #2130706432	@ 0x7f000000
 8000838:	f441 0170 	orr.w	r1, r1, #15728640	@ 0xf00000
 800083c:	f04f 0000 	mov.w	r0, #0
 8000840:	bd70      	pop	{r4, r5, r6, pc}
 8000842:	f041 41fe 	orr.w	r1, r1, #2130706432	@ 0x7f000000
 8000846:	f441 0178 	orr.w	r1, r1, #16252928	@ 0xf80000
 800084a:	bd70      	pop	{r4, r5, r6, pc}

0800084c <__aeabi_ddiv>:
 800084c:	b570      	push	{r4, r5, r6, lr}
 800084e:	f04f 0cff 	mov.w	ip, #255	@ 0xff
 8000852:	f44c 6ce0 	orr.w	ip, ip, #1792	@ 0x700
 8000856:	ea1c 5411 	ands.w	r4, ip, r1, lsr #20
 800085a:	bf1d      	ittte	ne
 800085c:	ea1c 5513 	andsne.w	r5, ip, r3, lsr #20
 8000860:	ea94 0f0c 	teqne	r4, ip
 8000864:	ea95 0f0c 	teqne	r5, ip
 8000868:	f000 f8a7 	bleq	80009ba <__aeabi_ddiv+0x16e>
 800086c:	eba4 0405 	sub.w	r4, r4, r5
 8000870:	ea81 0e03 	eor.w	lr, r1, r3
 8000874:	ea52 3503 	orrs.w	r5, r2, r3, lsl #12
 8000878:	ea4f 3101 	mov.w	r1, r1, lsl #12
 800087c:	f000 8088 	beq.w	8000990 <__aeabi_ddiv+0x144>
 8000880:	ea4f 3303 	mov.w	r3, r3, lsl #12
 8000884:	f04f 5580 	mov.w	r5, #268435456	@ 0x10000000
 8000888:	ea45 1313 	orr.w	r3, r5, r3, lsr #4
 800088c:	ea43 6312 	orr.w	r3, r3, r2, lsr #24
 8000890:	ea4f 2202 	mov.w	r2, r2, lsl #8
 8000894:	ea45 1511 	orr.w	r5, r5, r1, lsr #4
 8000898:	ea45 6510 	orr.w	r5, r5, r0, lsr #24
 800089c:	ea4f 2600 	mov.w	r6, r0, lsl #8
 80008a0:	f00e 4100 	and.w	r1, lr, #2147483648	@ 0x80000000
 80008a4:	429d      	cmp	r5, r3
 80008a6:	bf08      	it	eq
 80008a8:	4296      	cmpeq	r6, r2
 80008aa:	f144 04fd 	adc.w	r4, r4, #253	@ 0xfd
 80008ae:	f504 7440 	add.w	r4, r4, #768	@ 0x300
 80008b2:	d202      	bcs.n	80008ba <__aeabi_ddiv+0x6e>
 80008b4:	085b      	lsrs	r3, r3, #1
 80008b6:	ea4f 0232 	mov.w	r2, r2, rrx
 80008ba:	1ab6      	subs	r6, r6, r2
 80008bc:	eb65 0503 	sbc.w	r5, r5, r3
 80008c0:	085b      	lsrs	r3, r3, #1
 80008c2:	ea4f 0232 	mov.w	r2, r2, rrx
 80008c6:	f44f 1080 	mov.w	r0, #1048576	@ 0x100000
 80008ca:	f44f 2c00 	mov.w	ip, #524288	@ 0x80000
 80008ce:	ebb6 0e02 	subs.w	lr, r6, r2
 80008d2:	eb75 0e03 	sbcs.w	lr, r5, r3
 80008d6:	bf22      	ittt	cs
 80008d8:	1ab6      	subcs	r6, r6, r2
 80008da:	4675      	movcs	r5, lr
 80008dc:	ea40 000c 	orrcs.w	r0, r0, ip
 80008e0:	085b      	lsrs	r3, r3, #1
 80008e2:	ea4f 0232 	mov.w	r2, r2, rrx
 80008e6:	ebb6 0e02 	subs.w	lr, r6, r2
 80008ea:	eb75 0e03 	sbcs.w	lr, r5, r3
 80008ee:	bf22      	ittt	cs
 80008f0:	1ab6      	subcs	r6, r6, r2
 80008f2:	4675      	movcs	r5, lr
 80008f4:	ea40 005c 	orrcs.w	r0, r0, ip, lsr #1
 80008f8:	085b      	lsrs	r3, r3, #1
 80008fa:	ea4f 0232 	mov.w	r2, r2, rrx
 80008fe:	ebb6 0e02 	subs.w	lr, r6, r2
 8000902:	eb75 0e03 	sbcs.w	lr, r5, r3
 8000906:	bf22      	ittt	cs
 8000908:	1ab6      	subcs	r6, r6, r2
 800090a:	4675      	movcs	r5, lr
 800090c:	ea40 009c 	orrcs.w	r0, r0, ip, lsr #2
 8000910:	085b      	lsrs	r3, r3, #1
 8000912:	ea4f 0232 	mov.w	r2, r2, rrx
 8000916:	ebb6 0e02 	subs.w	lr, r6, r2
 800091a:	eb75 0e03 	sbcs.w	lr, r5, r3
 800091e:	bf22      	ittt	cs
 8000920:	1ab6      	subcs	r6, r6, r2
 8000922:	4675      	movcs	r5, lr
 8000924:	ea40 00dc 	orrcs.w	r0, r0, ip, lsr #3
 8000928:	ea55 0e06 	orrs.w	lr, r5, r6
 800092c:	d018      	beq.n	8000960 <__aeabi_ddiv+0x114>
 800092e:	ea4f 1505 	mov.w	r5, r5, lsl #4
 8000932:	ea45 7516 	orr.w	r5, r5, r6, lsr #28
 8000936:	ea4f 1606 	mov.w	r6, r6, lsl #4
 800093a:	ea4f 03c3 	mov.w	r3, r3, lsl #3
 800093e:	ea43 7352 	orr.w	r3, r3, r2, lsr #29
 8000942:	ea4f 02c2 	mov.w	r2, r2, lsl #3
 8000946:	ea5f 1c1c 	movs.w	ip, ip, lsr #4
 800094a:	d1c0      	bne.n	80008ce <__aeabi_ddiv+0x82>
 800094c:	f411 1f80 	tst.w	r1, #1048576	@ 0x100000
 8000950:	d10b      	bne.n	800096a <__aeabi_ddiv+0x11e>
 8000952:	ea41 0100 	orr.w	r1, r1, r0
 8000956:	f04f 0000 	mov.w	r0, #0
 800095a:	f04f 4c00 	mov.w	ip, #2147483648	@ 0x80000000
 800095e:	e7b6      	b.n	80008ce <__aeabi_ddiv+0x82>
 8000960:	f411 1f80 	tst.w	r1, #1048576	@ 0x100000
 8000964:	bf04      	itt	eq
 8000966:	4301      	orreq	r1, r0
 8000968:	2000      	moveq	r0, #0
 800096a:	f1b4 0cfd 	subs.w	ip, r4, #253	@ 0xfd
 800096e:	bf88      	it	hi
 8000970:	f5bc 6fe0 	cmphi.w	ip, #1792	@ 0x700
 8000974:	f63f aeaf 	bhi.w	80006d6 <__aeabi_dmul+0xde>
 8000978:	ebb5 0c03 	subs.w	ip, r5, r3
 800097c:	bf04      	itt	eq
 800097e:	ebb6 0c02 	subseq.w	ip, r6, r2
 8000982:	ea5f 0c50 	movseq.w	ip, r0, lsr #1
 8000986:	f150 0000 	adcs.w	r0, r0, #0
 800098a:	eb41 5104 	adc.w	r1, r1, r4, lsl #20
 800098e:	bd70      	pop	{r4, r5, r6, pc}
 8000990:	f00e 4e00 	and.w	lr, lr, #2147483648	@ 0x80000000
 8000994:	ea4e 3111 	orr.w	r1, lr, r1, lsr #12
 8000998:	eb14 045c 	adds.w	r4, r4, ip, lsr #1
 800099c:	bfc2      	ittt	gt
 800099e:	ebd4 050c 	rsbsgt	r5, r4, ip
 80009a2:	ea41 5104 	orrgt.w	r1, r1, r4, lsl #20
 80009a6:	bd70      	popgt	{r4, r5, r6, pc}
 80009a8:	f441 1180 	orr.w	r1, r1, #1048576	@ 0x100000
 80009ac:	f04f 0e00 	mov.w	lr, #0
 80009b0:	3c01      	subs	r4, #1
 80009b2:	e690      	b.n	80006d6 <__aeabi_dmul+0xde>
 80009b4:	ea45 0e06 	orr.w	lr, r5, r6
 80009b8:	e68d      	b.n	80006d6 <__aeabi_dmul+0xde>
 80009ba:	ea0c 5513 	and.w	r5, ip, r3, lsr #20
 80009be:	ea94 0f0c 	teq	r4, ip
 80009c2:	bf08      	it	eq
 80009c4:	ea95 0f0c 	teqeq	r5, ip
 80009c8:	f43f af3b 	beq.w	8000842 <__aeabi_dmul+0x24a>
 80009cc:	ea94 0f0c 	teq	r4, ip
 80009d0:	d10a      	bne.n	80009e8 <__aeabi_ddiv+0x19c>
 80009d2:	ea50 3401 	orrs.w	r4, r0, r1, lsl #12
 80009d6:	f47f af34 	bne.w	8000842 <__aeabi_dmul+0x24a>
 80009da:	ea95 0f0c 	teq	r5, ip
 80009de:	f47f af25 	bne.w	800082c <__aeabi_dmul+0x234>
 80009e2:	4610      	mov	r0, r2
 80009e4:	4619      	mov	r1, r3
 80009e6:	e72c      	b.n	8000842 <__aeabi_dmul+0x24a>
 80009e8:	ea95 0f0c 	teq	r5, ip
 80009ec:	d106      	bne.n	80009fc <__aeabi_ddiv+0x1b0>
 80009ee:	ea52 3503 	orrs.w	r5, r2, r3, lsl #12
 80009f2:	f43f aefd 	beq.w	80007f0 <__aeabi_dmul+0x1f8>
 80009f6:	4610      	mov	r0, r2
 80009f8:	4619      	mov	r1, r3
 80009fa:	e722      	b.n	8000842 <__aeabi_dmul+0x24a>
 80009fc:	ea50 0641 	orrs.w	r6, r0, r1, lsl #1
 8000a00:	bf18      	it	ne
 8000a02:	ea52 0643 	orrsne.w	r6, r2, r3, lsl #1
 8000a06:	f47f aec5 	bne.w	8000794 <__aeabi_dmul+0x19c>
 8000a0a:	ea50 0441 	orrs.w	r4, r0, r1, lsl #1
 8000a0e:	f47f af0d 	bne.w	800082c <__aeabi_dmul+0x234>
 8000a12:	ea52 0543 	orrs.w	r5, r2, r3, lsl #1
 8000a16:	f47f aeeb 	bne.w	80007f0 <__aeabi_dmul+0x1f8>
 8000a1a:	e712      	b.n	8000842 <__aeabi_dmul+0x24a>

08000a1c <__gedf2>:
 8000a1c:	f04f 3cff 	mov.w	ip, #4294967295
 8000a20:	e006      	b.n	8000a30 <__cmpdf2+0x4>
 8000a22:	bf00      	nop

08000a24 <__ledf2>:
 8000a24:	f04f 0c01 	mov.w	ip, #1
 8000a28:	e002      	b.n	8000a30 <__cmpdf2+0x4>
 8000a2a:	bf00      	nop

08000a2c <__cmpdf2>:
 8000a2c:	f04f 0c01 	mov.w	ip, #1
 8000a30:	f84d cd04 	str.w	ip, [sp, #-4]!
 8000a34:	ea4f 0c41 	mov.w	ip, r1, lsl #1
 8000a38:	ea7f 5c6c 	mvns.w	ip, ip, asr #21
 8000a3c:	ea4f 0c43 	mov.w	ip, r3, lsl #1
 8000a40:	bf18      	it	ne
 8000a42:	ea7f 5c6c 	mvnsne.w	ip, ip, asr #21
 8000a46:	d01b      	beq.n	8000a80 <__cmpdf2+0x54>
 8000a48:	b001      	add	sp, #4
 8000a4a:	ea50 0c41 	orrs.w	ip, r0, r1, lsl #1
 8000a4e:	bf0c      	ite	eq
 8000a50:	ea52 0c43 	orrseq.w	ip, r2, r3, lsl #1
 8000a54:	ea91 0f03 	teqne	r1, r3
 8000a58:	bf02      	ittt	eq
 8000a5a:	ea90 0f02 	teqeq	r0, r2
 8000a5e:	2000      	moveq	r0, #0
 8000a60:	4770      	bxeq	lr
 8000a62:	f110 0f00 	cmn.w	r0, #0
 8000a66:	ea91 0f03 	teq	r1, r3
 8000a6a:	bf58      	it	pl
 8000a6c:	4299      	cmppl	r1, r3
 8000a6e:	bf08      	it	eq
 8000a70:	4290      	cmpeq	r0, r2
 8000a72:	bf2c      	ite	cs
 8000a74:	17d8      	asrcs	r0, r3, #31
 8000a76:	ea6f 70e3 	mvncc.w	r0, r3, asr #31
 8000a7a:	f040 0001 	orr.w	r0, r0, #1
 8000a7e:	4770      	bx	lr
 8000a80:	ea4f 0c41 	mov.w	ip, r1, lsl #1
 8000a84:	ea7f 5c6c 	mvns.w	ip, ip, asr #21
 8000a88:	d102      	bne.n	8000a90 <__cmpdf2+0x64>
 8000a8a:	ea50 3c01 	orrs.w	ip, r0, r1, lsl #12
 8000a8e:	d107      	bne.n	8000aa0 <__cmpdf2+0x74>
 8000a90:	ea4f 0c43 	mov.w	ip, r3, lsl #1
 8000a94:	ea7f 5c6c 	mvns.w	ip, ip, asr #21
 8000a98:	d1d6      	bne.n	8000a48 <__cmpdf2+0x1c>
 8000a9a:	ea52 3c03 	orrs.w	ip, r2, r3, lsl #12
 8000a9e:	d0d3      	beq.n	8000a48 <__cmpdf2+0x1c>
 8000aa0:	f85d 0b04 	ldr.w	r0, [sp], #4
 8000aa4:	4770      	bx	lr
 8000aa6:	bf00      	nop

08000aa8 <__aeabi_cdrcmple>:
 8000aa8:	4684      	mov	ip, r0
 8000aaa:	4610      	mov	r0, r2
 8000aac:	4662      	mov	r2, ip
 8000aae:	468c      	mov	ip, r1
 8000ab0:	4619      	mov	r1, r3
 8000ab2:	4663      	mov	r3, ip
 8000ab4:	e000      	b.n	8000ab8 <__aeabi_cdcmpeq>
 8000ab6:	bf00      	nop

08000ab8 <__aeabi_cdcmpeq>:
 8000ab8:	b501      	push	{r0, lr}
 8000aba:	f7ff ffb7 	bl	8000a2c <__cmpdf2>
 8000abe:	2800      	cmp	r0, #0
 8000ac0:	bf48      	it	mi
 8000ac2:	f110 0f00 	cmnmi.w	r0, #0
 8000ac6:	bd01      	pop	{r0, pc}

08000ac8 <__aeabi_dcmpeq>:
 8000ac8:	f84d ed08 	str.w	lr, [sp, #-8]!
 8000acc:	f7ff fff4 	bl	8000ab8 <__aeabi_cdcmpeq>
 8000ad0:	bf0c      	ite	eq
 8000ad2:	2001      	moveq	r0, #1
 8000ad4:	2000      	movne	r0, #0
 8000ad6:	f85d fb08 	ldr.w	pc, [sp], #8
 8000ada:	bf00      	nop

08000adc <__aeabi_dcmplt>:
 8000adc:	f84d ed08 	str.w	lr, [sp, #-8]!
 8000ae0:	f7ff ffea 	bl	8000ab8 <__aeabi_cdcmpeq>
 8000ae4:	bf34      	ite	cc
 8000ae6:	2001      	movcc	r0, #1
 8000ae8:	2000      	movcs	r0, #0
 8000aea:	f85d fb08 	ldr.w	pc, [sp], #8
 8000aee:	bf00      	nop

08000af0 <__aeabi_dcmple>:
 8000af0:	f84d ed08 	str.w	lr, [sp, #-8]!
 8000af4:	f7ff ffe0 	bl	8000ab8 <__aeabi_cdcmpeq>
 8000af8:	bf94      	ite	ls
 8000afa:	2001      	movls	r0, #1
 8000afc:	2000      	movhi	r0, #0
 8000afe:	f85d fb08 	ldr.w	pc, [sp], #8
 8000b02:	bf00      	nop

08000b04 <__aeabi_dcmpge>:
 8000b04:	f84d ed08 	str.w	lr, [sp, #-8]!
 8000b08:	f7ff ffce 	bl	8000aa8 <__aeabi_cdrcmple>
 8000b0c:	bf94      	ite	ls
 8000b0e:	2001      	movls	r0, #1
 8000b10:	2000      	movhi	r0, #0
 8000b12:	f85d fb08 	ldr.w	pc, [sp], #8
 8000b16:	bf00      	nop

08000b18 <__aeabi_dcmpgt>:
 8000b18:	f84d ed08 	str.w	lr, [sp, #-8]!
 8000b1c:	f7ff ffc4 	bl	8000aa8 <__aeabi_cdrcmple>
 8000b20:	bf34      	ite	cc
 8000b22:	2001      	movcc	r0, #1
 8000b24:	2000      	movcs	r0, #0
 8000b26:	f85d fb08 	ldr.w	pc, [sp], #8
 8000b2a:	bf00      	nop

08000b2c <__aeabi_dcmpun>:
 8000b2c:	ea4f 0c41 	mov.w	ip, r1, lsl #1
 8000b30:	ea7f 5c6c 	mvns.w	ip, ip, asr #21
 8000b34:	d102      	bne.n	8000b3c <__aeabi_dcmpun+0x10>
 8000b36:	ea50 3c01 	orrs.w	ip, r0, r1, lsl #12
 8000b3a:	d10a      	bne.n	8000b52 <__aeabi_dcmpun+0x26>
 8000b3c:	ea4f 0c43 	mov.w	ip, r3, lsl #1
 8000b40:	ea7f 5c6c 	mvns.w	ip, ip, asr #21
 8000b44:	d102      	bne.n	8000b4c <__aeabi_dcmpun+0x20>
 8000b46:	ea52 3c03 	orrs.w	ip, r2, r3, lsl #12
 8000b4a:	d102      	bne.n	8000b52 <__aeabi_dcmpun+0x26>
 8000b4c:	f04f 0000 	mov.w	r0, #0
 8000b50:	4770      	bx	lr
 8000b52:	f04f 0001 	mov.w	r0, #1
 8000b56:	4770      	bx	lr

08000b58 <__aeabi_d2iz>:
 8000b58:	ea4f 0241 	mov.w	r2, r1, lsl #1
 8000b5c:	f512 1200 	adds.w	r2, r2, #2097152	@ 0x200000
 8000b60:	d215      	bcs.n	8000b8e <__aeabi_d2iz+0x36>
 8000b62:	d511      	bpl.n	8000b88 <__aeabi_d2iz+0x30>
 8000b64:	f46f 7378 	mvn.w	r3, #992	@ 0x3e0
 8000b68:	ebb3 5262 	subs.w	r2, r3, r2, asr #21
 8000b6c:	d912      	bls.n	8000b94 <__aeabi_d2iz+0x3c>
 8000b6e:	ea4f 23c1 	mov.w	r3, r1, lsl #11
 8000b72:	f043 4300 	orr.w	r3, r3, #2147483648	@ 0x80000000
 8000b76:	ea43 5350 	orr.w	r3, r3, r0, lsr #21
 8000b7a:	f011 4f00 	tst.w	r1, #2147483648	@ 0x80000000
 8000b7e:	fa23 f002 	lsr.w	r0, r3, r2
 8000b82:	bf18      	it	ne
 8000b84:	4240      	negne	r0, r0
 8000b86:	4770      	bx	lr
 8000b88:	f04f 0000 	mov.w	r0, #0
 8000b8c:	4770      	bx	lr
 8000b8e:	ea50 3001 	orrs.w	r0, r0, r1, lsl #12
 8000b92:	d105      	bne.n	8000ba0 <__aeabi_d2iz+0x48>
 8000b94:	f011 4000 	ands.w	r0, r1, #2147483648	@ 0x80000000
 8000b98:	bf08      	it	eq
 8000b9a:	f06f 4000 	mvneq.w	r0, #2147483648	@ 0x80000000
 8000b9e:	4770      	bx	lr
 8000ba0:	f04f 0000 	mov.w	r0, #0
 8000ba4:	4770      	bx	lr
 8000ba6:	bf00      	nop

08000ba8 <__aeabi_d2f>:
 8000ba8:	ea4f 0241 	mov.w	r2, r1, lsl #1
 8000bac:	f1b2 43e0 	subs.w	r3, r2, #1879048192	@ 0x70000000
 8000bb0:	bf24      	itt	cs
 8000bb2:	f5b3 1c00 	subscs.w	ip, r3, #2097152	@ 0x200000
 8000bb6:	f1dc 5cfe 	rsbscs	ip, ip, #532676608	@ 0x1fc00000
 8000bba:	d90d      	bls.n	8000bd8 <__aeabi_d2f+0x30>
 8000bbc:	f001 4c00 	and.w	ip, r1, #2147483648	@ 0x80000000
 8000bc0:	ea4f 02c0 	mov.w	r2, r0, lsl #3
 8000bc4:	ea4c 7050 	orr.w	r0, ip, r0, lsr #29
 8000bc8:	f1b2 4f00 	cmp.w	r2, #2147483648	@ 0x80000000
 8000bcc:	eb40 0083 	adc.w	r0, r0, r3, lsl #2
 8000bd0:	bf08      	it	eq
 8000bd2:	f020 0001 	biceq.w	r0, r0, #1
 8000bd6:	4770      	bx	lr
 8000bd8:	f011 4f80 	tst.w	r1, #1073741824	@ 0x40000000
 8000bdc:	d121      	bne.n	8000c22 <__aeabi_d2f+0x7a>
 8000bde:	f113 7238 	adds.w	r2, r3, #48234496	@ 0x2e00000
 8000be2:	bfbc      	itt	lt
 8000be4:	f001 4000 	andlt.w	r0, r1, #2147483648	@ 0x80000000
 8000be8:	4770      	bxlt	lr
 8000bea:	f441 1180 	orr.w	r1, r1, #1048576	@ 0x100000
 8000bee:	ea4f 5252 	mov.w	r2, r2, lsr #21
 8000bf2:	f1c2 0218 	rsb	r2, r2, #24
 8000bf6:	f1c2 0c20 	rsb	ip, r2, #32
 8000bfa:	fa10 f30c 	lsls.w	r3, r0, ip
 8000bfe:	fa20 f002 	lsr.w	r0, r0, r2
 8000c02:	bf18      	it	ne
 8000c04:	f040 0001 	orrne.w	r0, r0, #1
 8000c08:	ea4f 23c1 	mov.w	r3, r1, lsl #11
 8000c0c:	ea4f 23d3 	mov.w	r3, r3, lsr #11
 8000c10:	fa03 fc0c 	lsl.w	ip, r3, ip
 8000c14:	ea40 000c 	orr.w	r0, r0, ip
 8000c18:	fa23 f302 	lsr.w	r3, r3, r2
 8000c1c:	ea4f 0343 	mov.w	r3, r3, lsl #1
 8000c20:	e7cc      	b.n	8000bbc <__aeabi_d2f+0x14>
 8000c22:	ea7f 5362 	mvns.w	r3, r2, asr #21
 8000c26:	d107      	bne.n	8000c38 <__aeabi_d2f+0x90>
 8000c28:	ea50 3301 	orrs.w	r3, r0, r1, lsl #12
 8000c2c:	bf1e      	ittt	ne
 8000c2e:	f04f 40fe 	movne.w	r0, #2130706432	@ 0x7f000000
 8000c32:	f440 0040 	orrne.w	r0, r0, #12582912	@ 0xc00000
 8000c36:	4770      	bxne	lr
 8000c38:	f001 4000 	and.w	r0, r1, #2147483648	@ 0x80000000
 8000c3c:	f040 40fe 	orr.w	r0, r0, #2130706432	@ 0x7f000000
 8000c40:	f440 0000 	orr.w	r0, r0, #8388608	@ 0x800000
 8000c44:	4770      	bx	lr
 8000c46:	bf00      	nop

08000c48 <__aeabi_uldivmod>:
 8000c48:	b953      	cbnz	r3, 8000c60 <__aeabi_uldivmod+0x18>
 8000c4a:	b94a      	cbnz	r2, 8000c60 <__aeabi_uldivmod+0x18>
 8000c4c:	2900      	cmp	r1, #0
 8000c4e:	bf08      	it	eq
 8000c50:	2800      	cmpeq	r0, #0
 8000c52:	bf1c      	itt	ne
 8000c54:	f04f 31ff 	movne.w	r1, #4294967295
 8000c58:	f04f 30ff 	movne.w	r0, #4294967295
 8000c5c:	f000 b96a 	b.w	8000f34 <__aeabi_idiv0>
 8000c60:	f1ad 0c08 	sub.w	ip, sp, #8
 8000c64:	e96d ce04 	strd	ip, lr, [sp, #-16]!
 8000c68:	f000 f806 	bl	8000c78 <__udivmoddi4>
 8000c6c:	f8dd e004 	ldr.w	lr, [sp, #4]
 8000c70:	e9dd 2302 	ldrd	r2, r3, [sp, #8]
 8000c74:	b004      	add	sp, #16
 8000c76:	4770      	bx	lr

08000c78 <__udivmoddi4>:
 8000c78:	e92d 47f0 	stmdb	sp!, {r4, r5, r6, r7, r8, r9, sl, lr}
 8000c7c:	9d08      	ldr	r5, [sp, #32]
 8000c7e:	460c      	mov	r4, r1
 8000c80:	2b00      	cmp	r3, #0
 8000c82:	d14e      	bne.n	8000d22 <__udivmoddi4+0xaa>
 8000c84:	4694      	mov	ip, r2
 8000c86:	458c      	cmp	ip, r1
 8000c88:	4686      	mov	lr, r0
 8000c8a:	fab2 f282 	clz	r2, r2
 8000c8e:	d962      	bls.n	8000d56 <__udivmoddi4+0xde>
 8000c90:	b14a      	cbz	r2, 8000ca6 <__udivmoddi4+0x2e>
 8000c92:	f1c2 0320 	rsb	r3, r2, #32
 8000c96:	4091      	lsls	r1, r2
 8000c98:	fa20 f303 	lsr.w	r3, r0, r3
 8000c9c:	fa0c fc02 	lsl.w	ip, ip, r2
 8000ca0:	4319      	orrs	r1, r3
 8000ca2:	fa00 fe02 	lsl.w	lr, r0, r2
 8000ca6:	ea4f 471c 	mov.w	r7, ip, lsr #16
 8000caa:	fa1f f68c 	uxth.w	r6, ip
 8000cae:	fbb1 f4f7 	udiv	r4, r1, r7
 8000cb2:	ea4f 431e 	mov.w	r3, lr, lsr #16
 8000cb6:	fb07 1114 	mls	r1, r7, r4, r1
 8000cba:	ea43 4301 	orr.w	r3, r3, r1, lsl #16
 8000cbe:	fb04 f106 	mul.w	r1, r4, r6
 8000cc2:	4299      	cmp	r1, r3
 8000cc4:	d90a      	bls.n	8000cdc <__udivmoddi4+0x64>
 8000cc6:	eb1c 0303 	adds.w	r3, ip, r3
 8000cca:	f104 30ff 	add.w	r0, r4, #4294967295
 8000cce:	f080 8112 	bcs.w	8000ef6 <__udivmoddi4+0x27e>
 8000cd2:	4299      	cmp	r1, r3
 8000cd4:	f240 810f 	bls.w	8000ef6 <__udivmoddi4+0x27e>
 8000cd8:	3c02      	subs	r4, #2
 8000cda:	4463      	add	r3, ip
 8000cdc:	1a59      	subs	r1, r3, r1
 8000cde:	fa1f f38e 	uxth.w	r3, lr
 8000ce2:	fbb1 f0f7 	udiv	r0, r1, r7
 8000ce6:	fb07 1110 	mls	r1, r7, r0, r1
 8000cea:	ea43 4301 	orr.w	r3, r3, r1, lsl #16
 8000cee:	fb00 f606 	mul.w	r6, r0, r6
 8000cf2:	429e      	cmp	r6, r3
 8000cf4:	d90a      	bls.n	8000d0c <__udivmoddi4+0x94>
 8000cf6:	eb1c 0303 	adds.w	r3, ip, r3
 8000cfa:	f100 31ff 	add.w	r1, r0, #4294967295
 8000cfe:	f080 80fc 	bcs.w	8000efa <__udivmoddi4+0x282>
 8000d02:	429e      	cmp	r6, r3
 8000d04:	f240 80f9 	bls.w	8000efa <__udivmoddi4+0x282>
 8000d08:	4463      	add	r3, ip
 8000d0a:	3802      	subs	r0, #2
 8000d0c:	1b9b      	subs	r3, r3, r6
 8000d0e:	ea40 4004 	orr.w	r0, r0, r4, lsl #16
 8000d12:	2100      	movs	r1, #0
 8000d14:	b11d      	cbz	r5, 8000d1e <__udivmoddi4+0xa6>
 8000d16:	40d3      	lsrs	r3, r2
 8000d18:	2200      	movs	r2, #0
 8000d1a:	e9c5 3200 	strd	r3, r2, [r5]
 8000d1e:	e8bd 87f0 	ldmia.w	sp!, {r4, r5, r6, r7, r8, r9, sl, pc}
 8000d22:	428b      	cmp	r3, r1
 8000d24:	d905      	bls.n	8000d32 <__udivmoddi4+0xba>
 8000d26:	b10d      	cbz	r5, 8000d2c <__udivmoddi4+0xb4>
 8000d28:	e9c5 0100 	strd	r0, r1, [r5]
 8000d2c:	2100      	movs	r1, #0
 8000d2e:	4608      	mov	r0, r1
 8000d30:	e7f5      	b.n	8000d1e <__udivmoddi4+0xa6>
 8000d32:	fab3 f183 	clz	r1, r3
 8000d36:	2900      	cmp	r1, #0
 8000d38:	d146      	bne.n	8000dc8 <__udivmoddi4+0x150>
 8000d3a:	42a3      	cmp	r3, r4
 8000d3c:	d302      	bcc.n	8000d44 <__udivmoddi4+0xcc>
 8000d3e:	4290      	cmp	r0, r2
 8000d40:	f0c0 80f0 	bcc.w	8000f24 <__udivmoddi4+0x2ac>
 8000d44:	1a86      	subs	r6, r0, r2
 8000d46:	eb64 0303 	sbc.w	r3, r4, r3
 8000d4a:	2001      	movs	r0, #1
 8000d4c:	2d00      	cmp	r5, #0
 8000d4e:	d0e6      	beq.n	8000d1e <__udivmoddi4+0xa6>
 8000d50:	e9c5 6300 	strd	r6, r3, [r5]
 8000d54:	e7e3      	b.n	8000d1e <__udivmoddi4+0xa6>
 8000d56:	2a00      	cmp	r2, #0
 8000d58:	f040 8090 	bne.w	8000e7c <__udivmoddi4+0x204>
 8000d5c:	eba1 040c 	sub.w	r4, r1, ip
 8000d60:	ea4f 481c 	mov.w	r8, ip, lsr #16
 8000d64:	fa1f f78c 	uxth.w	r7, ip
 8000d68:	2101      	movs	r1, #1
 8000d6a:	fbb4 f6f8 	udiv	r6, r4, r8
 8000d6e:	ea4f 431e 	mov.w	r3, lr, lsr #16
 8000d72:	fb08 4416 	mls	r4, r8, r6, r4
 8000d76:	ea43 4304 	orr.w	r3, r3, r4, lsl #16
 8000d7a:	fb07 f006 	mul.w	r0, r7, r6
 8000d7e:	4298      	cmp	r0, r3
 8000d80:	d908      	bls.n	8000d94 <__udivmoddi4+0x11c>
 8000d82:	eb1c 0303 	adds.w	r3, ip, r3
 8000d86:	f106 34ff 	add.w	r4, r6, #4294967295
 8000d8a:	d202      	bcs.n	8000d92 <__udivmoddi4+0x11a>
 8000d8c:	4298      	cmp	r0, r3
 8000d8e:	f200 80cd 	bhi.w	8000f2c <__udivmoddi4+0x2b4>
 8000d92:	4626      	mov	r6, r4
 8000d94:	1a1c      	subs	r4, r3, r0
 8000d96:	fa1f f38e 	uxth.w	r3, lr
 8000d9a:	fbb4 f0f8 	udiv	r0, r4, r8
 8000d9e:	fb08 4410 	mls	r4, r8, r0, r4
 8000da2:	ea43 4304 	orr.w	r3, r3, r4, lsl #16
 8000da6:	fb00 f707 	mul.w	r7, r0, r7
 8000daa:	429f      	cmp	r7, r3
 8000dac:	d908      	bls.n	8000dc0 <__udivmoddi4+0x148>
 8000dae:	eb1c 0303 	adds.w	r3, ip, r3
 8000db2:	f100 34ff 	add.w	r4, r0, #4294967295
 8000db6:	d202      	bcs.n	8000dbe <__udivmoddi4+0x146>
 8000db8:	429f      	cmp	r7, r3
 8000dba:	f200 80b0 	bhi.w	8000f1e <__udivmoddi4+0x2a6>
 8000dbe:	4620      	mov	r0, r4
 8000dc0:	1bdb      	subs	r3, r3, r7
 8000dc2:	ea40 4006 	orr.w	r0, r0, r6, lsl #16
 8000dc6:	e7a5      	b.n	8000d14 <__udivmoddi4+0x9c>
 8000dc8:	f1c1 0620 	rsb	r6, r1, #32
 8000dcc:	408b      	lsls	r3, r1
 8000dce:	fa22 f706 	lsr.w	r7, r2, r6
 8000dd2:	431f      	orrs	r7, r3
 8000dd4:	fa20 fc06 	lsr.w	ip, r0, r6
 8000dd8:	fa04 f301 	lsl.w	r3, r4, r1
 8000ddc:	ea43 030c 	orr.w	r3, r3, ip
 8000de0:	40f4      	lsrs	r4, r6
 8000de2:	fa00 f801 	lsl.w	r8, r0, r1
 8000de6:	0c38      	lsrs	r0, r7, #16
 8000de8:	ea4f 4913 	mov.w	r9, r3, lsr #16
 8000dec:	fbb4 fef0 	udiv	lr, r4, r0
 8000df0:	fa1f fc87 	uxth.w	ip, r7
 8000df4:	fb00 441e 	mls	r4, r0, lr, r4
 8000df8:	ea49 4404 	orr.w	r4, r9, r4, lsl #16
 8000dfc:	fb0e f90c 	mul.w	r9, lr, ip
 8000e00:	45a1      	cmp	r9, r4
 8000e02:	fa02 f201 	lsl.w	r2, r2, r1
 8000e06:	d90a      	bls.n	8000e1e <__udivmoddi4+0x1a6>
 8000e08:	193c      	adds	r4, r7, r4
 8000e0a:	f10e 3aff 	add.w	sl, lr, #4294967295
 8000e0e:	f080 8084 	bcs.w	8000f1a <__udivmoddi4+0x2a2>
 8000e12:	45a1      	cmp	r9, r4
 8000e14:	f240 8081 	bls.w	8000f1a <__udivmoddi4+0x2a2>
 8000e18:	f1ae 0e02 	sub.w	lr, lr, #2
 8000e1c:	443c      	add	r4, r7
 8000e1e:	eba4 0409 	sub.w	r4, r4, r9
 8000e22:	fa1f f983 	uxth.w	r9, r3
 8000e26:	fbb4 f3f0 	udiv	r3, r4, r0
 8000e2a:	fb00 4413 	mls	r4, r0, r3, r4
 8000e2e:	ea49 4404 	orr.w	r4, r9, r4, lsl #16
 8000e32:	fb03 fc0c 	mul.w	ip, r3, ip
 8000e36:	45a4      	cmp	ip, r4
 8000e38:	d907      	bls.n	8000e4a <__udivmoddi4+0x1d2>
 8000e3a:	193c      	adds	r4, r7, r4
 8000e3c:	f103 30ff 	add.w	r0, r3, #4294967295
 8000e40:	d267      	bcs.n	8000f12 <__udivmoddi4+0x29a>
 8000e42:	45a4      	cmp	ip, r4
 8000e44:	d965      	bls.n	8000f12 <__udivmoddi4+0x29a>
 8000e46:	3b02      	subs	r3, #2
 8000e48:	443c      	add	r4, r7
 8000e4a:	ea43 400e 	orr.w	r0, r3, lr, lsl #16
 8000e4e:	fba0 9302 	umull	r9, r3, r0, r2
 8000e52:	eba4 040c 	sub.w	r4, r4, ip
 8000e56:	429c      	cmp	r4, r3
 8000e58:	46ce      	mov	lr, r9
 8000e5a:	469c      	mov	ip, r3
 8000e5c:	d351      	bcc.n	8000f02 <__udivmoddi4+0x28a>
 8000e5e:	d04e      	beq.n	8000efe <__udivmoddi4+0x286>
 8000e60:	b155      	cbz	r5, 8000e78 <__udivmoddi4+0x200>
 8000e62:	ebb8 030e 	subs.w	r3, r8, lr
 8000e66:	eb64 040c 	sbc.w	r4, r4, ip
 8000e6a:	fa04 f606 	lsl.w	r6, r4, r6
 8000e6e:	40cb      	lsrs	r3, r1
 8000e70:	431e      	orrs	r6, r3
 8000e72:	40cc      	lsrs	r4, r1
 8000e74:	e9c5 6400 	strd	r6, r4, [r5]
 8000e78:	2100      	movs	r1, #0
 8000e7a:	e750      	b.n	8000d1e <__udivmoddi4+0xa6>
 8000e7c:	f1c2 0320 	rsb	r3, r2, #32
 8000e80:	fa20 f103 	lsr.w	r1, r0, r3
 8000e84:	fa0c fc02 	lsl.w	ip, ip, r2
 8000e88:	fa24 f303 	lsr.w	r3, r4, r3
 8000e8c:	4094      	lsls	r4, r2
 8000e8e:	430c      	orrs	r4, r1
 8000e90:	ea4f 481c 	mov.w	r8, ip, lsr #16
 8000e94:	fa00 fe02 	lsl.w	lr, r0, r2
 8000e98:	fa1f f78c 	uxth.w	r7, ip
 8000e9c:	fbb3 f0f8 	udiv	r0, r3, r8
 8000ea0:	fb08 3110 	mls	r1, r8, r0, r3
 8000ea4:	0c23      	lsrs	r3, r4, #16
 8000ea6:	ea43 4301 	orr.w	r3, r3, r1, lsl #16
 8000eaa:	fb00 f107 	mul.w	r1, r0, r7
 8000eae:	4299      	cmp	r1, r3
 8000eb0:	d908      	bls.n	8000ec4 <__udivmoddi4+0x24c>
 8000eb2:	eb1c 0303 	adds.w	r3, ip, r3
 8000eb6:	f100 36ff 	add.w	r6, r0, #4294967295
 8000eba:	d22c      	bcs.n	8000f16 <__udivmoddi4+0x29e>
 8000ebc:	4299      	cmp	r1, r3
 8000ebe:	d92a      	bls.n	8000f16 <__udivmoddi4+0x29e>
 8000ec0:	3802      	subs	r0, #2
 8000ec2:	4463      	add	r3, ip
 8000ec4:	1a5b      	subs	r3, r3, r1
 8000ec6:	b2a4      	uxth	r4, r4
 8000ec8:	fbb3 f1f8 	udiv	r1, r3, r8
 8000ecc:	fb08 3311 	mls	r3, r8, r1, r3
 8000ed0:	ea44 4403 	orr.w	r4, r4, r3, lsl #16
 8000ed4:	fb01 f307 	mul.w	r3, r1, r7
 8000ed8:	42a3      	cmp	r3, r4
 8000eda:	d908      	bls.n	8000eee <__udivmoddi4+0x276>
 8000edc:	eb1c 0404 	adds.w	r4, ip, r4
 8000ee0:	f101 36ff 	add.w	r6, r1, #4294967295
 8000ee4:	d213      	bcs.n	8000f0e <__udivmoddi4+0x296>
 8000ee6:	42a3      	cmp	r3, r4
 8000ee8:	d911      	bls.n	8000f0e <__udivmoddi4+0x296>
 8000eea:	3902      	subs	r1, #2
 8000eec:	4464      	add	r4, ip
 8000eee:	1ae4      	subs	r4, r4, r3
 8000ef0:	ea41 4100 	orr.w	r1, r1, r0, lsl #16
 8000ef4:	e739      	b.n	8000d6a <__udivmoddi4+0xf2>
 8000ef6:	4604      	mov	r4, r0
 8000ef8:	e6f0      	b.n	8000cdc <__udivmoddi4+0x64>
 8000efa:	4608      	mov	r0, r1
 8000efc:	e706      	b.n	8000d0c <__udivmoddi4+0x94>
 8000efe:	45c8      	cmp	r8, r9
 8000f00:	d2ae      	bcs.n	8000e60 <__udivmoddi4+0x1e8>
 8000f02:	ebb9 0e02 	subs.w	lr, r9, r2
 8000f06:	eb63 0c07 	sbc.w	ip, r3, r7
 8000f0a:	3801      	subs	r0, #1
 8000f0c:	e7a8      	b.n	8000e60 <__udivmoddi4+0x1e8>
 8000f0e:	4631      	mov	r1, r6
 8000f10:	e7ed      	b.n	8000eee <__udivmoddi4+0x276>
 8000f12:	4603      	mov	r3, r0
 8000f14:	e799      	b.n	8000e4a <__udivmoddi4+0x1d2>
 8000f16:	4630      	mov	r0, r6
 8000f18:	e7d4      	b.n	8000ec4 <__udivmoddi4+0x24c>
 8000f1a:	46d6      	mov	lr, sl
 8000f1c:	e77f      	b.n	8000e1e <__udivmoddi4+0x1a6>
 8000f1e:	4463      	add	r3, ip
 8000f20:	3802      	subs	r0, #2
 8000f22:	e74d      	b.n	8000dc0 <__udivmoddi4+0x148>
 8000f24:	4606      	mov	r6, r0
 8000f26:	4623      	mov	r3, r4
 8000f28:	4608      	mov	r0, r1
 8000f2a:	e70f      	b.n	8000d4c <__udivmoddi4+0xd4>
 8000f2c:	3e02      	subs	r6, #2
 8000f2e:	4463      	add	r3, ip
 8000f30:	e730      	b.n	8000d94 <__udivmoddi4+0x11c>
 8000f32:	bf00      	nop

08000f34 <__aeabi_idiv0>:
 8000f34:	4770      	bx	lr
 8000f36:	bf00      	nop

08000f38 <lcd10usDelay>:
}
#endif /* USE_BUSY_FLAG */

/*!	\brief	Creates delay multiples of 10us. */
static void lcd10usDelay(volatile uint32_t us)
{
 8000f38:	b480      	push	{r7}
 8000f3a:	b083      	sub	sp, #12
 8000f3c:	af00      	add	r7, sp, #0
 8000f3e:	6078      	str	r0, [r7, #4]
	/* onversion to us */
	us *= MCU_FREQ_VALUE;
 8000f40:	4b0b      	ldr	r3, [pc, #44]	@ (8000f70 <lcd10usDelay+0x38>)
 8000f42:	681b      	ldr	r3, [r3, #0]
 8000f44:	4a0b      	ldr	r2, [pc, #44]	@ (8000f74 <lcd10usDelay+0x3c>)
 8000f46:	fba2 2303 	umull	r2, r3, r2, r3
 8000f4a:	0c9b      	lsrs	r3, r3, #18
 8000f4c:	687a      	ldr	r2, [r7, #4]
 8000f4e:	fb02 f303 	mul.w	r3, r2, r3
 8000f52:	607b      	str	r3, [r7, #4]
	/* Wait */
	while (us > 0u)
 8000f54:	e002      	b.n	8000f5c <lcd10usDelay+0x24>
	{
		us--;
 8000f56:	687b      	ldr	r3, [r7, #4]
 8000f58:	3b01      	subs	r3, #1
 8000f5a:	607b      	str	r3, [r7, #4]
	while (us > 0u)
 8000f5c:	687b      	ldr	r3, [r7, #4]
 8000f5e:	2b00      	cmp	r3, #0
 8000f60:	d1f9      	bne.n	8000f56 <lcd10usDelay+0x1e>
	}
}
 8000f62:	bf00      	nop
 8000f64:	bf00      	nop
 8000f66:	370c      	adds	r7, #12
 8000f68:	46bd      	mov	sp, r7
 8000f6a:	f85d 7b04 	ldr.w	r7, [sp], #4
 8000f6e:	4770      	bx	lr
 8000f70:	2000000c 	.word	0x2000000c
 8000f74:	431bde83 	.word	0x431bde83

08000f78 <lcdStrobe>:

/*!	\brief	Initiate the transfer of data/commands to LCD. */
static void lcdStrobe(void)
{/* Low level function. */
 8000f78:	b580      	push	{r7, lr}
 8000f7a:	af00      	add	r7, sp, #0
	SET(LCD_E_OUT, LCD_E);
 8000f7c:	4b08      	ldr	r3, [pc, #32]	@ (8000fa0 <lcdStrobe+0x28>)
 8000f7e:	695b      	ldr	r3, [r3, #20]
 8000f80:	4a07      	ldr	r2, [pc, #28]	@ (8000fa0 <lcdStrobe+0x28>)
 8000f82:	f443 6300 	orr.w	r3, r3, #2048	@ 0x800
 8000f86:	6153      	str	r3, [r2, #20]
	lcd10usDelay(ENABLE_CYCLE_TIME);
 8000f88:	2001      	movs	r0, #1
 8000f8a:	f7ff ffd5 	bl	8000f38 <lcd10usDelay>
	CLR(LCD_E_OUT, LCD_E);	/* Enable strobe */
 8000f8e:	4b04      	ldr	r3, [pc, #16]	@ (8000fa0 <lcdStrobe+0x28>)
 8000f90:	695b      	ldr	r3, [r3, #20]
 8000f92:	4a03      	ldr	r2, [pc, #12]	@ (8000fa0 <lcdStrobe+0x28>)
 8000f94:	f423 6300 	bic.w	r3, r3, #2048	@ 0x800
 8000f98:	6153      	str	r3, [r2, #20]
}
 8000f9a:	bf00      	nop
 8000f9c:	bd80      	pop	{r7, pc}
 8000f9e:	bf00      	nop
 8000fa0:	40021000 	.word	0x40021000

08000fa4 <lcdHigh>:

/*!	\brief	Send the msb nibble of the data / command to LCD. */
static void lcdHigh(uint8_t data)
{/* Low level function. */
 8000fa4:	b480      	push	{r7}
 8000fa6:	b083      	sub	sp, #12
 8000fa8:	af00      	add	r7, sp, #0
 8000faa:	4603      	mov	r3, r0
 8000fac:	71fb      	strb	r3, [r7, #7]
	if(data & LCD_D7_MASK) SET(LCD_D7_OUT, LCD_D7); else CLR(LCD_D7_OUT, LCD_D7);
 8000fae:	f997 3007 	ldrsb.w	r3, [r7, #7]
 8000fb2:	2b00      	cmp	r3, #0
 8000fb4:	da06      	bge.n	8000fc4 <lcdHigh+0x20>
 8000fb6:	4b24      	ldr	r3, [pc, #144]	@ (8001048 <lcdHigh+0xa4>)
 8000fb8:	695b      	ldr	r3, [r3, #20]
 8000fba:	4a23      	ldr	r2, [pc, #140]	@ (8001048 <lcdHigh+0xa4>)
 8000fbc:	f443 4300 	orr.w	r3, r3, #32768	@ 0x8000
 8000fc0:	6153      	str	r3, [r2, #20]
 8000fc2:	e005      	b.n	8000fd0 <lcdHigh+0x2c>
 8000fc4:	4b20      	ldr	r3, [pc, #128]	@ (8001048 <lcdHigh+0xa4>)
 8000fc6:	695b      	ldr	r3, [r3, #20]
 8000fc8:	4a1f      	ldr	r2, [pc, #124]	@ (8001048 <lcdHigh+0xa4>)
 8000fca:	f423 4300 	bic.w	r3, r3, #32768	@ 0x8000
 8000fce:	6153      	str	r3, [r2, #20]
	if(data & LCD_D6_MASK) SET(LCD_D6_OUT, LCD_D6); else CLR(LCD_D6_OUT, LCD_D6);
 8000fd0:	79fb      	ldrb	r3, [r7, #7]
 8000fd2:	f003 0340 	and.w	r3, r3, #64	@ 0x40
 8000fd6:	2b00      	cmp	r3, #0
 8000fd8:	d006      	beq.n	8000fe8 <lcdHigh+0x44>
 8000fda:	4b1b      	ldr	r3, [pc, #108]	@ (8001048 <lcdHigh+0xa4>)
 8000fdc:	695b      	ldr	r3, [r3, #20]
 8000fde:	4a1a      	ldr	r2, [pc, #104]	@ (8001048 <lcdHigh+0xa4>)
 8000fe0:	f443 4380 	orr.w	r3, r3, #16384	@ 0x4000
 8000fe4:	6153      	str	r3, [r2, #20]
 8000fe6:	e005      	b.n	8000ff4 <lcdHigh+0x50>
 8000fe8:	4b17      	ldr	r3, [pc, #92]	@ (8001048 <lcdHigh+0xa4>)
 8000fea:	695b      	ldr	r3, [r3, #20]
 8000fec:	4a16      	ldr	r2, [pc, #88]	@ (8001048 <lcdHigh+0xa4>)
 8000fee:	f423 4380 	bic.w	r3, r3, #16384	@ 0x4000
 8000ff2:	6153      	str	r3, [r2, #20]
	if(data & LCD_D5_MASK) SET(LCD_D5_OUT, LCD_D5); else CLR(LCD_D5_OUT, LCD_D5);
 8000ff4:	79fb      	ldrb	r3, [r7, #7]
 8000ff6:	f003 0320 	and.w	r3, r3, #32
 8000ffa:	2b00      	cmp	r3, #0
 8000ffc:	d006      	beq.n	800100c <lcdHigh+0x68>
 8000ffe:	4b12      	ldr	r3, [pc, #72]	@ (8001048 <lcdHigh+0xa4>)
 8001000:	695b      	ldr	r3, [r3, #20]
 8001002:	4a11      	ldr	r2, [pc, #68]	@ (8001048 <lcdHigh+0xa4>)
 8001004:	f443 5300 	orr.w	r3, r3, #8192	@ 0x2000
 8001008:	6153      	str	r3, [r2, #20]
 800100a:	e005      	b.n	8001018 <lcdHigh+0x74>
 800100c:	4b0e      	ldr	r3, [pc, #56]	@ (8001048 <lcdHigh+0xa4>)
 800100e:	695b      	ldr	r3, [r3, #20]
 8001010:	4a0d      	ldr	r2, [pc, #52]	@ (8001048 <lcdHigh+0xa4>)
 8001012:	f423 5300 	bic.w	r3, r3, #8192	@ 0x2000
 8001016:	6153      	str	r3, [r2, #20]
	if(data & LCD_D4_MASK) SET(LCD_D4_OUT, LCD_D4); else CLR(LCD_D4_OUT, LCD_D4);
 8001018:	79fb      	ldrb	r3, [r7, #7]
 800101a:	f003 0310 	and.w	r3, r3, #16
 800101e:	2b00      	cmp	r3, #0
 8001020:	d006      	beq.n	8001030 <lcdHigh+0x8c>
 8001022:	4b09      	ldr	r3, [pc, #36]	@ (8001048 <lcdHigh+0xa4>)
 8001024:	695b      	ldr	r3, [r3, #20]
 8001026:	4a08      	ldr	r2, [pc, #32]	@ (8001048 <lcdHigh+0xa4>)
 8001028:	f443 5380 	orr.w	r3, r3, #4096	@ 0x1000
 800102c:	6153      	str	r3, [r2, #20]
}
 800102e:	e005      	b.n	800103c <lcdHigh+0x98>
	if(data & LCD_D4_MASK) SET(LCD_D4_OUT, LCD_D4); else CLR(LCD_D4_OUT, LCD_D4);
 8001030:	4b05      	ldr	r3, [pc, #20]	@ (8001048 <lcdHigh+0xa4>)
 8001032:	695b      	ldr	r3, [r3, #20]
 8001034:	4a04      	ldr	r2, [pc, #16]	@ (8001048 <lcdHigh+0xa4>)
 8001036:	f423 5380 	bic.w	r3, r3, #4096	@ 0x1000
 800103a:	6153      	str	r3, [r2, #20]
}
 800103c:	bf00      	nop
 800103e:	370c      	adds	r7, #12
 8001040:	46bd      	mov	sp, r7
 8001042:	f85d 7b04 	ldr.w	r7, [sp], #4
 8001046:	4770      	bx	lr
 8001048:	40021000 	.word	0x40021000

0800104c <lcdLow>:

/*!	\brief	Send the lsb nibble of the data / command to LCD. */
static void lcdLow(uint8_t data)
{/* Low level function. */
 800104c:	b480      	push	{r7}
 800104e:	b083      	sub	sp, #12
 8001050:	af00      	add	r7, sp, #0
 8001052:	4603      	mov	r3, r0
 8001054:	71fb      	strb	r3, [r7, #7]
	if(data & LCD_D3_MASK) SET(LCD_D7_OUT, LCD_D7); else CLR(LCD_D7_OUT, LCD_D7);
 8001056:	79fb      	ldrb	r3, [r7, #7]
 8001058:	f003 0308 	and.w	r3, r3, #8
 800105c:	2b00      	cmp	r3, #0
 800105e:	d006      	beq.n	800106e <lcdLow+0x22>
 8001060:	4b24      	ldr	r3, [pc, #144]	@ (80010f4 <lcdLow+0xa8>)
 8001062:	695b      	ldr	r3, [r3, #20]
 8001064:	4a23      	ldr	r2, [pc, #140]	@ (80010f4 <lcdLow+0xa8>)
 8001066:	f443 4300 	orr.w	r3, r3, #32768	@ 0x8000
 800106a:	6153      	str	r3, [r2, #20]
 800106c:	e005      	b.n	800107a <lcdLow+0x2e>
 800106e:	4b21      	ldr	r3, [pc, #132]	@ (80010f4 <lcdLow+0xa8>)
 8001070:	695b      	ldr	r3, [r3, #20]
 8001072:	4a20      	ldr	r2, [pc, #128]	@ (80010f4 <lcdLow+0xa8>)
 8001074:	f423 4300 	bic.w	r3, r3, #32768	@ 0x8000
 8001078:	6153      	str	r3, [r2, #20]
	if(data & LCD_D2_MASK) SET(LCD_D6_OUT, LCD_D6); else CLR(LCD_D6_OUT, LCD_D6);
 800107a:	79fb      	ldrb	r3, [r7, #7]
 800107c:	f003 0304 	and.w	r3, r3, #4
 8001080:	2b00      	cmp	r3, #0
 8001082:	d006      	beq.n	8001092 <lcdLow+0x46>
 8001084:	4b1b      	ldr	r3, [pc, #108]	@ (80010f4 <lcdLow+0xa8>)
 8001086:	695b      	ldr	r3, [r3, #20]
 8001088:	4a1a      	ldr	r2, [pc, #104]	@ (80010f4 <lcdLow+0xa8>)
 800108a:	f443 4380 	orr.w	r3, r3, #16384	@ 0x4000
 800108e:	6153      	str	r3, [r2, #20]
 8001090:	e005      	b.n	800109e <lcdLow+0x52>
 8001092:	4b18      	ldr	r3, [pc, #96]	@ (80010f4 <lcdLow+0xa8>)
 8001094:	695b      	ldr	r3, [r3, #20]
 8001096:	4a17      	ldr	r2, [pc, #92]	@ (80010f4 <lcdLow+0xa8>)
 8001098:	f423 4380 	bic.w	r3, r3, #16384	@ 0x4000
 800109c:	6153      	str	r3, [r2, #20]
	if(data & LCD_D1_MASK) SET(LCD_D5_OUT, LCD_D5); else CLR(LCD_D5_OUT, LCD_D5);
 800109e:	79fb      	ldrb	r3, [r7, #7]
 80010a0:	f003 0302 	and.w	r3, r3, #2
 80010a4:	2b00      	cmp	r3, #0
 80010a6:	d006      	beq.n	80010b6 <lcdLow+0x6a>
 80010a8:	4b12      	ldr	r3, [pc, #72]	@ (80010f4 <lcdLow+0xa8>)
 80010aa:	695b      	ldr	r3, [r3, #20]
 80010ac:	4a11      	ldr	r2, [pc, #68]	@ (80010f4 <lcdLow+0xa8>)
 80010ae:	f443 5300 	orr.w	r3, r3, #8192	@ 0x2000
 80010b2:	6153      	str	r3, [r2, #20]
 80010b4:	e005      	b.n	80010c2 <lcdLow+0x76>
 80010b6:	4b0f      	ldr	r3, [pc, #60]	@ (80010f4 <lcdLow+0xa8>)
 80010b8:	695b      	ldr	r3, [r3, #20]
 80010ba:	4a0e      	ldr	r2, [pc, #56]	@ (80010f4 <lcdLow+0xa8>)
 80010bc:	f423 5300 	bic.w	r3, r3, #8192	@ 0x2000
 80010c0:	6153      	str	r3, [r2, #20]
	if(data & LCD_D0_MASK) SET(LCD_D4_OUT, LCD_D4); else CLR(LCD_D4_OUT, LCD_D4);
 80010c2:	79fb      	ldrb	r3, [r7, #7]
 80010c4:	f003 0301 	and.w	r3, r3, #1
 80010c8:	2b00      	cmp	r3, #0
 80010ca:	d006      	beq.n	80010da <lcdLow+0x8e>
 80010cc:	4b09      	ldr	r3, [pc, #36]	@ (80010f4 <lcdLow+0xa8>)
 80010ce:	695b      	ldr	r3, [r3, #20]
 80010d0:	4a08      	ldr	r2, [pc, #32]	@ (80010f4 <lcdLow+0xa8>)
 80010d2:	f443 5380 	orr.w	r3, r3, #4096	@ 0x1000
 80010d6:	6153      	str	r3, [r2, #20]
}
 80010d8:	e005      	b.n	80010e6 <lcdLow+0x9a>
	if(data & LCD_D0_MASK) SET(LCD_D4_OUT, LCD_D4); else CLR(LCD_D4_OUT, LCD_D4);
 80010da:	4b06      	ldr	r3, [pc, #24]	@ (80010f4 <lcdLow+0xa8>)
 80010dc:	695b      	ldr	r3, [r3, #20]
 80010de:	4a05      	ldr	r2, [pc, #20]	@ (80010f4 <lcdLow+0xa8>)
 80010e0:	f423 5380 	bic.w	r3, r3, #4096	@ 0x1000
 80010e4:	6153      	str	r3, [r2, #20]
}
 80010e6:	bf00      	nop
 80010e8:	370c      	adds	r7, #12
 80010ea:	46bd      	mov	sp, r7
 80010ec:	f85d 7b04 	ldr.w	r7, [sp], #4
 80010f0:	4770      	bx	lr
 80010f2:	bf00      	nop
 80010f4:	40021000 	.word	0x40021000

080010f8 <lcdWrite>:

/*!	\brief	Send data/commands to the display. */
static void lcdWrite(uint8_t data)
{/* Low level function. */
 80010f8:	b580      	push	{r7, lr}
 80010fa:	b082      	sub	sp, #8
 80010fc:	af00      	add	r7, sp, #0
 80010fe:	4603      	mov	r3, r0
 8001100:	71fb      	strb	r3, [r7, #7]
#if (USE_BUSY_FLAG)
	/* Write data/commands to LCD. */
	CLR(LCD_RW_OUT, LCD_RW);
#endif /* USE_BUSY_FLAG */

	lcdHigh(data);
 8001102:	79fb      	ldrb	r3, [r7, #7]
 8001104:	4618      	mov	r0, r3
 8001106:	f7ff ff4d 	bl	8000fa4 <lcdHigh>
	lcdStrobe();
 800110a:	f7ff ff35 	bl	8000f78 <lcdStrobe>
	lcdLow(data);
 800110e:	79fb      	ldrb	r3, [r7, #7]
 8001110:	4618      	mov	r0, r3
 8001112:	f7ff ff9b 	bl	800104c <lcdLow>
	lcdStrobe();
 8001116:	f7ff ff2f 	bl	8000f78 <lcdStrobe>

	/* The busy flag must be checked after the 4-bit data has been transferred twice. */
#if (USE_BUSY_FLAG)
	lcd_busy_delay();
#else
	lcd10usDelay(BUSY_CYCLE_TIME);
 800111a:	2005      	movs	r0, #5
 800111c:	f7ff ff0c 	bl	8000f38 <lcd10usDelay>
#endif /* USE_BUSY_FLAG */
}
 8001120:	bf00      	nop
 8001122:	3708      	adds	r7, #8
 8001124:	46bd      	mov	sp, r7
 8001126:	bd80      	pop	{r7, pc}

08001128 <lcdConfig>:

/*!	\brief	Initializing by instruction. 4-bit interface initialization. */
static void lcdConfig(uint8_t param)
{/* Low level function. */
 8001128:	b580      	push	{r7, lr}
 800112a:	b082      	sub	sp, #8
 800112c:	af00      	add	r7, sp, #0
 800112e:	4603      	mov	r3, r0
 8001130:	71fb      	strb	r3, [r7, #7]
	/* Send commands to LCD. */
	CLR(LCD_RS_OUT, LCD_RS);
 8001132:	4b10      	ldr	r3, [pc, #64]	@ (8001174 <lcdConfig+0x4c>)
 8001134:	695b      	ldr	r3, [r3, #20]
 8001136:	4a0f      	ldr	r2, [pc, #60]	@ (8001174 <lcdConfig+0x4c>)
 8001138:	f023 0380 	bic.w	r3, r3, #128	@ 0x80
 800113c:	6153      	str	r3, [r2, #20]
#if (USE_BUSY_FLAG)
	/* Write data/commands to LCD. */
	CLR(LCD_RW_OUT, LCD_RW);
#endif /* USE_BUSY_FLAG */

	lcdHigh(param);
 800113e:	79fb      	ldrb	r3, [r7, #7]
 8001140:	4618      	mov	r0, r3
 8001142:	f7ff ff2f 	bl	8000fa4 <lcdHigh>
	lcdStrobe();		// Change 8-bit interface to 4-bit interface
 8001146:	f7ff ff17 	bl	8000f78 <lcdStrobe>
	lcd10usDelay(BUSY_CYCLE_TIME);
 800114a:	2005      	movs	r0, #5
 800114c:	f7ff fef4 	bl	8000f38 <lcd10usDelay>
	lcdStrobe();		/* DB7 to DB4 of the "Function set" instruction is written twice. */
 8001150:	f7ff ff12 	bl	8000f78 <lcdStrobe>
	lcd10usDelay(BUSY_CYCLE_TIME);
 8001154:	2005      	movs	r0, #5
 8001156:	f7ff feef 	bl	8000f38 <lcd10usDelay>
	lcdLow(param);
 800115a:	79fb      	ldrb	r3, [r7, #7]
 800115c:	4618      	mov	r0, r3
 800115e:	f7ff ff75 	bl	800104c <lcdLow>
	lcdStrobe();		// 4-bit, two lines, 5x8 pixel
 8001162:	f7ff ff09 	bl	8000f78 <lcdStrobe>
	lcd10usDelay(BUSY_CYCLE_TIME);
 8001166:	2005      	movs	r0, #5
 8001168:	f7ff fee6 	bl	8000f38 <lcd10usDelay>
	/* Note: The number of display lines and character font cannot be changed after this point. */
}
 800116c:	bf00      	nop
 800116e:	3708      	adds	r7, #8
 8001170:	46bd      	mov	sp, r7
 8001172:	bd80      	pop	{r7, pc}
 8001174:	40021000 	.word	0x40021000

08001178 <lcdClrScr>:
 * 				and returns the display to its original status if it was shifted.
 * 				In other words, the display disappears and the cursor
 * 				or blinking goes to the left edge of the display (in the first line if 2 lines are displayed).
 * 				It also sets I/D to 1 (increment mode) in entry mode (S of entry mode does not change). */
void lcdClrScr(void)
{
 8001178:	b580      	push	{r7, lr}
 800117a:	af00      	add	r7, sp, #0
	/* Send a command to LCD. */
	CLR(LCD_RS_OUT, LCD_RS);
 800117c:	4b06      	ldr	r3, [pc, #24]	@ (8001198 <lcdClrScr+0x20>)
 800117e:	695b      	ldr	r3, [r3, #20]
 8001180:	4a05      	ldr	r2, [pc, #20]	@ (8001198 <lcdClrScr+0x20>)
 8001182:	f023 0380 	bic.w	r3, r3, #128	@ 0x80
 8001186:	6153      	str	r3, [r2, #20]
	/* Clear screen */
	lcdWrite(0x01u);
 8001188:	2001      	movs	r0, #1
 800118a:	f7ff ffb5 	bl	80010f8 <lcdWrite>
	/* Busy delay */
#if (USE_BUSY_FLAG)
	lcd_busy_delay();
#else
	lcd10usDelay(CLRSCR_CYCLE_TIME);
 800118e:	20c8      	movs	r0, #200	@ 0xc8
 8001190:	f7ff fed2 	bl	8000f38 <lcd10usDelay>
#endif /* USE_BUSY_FLAG */
}
 8001194:	bf00      	nop
 8001196:	bd80      	pop	{r7, pc}
 8001198:	40021000 	.word	0x40021000

0800119c <lcdReturn>:
 * 				and returns the display to its original status if it was shifted.
 * 				The DDRAM contents do not change.
 * 				The cursor or blinking go to the left edge of the display
 * 				(in the first line if 2 lines are displayed). */
void lcdReturn(void)
{
 800119c:	b580      	push	{r7, lr}
 800119e:	af00      	add	r7, sp, #0
	/* Send a command to LCD. */
	CLR(LCD_RS_OUT, LCD_RS);
 80011a0:	4b06      	ldr	r3, [pc, #24]	@ (80011bc <lcdReturn+0x20>)
 80011a2:	695b      	ldr	r3, [r3, #20]
 80011a4:	4a05      	ldr	r2, [pc, #20]	@ (80011bc <lcdReturn+0x20>)
 80011a6:	f023 0380 	bic.w	r3, r3, #128	@ 0x80
 80011aa:	6153      	str	r3, [r2, #20]
	/* Return home */
	lcdWrite(0x02u);
 80011ac:	2002      	movs	r0, #2
 80011ae:	f7ff ffa3 	bl	80010f8 <lcdWrite>
	/* Busy delay */
#if (USE_BUSY_FLAG)
	lcd_busy_delay();
#else
	lcd10usDelay(RETHOME_CYCLE_TIME);
 80011b2:	20c8      	movs	r0, #200	@ 0xc8
 80011b4:	f7ff fec0 	bl	8000f38 <lcd10usDelay>
#endif /* USE_BUSY_FLAG */
}
 80011b8:	bf00      	nop
 80011ba:	bd80      	pop	{r7, pc}
 80011bc:	40021000 	.word	0x40021000

080011c0 <cursorShift>:
 * 				without writing or reading display data.
 * 				This function is used to correct or search the display.
 * 				In a 2-line display, the cursor moves to the second line
 * 				when it passes the 40th digit of the first line. */
void cursorShift(uint8_t direction)
{
 80011c0:	b580      	push	{r7, lr}
 80011c2:	b082      	sub	sp, #8
 80011c4:	af00      	add	r7, sp, #0
 80011c6:	4603      	mov	r3, r0
 80011c8:	71fb      	strb	r3, [r7, #7]
	/* Send a command to LCD. */
	CLR(LCD_RS_OUT, LCD_RS);
 80011ca:	4b0c      	ldr	r3, [pc, #48]	@ (80011fc <cursorShift+0x3c>)
 80011cc:	695b      	ldr	r3, [r3, #20]
 80011ce:	4a0b      	ldr	r2, [pc, #44]	@ (80011fc <cursorShift+0x3c>)
 80011d0:	f023 0380 	bic.w	r3, r3, #128	@ 0x80
 80011d4:	6153      	str	r3, [r2, #20]
	/* Shift cursor */
	switch (direction)
 80011d6:	79fb      	ldrb	r3, [r7, #7]
 80011d8:	2b3c      	cmp	r3, #60	@ 0x3c
 80011da:	d002      	beq.n	80011e2 <cursorShift+0x22>
 80011dc:	2b3e      	cmp	r3, #62	@ 0x3e
 80011de:	d004      	beq.n	80011ea <cursorShift+0x2a>
			lcdWrite(0x14u);
			break;

		default:
			/* Ignore this command */
			break;
 80011e0:	e007      	b.n	80011f2 <cursorShift+0x32>
			lcdWrite(0x10u);
 80011e2:	2010      	movs	r0, #16
 80011e4:	f7ff ff88 	bl	80010f8 <lcdWrite>
			break;
 80011e8:	e003      	b.n	80011f2 <cursorShift+0x32>
			lcdWrite(0x14u);
 80011ea:	2014      	movs	r0, #20
 80011ec:	f7ff ff84 	bl	80010f8 <lcdWrite>
			break;
 80011f0:	bf00      	nop
	}
}
 80011f2:	bf00      	nop
 80011f4:	3708      	adds	r7, #8
 80011f6:	46bd      	mov	sp, r7
 80011f8:	bd80      	pop	{r7, pc}
 80011fa:	bf00      	nop
 80011fc:	40021000 	.word	0x40021000

08001200 <lcdGoto>:

/*!	\details	Go to the specified (DDRAM/CGRAM) memory address.*/
void lcdGoto(uint8_t line, uint8_t address)
{
 8001200:	b580      	push	{r7, lr}
 8001202:	b082      	sub	sp, #8
 8001204:	af00      	add	r7, sp, #0
 8001206:	4603      	mov	r3, r0
 8001208:	460a      	mov	r2, r1
 800120a:	71fb      	strb	r3, [r7, #7]
 800120c:	4613      	mov	r3, r2
 800120e:	71bb      	strb	r3, [r7, #6]
	/* Send a command to LCD. */
	CLR(LCD_RS_OUT, LCD_RS);
 8001210:	4b22      	ldr	r3, [pc, #136]	@ (800129c <lcdGoto+0x9c>)
 8001212:	695b      	ldr	r3, [r3, #20]
 8001214:	4a21      	ldr	r2, [pc, #132]	@ (800129c <lcdGoto+0x9c>)
 8001216:	f023 0380 	bic.w	r3, r3, #128	@ 0x80
 800121a:	6153      	str	r3, [r2, #20]
	/* Set DDRAM/CGRAM address. */
	switch (line)
 800121c:	79fb      	ldrb	r3, [r7, #7]
 800121e:	3b01      	subs	r3, #1
 8001220:	2b04      	cmp	r3, #4
 8001222:	d835      	bhi.n	8001290 <lcdGoto+0x90>
 8001224:	a201      	add	r2, pc, #4	@ (adr r2, 800122c <lcdGoto+0x2c>)
 8001226:	f852 f023 	ldr.w	pc, [r2, r3, lsl #2]
 800122a:	bf00      	nop
 800122c:	08001241 	.word	0x08001241
 8001230:	08001251 	.word	0x08001251
 8001234:	08001261 	.word	0x08001261
 8001238:	08001271 	.word	0x08001271
 800123c:	08001281 	.word	0x08001281
	{
		/* Set DDRAM address. */
		case LCD_1st_LINE: lcdWrite(0x80u | START_ADDRESS_1st_LINE | address); break;
 8001240:	79bb      	ldrb	r3, [r7, #6]
 8001242:	f063 037f 	orn	r3, r3, #127	@ 0x7f
 8001246:	b2db      	uxtb	r3, r3
 8001248:	4618      	mov	r0, r3
 800124a:	f7ff ff55 	bl	80010f8 <lcdWrite>
 800124e:	e020      	b.n	8001292 <lcdGoto+0x92>
		case LCD_2nd_LINE: lcdWrite(0x80u | START_ADDRESS_2nd_LINE | address); break;
 8001250:	79bb      	ldrb	r3, [r7, #6]
 8001252:	f063 033f 	orn	r3, r3, #63	@ 0x3f
 8001256:	b2db      	uxtb	r3, r3
 8001258:	4618      	mov	r0, r3
 800125a:	f7ff ff4d 	bl	80010f8 <lcdWrite>
 800125e:	e018      	b.n	8001292 <lcdGoto+0x92>
		case LCD_3rd_LINE: lcdWrite(0x80u | START_ADDRESS_3rd_LINE | address); break;
 8001260:	79bb      	ldrb	r3, [r7, #6]
 8001262:	f063 036f 	orn	r3, r3, #111	@ 0x6f
 8001266:	b2db      	uxtb	r3, r3
 8001268:	4618      	mov	r0, r3
 800126a:	f7ff ff45 	bl	80010f8 <lcdWrite>
 800126e:	e010      	b.n	8001292 <lcdGoto+0x92>
		case LCD_4th_LINE: lcdWrite(0x80u | START_ADDRESS_4th_LINE | address); break;
 8001270:	79bb      	ldrb	r3, [r7, #6]
 8001272:	f063 032f 	orn	r3, r3, #47	@ 0x2f
 8001276:	b2db      	uxtb	r3, r3
 8001278:	4618      	mov	r0, r3
 800127a:	f7ff ff3d 	bl	80010f8 <lcdWrite>
 800127e:	e008      	b.n	8001292 <lcdGoto+0x92>
		/* Set CGRAM address. */
		case CGRAM : lcdWrite(0x40u | address); break;
 8001280:	79bb      	ldrb	r3, [r7, #6]
 8001282:	f043 0340 	orr.w	r3, r3, #64	@ 0x40
 8001286:	b2db      	uxtb	r3, r3
 8001288:	4618      	mov	r0, r3
 800128a:	f7ff ff35 	bl	80010f8 <lcdWrite>
 800128e:	e000      	b.n	8001292 <lcdGoto+0x92>

		default:
			/* Ignore this command */
			break;
 8001290:	bf00      	nop
	}
}
 8001292:	bf00      	nop
 8001294:	3708      	adds	r7, #8
 8001296:	46bd      	mov	sp, r7
 8001298:	bd80      	pop	{r7, pc}
 800129a:	bf00      	nop
 800129c:	40021000 	.word	0x40021000

080012a0 <lcdSetMode>:

/*!	\details	Change LCD settings. */
void lcdSetMode(uint8_t param)
{
 80012a0:	b580      	push	{r7, lr}
 80012a2:	b082      	sub	sp, #8
 80012a4:	af00      	add	r7, sp, #0
 80012a6:	4603      	mov	r3, r0
 80012a8:	71fb      	strb	r3, [r7, #7]
	/* Send a command to LCD. */
	CLR(LCD_RS_OUT, LCD_RS);
 80012aa:	4b07      	ldr	r3, [pc, #28]	@ (80012c8 <lcdSetMode+0x28>)
 80012ac:	695b      	ldr	r3, [r3, #20]
 80012ae:	4a06      	ldr	r2, [pc, #24]	@ (80012c8 <lcdSetMode+0x28>)
 80012b0:	f023 0380 	bic.w	r3, r3, #128	@ 0x80
 80012b4:	6153      	str	r3, [r2, #20]
	lcdWrite(param);
 80012b6:	79fb      	ldrb	r3, [r7, #7]
 80012b8:	4618      	mov	r0, r3
 80012ba:	f7ff ff1d 	bl	80010f8 <lcdWrite>
}
 80012be:	bf00      	nop
 80012c0:	3708      	adds	r7, #8
 80012c2:	46bd      	mov	sp, r7
 80012c4:	bd80      	pop	{r7, pc}
 80012c6:	bf00      	nop
 80012c8:	40021000 	.word	0x40021000

080012cc <lcdPutc>:

/*!	\details	Write a single char to the current memory space (DDRAM/CGRAM). */
void lcdPutc(uint8_t data)
{
 80012cc:	b580      	push	{r7, lr}
 80012ce:	b082      	sub	sp, #8
 80012d0:	af00      	add	r7, sp, #0
 80012d2:	4603      	mov	r3, r0
 80012d4:	71fb      	strb	r3, [r7, #7]
	/* Send data to LCD. */
	SET(LCD_RS_OUT, LCD_RS);
 80012d6:	4b08      	ldr	r3, [pc, #32]	@ (80012f8 <lcdPutc+0x2c>)
 80012d8:	695b      	ldr	r3, [r3, #20]
 80012da:	4a07      	ldr	r2, [pc, #28]	@ (80012f8 <lcdPutc+0x2c>)
 80012dc:	f043 0380 	orr.w	r3, r3, #128	@ 0x80
 80012e0:	6153      	str	r3, [r2, #20]
	lcdWrite(data);
 80012e2:	79fb      	ldrb	r3, [r7, #7]
 80012e4:	4618      	mov	r0, r3
 80012e6:	f7ff ff07 	bl	80010f8 <lcdWrite>
	/* Note:
	 * After execution of the CGRAM/DDRAM data write/read instruction, the RAM address counter is incremented
	 * or decremented by 1. The RAM address counter is updated after the busy flag turns off.
	 * tADD is the time elapsed after the busy flag turns off until the address counter is updated. */
	lcd10usDelay(AC_UPDATE_TIME);	/* Update RAM address counter delay. */
 80012ea:	2001      	movs	r0, #1
 80012ec:	f7ff fe24 	bl	8000f38 <lcd10usDelay>
}
 80012f0:	bf00      	nop
 80012f2:	3708      	adds	r7, #8
 80012f4:	46bd      	mov	sp, r7
 80012f6:	bd80      	pop	{r7, pc}
 80012f8:	40021000 	.word	0x40021000

080012fc <lcdPuts>:

/*!	\details	Writes ANSI-C string to LCD (DDRAM memory space). */
//void lcdPuts(const uint8_t *str)
void lcdPuts(const char *str)
{
 80012fc:	b580      	push	{r7, lr}
 80012fe:	b084      	sub	sp, #16
 8001300:	af00      	add	r7, sp, #0
 8001302:	6078      	str	r0, [r7, #4]
	/* Send a ANSI-C string to LCD. */
	while ('\0' != *str)
 8001304:	e028      	b.n	8001358 <lcdPuts+0x5c>
	{
#if ( USE_FORMATTED_OUTPUT )
		if(('\n' == *str))
 8001306:	687b      	ldr	r3, [r7, #4]
 8001308:	781b      	ldrb	r3, [r3, #0]
 800130a:	2b0a      	cmp	r3, #10
 800130c:	d104      	bne.n	8001318 <lcdPuts+0x1c>
		{/*New line */
			lcdGoto(LCD_2nd_LINE, 0u);
 800130e:	2100      	movs	r1, #0
 8001310:	2002      	movs	r0, #2
 8001312:	f7ff ff75 	bl	8001200 <lcdGoto>
 8001316:	e01c      	b.n	8001352 <lcdPuts+0x56>
		}
		else if(('\r' == *str))
 8001318:	687b      	ldr	r3, [r7, #4]
 800131a:	781b      	ldrb	r3, [r3, #0]
 800131c:	2b0d      	cmp	r3, #13
 800131e:	d102      	bne.n	8001326 <lcdPuts+0x2a>
		{/* Return home */
			lcdReturn();
 8001320:	f7ff ff3c 	bl	800119c <lcdReturn>
 8001324:	e015      	b.n	8001352 <lcdPuts+0x56>
		}
		else if(('\t' == *str))
 8001326:	687b      	ldr	r3, [r7, #4]
 8001328:	781b      	ldrb	r3, [r3, #0]
 800132a:	2b09      	cmp	r3, #9
 800132c:	d10c      	bne.n	8001348 <lcdPuts+0x4c>
		{/* Tab space */
			uint8_t i;

			for(i=0u; i<TAB_SPACE; i++)
 800132e:	2300      	movs	r3, #0
 8001330:	73fb      	strb	r3, [r7, #15]
 8001332:	e005      	b.n	8001340 <lcdPuts+0x44>
			{/* Shift cursor to the right. */
				cursorShift(RIGHT);
 8001334:	203e      	movs	r0, #62	@ 0x3e
 8001336:	f7ff ff43 	bl	80011c0 <cursorShift>
			for(i=0u; i<TAB_SPACE; i++)
 800133a:	7bfb      	ldrb	r3, [r7, #15]
 800133c:	3301      	adds	r3, #1
 800133e:	73fb      	strb	r3, [r7, #15]
 8001340:	7bfb      	ldrb	r3, [r7, #15]
 8001342:	2b03      	cmp	r3, #3
 8001344:	d9f6      	bls.n	8001334 <lcdPuts+0x38>
 8001346:	e004      	b.n	8001352 <lcdPuts+0x56>
		}
		else
#endif
		{
			/* Display a symbol. */
			lcdPutc(*str);
 8001348:	687b      	ldr	r3, [r7, #4]
 800134a:	781b      	ldrb	r3, [r3, #0]
 800134c:	4618      	mov	r0, r3
 800134e:	f7ff ffbd 	bl	80012cc <lcdPutc>
		}
		/* Get the next symbol. */
		str++;
 8001352:	687b      	ldr	r3, [r7, #4]
 8001354:	3301      	adds	r3, #1
 8001356:	607b      	str	r3, [r7, #4]
	while ('\0' != *str)
 8001358:	687b      	ldr	r3, [r7, #4]
 800135a:	781b      	ldrb	r3, [r3, #0]
 800135c:	2b00      	cmp	r3, #0
 800135e:	d1d2      	bne.n	8001306 <lcdPuts+0xa>
	}
}
 8001360:	bf00      	nop
 8001362:	bf00      	nop
 8001364:	3710      	adds	r7, #16
 8001366:	46bd      	mov	sp, r7
 8001368:	bd80      	pop	{r7, pc}

0800136a <lcdLoadChar>:

/*!	\details	Load the user-defined symbol into the CGRAM memory. */
void lcdLoadChar(uint8_t* vector, uint8_t position)
{
 800136a:	b580      	push	{r7, lr}
 800136c:	b084      	sub	sp, #16
 800136e:	af00      	add	r7, sp, #0
 8001370:	6078      	str	r0, [r7, #4]
 8001372:	460b      	mov	r3, r1
 8001374:	70fb      	strb	r3, [r7, #3]
	uint8_t i;
	/* Go to the CGRAM memory space: 0 to 7 */
	lcdGoto(CGRAM, (position * FONT_HEIGHT));
 8001376:	78fb      	ldrb	r3, [r7, #3]
 8001378:	00db      	lsls	r3, r3, #3
 800137a:	b2db      	uxtb	r3, r3
 800137c:	4619      	mov	r1, r3
 800137e:	2005      	movs	r0, #5
 8001380:	f7ff ff3e 	bl	8001200 <lcdGoto>

	for(i = 0u; i < FONT_HEIGHT; i++)
 8001384:	2300      	movs	r3, #0
 8001386:	73fb      	strb	r3, [r7, #15]
 8001388:	e009      	b.n	800139e <lcdLoadChar+0x34>
	{/* Load one row of pixels into the CGRAM register. */
		lcdPutc(vector[i]);
 800138a:	7bfb      	ldrb	r3, [r7, #15]
 800138c:	687a      	ldr	r2, [r7, #4]
 800138e:	4413      	add	r3, r2
 8001390:	781b      	ldrb	r3, [r3, #0]
 8001392:	4618      	mov	r0, r3
 8001394:	f7ff ff9a 	bl	80012cc <lcdPutc>
	for(i = 0u; i < FONT_HEIGHT; i++)
 8001398:	7bfb      	ldrb	r3, [r7, #15]
 800139a:	3301      	adds	r3, #1
 800139c:	73fb      	strb	r3, [r7, #15]
 800139e:	7bfb      	ldrb	r3, [r7, #15]
 80013a0:	2b07      	cmp	r3, #7
 80013a2:	d9f2      	bls.n	800138a <lcdLoadChar+0x20>
	}

	/* Return to the DDRAM memory space. */
	lcdGoto(LCD_1st_LINE, 0u);
 80013a4:	2100      	movs	r1, #0
 80013a6:	2001      	movs	r0, #1
 80013a8:	f7ff ff2a 	bl	8001200 <lcdGoto>
}
 80013ac:	bf00      	nop
 80013ae:	3710      	adds	r7, #16
 80013b0:	46bd      	mov	sp, r7
 80013b2:	bd80      	pop	{r7, pc}

080013b4 <lcdInit>:
#endif

/*!	\brief	Initialize the LCD.
 * 	\note	This library use the 4-bit interface. */
void lcdInit(void)
{
 80013b4:	b580      	push	{r7, lr}
 80013b6:	af00      	add	r7, sp, #0
	/* GPIO initialization. */
	setAllPinsAsOutputs();
 80013b8:	f000 f81d 	bl	80013f6 <lcdGpioInit>
	/* LCD initialization. */
	lcdWrite(0x30);
 80013bc:	2030      	movs	r0, #48	@ 0x30
 80013be:	f7ff fe9b 	bl	80010f8 <lcdWrite>
	lcd10usDelay(INIT_CYCLE_TIME);
 80013c2:	f44f 70c8 	mov.w	r0, #400	@ 0x190
 80013c6:	f7ff fdb7 	bl	8000f38 <lcd10usDelay>
	lcdWrite(0x30);
 80013ca:	2030      	movs	r0, #48	@ 0x30
 80013cc:	f7ff fe94 	bl	80010f8 <lcdWrite>
	lcd10usDelay(INIT_CYCLE_TIME);
 80013d0:	f44f 70c8 	mov.w	r0, #400	@ 0x190
 80013d4:	f7ff fdb0 	bl	8000f38 <lcd10usDelay>
	lcdConfig(DEFAULT_DISPLAY_CONFIG);
 80013d8:	2028      	movs	r0, #40	@ 0x28
 80013da:	f7ff fea5 	bl	8001128 <lcdConfig>
	lcdSetMode(DEFAULT_VIEW_MODE);
 80013de:	200c      	movs	r0, #12
 80013e0:	f7ff ff5e 	bl	80012a0 <lcdSetMode>
	lcdSetMode(DEFAULT_ENTRY_MODE);
 80013e4:	2006      	movs	r0, #6
 80013e6:	f7ff ff5b 	bl	80012a0 <lcdSetMode>
	lcdClrScr();
 80013ea:	f7ff fec5 	bl	8001178 <lcdClrScr>
	lcdReturn();
 80013ee:	f7ff fed5 	bl	800119c <lcdReturn>
	#if (USE_PROGRESS_BAR)
		lcdInitBar();
	#endif
}
 80013f2:	bf00      	nop
 80013f4:	bd80      	pop	{r7, pc}

080013f6 <lcdGpioInit>:

void lcdGpioInit(void)
{
 80013f6:	b480      	push	{r7}
 80013f8:	af00      	add	r7, sp, #0
  	 GPIO_InitStruct.Speed = GPIO_SPEED_FREQ_LOW;
  	 HAL_GPIO_Init(GPIOC, &GPIO_InitStruct);

  	 HAL_GPIO_WritePin(GPIOC, GPIO_PIN_0|GPIO_PIN_1|GPIO_PIN_4|GPIO_PIN_5|GPIO_PIN_6|GPIO_PIN_7, GPIO_PIN_RESET);
	 */
}
 80013fa:	bf00      	nop
 80013fc:	46bd      	mov	sp, r7
 80013fe:	f85d 7b04 	ldr.w	r7, [sp], #4
 8001402:	4770      	bx	lr

08001404 <main>:
/**
  * @brief  The application entry point.
  * @retval int
  */
int main(void)
{
 8001404:	b580      	push	{r7, lr}
 8001406:	b088      	sub	sp, #32
 8001408:	af00      	add	r7, sp, #0
  /* USER CODE END 1 */

  /* MCU Configuration--------------------------------------------------------*/

  /* Reset of all peripherals, Initializes the Flash interface and the Systick. */
  HAL_Init();
 800140a:	f001 f82f 	bl	800246c <HAL_Init>
  /* USER CODE BEGIN Init */

  /* USER CODE END Init */

  /* Configure the system clock */
  SystemClock_Config();
 800140e:	f000 f8f5 	bl	80015fc <SystemClock_Config>
  /* USER CODE BEGIN SysInit */

  /* USER CODE END SysInit */

  /* Initialize all configured peripherals */
  MX_GPIO_Init();
 8001412:	f000 fac7 	bl	80019a4 <MX_GPIO_Init>
  MX_I2C1_Init();
 8001416:	f000 f9f3 	bl	8001800 <MX_I2C1_Init>
  MX_ADC1_Init();
 800141a:	f000 f94d 	bl	80016b8 <MX_ADC1_Init>
  MX_TIM4_Init();
 800141e:	f000 fa73 	bl	8001908 <MX_TIM4_Init>
  MX_ADC2_Init();
 8001422:	f000 f99b 	bl	800175c <MX_ADC2_Init>
  MX_TIM1_Init();
 8001426:	f000 fa19 	bl	800185c <MX_TIM1_Init>
  /* USER CODE BEGIN 2 */
  // temperature-humidity sensor
  SHT2x_Init(&hi2c1);
 800142a:	4865      	ldr	r0, [pc, #404]	@ (80015c0 <main+0x1bc>)
 800142c:	f000 fbbc 	bl	8001ba8 <SHT2x_Init>
  SHT2x_SetResolution(RES_14_12);
 8001430:	2000      	movs	r0, #0
 8001432:	f000 fcb7 	bl	8001da4 <SHT2x_SetResolution>
  SHT2x_SoftReset();
 8001436:	f000 fbc7 	bl	8001bc8 <SHT2x_SoftReset>
  // LCD display
  lcdInit();
 800143a:	f7ff ffbb 	bl	80013b4 <lcdInit>
  // load degree symbol
  lcdLoadChar(deg_sym,6);
 800143e:	2106      	movs	r1, #6
 8001440:	4860      	ldr	r0, [pc, #384]	@ (80015c4 <main+0x1c0>)
 8001442:	f7ff ff92 	bl	800136a <lcdLoadChar>
  //PWM timer
  HAL_TIM_PWM_Start(&htim4, TIM_CHANNEL_1);
 8001446:	2100      	movs	r1, #0
 8001448:	485f      	ldr	r0, [pc, #380]	@ (80015c8 <main+0x1c4>)
 800144a:	f003 fc77 	bl	8004d3c <HAL_TIM_PWM_Start>
  HAL_TIM_PWM_Start(&htim4, TIM_CHANNEL_3);
 800144e:	2108      	movs	r1, #8
 8001450:	485d      	ldr	r0, [pc, #372]	@ (80015c8 <main+0x1c4>)
 8001452:	f003 fc73 	bl	8004d3c <HAL_TIM_PWM_Start>
  HAL_TIM_PWM_Start(&htim4, TIM_CHANNEL_4);
 8001456:	210c      	movs	r1, #12
 8001458:	485b      	ldr	r0, [pc, #364]	@ (80015c8 <main+0x1c4>)
 800145a:	f003 fc6f 	bl	8004d3c <HAL_TIM_PWM_Start>


  HAL_TIM_IC_Start_IT(&htim1, TIM_CHANNEL_2);
 800145e:	2104      	movs	r1, #4
 8001460:	485a      	ldr	r0, [pc, #360]	@ (80015cc <main+0x1c8>)
 8001462:	f003 fd83 	bl	8004f6c <HAL_TIM_IC_Start_IT>
  /* USER CODE END 2 */

  /* Infinite loop */
  /* USER CODE BEGIN WHILE */

  HAL_ADC_Start_IT(&hadc1);
 8001466:	485a      	ldr	r0, [pc, #360]	@ (80015d0 <main+0x1cc>)
 8001468:	f001 f8da 	bl	8002620 <HAL_ADC_Start_IT>
  HAL_ADC_Start_IT(&hadc2);
 800146c:	4859      	ldr	r0, [pc, #356]	@ (80015d4 <main+0x1d0>)
 800146e:	f001 f8d7 	bl	8002620 <HAL_ADC_Start_IT>
  while (1)
  {
	  uint32_t adcValue;


	    if(adc1Flag)
 8001472:	4b59      	ldr	r3, [pc, #356]	@ (80015d8 <main+0x1d4>)
 8001474:	681b      	ldr	r3, [r3, #0]
 8001476:	2b00      	cmp	r3, #0
 8001478:	f000 808e 	beq.w	8001598 <main+0x194>
	    {
	          adcValue = HAL_ADC_GetValue(&hadc1);
 800147c:	4854      	ldr	r0, [pc, #336]	@ (80015d0 <main+0x1cc>)
 800147e:	f001 fabd 	bl	80029fc <HAL_ADC_GetValue>
 8001482:	61f8      	str	r0, [r7, #28]

	          float volts = adcValue * 5.0 / 4096.0;
 8001484:	69f8      	ldr	r0, [r7, #28]
 8001486:	f7ff f83d 	bl	8000504 <__aeabi_ui2d>
 800148a:	f04f 0200 	mov.w	r2, #0
 800148e:	4b53      	ldr	r3, [pc, #332]	@ (80015dc <main+0x1d8>)
 8001490:	f7ff f8b2 	bl	80005f8 <__aeabi_dmul>
 8001494:	4602      	mov	r2, r0
 8001496:	460b      	mov	r3, r1
 8001498:	4610      	mov	r0, r2
 800149a:	4619      	mov	r1, r3
 800149c:	f04f 0200 	mov.w	r2, #0
 80014a0:	4b4f      	ldr	r3, [pc, #316]	@ (80015e0 <main+0x1dc>)
 80014a2:	f7ff f9d3 	bl	800084c <__aeabi_ddiv>
 80014a6:	4602      	mov	r2, r0
 80014a8:	460b      	mov	r3, r1
 80014aa:	4610      	mov	r0, r2
 80014ac:	4619      	mov	r1, r3
 80014ae:	f7ff fb7b 	bl	8000ba8 <__aeabi_d2f>
 80014b2:	4603      	mov	r3, r0
 80014b4:	61bb      	str	r3, [r7, #24]
	          float amps = volts / 10000.0;  // across 10,000 Ohms
 80014b6:	ed97 7a06 	vldr	s14, [r7, #24]
 80014ba:	eddf 6a4a 	vldr	s13, [pc, #296]	@ 80015e4 <main+0x1e0>
 80014be:	eec7 7a26 	vdiv.f32	s15, s14, s13
 80014c2:	edc7 7a05 	vstr	s15, [r7, #20]
	          float microamps = amps * 1000000;
 80014c6:	edd7 7a05 	vldr	s15, [r7, #20]
 80014ca:	ed9f 7a47 	vldr	s14, [pc, #284]	@ 80015e8 <main+0x1e4>
 80014ce:	ee67 7a87 	vmul.f32	s15, s15, s14
 80014d2:	edc7 7a04 	vstr	s15, [r7, #16]
	          float lux = microamps * 2.0;
 80014d6:	edd7 7a04 	vldr	s15, [r7, #16]
 80014da:	ee77 7aa7 	vadd.f32	s15, s15, s15
 80014de:	edc7 7a03 	vstr	s15, [r7, #12]

	          HAL_GPIO_WritePin(GPIOD, GPIO_PIN_13 | GPIO_PIN_12 | GPIO_PIN_14 | GPIO_PIN_15, GPIO_PIN_RESET);
 80014e2:	2200      	movs	r2, #0
 80014e4:	f44f 4170 	mov.w	r1, #61440	@ 0xf000
 80014e8:	4840      	ldr	r0, [pc, #256]	@ (80015ec <main+0x1e8>)
 80014ea:	f001 ff7f 	bl	80033ec <HAL_GPIO_WritePin>
	          HAL_GPIO_WritePin(GPIOE, GPIO_PIN_5, GPIO_PIN_RESET);
 80014ee:	2200      	movs	r2, #0
 80014f0:	2120      	movs	r1, #32
 80014f2:	483f      	ldr	r0, [pc, #252]	@ (80015f0 <main+0x1ec>)
 80014f4:	f001 ff7a 	bl	80033ec <HAL_GPIO_WritePin>
	          if (lux>100){
 80014f8:	edd7 7a03 	vldr	s15, [r7, #12]
 80014fc:	ed9f 7a3d 	vldr	s14, [pc, #244]	@ 80015f4 <main+0x1f0>
 8001500:	eef4 7ac7 	vcmpe.f32	s15, s14
 8001504:	eef1 fa10 	vmrs	APSR_nzcv, fpscr
 8001508:	dc40      	bgt.n	800158c <main+0x188>

	          } else if (lux>30) {
 800150a:	edd7 7a03 	vldr	s15, [r7, #12]
 800150e:	eeb3 7a0e 	vmov.f32	s14, #62	@ 0x41f00000  30.0
 8001512:	eef4 7ac7 	vcmpe.f32	s15, s14
 8001516:	eef1 fa10 	vmrs	APSR_nzcv, fpscr
 800151a:	dd06      	ble.n	800152a <main+0x126>
	        	  HAL_GPIO_WritePin(GPIOD, GPIO_PIN_15, GPIO_PIN_SET);
 800151c:	2201      	movs	r2, #1
 800151e:	f44f 4100 	mov.w	r1, #32768	@ 0x8000
 8001522:	4832      	ldr	r0, [pc, #200]	@ (80015ec <main+0x1e8>)
 8001524:	f001 ff62 	bl	80033ec <HAL_GPIO_WritePin>
 8001528:	e030      	b.n	800158c <main+0x188>
	          } else if (lux>10) {
 800152a:	edd7 7a03 	vldr	s15, [r7, #12]
 800152e:	eeb2 7a04 	vmov.f32	s14, #36	@ 0x41200000  10.0
 8001532:	eef4 7ac7 	vcmpe.f32	s15, s14
 8001536:	eef1 fa10 	vmrs	APSR_nzcv, fpscr
 800153a:	dd0c      	ble.n	8001556 <main+0x152>
	        	  HAL_GPIO_WritePin(GPIOD, GPIO_PIN_12, GPIO_PIN_SET);
 800153c:	2201      	movs	r2, #1
 800153e:	f44f 5180 	mov.w	r1, #4096	@ 0x1000
 8001542:	482a      	ldr	r0, [pc, #168]	@ (80015ec <main+0x1e8>)
 8001544:	f001 ff52 	bl	80033ec <HAL_GPIO_WritePin>
	        	  HAL_GPIO_WritePin(GPIOD, GPIO_PIN_15, GPIO_PIN_SET);
 8001548:	2201      	movs	r2, #1
 800154a:	f44f 4100 	mov.w	r1, #32768	@ 0x8000
 800154e:	4827      	ldr	r0, [pc, #156]	@ (80015ec <main+0x1e8>)
 8001550:	f001 ff4c 	bl	80033ec <HAL_GPIO_WritePin>
 8001554:	e01a      	b.n	800158c <main+0x188>
	          } else if (lux>1) {
 8001556:	edd7 7a03 	vldr	s15, [r7, #12]
 800155a:	eeb7 7a00 	vmov.f32	s14, #112	@ 0x3f800000  1.0
 800155e:	eef4 7ac7 	vcmpe.f32	s15, s14
 8001562:	eef1 fa10 	vmrs	APSR_nzcv, fpscr
 8001566:	dd06      	ble.n	8001576 <main+0x172>
	        	  HAL_GPIO_WritePin(GPIOD, GPIO_PIN_13 | GPIO_PIN_15 | GPIO_PIN_12, GPIO_PIN_SET);
 8001568:	2201      	movs	r2, #1
 800156a:	f44f 4130 	mov.w	r1, #45056	@ 0xb000
 800156e:	481f      	ldr	r0, [pc, #124]	@ (80015ec <main+0x1e8>)
 8001570:	f001 ff3c 	bl	80033ec <HAL_GPIO_WritePin>
 8001574:	e00a      	b.n	800158c <main+0x188>
	          } else {
	        	  HAL_GPIO_WritePin(GPIOD, GPIO_PIN_13 | GPIO_PIN_12 | GPIO_PIN_14 | GPIO_PIN_15, GPIO_PIN_SET);
 8001576:	2201      	movs	r2, #1
 8001578:	f44f 4170 	mov.w	r1, #61440	@ 0xf000
 800157c:	481b      	ldr	r0, [pc, #108]	@ (80015ec <main+0x1e8>)
 800157e:	f001 ff35 	bl	80033ec <HAL_GPIO_WritePin>
	        	  HAL_GPIO_WritePin(GPIOE, GPIO_PIN_5, GPIO_PIN_SET);
 8001582:	2201      	movs	r2, #1
 8001584:	2120      	movs	r1, #32
 8001586:	481a      	ldr	r0, [pc, #104]	@ (80015f0 <main+0x1ec>)
 8001588:	f001 ff30 	bl	80033ec <HAL_GPIO_WritePin>


//	          lcdClrScr();
//	          lcdFtos(lux, 5);

	          adc1Flag = 0;
 800158c:	4b12      	ldr	r3, [pc, #72]	@ (80015d8 <main+0x1d4>)
 800158e:	2200      	movs	r2, #0
 8001590:	601a      	str	r2, [r3, #0]
	          HAL_ADC_Start_IT(&hadc1);
 8001592:	480f      	ldr	r0, [pc, #60]	@ (80015d0 <main+0x1cc>)
 8001594:	f001 f844 	bl	8002620 <HAL_ADC_Start_IT>
//	  	  HAL_ADC_Start_IT(&hadc2);
//
//	    }


	  float cel = SHT2x_GetTemperature(1);
 8001598:	2001      	movs	r0, #1
 800159a:	f000 fb7d 	bl	8001c98 <SHT2x_GetTemperature>
 800159e:	ed87 0a02 	vstr	s0, [r7, #8]
	  float rh = SHT2x_GetRelativeHumidity(1);
 80015a2:	2001      	movs	r0, #1
 80015a4:	f000 fbbe 	bl	8001d24 <SHT2x_GetRelativeHumidity>
 80015a8:	ed87 0a01 	vstr	s0, [r7, #4]
//	  lcdPuts("C\n");
//	  lcdPuts("Hum : ");
//	  lcdFtos(rh, 3);
//	  lcdPuts(" %");

	  HCSR04_Trigger(GPIOA, GPIO_PIN_1);
 80015ac:	2102      	movs	r1, #2
 80015ae:	4812      	ldr	r0, [pc, #72]	@ (80015f8 <main+0x1f4>)
 80015b0:	f000 fada 	bl	8001b68 <HCSR04_Trigger>
	  HAL_Delay(1000);
 80015b4:	f44f 707a 	mov.w	r0, #1000	@ 0x3e8
 80015b8:	f000 ffca 	bl	8002550 <HAL_Delay>
  {
 80015bc:	e759      	b.n	8001472 <main+0x6e>
 80015be:	bf00      	nop
 80015c0:	2000028c 	.word	0x2000028c
 80015c4:	20000000 	.word	0x20000000
 80015c8:	20000328 	.word	0x20000328
 80015cc:	200002e0 	.word	0x200002e0
 80015d0:	200001fc 	.word	0x200001fc
 80015d4:	20000244 	.word	0x20000244
 80015d8:	20000370 	.word	0x20000370
 80015dc:	40140000 	.word	0x40140000
 80015e0:	40b00000 	.word	0x40b00000
 80015e4:	461c4000 	.word	0x461c4000
 80015e8:	49742400 	.word	0x49742400
 80015ec:	40020c00 	.word	0x40020c00
 80015f0:	40021000 	.word	0x40021000
 80015f4:	42c80000 	.word	0x42c80000
 80015f8:	40020000 	.word	0x40020000

080015fc <SystemClock_Config>:
/**
  * @brief System Clock Configuration
  * @retval None
  */
void SystemClock_Config(void)
{
 80015fc:	b580      	push	{r7, lr}
 80015fe:	b094      	sub	sp, #80	@ 0x50
 8001600:	af00      	add	r7, sp, #0
  RCC_OscInitTypeDef RCC_OscInitStruct = {0};
 8001602:	f107 0320 	add.w	r3, r7, #32
 8001606:	2230      	movs	r2, #48	@ 0x30
 8001608:	2100      	movs	r1, #0
 800160a:	4618      	mov	r0, r3
 800160c:	f005 f939 	bl	8006882 <memset>
  RCC_ClkInitTypeDef RCC_ClkInitStruct = {0};
 8001610:	f107 030c 	add.w	r3, r7, #12
 8001614:	2200      	movs	r2, #0
 8001616:	601a      	str	r2, [r3, #0]
 8001618:	605a      	str	r2, [r3, #4]
 800161a:	609a      	str	r2, [r3, #8]
 800161c:	60da      	str	r2, [r3, #12]
 800161e:	611a      	str	r2, [r3, #16]

  /** Configure the main internal regulator output voltage
  */
  __HAL_RCC_PWR_CLK_ENABLE();
 8001620:	2300      	movs	r3, #0
 8001622:	60bb      	str	r3, [r7, #8]
 8001624:	4b22      	ldr	r3, [pc, #136]	@ (80016b0 <SystemClock_Config+0xb4>)
 8001626:	6c1b      	ldr	r3, [r3, #64]	@ 0x40
 8001628:	4a21      	ldr	r2, [pc, #132]	@ (80016b0 <SystemClock_Config+0xb4>)
 800162a:	f043 5380 	orr.w	r3, r3, #268435456	@ 0x10000000
 800162e:	6413      	str	r3, [r2, #64]	@ 0x40
 8001630:	4b1f      	ldr	r3, [pc, #124]	@ (80016b0 <SystemClock_Config+0xb4>)
 8001632:	6c1b      	ldr	r3, [r3, #64]	@ 0x40
 8001634:	f003 5380 	and.w	r3, r3, #268435456	@ 0x10000000
 8001638:	60bb      	str	r3, [r7, #8]
 800163a:	68bb      	ldr	r3, [r7, #8]
  __HAL_PWR_VOLTAGESCALING_CONFIG(PWR_REGULATOR_VOLTAGE_SCALE1);
 800163c:	2300      	movs	r3, #0
 800163e:	607b      	str	r3, [r7, #4]
 8001640:	4b1c      	ldr	r3, [pc, #112]	@ (80016b4 <SystemClock_Config+0xb8>)
 8001642:	681b      	ldr	r3, [r3, #0]
 8001644:	4a1b      	ldr	r2, [pc, #108]	@ (80016b4 <SystemClock_Config+0xb8>)
 8001646:	f443 4380 	orr.w	r3, r3, #16384	@ 0x4000
 800164a:	6013      	str	r3, [r2, #0]
 800164c:	4b19      	ldr	r3, [pc, #100]	@ (80016b4 <SystemClock_Config+0xb8>)
 800164e:	681b      	ldr	r3, [r3, #0]
 8001650:	f403 4380 	and.w	r3, r3, #16384	@ 0x4000
 8001654:	607b      	str	r3, [r7, #4]
 8001656:	687b      	ldr	r3, [r7, #4]

  /** Initializes the RCC Oscillators according to the specified parameters
  * in the RCC_OscInitTypeDef structure.
  */
  RCC_OscInitStruct.OscillatorType = RCC_OSCILLATORTYPE_HSI;
 8001658:	2302      	movs	r3, #2
 800165a:	623b      	str	r3, [r7, #32]
  RCC_OscInitStruct.HSIState = RCC_HSI_ON;
 800165c:	2301      	movs	r3, #1
 800165e:	62fb      	str	r3, [r7, #44]	@ 0x2c
  RCC_OscInitStruct.HSICalibrationValue = RCC_HSICALIBRATION_DEFAULT;
 8001660:	2310      	movs	r3, #16
 8001662:	633b      	str	r3, [r7, #48]	@ 0x30
  RCC_OscInitStruct.PLL.PLLState = RCC_PLL_NONE;
 8001664:	2300      	movs	r3, #0
 8001666:	63bb      	str	r3, [r7, #56]	@ 0x38
  if (HAL_RCC_OscConfig(&RCC_OscInitStruct) != HAL_OK)
 8001668:	f107 0320 	add.w	r3, r7, #32
 800166c:	4618      	mov	r0, r3
 800166e:	f002 fed1 	bl	8004414 <HAL_RCC_OscConfig>
 8001672:	4603      	mov	r3, r0
 8001674:	2b00      	cmp	r3, #0
 8001676:	d001      	beq.n	800167c <SystemClock_Config+0x80>
  {
    Error_Handler();
 8001678:	f000 fa8f 	bl	8001b9a <Error_Handler>
  }

  /** Initializes the CPU, AHB and APB buses clocks
  */
  RCC_ClkInitStruct.ClockType = RCC_CLOCKTYPE_HCLK|RCC_CLOCKTYPE_SYSCLK
 800167c:	230f      	movs	r3, #15
 800167e:	60fb      	str	r3, [r7, #12]
                              |RCC_CLOCKTYPE_PCLK1|RCC_CLOCKTYPE_PCLK2;
  RCC_ClkInitStruct.SYSCLKSource = RCC_SYSCLKSOURCE_HSI;
 8001680:	2300      	movs	r3, #0
 8001682:	613b      	str	r3, [r7, #16]
  RCC_ClkInitStruct.AHBCLKDivider = RCC_SYSCLK_DIV1;
 8001684:	2300      	movs	r3, #0
 8001686:	617b      	str	r3, [r7, #20]
  RCC_ClkInitStruct.APB1CLKDivider = RCC_HCLK_DIV1;
 8001688:	2300      	movs	r3, #0
 800168a:	61bb      	str	r3, [r7, #24]
  RCC_ClkInitStruct.APB2CLKDivider = RCC_HCLK_DIV1;
 800168c:	2300      	movs	r3, #0
 800168e:	61fb      	str	r3, [r7, #28]

  if (HAL_RCC_ClockConfig(&RCC_ClkInitStruct, FLASH_LATENCY_0) != HAL_OK)
 8001690:	f107 030c 	add.w	r3, r7, #12
 8001694:	2100      	movs	r1, #0
 8001696:	4618      	mov	r0, r3
 8001698:	f003 f934 	bl	8004904 <HAL_RCC_ClockConfig>
 800169c:	4603      	mov	r3, r0
 800169e:	2b00      	cmp	r3, #0
 80016a0:	d001      	beq.n	80016a6 <SystemClock_Config+0xaa>
  {
    Error_Handler();
 80016a2:	f000 fa7a 	bl	8001b9a <Error_Handler>
  }
}
 80016a6:	bf00      	nop
 80016a8:	3750      	adds	r7, #80	@ 0x50
 80016aa:	46bd      	mov	sp, r7
 80016ac:	bd80      	pop	{r7, pc}
 80016ae:	bf00      	nop
 80016b0:	40023800 	.word	0x40023800
 80016b4:	40007000 	.word	0x40007000

080016b8 <MX_ADC1_Init>:
  * @brief ADC1 Initialization Function
  * @param None
  * @retval None
  */
static void MX_ADC1_Init(void)
{
 80016b8:	b580      	push	{r7, lr}
 80016ba:	b084      	sub	sp, #16
 80016bc:	af00      	add	r7, sp, #0

  /* USER CODE BEGIN ADC1_Init 0 */

  /* USER CODE END ADC1_Init 0 */

  ADC_ChannelConfTypeDef sConfig = {0};
 80016be:	463b      	mov	r3, r7
 80016c0:	2200      	movs	r2, #0
 80016c2:	601a      	str	r2, [r3, #0]
 80016c4:	605a      	str	r2, [r3, #4]
 80016c6:	609a      	str	r2, [r3, #8]
 80016c8:	60da      	str	r2, [r3, #12]

  /* USER CODE END ADC1_Init 1 */

  /** Configure the global features of the ADC (Clock, Resolution, Data Alignment and number of conversion)
  */
  hadc1.Instance = ADC1;
 80016ca:	4b21      	ldr	r3, [pc, #132]	@ (8001750 <MX_ADC1_Init+0x98>)
 80016cc:	4a21      	ldr	r2, [pc, #132]	@ (8001754 <MX_ADC1_Init+0x9c>)
 80016ce:	601a      	str	r2, [r3, #0]
  hadc1.Init.ClockPrescaler = ADC_CLOCK_SYNC_PCLK_DIV2;
 80016d0:	4b1f      	ldr	r3, [pc, #124]	@ (8001750 <MX_ADC1_Init+0x98>)
 80016d2:	2200      	movs	r2, #0
 80016d4:	605a      	str	r2, [r3, #4]
  hadc1.Init.Resolution = ADC_RESOLUTION_12B;
 80016d6:	4b1e      	ldr	r3, [pc, #120]	@ (8001750 <MX_ADC1_Init+0x98>)
 80016d8:	2200      	movs	r2, #0
 80016da:	609a      	str	r2, [r3, #8]
  hadc1.Init.ScanConvMode = DISABLE;
 80016dc:	4b1c      	ldr	r3, [pc, #112]	@ (8001750 <MX_ADC1_Init+0x98>)
 80016de:	2200      	movs	r2, #0
 80016e0:	611a      	str	r2, [r3, #16]
  hadc1.Init.ContinuousConvMode = DISABLE;
 80016e2:	4b1b      	ldr	r3, [pc, #108]	@ (8001750 <MX_ADC1_Init+0x98>)
 80016e4:	2200      	movs	r2, #0
 80016e6:	761a      	strb	r2, [r3, #24]
  hadc1.Init.DiscontinuousConvMode = DISABLE;
 80016e8:	4b19      	ldr	r3, [pc, #100]	@ (8001750 <MX_ADC1_Init+0x98>)
 80016ea:	2200      	movs	r2, #0
 80016ec:	f883 2020 	strb.w	r2, [r3, #32]
  hadc1.Init.ExternalTrigConvEdge = ADC_EXTERNALTRIGCONVEDGE_NONE;
 80016f0:	4b17      	ldr	r3, [pc, #92]	@ (8001750 <MX_ADC1_Init+0x98>)
 80016f2:	2200      	movs	r2, #0
 80016f4:	62da      	str	r2, [r3, #44]	@ 0x2c
  hadc1.Init.ExternalTrigConv = ADC_SOFTWARE_START;
 80016f6:	4b16      	ldr	r3, [pc, #88]	@ (8001750 <MX_ADC1_Init+0x98>)
 80016f8:	4a17      	ldr	r2, [pc, #92]	@ (8001758 <MX_ADC1_Init+0xa0>)
 80016fa:	629a      	str	r2, [r3, #40]	@ 0x28
  hadc1.Init.DataAlign = ADC_DATAALIGN_RIGHT;
 80016fc:	4b14      	ldr	r3, [pc, #80]	@ (8001750 <MX_ADC1_Init+0x98>)
 80016fe:	2200      	movs	r2, #0
 8001700:	60da      	str	r2, [r3, #12]
  hadc1.Init.NbrOfConversion = 1;
 8001702:	4b13      	ldr	r3, [pc, #76]	@ (8001750 <MX_ADC1_Init+0x98>)
 8001704:	2201      	movs	r2, #1
 8001706:	61da      	str	r2, [r3, #28]
  hadc1.Init.DMAContinuousRequests = DISABLE;
 8001708:	4b11      	ldr	r3, [pc, #68]	@ (8001750 <MX_ADC1_Init+0x98>)
 800170a:	2200      	movs	r2, #0
 800170c:	f883 2030 	strb.w	r2, [r3, #48]	@ 0x30
  hadc1.Init.EOCSelection = ADC_EOC_SINGLE_CONV;
 8001710:	4b0f      	ldr	r3, [pc, #60]	@ (8001750 <MX_ADC1_Init+0x98>)
 8001712:	2201      	movs	r2, #1
 8001714:	615a      	str	r2, [r3, #20]
  if (HAL_ADC_Init(&hadc1) != HAL_OK)
 8001716:	480e      	ldr	r0, [pc, #56]	@ (8001750 <MX_ADC1_Init+0x98>)
 8001718:	f000 ff3e 	bl	8002598 <HAL_ADC_Init>
 800171c:	4603      	mov	r3, r0
 800171e:	2b00      	cmp	r3, #0
 8001720:	d001      	beq.n	8001726 <MX_ADC1_Init+0x6e>
  {
    Error_Handler();
 8001722:	f000 fa3a 	bl	8001b9a <Error_Handler>
  }

  /** Configure for the selected ADC regular channel its corresponding rank in the sequencer and its sample time.
  */
  sConfig.Channel = ADC_CHANNEL_3;
 8001726:	2303      	movs	r3, #3
 8001728:	603b      	str	r3, [r7, #0]
  sConfig.Rank = 1;
 800172a:	2301      	movs	r3, #1
 800172c:	607b      	str	r3, [r7, #4]
  sConfig.SamplingTime = ADC_SAMPLETIME_480CYCLES;
 800172e:	2307      	movs	r3, #7
 8001730:	60bb      	str	r3, [r7, #8]
  if (HAL_ADC_ConfigChannel(&hadc1, &sConfig) != HAL_OK)
 8001732:	463b      	mov	r3, r7
 8001734:	4619      	mov	r1, r3
 8001736:	4806      	ldr	r0, [pc, #24]	@ (8001750 <MX_ADC1_Init+0x98>)
 8001738:	f001 f982 	bl	8002a40 <HAL_ADC_ConfigChannel>
 800173c:	4603      	mov	r3, r0
 800173e:	2b00      	cmp	r3, #0
 8001740:	d001      	beq.n	8001746 <MX_ADC1_Init+0x8e>
  {
    Error_Handler();
 8001742:	f000 fa2a 	bl	8001b9a <Error_Handler>
  }
  /* USER CODE BEGIN ADC1_Init 2 */

  /* USER CODE END ADC1_Init 2 */

}
 8001746:	bf00      	nop
 8001748:	3710      	adds	r7, #16
 800174a:	46bd      	mov	sp, r7
 800174c:	bd80      	pop	{r7, pc}
 800174e:	bf00      	nop
 8001750:	200001fc 	.word	0x200001fc
 8001754:	40012000 	.word	0x40012000
 8001758:	0f000001 	.word	0x0f000001

0800175c <MX_ADC2_Init>:
  * @brief ADC2 Initialization Function
  * @param None
  * @retval None
  */
static void MX_ADC2_Init(void)
{
 800175c:	b580      	push	{r7, lr}
 800175e:	b084      	sub	sp, #16
 8001760:	af00      	add	r7, sp, #0

  /* USER CODE BEGIN ADC2_Init 0 */

  /* USER CODE END ADC2_Init 0 */

  ADC_ChannelConfTypeDef sConfig = {0};
 8001762:	463b      	mov	r3, r7
 8001764:	2200      	movs	r2, #0
 8001766:	601a      	str	r2, [r3, #0]
 8001768:	605a      	str	r2, [r3, #4]
 800176a:	609a      	str	r2, [r3, #8]
 800176c:	60da      	str	r2, [r3, #12]

  /* USER CODE END ADC2_Init 1 */

  /** Configure the global features of the ADC (Clock, Resolution, Data Alignment and number of conversion)
  */
  hadc2.Instance = ADC2;
 800176e:	4b21      	ldr	r3, [pc, #132]	@ (80017f4 <MX_ADC2_Init+0x98>)
 8001770:	4a21      	ldr	r2, [pc, #132]	@ (80017f8 <MX_ADC2_Init+0x9c>)
 8001772:	601a      	str	r2, [r3, #0]
  hadc2.Init.ClockPrescaler = ADC_CLOCK_SYNC_PCLK_DIV2;
 8001774:	4b1f      	ldr	r3, [pc, #124]	@ (80017f4 <MX_ADC2_Init+0x98>)
 8001776:	2200      	movs	r2, #0
 8001778:	605a      	str	r2, [r3, #4]
  hadc2.Init.Resolution = ADC_RESOLUTION_12B;
 800177a:	4b1e      	ldr	r3, [pc, #120]	@ (80017f4 <MX_ADC2_Init+0x98>)
 800177c:	2200      	movs	r2, #0
 800177e:	609a      	str	r2, [r3, #8]
  hadc2.Init.ScanConvMode = DISABLE;
 8001780:	4b1c      	ldr	r3, [pc, #112]	@ (80017f4 <MX_ADC2_Init+0x98>)
 8001782:	2200      	movs	r2, #0
 8001784:	611a      	str	r2, [r3, #16]
  hadc2.Init.ContinuousConvMode = DISABLE;
 8001786:	4b1b      	ldr	r3, [pc, #108]	@ (80017f4 <MX_ADC2_Init+0x98>)
 8001788:	2200      	movs	r2, #0
 800178a:	761a      	strb	r2, [r3, #24]
  hadc2.Init.DiscontinuousConvMode = DISABLE;
 800178c:	4b19      	ldr	r3, [pc, #100]	@ (80017f4 <MX_ADC2_Init+0x98>)
 800178e:	2200      	movs	r2, #0
 8001790:	f883 2020 	strb.w	r2, [r3, #32]
  hadc2.Init.ExternalTrigConvEdge = ADC_EXTERNALTRIGCONVEDGE_NONE;
 8001794:	4b17      	ldr	r3, [pc, #92]	@ (80017f4 <MX_ADC2_Init+0x98>)
 8001796:	2200      	movs	r2, #0
 8001798:	62da      	str	r2, [r3, #44]	@ 0x2c
  hadc2.Init.ExternalTrigConv = ADC_SOFTWARE_START;
 800179a:	4b16      	ldr	r3, [pc, #88]	@ (80017f4 <MX_ADC2_Init+0x98>)
 800179c:	4a17      	ldr	r2, [pc, #92]	@ (80017fc <MX_ADC2_Init+0xa0>)
 800179e:	629a      	str	r2, [r3, #40]	@ 0x28
  hadc2.Init.DataAlign = ADC_DATAALIGN_RIGHT;
 80017a0:	4b14      	ldr	r3, [pc, #80]	@ (80017f4 <MX_ADC2_Init+0x98>)
 80017a2:	2200      	movs	r2, #0
 80017a4:	60da      	str	r2, [r3, #12]
  hadc2.Init.NbrOfConversion = 1;
 80017a6:	4b13      	ldr	r3, [pc, #76]	@ (80017f4 <MX_ADC2_Init+0x98>)
 80017a8:	2201      	movs	r2, #1
 80017aa:	61da      	str	r2, [r3, #28]
  hadc2.Init.DMAContinuousRequests = DISABLE;
 80017ac:	4b11      	ldr	r3, [pc, #68]	@ (80017f4 <MX_ADC2_Init+0x98>)
 80017ae:	2200      	movs	r2, #0
 80017b0:	f883 2030 	strb.w	r2, [r3, #48]	@ 0x30
  hadc2.Init.EOCSelection = ADC_EOC_SINGLE_CONV;
 80017b4:	4b0f      	ldr	r3, [pc, #60]	@ (80017f4 <MX_ADC2_Init+0x98>)
 80017b6:	2201      	movs	r2, #1
 80017b8:	615a      	str	r2, [r3, #20]
  if (HAL_ADC_Init(&hadc2) != HAL_OK)
 80017ba:	480e      	ldr	r0, [pc, #56]	@ (80017f4 <MX_ADC2_Init+0x98>)
 80017bc:	f000 feec 	bl	8002598 <HAL_ADC_Init>
 80017c0:	4603      	mov	r3, r0
 80017c2:	2b00      	cmp	r3, #0
 80017c4:	d001      	beq.n	80017ca <MX_ADC2_Init+0x6e>
  {
    Error_Handler();
 80017c6:	f000 f9e8 	bl	8001b9a <Error_Handler>
  }

  /** Configure for the selected ADC regular channel its corresponding rank in the sequencer and its sample time.
  */
  sConfig.Channel = ADC_CHANNEL_0;
 80017ca:	2300      	movs	r3, #0
 80017cc:	603b      	str	r3, [r7, #0]
  sConfig.Rank = 1;
 80017ce:	2301      	movs	r3, #1
 80017d0:	607b      	str	r3, [r7, #4]
  sConfig.SamplingTime = ADC_SAMPLETIME_480CYCLES;
 80017d2:	2307      	movs	r3, #7
 80017d4:	60bb      	str	r3, [r7, #8]
  if (HAL_ADC_ConfigChannel(&hadc2, &sConfig) != HAL_OK)
 80017d6:	463b      	mov	r3, r7
 80017d8:	4619      	mov	r1, r3
 80017da:	4806      	ldr	r0, [pc, #24]	@ (80017f4 <MX_ADC2_Init+0x98>)
 80017dc:	f001 f930 	bl	8002a40 <HAL_ADC_ConfigChannel>
 80017e0:	4603      	mov	r3, r0
 80017e2:	2b00      	cmp	r3, #0
 80017e4:	d001      	beq.n	80017ea <MX_ADC2_Init+0x8e>
  {
    Error_Handler();
 80017e6:	f000 f9d8 	bl	8001b9a <Error_Handler>
  }
  /* USER CODE BEGIN ADC2_Init 2 */

  /* USER CODE END ADC2_Init 2 */

}
 80017ea:	bf00      	nop
 80017ec:	3710      	adds	r7, #16
 80017ee:	46bd      	mov	sp, r7
 80017f0:	bd80      	pop	{r7, pc}
 80017f2:	bf00      	nop
 80017f4:	20000244 	.word	0x20000244
 80017f8:	40012100 	.word	0x40012100
 80017fc:	0f000001 	.word	0x0f000001

08001800 <MX_I2C1_Init>:
  * @brief I2C1 Initialization Function
  * @param None
  * @retval None
  */
static void MX_I2C1_Init(void)
{
 8001800:	b580      	push	{r7, lr}
 8001802:	af00      	add	r7, sp, #0
  /* USER CODE END I2C1_Init 0 */

  /* USER CODE BEGIN I2C1_Init 1 */

  /* USER CODE END I2C1_Init 1 */
  hi2c1.Instance = I2C1;
 8001804:	4b12      	ldr	r3, [pc, #72]	@ (8001850 <MX_I2C1_Init+0x50>)
 8001806:	4a13      	ldr	r2, [pc, #76]	@ (8001854 <MX_I2C1_Init+0x54>)
 8001808:	601a      	str	r2, [r3, #0]
  hi2c1.Init.ClockSpeed = 100000;
 800180a:	4b11      	ldr	r3, [pc, #68]	@ (8001850 <MX_I2C1_Init+0x50>)
 800180c:	4a12      	ldr	r2, [pc, #72]	@ (8001858 <MX_I2C1_Init+0x58>)
 800180e:	605a      	str	r2, [r3, #4]
  hi2c1.Init.DutyCycle = I2C_DUTYCYCLE_2;
 8001810:	4b0f      	ldr	r3, [pc, #60]	@ (8001850 <MX_I2C1_Init+0x50>)
 8001812:	2200      	movs	r2, #0
 8001814:	609a      	str	r2, [r3, #8]
  hi2c1.Init.OwnAddress1 = 0;
 8001816:	4b0e      	ldr	r3, [pc, #56]	@ (8001850 <MX_I2C1_Init+0x50>)
 8001818:	2200      	movs	r2, #0
 800181a:	60da      	str	r2, [r3, #12]
  hi2c1.Init.AddressingMode = I2C_ADDRESSINGMODE_7BIT;
 800181c:	4b0c      	ldr	r3, [pc, #48]	@ (8001850 <MX_I2C1_Init+0x50>)
 800181e:	f44f 4280 	mov.w	r2, #16384	@ 0x4000
 8001822:	611a      	str	r2, [r3, #16]
  hi2c1.Init.DualAddressMode = I2C_DUALADDRESS_DISABLE;
 8001824:	4b0a      	ldr	r3, [pc, #40]	@ (8001850 <MX_I2C1_Init+0x50>)
 8001826:	2200      	movs	r2, #0
 8001828:	615a      	str	r2, [r3, #20]
  hi2c1.Init.OwnAddress2 = 0;
 800182a:	4b09      	ldr	r3, [pc, #36]	@ (8001850 <MX_I2C1_Init+0x50>)
 800182c:	2200      	movs	r2, #0
 800182e:	619a      	str	r2, [r3, #24]
  hi2c1.Init.GeneralCallMode = I2C_GENERALCALL_DISABLE;
 8001830:	4b07      	ldr	r3, [pc, #28]	@ (8001850 <MX_I2C1_Init+0x50>)
 8001832:	2200      	movs	r2, #0
 8001834:	61da      	str	r2, [r3, #28]
  hi2c1.Init.NoStretchMode = I2C_NOSTRETCH_DISABLE;
 8001836:	4b06      	ldr	r3, [pc, #24]	@ (8001850 <MX_I2C1_Init+0x50>)
 8001838:	2200      	movs	r2, #0
 800183a:	621a      	str	r2, [r3, #32]
  if (HAL_I2C_Init(&hi2c1) != HAL_OK)
 800183c:	4804      	ldr	r0, [pc, #16]	@ (8001850 <MX_I2C1_Init+0x50>)
 800183e:	f001 fdef 	bl	8003420 <HAL_I2C_Init>
 8001842:	4603      	mov	r3, r0
 8001844:	2b00      	cmp	r3, #0
 8001846:	d001      	beq.n	800184c <MX_I2C1_Init+0x4c>
  {
    Error_Handler();
 8001848:	f000 f9a7 	bl	8001b9a <Error_Handler>
  }
  /* USER CODE BEGIN I2C1_Init 2 */

  /* USER CODE END I2C1_Init 2 */

}
 800184c:	bf00      	nop
 800184e:	bd80      	pop	{r7, pc}
 8001850:	2000028c 	.word	0x2000028c
 8001854:	40005400 	.word	0x40005400
 8001858:	000186a0 	.word	0x000186a0

0800185c <MX_TIM1_Init>:
  * @brief TIM1 Initialization Function
  * @param None
  * @retval None
  */
static void MX_TIM1_Init(void)
{
 800185c:	b580      	push	{r7, lr}
 800185e:	b086      	sub	sp, #24
 8001860:	af00      	add	r7, sp, #0

  /* USER CODE BEGIN TIM1_Init 0 */

  /* USER CODE END TIM1_Init 0 */

  TIM_MasterConfigTypeDef sMasterConfig = {0};
 8001862:	f107 0310 	add.w	r3, r7, #16
 8001866:	2200      	movs	r2, #0
 8001868:	601a      	str	r2, [r3, #0]
 800186a:	605a      	str	r2, [r3, #4]
  TIM_IC_InitTypeDef sConfigIC = {0};
 800186c:	463b      	mov	r3, r7
 800186e:	2200      	movs	r2, #0
 8001870:	601a      	str	r2, [r3, #0]
 8001872:	605a      	str	r2, [r3, #4]
 8001874:	609a      	str	r2, [r3, #8]
 8001876:	60da      	str	r2, [r3, #12]

  /* USER CODE BEGIN TIM1_Init 1 */

  /* USER CODE END TIM1_Init 1 */
  htim1.Instance = TIM1;
 8001878:	4b21      	ldr	r3, [pc, #132]	@ (8001900 <MX_TIM1_Init+0xa4>)
 800187a:	4a22      	ldr	r2, [pc, #136]	@ (8001904 <MX_TIM1_Init+0xa8>)
 800187c:	601a      	str	r2, [r3, #0]
  htim1.Init.Prescaler = 16-1;
 800187e:	4b20      	ldr	r3, [pc, #128]	@ (8001900 <MX_TIM1_Init+0xa4>)
 8001880:	220f      	movs	r2, #15
 8001882:	605a      	str	r2, [r3, #4]
  htim1.Init.CounterMode = TIM_COUNTERMODE_UP;
 8001884:	4b1e      	ldr	r3, [pc, #120]	@ (8001900 <MX_TIM1_Init+0xa4>)
 8001886:	2200      	movs	r2, #0
 8001888:	609a      	str	r2, [r3, #8]
  htim1.Init.Period = 65535;
 800188a:	4b1d      	ldr	r3, [pc, #116]	@ (8001900 <MX_TIM1_Init+0xa4>)
 800188c:	f64f 72ff 	movw	r2, #65535	@ 0xffff
 8001890:	60da      	str	r2, [r3, #12]
  htim1.Init.ClockDivision = TIM_CLOCKDIVISION_DIV1;
 8001892:	4b1b      	ldr	r3, [pc, #108]	@ (8001900 <MX_TIM1_Init+0xa4>)
 8001894:	2200      	movs	r2, #0
 8001896:	611a      	str	r2, [r3, #16]
  htim1.Init.RepetitionCounter = 0;
 8001898:	4b19      	ldr	r3, [pc, #100]	@ (8001900 <MX_TIM1_Init+0xa4>)
 800189a:	2200      	movs	r2, #0
 800189c:	615a      	str	r2, [r3, #20]
  htim1.Init.AutoReloadPreload = TIM_AUTORELOAD_PRELOAD_DISABLE;
 800189e:	4b18      	ldr	r3, [pc, #96]	@ (8001900 <MX_TIM1_Init+0xa4>)
 80018a0:	2200      	movs	r2, #0
 80018a2:	619a      	str	r2, [r3, #24]
  if (HAL_TIM_IC_Init(&htim1) != HAL_OK)
 80018a4:	4816      	ldr	r0, [pc, #88]	@ (8001900 <MX_TIM1_Init+0xa4>)
 80018a6:	f003 fb11 	bl	8004ecc <HAL_TIM_IC_Init>
 80018aa:	4603      	mov	r3, r0
 80018ac:	2b00      	cmp	r3, #0
 80018ae:	d001      	beq.n	80018b4 <MX_TIM1_Init+0x58>
  {
    Error_Handler();
 80018b0:	f000 f973 	bl	8001b9a <Error_Handler>
  }
  sMasterConfig.MasterOutputTrigger = TIM_TRGO_RESET;
 80018b4:	2300      	movs	r3, #0
 80018b6:	613b      	str	r3, [r7, #16]
  sMasterConfig.MasterSlaveMode = TIM_MASTERSLAVEMODE_DISABLE;
 80018b8:	2300      	movs	r3, #0
 80018ba:	617b      	str	r3, [r7, #20]
  if (HAL_TIMEx_MasterConfigSynchronization(&htim1, &sMasterConfig) != HAL_OK)
 80018bc:	f107 0310 	add.w	r3, r7, #16
 80018c0:	4619      	mov	r1, r3
 80018c2:	480f      	ldr	r0, [pc, #60]	@ (8001900 <MX_TIM1_Init+0xa4>)
 80018c4:	f004 f9d0 	bl	8005c68 <HAL_TIMEx_MasterConfigSynchronization>
 80018c8:	4603      	mov	r3, r0
 80018ca:	2b00      	cmp	r3, #0
 80018cc:	d001      	beq.n	80018d2 <MX_TIM1_Init+0x76>
  {
    Error_Handler();
 80018ce:	f000 f964 	bl	8001b9a <Error_Handler>
  }
  sConfigIC.ICPolarity = TIM_INPUTCHANNELPOLARITY_RISING;
 80018d2:	2300      	movs	r3, #0
 80018d4:	603b      	str	r3, [r7, #0]
  sConfigIC.ICSelection = TIM_ICSELECTION_DIRECTTI;
 80018d6:	2301      	movs	r3, #1
 80018d8:	607b      	str	r3, [r7, #4]
  sConfigIC.ICPrescaler = TIM_ICPSC_DIV1;
 80018da:	2300      	movs	r3, #0
 80018dc:	60bb      	str	r3, [r7, #8]
  sConfigIC.ICFilter = 0;
 80018de:	2300      	movs	r3, #0
 80018e0:	60fb      	str	r3, [r7, #12]
  if (HAL_TIM_IC_ConfigChannel(&htim1, &sConfigIC, TIM_CHANNEL_2) != HAL_OK)
 80018e2:	463b      	mov	r3, r7
 80018e4:	2204      	movs	r2, #4
 80018e6:	4619      	mov	r1, r3
 80018e8:	4805      	ldr	r0, [pc, #20]	@ (8001900 <MX_TIM1_Init+0xa4>)
 80018ea:	f003 fd57 	bl	800539c <HAL_TIM_IC_ConfigChannel>
 80018ee:	4603      	mov	r3, r0
 80018f0:	2b00      	cmp	r3, #0
 80018f2:	d001      	beq.n	80018f8 <MX_TIM1_Init+0x9c>
  {
    Error_Handler();
 80018f4:	f000 f951 	bl	8001b9a <Error_Handler>
  }
  /* USER CODE BEGIN TIM1_Init 2 */

  /* USER CODE END TIM1_Init 2 */

}
 80018f8:	bf00      	nop
 80018fa:	3718      	adds	r7, #24
 80018fc:	46bd      	mov	sp, r7
 80018fe:	bd80      	pop	{r7, pc}
 8001900:	200002e0 	.word	0x200002e0
 8001904:	40010000 	.word	0x40010000

08001908 <MX_TIM4_Init>:
  * @brief TIM4 Initialization Function
  * @param None
  * @retval None
  */
static void MX_TIM4_Init(void)
{
 8001908:	b580      	push	{r7, lr}
 800190a:	b086      	sub	sp, #24
 800190c:	af00      	add	r7, sp, #0

  /* USER CODE BEGIN TIM4_Init 0 */

  /* USER CODE END TIM4_Init 0 */

  TIM_ClockConfigTypeDef sClockSourceConfig = {0};
 800190e:	f107 0308 	add.w	r3, r7, #8
 8001912:	2200      	movs	r2, #0
 8001914:	601a      	str	r2, [r3, #0]
 8001916:	605a      	str	r2, [r3, #4]
 8001918:	609a      	str	r2, [r3, #8]
 800191a:	60da      	str	r2, [r3, #12]
  TIM_MasterConfigTypeDef sMasterConfig = {0};
 800191c:	463b      	mov	r3, r7
 800191e:	2200      	movs	r2, #0
 8001920:	601a      	str	r2, [r3, #0]
 8001922:	605a      	str	r2, [r3, #4]

  /* USER CODE BEGIN TIM4_Init 1 */

  /* USER CODE END TIM4_Init 1 */
  htim4.Instance = TIM4;
 8001924:	4b1d      	ldr	r3, [pc, #116]	@ (800199c <MX_TIM4_Init+0x94>)
 8001926:	4a1e      	ldr	r2, [pc, #120]	@ (80019a0 <MX_TIM4_Init+0x98>)
 8001928:	601a      	str	r2, [r3, #0]
  htim4.Init.Prescaler = 0;
 800192a:	4b1c      	ldr	r3, [pc, #112]	@ (800199c <MX_TIM4_Init+0x94>)
 800192c:	2200      	movs	r2, #0
 800192e:	605a      	str	r2, [r3, #4]
  htim4.Init.CounterMode = TIM_COUNTERMODE_UP;
 8001930:	4b1a      	ldr	r3, [pc, #104]	@ (800199c <MX_TIM4_Init+0x94>)
 8001932:	2200      	movs	r2, #0
 8001934:	609a      	str	r2, [r3, #8]
  htim4.Init.Period = 65535;
 8001936:	4b19      	ldr	r3, [pc, #100]	@ (800199c <MX_TIM4_Init+0x94>)
 8001938:	f64f 72ff 	movw	r2, #65535	@ 0xffff
 800193c:	60da      	str	r2, [r3, #12]
  htim4.Init.ClockDivision = TIM_CLOCKDIVISION_DIV1;
 800193e:	4b17      	ldr	r3, [pc, #92]	@ (800199c <MX_TIM4_Init+0x94>)
 8001940:	2200      	movs	r2, #0
 8001942:	611a      	str	r2, [r3, #16]
  htim4.Init.AutoReloadPreload = TIM_AUTORELOAD_PRELOAD_DISABLE;
 8001944:	4b15      	ldr	r3, [pc, #84]	@ (800199c <MX_TIM4_Init+0x94>)
 8001946:	2200      	movs	r2, #0
 8001948:	619a      	str	r2, [r3, #24]
  if (HAL_TIM_Base_Init(&htim4) != HAL_OK)
 800194a:	4814      	ldr	r0, [pc, #80]	@ (800199c <MX_TIM4_Init+0x94>)
 800194c:	f003 f9a6 	bl	8004c9c <HAL_TIM_Base_Init>
 8001950:	4603      	mov	r3, r0
 8001952:	2b00      	cmp	r3, #0
 8001954:	d001      	beq.n	800195a <MX_TIM4_Init+0x52>
  {
    Error_Handler();
 8001956:	f000 f920 	bl	8001b9a <Error_Handler>
  }
  sClockSourceConfig.ClockSource = TIM_CLOCKSOURCE_INTERNAL;
 800195a:	f44f 5380 	mov.w	r3, #4096	@ 0x1000
 800195e:	60bb      	str	r3, [r7, #8]
  if (HAL_TIM_ConfigClockSource(&htim4, &sClockSourceConfig) != HAL_OK)
 8001960:	f107 0308 	add.w	r3, r7, #8
 8001964:	4619      	mov	r1, r3
 8001966:	480d      	ldr	r0, [pc, #52]	@ (800199c <MX_TIM4_Init+0x94>)
 8001968:	f003 fdb4 	bl	80054d4 <HAL_TIM_ConfigClockSource>
 800196c:	4603      	mov	r3, r0
 800196e:	2b00      	cmp	r3, #0
 8001970:	d001      	beq.n	8001976 <MX_TIM4_Init+0x6e>
  {
    Error_Handler();
 8001972:	f000 f912 	bl	8001b9a <Error_Handler>
  }
  sMasterConfig.MasterOutputTrigger = TIM_TRGO_RESET;
 8001976:	2300      	movs	r3, #0
 8001978:	603b      	str	r3, [r7, #0]
  sMasterConfig.MasterSlaveMode = TIM_MASTERSLAVEMODE_DISABLE;
 800197a:	2300      	movs	r3, #0
 800197c:	607b      	str	r3, [r7, #4]
  if (HAL_TIMEx_MasterConfigSynchronization(&htim4, &sMasterConfig) != HAL_OK)
 800197e:	463b      	mov	r3, r7
 8001980:	4619      	mov	r1, r3
 8001982:	4806      	ldr	r0, [pc, #24]	@ (800199c <MX_TIM4_Init+0x94>)
 8001984:	f004 f970 	bl	8005c68 <HAL_TIMEx_MasterConfigSynchronization>
 8001988:	4603      	mov	r3, r0
 800198a:	2b00      	cmp	r3, #0
 800198c:	d001      	beq.n	8001992 <MX_TIM4_Init+0x8a>
  {
    Error_Handler();
 800198e:	f000 f904 	bl	8001b9a <Error_Handler>
  }
  /* USER CODE BEGIN TIM4_Init 2 */

  /* USER CODE END TIM4_Init 2 */

}
 8001992:	bf00      	nop
 8001994:	3718      	adds	r7, #24
 8001996:	46bd      	mov	sp, r7
 8001998:	bd80      	pop	{r7, pc}
 800199a:	bf00      	nop
 800199c:	20000328 	.word	0x20000328
 80019a0:	40000800 	.word	0x40000800

080019a4 <MX_GPIO_Init>:
  * @brief GPIO Initialization Function
  * @param None
  * @retval None
  */
static void MX_GPIO_Init(void)
{
 80019a4:	b580      	push	{r7, lr}
 80019a6:	b08a      	sub	sp, #40	@ 0x28
 80019a8:	af00      	add	r7, sp, #0
  GPIO_InitTypeDef GPIO_InitStruct = {0};
 80019aa:	f107 0314 	add.w	r3, r7, #20
 80019ae:	2200      	movs	r2, #0
 80019b0:	601a      	str	r2, [r3, #0]
 80019b2:	605a      	str	r2, [r3, #4]
 80019b4:	609a      	str	r2, [r3, #8]
 80019b6:	60da      	str	r2, [r3, #12]
 80019b8:	611a      	str	r2, [r3, #16]
/* USER CODE BEGIN MX_GPIO_Init_1 */
/* USER CODE END MX_GPIO_Init_1 */

  /* GPIO Ports Clock Enable */
  __HAL_RCC_GPIOE_CLK_ENABLE();
 80019ba:	2300      	movs	r3, #0
 80019bc:	613b      	str	r3, [r7, #16]
 80019be:	4b53      	ldr	r3, [pc, #332]	@ (8001b0c <MX_GPIO_Init+0x168>)
 80019c0:	6b1b      	ldr	r3, [r3, #48]	@ 0x30
 80019c2:	4a52      	ldr	r2, [pc, #328]	@ (8001b0c <MX_GPIO_Init+0x168>)
 80019c4:	f043 0310 	orr.w	r3, r3, #16
 80019c8:	6313      	str	r3, [r2, #48]	@ 0x30
 80019ca:	4b50      	ldr	r3, [pc, #320]	@ (8001b0c <MX_GPIO_Init+0x168>)
 80019cc:	6b1b      	ldr	r3, [r3, #48]	@ 0x30
 80019ce:	f003 0310 	and.w	r3, r3, #16
 80019d2:	613b      	str	r3, [r7, #16]
 80019d4:	693b      	ldr	r3, [r7, #16]
  __HAL_RCC_GPIOH_CLK_ENABLE();
 80019d6:	2300      	movs	r3, #0
 80019d8:	60fb      	str	r3, [r7, #12]
 80019da:	4b4c      	ldr	r3, [pc, #304]	@ (8001b0c <MX_GPIO_Init+0x168>)
 80019dc:	6b1b      	ldr	r3, [r3, #48]	@ 0x30
 80019de:	4a4b      	ldr	r2, [pc, #300]	@ (8001b0c <MX_GPIO_Init+0x168>)
 80019e0:	f043 0380 	orr.w	r3, r3, #128	@ 0x80
 80019e4:	6313      	str	r3, [r2, #48]	@ 0x30
 80019e6:	4b49      	ldr	r3, [pc, #292]	@ (8001b0c <MX_GPIO_Init+0x168>)
 80019e8:	6b1b      	ldr	r3, [r3, #48]	@ 0x30
 80019ea:	f003 0380 	and.w	r3, r3, #128	@ 0x80
 80019ee:	60fb      	str	r3, [r7, #12]
 80019f0:	68fb      	ldr	r3, [r7, #12]
  __HAL_RCC_GPIOA_CLK_ENABLE();
 80019f2:	2300      	movs	r3, #0
 80019f4:	60bb      	str	r3, [r7, #8]
 80019f6:	4b45      	ldr	r3, [pc, #276]	@ (8001b0c <MX_GPIO_Init+0x168>)
 80019f8:	6b1b      	ldr	r3, [r3, #48]	@ 0x30
 80019fa:	4a44      	ldr	r2, [pc, #272]	@ (8001b0c <MX_GPIO_Init+0x168>)
 80019fc:	f043 0301 	orr.w	r3, r3, #1
 8001a00:	6313      	str	r3, [r2, #48]	@ 0x30
 8001a02:	4b42      	ldr	r3, [pc, #264]	@ (8001b0c <MX_GPIO_Init+0x168>)
 8001a04:	6b1b      	ldr	r3, [r3, #48]	@ 0x30
 8001a06:	f003 0301 	and.w	r3, r3, #1
 8001a0a:	60bb      	str	r3, [r7, #8]
 8001a0c:	68bb      	ldr	r3, [r7, #8]
  __HAL_RCC_GPIOB_CLK_ENABLE();
 8001a0e:	2300      	movs	r3, #0
 8001a10:	607b      	str	r3, [r7, #4]
 8001a12:	4b3e      	ldr	r3, [pc, #248]	@ (8001b0c <MX_GPIO_Init+0x168>)
 8001a14:	6b1b      	ldr	r3, [r3, #48]	@ 0x30
 8001a16:	4a3d      	ldr	r2, [pc, #244]	@ (8001b0c <MX_GPIO_Init+0x168>)
 8001a18:	f043 0302 	orr.w	r3, r3, #2
 8001a1c:	6313      	str	r3, [r2, #48]	@ 0x30
 8001a1e:	4b3b      	ldr	r3, [pc, #236]	@ (8001b0c <MX_GPIO_Init+0x168>)
 8001a20:	6b1b      	ldr	r3, [r3, #48]	@ 0x30
 8001a22:	f003 0302 	and.w	r3, r3, #2
 8001a26:	607b      	str	r3, [r7, #4]
 8001a28:	687b      	ldr	r3, [r7, #4]
  __HAL_RCC_GPIOD_CLK_ENABLE();
 8001a2a:	2300      	movs	r3, #0
 8001a2c:	603b      	str	r3, [r7, #0]
 8001a2e:	4b37      	ldr	r3, [pc, #220]	@ (8001b0c <MX_GPIO_Init+0x168>)
 8001a30:	6b1b      	ldr	r3, [r3, #48]	@ 0x30
 8001a32:	4a36      	ldr	r2, [pc, #216]	@ (8001b0c <MX_GPIO_Init+0x168>)
 8001a34:	f043 0308 	orr.w	r3, r3, #8
 8001a38:	6313      	str	r3, [r2, #48]	@ 0x30
 8001a3a:	4b34      	ldr	r3, [pc, #208]	@ (8001b0c <MX_GPIO_Init+0x168>)
 8001a3c:	6b1b      	ldr	r3, [r3, #48]	@ 0x30
 8001a3e:	f003 0308 	and.w	r3, r3, #8
 8001a42:	603b      	str	r3, [r7, #0]
 8001a44:	683b      	ldr	r3, [r7, #0]

  /*Configure GPIO pin Output Level */
  HAL_GPIO_WritePin(GPIOE, GPIO_PIN_5|LCD_RS_Pin|LCD_RW_Pin|LCD_E_Pin
 8001a46:	2200      	movs	r2, #0
 8001a48:	f64f 41a0 	movw	r1, #64672	@ 0xfca0
 8001a4c:	4830      	ldr	r0, [pc, #192]	@ (8001b10 <MX_GPIO_Init+0x16c>)
 8001a4e:	f001 fccd 	bl	80033ec <HAL_GPIO_WritePin>
                          |LCD_D4_Pin|LCD_D5_Pin|LCD_D6_Pin|LCD_D7_Pin, GPIO_PIN_RESET);

  /*Configure GPIO pin Output Level */
  HAL_GPIO_WritePin(GPIOA, GPIO_PIN_1, GPIO_PIN_RESET);
 8001a52:	2200      	movs	r2, #0
 8001a54:	2102      	movs	r1, #2
 8001a56:	482f      	ldr	r0, [pc, #188]	@ (8001b14 <MX_GPIO_Init+0x170>)
 8001a58:	f001 fcc8 	bl	80033ec <HAL_GPIO_WritePin>

  /*Configure GPIO pin Output Level */
  HAL_GPIO_WritePin(GPIOB, GPIO_PIN_11, GPIO_PIN_RESET);
 8001a5c:	2200      	movs	r2, #0
 8001a5e:	f44f 6100 	mov.w	r1, #2048	@ 0x800
 8001a62:	482d      	ldr	r0, [pc, #180]	@ (8001b18 <MX_GPIO_Init+0x174>)
 8001a64:	f001 fcc2 	bl	80033ec <HAL_GPIO_WritePin>

  /*Configure GPIO pin Output Level */
  HAL_GPIO_WritePin(GPIOD, GPIO_PIN_12|GPIO_PIN_13|GPIO_PIN_14|GPIO_PIN_15, GPIO_PIN_RESET);
 8001a68:	2200      	movs	r2, #0
 8001a6a:	f44f 4170 	mov.w	r1, #61440	@ 0xf000
 8001a6e:	482b      	ldr	r0, [pc, #172]	@ (8001b1c <MX_GPIO_Init+0x178>)
 8001a70:	f001 fcbc 	bl	80033ec <HAL_GPIO_WritePin>

  /*Configure GPIO pins : PE5 LCD_RS_Pin LCD_RW_Pin LCD_E_Pin
                           LCD_D4_Pin LCD_D5_Pin LCD_D6_Pin LCD_D7_Pin */
  GPIO_InitStruct.Pin = GPIO_PIN_5|LCD_RS_Pin|LCD_RW_Pin|LCD_E_Pin
 8001a74:	f64f 43a0 	movw	r3, #64672	@ 0xfca0
 8001a78:	617b      	str	r3, [r7, #20]
                          |LCD_D4_Pin|LCD_D5_Pin|LCD_D6_Pin|LCD_D7_Pin;
  GPIO_InitStruct.Mode = GPIO_MODE_OUTPUT_PP;
 8001a7a:	2301      	movs	r3, #1
 8001a7c:	61bb      	str	r3, [r7, #24]
  GPIO_InitStruct.Pull = GPIO_NOPULL;
 8001a7e:	2300      	movs	r3, #0
 8001a80:	61fb      	str	r3, [r7, #28]
  GPIO_InitStruct.Speed = GPIO_SPEED_FREQ_LOW;
 8001a82:	2300      	movs	r3, #0
 8001a84:	623b      	str	r3, [r7, #32]
  HAL_GPIO_Init(GPIOE, &GPIO_InitStruct);
 8001a86:	f107 0314 	add.w	r3, r7, #20
 8001a8a:	4619      	mov	r1, r3
 8001a8c:	4820      	ldr	r0, [pc, #128]	@ (8001b10 <MX_GPIO_Init+0x16c>)
 8001a8e:	f001 fb11 	bl	80030b4 <HAL_GPIO_Init>

  /*Configure GPIO pin : PA1 */
  GPIO_InitStruct.Pin = GPIO_PIN_1;
 8001a92:	2302      	movs	r3, #2
 8001a94:	617b      	str	r3, [r7, #20]
  GPIO_InitStruct.Mode = GPIO_MODE_OUTPUT_PP;
 8001a96:	2301      	movs	r3, #1
 8001a98:	61bb      	str	r3, [r7, #24]
  GPIO_InitStruct.Pull = GPIO_NOPULL;
 8001a9a:	2300      	movs	r3, #0
 8001a9c:	61fb      	str	r3, [r7, #28]
  GPIO_InitStruct.Speed = GPIO_SPEED_FREQ_LOW;
 8001a9e:	2300      	movs	r3, #0
 8001aa0:	623b      	str	r3, [r7, #32]
  HAL_GPIO_Init(GPIOA, &GPIO_InitStruct);
 8001aa2:	f107 0314 	add.w	r3, r7, #20
 8001aa6:	4619      	mov	r1, r3
 8001aa8:	481a      	ldr	r0, [pc, #104]	@ (8001b14 <MX_GPIO_Init+0x170>)
 8001aaa:	f001 fb03 	bl	80030b4 <HAL_GPIO_Init>

  /*Configure GPIO pin : PE8 */
  GPIO_InitStruct.Pin = GPIO_PIN_8;
 8001aae:	f44f 7380 	mov.w	r3, #256	@ 0x100
 8001ab2:	617b      	str	r3, [r7, #20]
  GPIO_InitStruct.Mode = GPIO_MODE_INPUT;
 8001ab4:	2300      	movs	r3, #0
 8001ab6:	61bb      	str	r3, [r7, #24]
  GPIO_InitStruct.Pull = GPIO_NOPULL;
 8001ab8:	2300      	movs	r3, #0
 8001aba:	61fb      	str	r3, [r7, #28]
  HAL_GPIO_Init(GPIOE, &GPIO_InitStruct);
 8001abc:	f107 0314 	add.w	r3, r7, #20
 8001ac0:	4619      	mov	r1, r3
 8001ac2:	4813      	ldr	r0, [pc, #76]	@ (8001b10 <MX_GPIO_Init+0x16c>)
 8001ac4:	f001 faf6 	bl	80030b4 <HAL_GPIO_Init>

  /*Configure GPIO pin : PB11 */
  GPIO_InitStruct.Pin = GPIO_PIN_11;
 8001ac8:	f44f 6300 	mov.w	r3, #2048	@ 0x800
 8001acc:	617b      	str	r3, [r7, #20]
  GPIO_InitStruct.Mode = GPIO_MODE_OUTPUT_PP;
 8001ace:	2301      	movs	r3, #1
 8001ad0:	61bb      	str	r3, [r7, #24]
  GPIO_InitStruct.Pull = GPIO_NOPULL;
 8001ad2:	2300      	movs	r3, #0
 8001ad4:	61fb      	str	r3, [r7, #28]
  GPIO_InitStruct.Speed = GPIO_SPEED_FREQ_LOW;
 8001ad6:	2300      	movs	r3, #0
 8001ad8:	623b      	str	r3, [r7, #32]
  HAL_GPIO_Init(GPIOB, &GPIO_InitStruct);
 8001ada:	f107 0314 	add.w	r3, r7, #20
 8001ade:	4619      	mov	r1, r3
 8001ae0:	480d      	ldr	r0, [pc, #52]	@ (8001b18 <MX_GPIO_Init+0x174>)
 8001ae2:	f001 fae7 	bl	80030b4 <HAL_GPIO_Init>

  /*Configure GPIO pins : PD12 PD13 PD14 PD15 */
  GPIO_InitStruct.Pin = GPIO_PIN_12|GPIO_PIN_13|GPIO_PIN_14|GPIO_PIN_15;
 8001ae6:	f44f 4370 	mov.w	r3, #61440	@ 0xf000
 8001aea:	617b      	str	r3, [r7, #20]
  GPIO_InitStruct.Mode = GPIO_MODE_OUTPUT_PP;
 8001aec:	2301      	movs	r3, #1
 8001aee:	61bb      	str	r3, [r7, #24]
  GPIO_InitStruct.Pull = GPIO_NOPULL;
 8001af0:	2300      	movs	r3, #0
 8001af2:	61fb      	str	r3, [r7, #28]
  GPIO_InitStruct.Speed = GPIO_SPEED_FREQ_LOW;
 8001af4:	2300      	movs	r3, #0
 8001af6:	623b      	str	r3, [r7, #32]
  HAL_GPIO_Init(GPIOD, &GPIO_InitStruct);
 8001af8:	f107 0314 	add.w	r3, r7, #20
 8001afc:	4619      	mov	r1, r3
 8001afe:	4807      	ldr	r0, [pc, #28]	@ (8001b1c <MX_GPIO_Init+0x178>)
 8001b00:	f001 fad8 	bl	80030b4 <HAL_GPIO_Init>

/* USER CODE BEGIN MX_GPIO_Init_2 */
/* USER CODE END MX_GPIO_Init_2 */
}
 8001b04:	bf00      	nop
 8001b06:	3728      	adds	r7, #40	@ 0x28
 8001b08:	46bd      	mov	sp, r7
 8001b0a:	bd80      	pop	{r7, pc}
 8001b0c:	40023800 	.word	0x40023800
 8001b10:	40021000 	.word	0x40021000
 8001b14:	40020000 	.word	0x40020000
 8001b18:	40020400 	.word	0x40020400
 8001b1c:	40020c00 	.word	0x40020c00

08001b20 <HAL_ADC_ConvCpltCallback>:

/* USER CODE BEGIN 4 */

void HAL_ADC_ConvCpltCallback(ADC_HandleTypeDef* hadc)
{
 8001b20:	b480      	push	{r7}
 8001b22:	b083      	sub	sp, #12
 8001b24:	af00      	add	r7, sp, #0
 8001b26:	6078      	str	r0, [r7, #4]
  if (hadc->Instance == ADC1)
 8001b28:	687b      	ldr	r3, [r7, #4]
 8001b2a:	681b      	ldr	r3, [r3, #0]
 8001b2c:	4a0a      	ldr	r2, [pc, #40]	@ (8001b58 <HAL_ADC_ConvCpltCallback+0x38>)
 8001b2e:	4293      	cmp	r3, r2
 8001b30:	d103      	bne.n	8001b3a <HAL_ADC_ConvCpltCallback+0x1a>
	  adc1Flag = 1;
 8001b32:	4b0a      	ldr	r3, [pc, #40]	@ (8001b5c <HAL_ADC_ConvCpltCallback+0x3c>)
 8001b34:	2201      	movs	r2, #1
 8001b36:	601a      	str	r2, [r3, #0]
  else if (hadc->Instance == ADC2)
	  adc2Flag = 1;
}
 8001b38:	e007      	b.n	8001b4a <HAL_ADC_ConvCpltCallback+0x2a>
  else if (hadc->Instance == ADC2)
 8001b3a:	687b      	ldr	r3, [r7, #4]
 8001b3c:	681b      	ldr	r3, [r3, #0]
 8001b3e:	4a08      	ldr	r2, [pc, #32]	@ (8001b60 <HAL_ADC_ConvCpltCallback+0x40>)
 8001b40:	4293      	cmp	r3, r2
 8001b42:	d102      	bne.n	8001b4a <HAL_ADC_ConvCpltCallback+0x2a>
	  adc2Flag = 1;
 8001b44:	4b07      	ldr	r3, [pc, #28]	@ (8001b64 <HAL_ADC_ConvCpltCallback+0x44>)
 8001b46:	2201      	movs	r2, #1
 8001b48:	601a      	str	r2, [r3, #0]
}
 8001b4a:	bf00      	nop
 8001b4c:	370c      	adds	r7, #12
 8001b4e:	46bd      	mov	sp, r7
 8001b50:	f85d 7b04 	ldr.w	r7, [sp], #4
 8001b54:	4770      	bx	lr
 8001b56:	bf00      	nop
 8001b58:	40012000 	.word	0x40012000
 8001b5c:	20000370 	.word	0x20000370
 8001b60:	40012100 	.word	0x40012100
 8001b64:	20000374 	.word	0x20000374

08001b68 <HCSR04_Trigger>:

void HCSR04_Trigger(GPIO_TypeDef* Port, uint16_t Pin) {
 8001b68:	b580      	push	{r7, lr}
 8001b6a:	b082      	sub	sp, #8
 8001b6c:	af00      	add	r7, sp, #0
 8001b6e:	6078      	str	r0, [r7, #4]
 8001b70:	460b      	mov	r3, r1
 8001b72:	807b      	strh	r3, [r7, #2]
	HAL_GPIO_WritePin(Port, Pin, GPIO_PIN_SET);
 8001b74:	887b      	ldrh	r3, [r7, #2]
 8001b76:	2201      	movs	r2, #1
 8001b78:	4619      	mov	r1, r3
 8001b7a:	6878      	ldr	r0, [r7, #4]
 8001b7c:	f001 fc36 	bl	80033ec <HAL_GPIO_WritePin>
	HAL_Delay(10);
 8001b80:	200a      	movs	r0, #10
 8001b82:	f000 fce5 	bl	8002550 <HAL_Delay>
	HAL_GPIO_WritePin(Port, Pin, GPIO_PIN_RESET);
 8001b86:	887b      	ldrh	r3, [r7, #2]
 8001b88:	2200      	movs	r2, #0
 8001b8a:	4619      	mov	r1, r3
 8001b8c:	6878      	ldr	r0, [r7, #4]
 8001b8e:	f001 fc2d 	bl	80033ec <HAL_GPIO_WritePin>
}
 8001b92:	bf00      	nop
 8001b94:	3708      	adds	r7, #8
 8001b96:	46bd      	mov	sp, r7
 8001b98:	bd80      	pop	{r7, pc}

08001b9a <Error_Handler>:
/**
  * @brief  This function is executed in case of error occurrence.
  * @retval None
  */
void Error_Handler(void)
{
 8001b9a:	b480      	push	{r7}
 8001b9c:	af00      	add	r7, sp, #0
  \details Disables IRQ interrupts by setting special-purpose register PRIMASK.
           Can only be executed in Privileged modes.
 */
__STATIC_FORCEINLINE void __disable_irq(void)
{
  __ASM volatile ("cpsid i" : : : "memory");
 8001b9e:	b672      	cpsid	i
}
 8001ba0:	bf00      	nop
  /* USER CODE BEGIN Error_Handler_Debug */
  /* User can add his own implementation to report the HAL error return state */
  __disable_irq();
  while (1)
 8001ba2:	bf00      	nop
 8001ba4:	e7fd      	b.n	8001ba2 <Error_Handler+0x8>
	...

08001ba8 <SHT2x_Init>:
	
/**
 * @brief Initializes the SHT2x temperature/humidity sensor.
 * @param hi2c User I2C handle pointer.
 */
void SHT2x_Init(I2C_HandleTypeDef *hi2c) {
 8001ba8:	b480      	push	{r7}
 8001baa:	b083      	sub	sp, #12
 8001bac:	af00      	add	r7, sp, #0
 8001bae:	6078      	str	r0, [r7, #4]
	_sht2x_ui2c = hi2c;
 8001bb0:	4a04      	ldr	r2, [pc, #16]	@ (8001bc4 <SHT2x_Init+0x1c>)
 8001bb2:	687b      	ldr	r3, [r7, #4]
 8001bb4:	6013      	str	r3, [r2, #0]
}
 8001bb6:	bf00      	nop
 8001bb8:	370c      	adds	r7, #12
 8001bba:	46bd      	mov	sp, r7
 8001bbc:	f85d 7b04 	ldr.w	r7, [sp], #4
 8001bc0:	4770      	bx	lr
 8001bc2:	bf00      	nop
 8001bc4:	20000378 	.word	0x20000378

08001bc8 <SHT2x_SoftReset>:

/**
 *  @brief Performs a soft reset.
 */
void SHT2x_SoftReset(void){
 8001bc8:	b580      	push	{r7, lr}
 8001bca:	b084      	sub	sp, #16
 8001bcc:	af02      	add	r7, sp, #8
	uint8_t cmd = SHT2x_SOFT_RESET;
 8001bce:	23fe      	movs	r3, #254	@ 0xfe
 8001bd0:	71fb      	strb	r3, [r7, #7]
	HAL_I2C_Master_Transmit(_sht2x_ui2c, SHT2x_I2C_ADDR << 1, &cmd, 1, SHT2x_TIMEOUT);
 8001bd2:	4b07      	ldr	r3, [pc, #28]	@ (8001bf0 <SHT2x_SoftReset+0x28>)
 8001bd4:	6818      	ldr	r0, [r3, #0]
 8001bd6:	1dfa      	adds	r2, r7, #7
 8001bd8:	f44f 737a 	mov.w	r3, #1000	@ 0x3e8
 8001bdc:	9300      	str	r3, [sp, #0]
 8001bde:	2301      	movs	r3, #1
 8001be0:	2180      	movs	r1, #128	@ 0x80
 8001be2:	f001 fd61 	bl	80036a8 <HAL_I2C_Master_Transmit>
}
 8001be6:	bf00      	nop
 8001be8:	3708      	adds	r7, #8
 8001bea:	46bd      	mov	sp, r7
 8001bec:	bd80      	pop	{r7, pc}
 8001bee:	bf00      	nop
 8001bf0:	20000378 	.word	0x20000378

08001bf4 <SHT2x_ReadUserReg>:

/**
 * @brief Gets the value stored in user register.
 * @return 8-bit value stored in user register, 0 to 255.
 */
uint8_t SHT2x_ReadUserReg(void) {
 8001bf4:	b580      	push	{r7, lr}
 8001bf6:	b084      	sub	sp, #16
 8001bf8:	af02      	add	r7, sp, #8
	uint8_t val;
	uint8_t cmd = SHT2x_READ_REG;
 8001bfa:	23e7      	movs	r3, #231	@ 0xe7
 8001bfc:	71bb      	strb	r3, [r7, #6]
	HAL_I2C_Master_Transmit(_sht2x_ui2c, SHT2x_I2C_ADDR << 1, &cmd, 1, SHT2x_TIMEOUT);
 8001bfe:	4b0c      	ldr	r3, [pc, #48]	@ (8001c30 <SHT2x_ReadUserReg+0x3c>)
 8001c00:	6818      	ldr	r0, [r3, #0]
 8001c02:	1dba      	adds	r2, r7, #6
 8001c04:	f44f 737a 	mov.w	r3, #1000	@ 0x3e8
 8001c08:	9300      	str	r3, [sp, #0]
 8001c0a:	2301      	movs	r3, #1
 8001c0c:	2180      	movs	r1, #128	@ 0x80
 8001c0e:	f001 fd4b 	bl	80036a8 <HAL_I2C_Master_Transmit>
	HAL_I2C_Master_Receive(_sht2x_ui2c, SHT2x_I2C_ADDR << 1, &val, 1, SHT2x_TIMEOUT);
 8001c12:	4b07      	ldr	r3, [pc, #28]	@ (8001c30 <SHT2x_ReadUserReg+0x3c>)
 8001c14:	6818      	ldr	r0, [r3, #0]
 8001c16:	1dfa      	adds	r2, r7, #7
 8001c18:	f44f 737a 	mov.w	r3, #1000	@ 0x3e8
 8001c1c:	9300      	str	r3, [sp, #0]
 8001c1e:	2301      	movs	r3, #1
 8001c20:	2180      	movs	r1, #128	@ 0x80
 8001c22:	f001 fe3f 	bl	80038a4 <HAL_I2C_Master_Receive>
	return val;
 8001c26:	79fb      	ldrb	r3, [r7, #7]
}
 8001c28:	4618      	mov	r0, r3
 8001c2a:	3708      	adds	r7, #8
 8001c2c:	46bd      	mov	sp, r7
 8001c2e:	bd80      	pop	{r7, pc}
 8001c30:	20000378 	.word	0x20000378

08001c34 <SHT2x_GetRaw>:
/**
 * @brief Sends the designated command to sensor and read a 16-bit raw value.
 * @param cmd Command to send to sensor.
 * @return 16-bit raw value, 0 to 65535.
 */
uint16_t SHT2x_GetRaw(uint8_t cmd) {
 8001c34:	b580      	push	{r7, lr}
 8001c36:	b086      	sub	sp, #24
 8001c38:	af02      	add	r7, sp, #8
 8001c3a:	4603      	mov	r3, r0
 8001c3c:	71fb      	strb	r3, [r7, #7]
	uint8_t val[3] = { 0 };
 8001c3e:	4b13      	ldr	r3, [pc, #76]	@ (8001c8c <SHT2x_GetRaw+0x58>)
 8001c40:	881b      	ldrh	r3, [r3, #0]
 8001c42:	81bb      	strh	r3, [r7, #12]
 8001c44:	2300      	movs	r3, #0
 8001c46:	73bb      	strb	r3, [r7, #14]
	HAL_I2C_Master_Transmit(_sht2x_ui2c, SHT2x_I2C_ADDR << 1, &cmd, 1, SHT2x_TIMEOUT);
 8001c48:	4b11      	ldr	r3, [pc, #68]	@ (8001c90 <SHT2x_GetRaw+0x5c>)
 8001c4a:	6818      	ldr	r0, [r3, #0]
 8001c4c:	1dfa      	adds	r2, r7, #7
 8001c4e:	f44f 737a 	mov.w	r3, #1000	@ 0x3e8
 8001c52:	9300      	str	r3, [sp, #0]
 8001c54:	2301      	movs	r3, #1
 8001c56:	2180      	movs	r1, #128	@ 0x80
 8001c58:	f001 fd26 	bl	80036a8 <HAL_I2C_Master_Transmit>
	HAL_I2C_Master_Receive(_sht2x_ui2c, SHT2x_I2C_ADDR << 1, val, 3, SHT2x_TIMEOUT);
 8001c5c:	4b0c      	ldr	r3, [pc, #48]	@ (8001c90 <SHT2x_GetRaw+0x5c>)
 8001c5e:	6818      	ldr	r0, [r3, #0]
 8001c60:	f107 020c 	add.w	r2, r7, #12
 8001c64:	f44f 737a 	mov.w	r3, #1000	@ 0x3e8
 8001c68:	9300      	str	r3, [sp, #0]
 8001c6a:	2303      	movs	r3, #3
 8001c6c:	2180      	movs	r1, #128	@ 0x80
 8001c6e:	f001 fe19 	bl	80038a4 <HAL_I2C_Master_Receive>
	return val[0] << 8 | val[1];
 8001c72:	7b3b      	ldrb	r3, [r7, #12]
 8001c74:	021b      	lsls	r3, r3, #8
 8001c76:	b21a      	sxth	r2, r3
 8001c78:	7b7b      	ldrb	r3, [r7, #13]
 8001c7a:	b21b      	sxth	r3, r3
 8001c7c:	4313      	orrs	r3, r2
 8001c7e:	b21b      	sxth	r3, r3
 8001c80:	b29b      	uxth	r3, r3
}
 8001c82:	4618      	mov	r0, r3
 8001c84:	3710      	adds	r7, #16
 8001c86:	46bd      	mov	sp, r7
 8001c88:	bd80      	pop	{r7, pc}
 8001c8a:	bf00      	nop
 8001c8c:	08008a30 	.word	0x08008a30
 8001c90:	20000378 	.word	0x20000378
 8001c94:	00000000 	.word	0x00000000

08001c98 <SHT2x_GetTemperature>:
/**
 * @brief Measures and gets the current temperature.
 * @param hold Holding mode, 0 for no hold master, 1 for hold master.
 * @return Floating point temperature value.
 */
float SHT2x_GetTemperature(uint8_t hold) {
 8001c98:	b580      	push	{r7, lr}
 8001c9a:	b084      	sub	sp, #16
 8001c9c:	af00      	add	r7, sp, #0
 8001c9e:	4603      	mov	r3, r0
 8001ca0:	71fb      	strb	r3, [r7, #7]
	uint8_t cmd = (hold ? SHT2x_READ_TEMP_HOLD : SHT2x_READ_TEMP_NOHOLD);
 8001ca2:	79fb      	ldrb	r3, [r7, #7]
 8001ca4:	2b00      	cmp	r3, #0
 8001ca6:	d001      	beq.n	8001cac <SHT2x_GetTemperature+0x14>
 8001ca8:	23e3      	movs	r3, #227	@ 0xe3
 8001caa:	e000      	b.n	8001cae <SHT2x_GetTemperature+0x16>
 8001cac:	23f3      	movs	r3, #243	@ 0xf3
 8001cae:	73fb      	strb	r3, [r7, #15]
	return -46.85 + 175.72 * (SHT2x_GetRaw(cmd) / 65536.0);
 8001cb0:	7bfb      	ldrb	r3, [r7, #15]
 8001cb2:	4618      	mov	r0, r3
 8001cb4:	f7ff ffbe 	bl	8001c34 <SHT2x_GetRaw>
 8001cb8:	4603      	mov	r3, r0
 8001cba:	4618      	mov	r0, r3
 8001cbc:	f7fe fc32 	bl	8000524 <__aeabi_i2d>
 8001cc0:	f04f 0200 	mov.w	r2, #0
 8001cc4:	4b16      	ldr	r3, [pc, #88]	@ (8001d20 <SHT2x_GetTemperature+0x88>)
 8001cc6:	f7fe fdc1 	bl	800084c <__aeabi_ddiv>
 8001cca:	4602      	mov	r2, r0
 8001ccc:	460b      	mov	r3, r1
 8001cce:	4610      	mov	r0, r2
 8001cd0:	4619      	mov	r1, r3
 8001cd2:	a30f      	add	r3, pc, #60	@ (adr r3, 8001d10 <SHT2x_GetTemperature+0x78>)
 8001cd4:	e9d3 2300 	ldrd	r2, r3, [r3]
 8001cd8:	f7fe fc8e 	bl	80005f8 <__aeabi_dmul>
 8001cdc:	4602      	mov	r2, r0
 8001cde:	460b      	mov	r3, r1
 8001ce0:	4610      	mov	r0, r2
 8001ce2:	4619      	mov	r1, r3
 8001ce4:	a30c      	add	r3, pc, #48	@ (adr r3, 8001d18 <SHT2x_GetTemperature+0x80>)
 8001ce6:	e9d3 2300 	ldrd	r2, r3, [r3]
 8001cea:	f7fe facd 	bl	8000288 <__aeabi_dsub>
 8001cee:	4602      	mov	r2, r0
 8001cf0:	460b      	mov	r3, r1
 8001cf2:	4610      	mov	r0, r2
 8001cf4:	4619      	mov	r1, r3
 8001cf6:	f7fe ff57 	bl	8000ba8 <__aeabi_d2f>
 8001cfa:	4603      	mov	r3, r0
 8001cfc:	ee07 3a90 	vmov	s15, r3
}
 8001d00:	eeb0 0a67 	vmov.f32	s0, s15
 8001d04:	3710      	adds	r7, #16
 8001d06:	46bd      	mov	sp, r7
 8001d08:	bd80      	pop	{r7, pc}
 8001d0a:	bf00      	nop
 8001d0c:	f3af 8000 	nop.w
 8001d10:	3d70a3d7 	.word	0x3d70a3d7
 8001d14:	4065f70a 	.word	0x4065f70a
 8001d18:	cccccccd 	.word	0xcccccccd
 8001d1c:	40476ccc 	.word	0x40476ccc
 8001d20:	40f00000 	.word	0x40f00000

08001d24 <SHT2x_GetRelativeHumidity>:
/**
 * @brief Measures and gets the current relative humidity.
 * @param hold Holding mode, 0 for no hold master, 1 for hold master.
 * @return Floating point relative humidity value.
 */
float SHT2x_GetRelativeHumidity(uint8_t hold) {
 8001d24:	b580      	push	{r7, lr}
 8001d26:	b084      	sub	sp, #16
 8001d28:	af00      	add	r7, sp, #0
 8001d2a:	4603      	mov	r3, r0
 8001d2c:	71fb      	strb	r3, [r7, #7]
	uint8_t cmd = (hold ? SHT2x_READ_RH_HOLD : SHT2x_READ_RH_NOHOLD);
 8001d2e:	79fb      	ldrb	r3, [r7, #7]
 8001d30:	2b00      	cmp	r3, #0
 8001d32:	d001      	beq.n	8001d38 <SHT2x_GetRelativeHumidity+0x14>
 8001d34:	23e5      	movs	r3, #229	@ 0xe5
 8001d36:	e000      	b.n	8001d3a <SHT2x_GetRelativeHumidity+0x16>
 8001d38:	23f5      	movs	r3, #245	@ 0xf5
 8001d3a:	73fb      	strb	r3, [r7, #15]
	return -6 + 125.00 * (SHT2x_GetRaw(cmd) / 65536.0);
 8001d3c:	7bfb      	ldrb	r3, [r7, #15]
 8001d3e:	4618      	mov	r0, r3
 8001d40:	f7ff ff78 	bl	8001c34 <SHT2x_GetRaw>
 8001d44:	4603      	mov	r3, r0
 8001d46:	4618      	mov	r0, r3
 8001d48:	f7fe fbec 	bl	8000524 <__aeabi_i2d>
 8001d4c:	f04f 0200 	mov.w	r2, #0
 8001d50:	4b11      	ldr	r3, [pc, #68]	@ (8001d98 <SHT2x_GetRelativeHumidity+0x74>)
 8001d52:	f7fe fd7b 	bl	800084c <__aeabi_ddiv>
 8001d56:	4602      	mov	r2, r0
 8001d58:	460b      	mov	r3, r1
 8001d5a:	4610      	mov	r0, r2
 8001d5c:	4619      	mov	r1, r3
 8001d5e:	f04f 0200 	mov.w	r2, #0
 8001d62:	4b0e      	ldr	r3, [pc, #56]	@ (8001d9c <SHT2x_GetRelativeHumidity+0x78>)
 8001d64:	f7fe fc48 	bl	80005f8 <__aeabi_dmul>
 8001d68:	4602      	mov	r2, r0
 8001d6a:	460b      	mov	r3, r1
 8001d6c:	4610      	mov	r0, r2
 8001d6e:	4619      	mov	r1, r3
 8001d70:	f04f 0200 	mov.w	r2, #0
 8001d74:	4b0a      	ldr	r3, [pc, #40]	@ (8001da0 <SHT2x_GetRelativeHumidity+0x7c>)
 8001d76:	f7fe fa87 	bl	8000288 <__aeabi_dsub>
 8001d7a:	4602      	mov	r2, r0
 8001d7c:	460b      	mov	r3, r1
 8001d7e:	4610      	mov	r0, r2
 8001d80:	4619      	mov	r1, r3
 8001d82:	f7fe ff11 	bl	8000ba8 <__aeabi_d2f>
 8001d86:	4603      	mov	r3, r0
 8001d88:	ee07 3a90 	vmov	s15, r3
}
 8001d8c:	eeb0 0a67 	vmov.f32	s0, s15
 8001d90:	3710      	adds	r7, #16
 8001d92:	46bd      	mov	sp, r7
 8001d94:	bd80      	pop	{r7, pc}
 8001d96:	bf00      	nop
 8001d98:	40f00000 	.word	0x40f00000
 8001d9c:	405f4000 	.word	0x405f4000
 8001da0:	40180000 	.word	0x40180000

08001da4 <SHT2x_SetResolution>:
 * @brief Sets the measurement resolution.
 * @param res Enum resolution.
 * @note Available resolutions: RES_14_12, RES_12_8, RES_13_10, RES_11_11.
 * @note RES_14_12 = 14-bit temperature and 12-bit RH resolution, etc.
 */
void SHT2x_SetResolution(SHT2x_Resolution res) {
 8001da4:	b580      	push	{r7, lr}
 8001da6:	b086      	sub	sp, #24
 8001da8:	af02      	add	r7, sp, #8
 8001daa:	4603      	mov	r3, r0
 8001dac:	71fb      	strb	r3, [r7, #7]
	uint8_t val = SHT2x_ReadUserReg();
 8001dae:	f7ff ff21 	bl	8001bf4 <SHT2x_ReadUserReg>
 8001db2:	4603      	mov	r3, r0
 8001db4:	73fb      	strb	r3, [r7, #15]
	val = (val & 0x7e) | res;
 8001db6:	f997 300f 	ldrsb.w	r3, [r7, #15]
 8001dba:	f003 037e 	and.w	r3, r3, #126	@ 0x7e
 8001dbe:	b25a      	sxtb	r2, r3
 8001dc0:	f997 3007 	ldrsb.w	r3, [r7, #7]
 8001dc4:	4313      	orrs	r3, r2
 8001dc6:	b25b      	sxtb	r3, r3
 8001dc8:	73fb      	strb	r3, [r7, #15]
	uint8_t temp[2] = { SHT2x_WRITE_REG, val };
 8001dca:	23e6      	movs	r3, #230	@ 0xe6
 8001dcc:	733b      	strb	r3, [r7, #12]
 8001dce:	7bfb      	ldrb	r3, [r7, #15]
 8001dd0:	737b      	strb	r3, [r7, #13]
	HAL_I2C_Master_Transmit(_sht2x_ui2c, SHT2x_I2C_ADDR << 1, temp, 2, SHT2x_TIMEOUT);
 8001dd2:	4b07      	ldr	r3, [pc, #28]	@ (8001df0 <SHT2x_SetResolution+0x4c>)
 8001dd4:	6818      	ldr	r0, [r3, #0]
 8001dd6:	f107 020c 	add.w	r2, r7, #12
 8001dda:	f44f 737a 	mov.w	r3, #1000	@ 0x3e8
 8001dde:	9300      	str	r3, [sp, #0]
 8001de0:	2302      	movs	r3, #2
 8001de2:	2180      	movs	r1, #128	@ 0x80
 8001de4:	f001 fc60 	bl	80036a8 <HAL_I2C_Master_Transmit>
}
 8001de8:	bf00      	nop
 8001dea:	3710      	adds	r7, #16
 8001dec:	46bd      	mov	sp, r7
 8001dee:	bd80      	pop	{r7, pc}
 8001df0:	20000378 	.word	0x20000378

08001df4 <HAL_MspInit>:
/* USER CODE END 0 */
/**
  * Initializes the Global MSP.
  */
void HAL_MspInit(void)
{
 8001df4:	b480      	push	{r7}
 8001df6:	b083      	sub	sp, #12
 8001df8:	af00      	add	r7, sp, #0

  /* USER CODE BEGIN MspInit 0 */

  /* USER CODE END MspInit 0 */

  __HAL_RCC_SYSCFG_CLK_ENABLE();
 8001dfa:	2300      	movs	r3, #0
 8001dfc:	607b      	str	r3, [r7, #4]
 8001dfe:	4b10      	ldr	r3, [pc, #64]	@ (8001e40 <HAL_MspInit+0x4c>)
 8001e00:	6c5b      	ldr	r3, [r3, #68]	@ 0x44
 8001e02:	4a0f      	ldr	r2, [pc, #60]	@ (8001e40 <HAL_MspInit+0x4c>)
 8001e04:	f443 4380 	orr.w	r3, r3, #16384	@ 0x4000
 8001e08:	6453      	str	r3, [r2, #68]	@ 0x44
 8001e0a:	4b0d      	ldr	r3, [pc, #52]	@ (8001e40 <HAL_MspInit+0x4c>)
 8001e0c:	6c5b      	ldr	r3, [r3, #68]	@ 0x44
 8001e0e:	f403 4380 	and.w	r3, r3, #16384	@ 0x4000
 8001e12:	607b      	str	r3, [r7, #4]
 8001e14:	687b      	ldr	r3, [r7, #4]
  __HAL_RCC_PWR_CLK_ENABLE();
 8001e16:	2300      	movs	r3, #0
 8001e18:	603b      	str	r3, [r7, #0]
 8001e1a:	4b09      	ldr	r3, [pc, #36]	@ (8001e40 <HAL_MspInit+0x4c>)
 8001e1c:	6c1b      	ldr	r3, [r3, #64]	@ 0x40
 8001e1e:	4a08      	ldr	r2, [pc, #32]	@ (8001e40 <HAL_MspInit+0x4c>)
 8001e20:	f043 5380 	orr.w	r3, r3, #268435456	@ 0x10000000
 8001e24:	6413      	str	r3, [r2, #64]	@ 0x40
 8001e26:	4b06      	ldr	r3, [pc, #24]	@ (8001e40 <HAL_MspInit+0x4c>)
 8001e28:	6c1b      	ldr	r3, [r3, #64]	@ 0x40
 8001e2a:	f003 5380 	and.w	r3, r3, #268435456	@ 0x10000000
 8001e2e:	603b      	str	r3, [r7, #0]
 8001e30:	683b      	ldr	r3, [r7, #0]
  /* System interrupt init*/

  /* USER CODE BEGIN MspInit 1 */

  /* USER CODE END MspInit 1 */
}
 8001e32:	bf00      	nop
 8001e34:	370c      	adds	r7, #12
 8001e36:	46bd      	mov	sp, r7
 8001e38:	f85d 7b04 	ldr.w	r7, [sp], #4
 8001e3c:	4770      	bx	lr
 8001e3e:	bf00      	nop
 8001e40:	40023800 	.word	0x40023800

08001e44 <HAL_ADC_MspInit>:
* This function configures the hardware resources used in this example
* @param hadc: ADC handle pointer
* @retval None
*/
void HAL_ADC_MspInit(ADC_HandleTypeDef* hadc)
{
 8001e44:	b580      	push	{r7, lr}
 8001e46:	b08c      	sub	sp, #48	@ 0x30
 8001e48:	af00      	add	r7, sp, #0
 8001e4a:	6078      	str	r0, [r7, #4]
  GPIO_InitTypeDef GPIO_InitStruct = {0};
 8001e4c:	f107 031c 	add.w	r3, r7, #28
 8001e50:	2200      	movs	r2, #0
 8001e52:	601a      	str	r2, [r3, #0]
 8001e54:	605a      	str	r2, [r3, #4]
 8001e56:	609a      	str	r2, [r3, #8]
 8001e58:	60da      	str	r2, [r3, #12]
 8001e5a:	611a      	str	r2, [r3, #16]
  if(hadc->Instance==ADC1)
 8001e5c:	687b      	ldr	r3, [r7, #4]
 8001e5e:	681b      	ldr	r3, [r3, #0]
 8001e60:	4a36      	ldr	r2, [pc, #216]	@ (8001f3c <HAL_ADC_MspInit+0xf8>)
 8001e62:	4293      	cmp	r3, r2
 8001e64:	d130      	bne.n	8001ec8 <HAL_ADC_MspInit+0x84>
  {
  /* USER CODE BEGIN ADC1_MspInit 0 */

  /* USER CODE END ADC1_MspInit 0 */
    /* Peripheral clock enable */
    __HAL_RCC_ADC1_CLK_ENABLE();
 8001e66:	2300      	movs	r3, #0
 8001e68:	61bb      	str	r3, [r7, #24]
 8001e6a:	4b35      	ldr	r3, [pc, #212]	@ (8001f40 <HAL_ADC_MspInit+0xfc>)
 8001e6c:	6c5b      	ldr	r3, [r3, #68]	@ 0x44
 8001e6e:	4a34      	ldr	r2, [pc, #208]	@ (8001f40 <HAL_ADC_MspInit+0xfc>)
 8001e70:	f443 7380 	orr.w	r3, r3, #256	@ 0x100
 8001e74:	6453      	str	r3, [r2, #68]	@ 0x44
 8001e76:	4b32      	ldr	r3, [pc, #200]	@ (8001f40 <HAL_ADC_MspInit+0xfc>)
 8001e78:	6c5b      	ldr	r3, [r3, #68]	@ 0x44
 8001e7a:	f403 7380 	and.w	r3, r3, #256	@ 0x100
 8001e7e:	61bb      	str	r3, [r7, #24]
 8001e80:	69bb      	ldr	r3, [r7, #24]

    __HAL_RCC_GPIOA_CLK_ENABLE();
 8001e82:	2300      	movs	r3, #0
 8001e84:	617b      	str	r3, [r7, #20]
 8001e86:	4b2e      	ldr	r3, [pc, #184]	@ (8001f40 <HAL_ADC_MspInit+0xfc>)
 8001e88:	6b1b      	ldr	r3, [r3, #48]	@ 0x30
 8001e8a:	4a2d      	ldr	r2, [pc, #180]	@ (8001f40 <HAL_ADC_MspInit+0xfc>)
 8001e8c:	f043 0301 	orr.w	r3, r3, #1
 8001e90:	6313      	str	r3, [r2, #48]	@ 0x30
 8001e92:	4b2b      	ldr	r3, [pc, #172]	@ (8001f40 <HAL_ADC_MspInit+0xfc>)
 8001e94:	6b1b      	ldr	r3, [r3, #48]	@ 0x30
 8001e96:	f003 0301 	and.w	r3, r3, #1
 8001e9a:	617b      	str	r3, [r7, #20]
 8001e9c:	697b      	ldr	r3, [r7, #20]
    /**ADC1 GPIO Configuration
    PA3     ------> ADC1_IN3
    */
    GPIO_InitStruct.Pin = GPIO_PIN_3;
 8001e9e:	2308      	movs	r3, #8
 8001ea0:	61fb      	str	r3, [r7, #28]
    GPIO_InitStruct.Mode = GPIO_MODE_ANALOG;
 8001ea2:	2303      	movs	r3, #3
 8001ea4:	623b      	str	r3, [r7, #32]
    GPIO_InitStruct.Pull = GPIO_NOPULL;
 8001ea6:	2300      	movs	r3, #0
 8001ea8:	627b      	str	r3, [r7, #36]	@ 0x24
    HAL_GPIO_Init(GPIOA, &GPIO_InitStruct);
 8001eaa:	f107 031c 	add.w	r3, r7, #28
 8001eae:	4619      	mov	r1, r3
 8001eb0:	4824      	ldr	r0, [pc, #144]	@ (8001f44 <HAL_ADC_MspInit+0x100>)
 8001eb2:	f001 f8ff 	bl	80030b4 <HAL_GPIO_Init>

    /* ADC1 interrupt Init */
    HAL_NVIC_SetPriority(ADC_IRQn, 0, 0);
 8001eb6:	2200      	movs	r2, #0
 8001eb8:	2100      	movs	r1, #0
 8001eba:	2012      	movs	r0, #18
 8001ebc:	f001 f8c3 	bl	8003046 <HAL_NVIC_SetPriority>
    HAL_NVIC_EnableIRQ(ADC_IRQn);
 8001ec0:	2012      	movs	r0, #18
 8001ec2:	f001 f8dc 	bl	800307e <HAL_NVIC_EnableIRQ>
  /* USER CODE BEGIN ADC2_MspInit 1 */

  /* USER CODE END ADC2_MspInit 1 */
  }

}
 8001ec6:	e034      	b.n	8001f32 <HAL_ADC_MspInit+0xee>
  else if(hadc->Instance==ADC2)
 8001ec8:	687b      	ldr	r3, [r7, #4]
 8001eca:	681b      	ldr	r3, [r3, #0]
 8001ecc:	4a1e      	ldr	r2, [pc, #120]	@ (8001f48 <HAL_ADC_MspInit+0x104>)
 8001ece:	4293      	cmp	r3, r2
 8001ed0:	d12f      	bne.n	8001f32 <HAL_ADC_MspInit+0xee>
    __HAL_RCC_ADC2_CLK_ENABLE();
 8001ed2:	2300      	movs	r3, #0
 8001ed4:	613b      	str	r3, [r7, #16]
 8001ed6:	4b1a      	ldr	r3, [pc, #104]	@ (8001f40 <HAL_ADC_MspInit+0xfc>)
 8001ed8:	6c5b      	ldr	r3, [r3, #68]	@ 0x44
 8001eda:	4a19      	ldr	r2, [pc, #100]	@ (8001f40 <HAL_ADC_MspInit+0xfc>)
 8001edc:	f443 7300 	orr.w	r3, r3, #512	@ 0x200
 8001ee0:	6453      	str	r3, [r2, #68]	@ 0x44
 8001ee2:	4b17      	ldr	r3, [pc, #92]	@ (8001f40 <HAL_ADC_MspInit+0xfc>)
 8001ee4:	6c5b      	ldr	r3, [r3, #68]	@ 0x44
 8001ee6:	f403 7300 	and.w	r3, r3, #512	@ 0x200
 8001eea:	613b      	str	r3, [r7, #16]
 8001eec:	693b      	ldr	r3, [r7, #16]
    __HAL_RCC_GPIOA_CLK_ENABLE();
 8001eee:	2300      	movs	r3, #0
 8001ef0:	60fb      	str	r3, [r7, #12]
 8001ef2:	4b13      	ldr	r3, [pc, #76]	@ (8001f40 <HAL_ADC_MspInit+0xfc>)
 8001ef4:	6b1b      	ldr	r3, [r3, #48]	@ 0x30
 8001ef6:	4a12      	ldr	r2, [pc, #72]	@ (8001f40 <HAL_ADC_MspInit+0xfc>)
 8001ef8:	f043 0301 	orr.w	r3, r3, #1
 8001efc:	6313      	str	r3, [r2, #48]	@ 0x30
 8001efe:	4b10      	ldr	r3, [pc, #64]	@ (8001f40 <HAL_ADC_MspInit+0xfc>)
 8001f00:	6b1b      	ldr	r3, [r3, #48]	@ 0x30
 8001f02:	f003 0301 	and.w	r3, r3, #1
 8001f06:	60fb      	str	r3, [r7, #12]
 8001f08:	68fb      	ldr	r3, [r7, #12]
    GPIO_InitStruct.Pin = GPIO_PIN_0;
 8001f0a:	2301      	movs	r3, #1
 8001f0c:	61fb      	str	r3, [r7, #28]
    GPIO_InitStruct.Mode = GPIO_MODE_ANALOG;
 8001f0e:	2303      	movs	r3, #3
 8001f10:	623b      	str	r3, [r7, #32]
    GPIO_InitStruct.Pull = GPIO_NOPULL;
 8001f12:	2300      	movs	r3, #0
 8001f14:	627b      	str	r3, [r7, #36]	@ 0x24
    HAL_GPIO_Init(GPIOA, &GPIO_InitStruct);
 8001f16:	f107 031c 	add.w	r3, r7, #28
 8001f1a:	4619      	mov	r1, r3
 8001f1c:	4809      	ldr	r0, [pc, #36]	@ (8001f44 <HAL_ADC_MspInit+0x100>)
 8001f1e:	f001 f8c9 	bl	80030b4 <HAL_GPIO_Init>
    HAL_NVIC_SetPriority(ADC_IRQn, 0, 0);
 8001f22:	2200      	movs	r2, #0
 8001f24:	2100      	movs	r1, #0
 8001f26:	2012      	movs	r0, #18
 8001f28:	f001 f88d 	bl	8003046 <HAL_NVIC_SetPriority>
    HAL_NVIC_EnableIRQ(ADC_IRQn);
 8001f2c:	2012      	movs	r0, #18
 8001f2e:	f001 f8a6 	bl	800307e <HAL_NVIC_EnableIRQ>
}
 8001f32:	bf00      	nop
 8001f34:	3730      	adds	r7, #48	@ 0x30
 8001f36:	46bd      	mov	sp, r7
 8001f38:	bd80      	pop	{r7, pc}
 8001f3a:	bf00      	nop
 8001f3c:	40012000 	.word	0x40012000
 8001f40:	40023800 	.word	0x40023800
 8001f44:	40020000 	.word	0x40020000
 8001f48:	40012100 	.word	0x40012100

08001f4c <HAL_I2C_MspInit>:
* This function configures the hardware resources used in this example
* @param hi2c: I2C handle pointer
* @retval None
*/
void HAL_I2C_MspInit(I2C_HandleTypeDef* hi2c)
{
 8001f4c:	b580      	push	{r7, lr}
 8001f4e:	b08a      	sub	sp, #40	@ 0x28
 8001f50:	af00      	add	r7, sp, #0
 8001f52:	6078      	str	r0, [r7, #4]
  GPIO_InitTypeDef GPIO_InitStruct = {0};
 8001f54:	f107 0314 	add.w	r3, r7, #20
 8001f58:	2200      	movs	r2, #0
 8001f5a:	601a      	str	r2, [r3, #0]
 8001f5c:	605a      	str	r2, [r3, #4]
 8001f5e:	609a      	str	r2, [r3, #8]
 8001f60:	60da      	str	r2, [r3, #12]
 8001f62:	611a      	str	r2, [r3, #16]
  if(hi2c->Instance==I2C1)
 8001f64:	687b      	ldr	r3, [r7, #4]
 8001f66:	681b      	ldr	r3, [r3, #0]
 8001f68:	4a19      	ldr	r2, [pc, #100]	@ (8001fd0 <HAL_I2C_MspInit+0x84>)
 8001f6a:	4293      	cmp	r3, r2
 8001f6c:	d12b      	bne.n	8001fc6 <HAL_I2C_MspInit+0x7a>
  {
  /* USER CODE BEGIN I2C1_MspInit 0 */

  /* USER CODE END I2C1_MspInit 0 */

    __HAL_RCC_GPIOB_CLK_ENABLE();
 8001f6e:	2300      	movs	r3, #0
 8001f70:	613b      	str	r3, [r7, #16]
 8001f72:	4b18      	ldr	r3, [pc, #96]	@ (8001fd4 <HAL_I2C_MspInit+0x88>)
 8001f74:	6b1b      	ldr	r3, [r3, #48]	@ 0x30
 8001f76:	4a17      	ldr	r2, [pc, #92]	@ (8001fd4 <HAL_I2C_MspInit+0x88>)
 8001f78:	f043 0302 	orr.w	r3, r3, #2
 8001f7c:	6313      	str	r3, [r2, #48]	@ 0x30
 8001f7e:	4b15      	ldr	r3, [pc, #84]	@ (8001fd4 <HAL_I2C_MspInit+0x88>)
 8001f80:	6b1b      	ldr	r3, [r3, #48]	@ 0x30
 8001f82:	f003 0302 	and.w	r3, r3, #2
 8001f86:	613b      	str	r3, [r7, #16]
 8001f88:	693b      	ldr	r3, [r7, #16]
    /**I2C1 GPIO Configuration
    PB6     ------> I2C1_SCL
    PB7     ------> I2C1_SDA
    */
    GPIO_InitStruct.Pin = GPIO_PIN_6|GPIO_PIN_7;
 8001f8a:	23c0      	movs	r3, #192	@ 0xc0
 8001f8c:	617b      	str	r3, [r7, #20]
    GPIO_InitStruct.Mode = GPIO_MODE_AF_OD;
 8001f8e:	2312      	movs	r3, #18
 8001f90:	61bb      	str	r3, [r7, #24]
    GPIO_InitStruct.Pull = GPIO_NOPULL;
 8001f92:	2300      	movs	r3, #0
 8001f94:	61fb      	str	r3, [r7, #28]
    GPIO_InitStruct.Speed = GPIO_SPEED_FREQ_VERY_HIGH;
 8001f96:	2303      	movs	r3, #3
 8001f98:	623b      	str	r3, [r7, #32]
    GPIO_InitStruct.Alternate = GPIO_AF4_I2C1;
 8001f9a:	2304      	movs	r3, #4
 8001f9c:	627b      	str	r3, [r7, #36]	@ 0x24
    HAL_GPIO_Init(GPIOB, &GPIO_InitStruct);
 8001f9e:	f107 0314 	add.w	r3, r7, #20
 8001fa2:	4619      	mov	r1, r3
 8001fa4:	480c      	ldr	r0, [pc, #48]	@ (8001fd8 <HAL_I2C_MspInit+0x8c>)
 8001fa6:	f001 f885 	bl	80030b4 <HAL_GPIO_Init>

    /* Peripheral clock enable */
    __HAL_RCC_I2C1_CLK_ENABLE();
 8001faa:	2300      	movs	r3, #0
 8001fac:	60fb      	str	r3, [r7, #12]
 8001fae:	4b09      	ldr	r3, [pc, #36]	@ (8001fd4 <HAL_I2C_MspInit+0x88>)
 8001fb0:	6c1b      	ldr	r3, [r3, #64]	@ 0x40
 8001fb2:	4a08      	ldr	r2, [pc, #32]	@ (8001fd4 <HAL_I2C_MspInit+0x88>)
 8001fb4:	f443 1300 	orr.w	r3, r3, #2097152	@ 0x200000
 8001fb8:	6413      	str	r3, [r2, #64]	@ 0x40
 8001fba:	4b06      	ldr	r3, [pc, #24]	@ (8001fd4 <HAL_I2C_MspInit+0x88>)
 8001fbc:	6c1b      	ldr	r3, [r3, #64]	@ 0x40
 8001fbe:	f403 1300 	and.w	r3, r3, #2097152	@ 0x200000
 8001fc2:	60fb      	str	r3, [r7, #12]
 8001fc4:	68fb      	ldr	r3, [r7, #12]

  /* USER CODE END I2C1_MspInit 1 */

  }

}
 8001fc6:	bf00      	nop
 8001fc8:	3728      	adds	r7, #40	@ 0x28
 8001fca:	46bd      	mov	sp, r7
 8001fcc:	bd80      	pop	{r7, pc}
 8001fce:	bf00      	nop
 8001fd0:	40005400 	.word	0x40005400
 8001fd4:	40023800 	.word	0x40023800
 8001fd8:	40020400 	.word	0x40020400

08001fdc <HAL_TIM_IC_MspInit>:
* This function configures the hardware resources used in this example
* @param htim_ic: TIM_IC handle pointer
* @retval None
*/
void HAL_TIM_IC_MspInit(TIM_HandleTypeDef* htim_ic)
{
 8001fdc:	b580      	push	{r7, lr}
 8001fde:	b08a      	sub	sp, #40	@ 0x28
 8001fe0:	af00      	add	r7, sp, #0
 8001fe2:	6078      	str	r0, [r7, #4]
  GPIO_InitTypeDef GPIO_InitStruct = {0};
 8001fe4:	f107 0314 	add.w	r3, r7, #20
 8001fe8:	2200      	movs	r2, #0
 8001fea:	601a      	str	r2, [r3, #0]
 8001fec:	605a      	str	r2, [r3, #4]
 8001fee:	609a      	str	r2, [r3, #8]
 8001ff0:	60da      	str	r2, [r3, #12]
 8001ff2:	611a      	str	r2, [r3, #16]
  if(htim_ic->Instance==TIM1)
 8001ff4:	687b      	ldr	r3, [r7, #4]
 8001ff6:	681b      	ldr	r3, [r3, #0]
 8001ff8:	4a1d      	ldr	r2, [pc, #116]	@ (8002070 <HAL_TIM_IC_MspInit+0x94>)
 8001ffa:	4293      	cmp	r3, r2
 8001ffc:	d134      	bne.n	8002068 <HAL_TIM_IC_MspInit+0x8c>
  {
  /* USER CODE BEGIN TIM1_MspInit 0 */

  /* USER CODE END TIM1_MspInit 0 */
    /* Peripheral clock enable */
    __HAL_RCC_TIM1_CLK_ENABLE();
 8001ffe:	2300      	movs	r3, #0
 8002000:	613b      	str	r3, [r7, #16]
 8002002:	4b1c      	ldr	r3, [pc, #112]	@ (8002074 <HAL_TIM_IC_MspInit+0x98>)
 8002004:	6c5b      	ldr	r3, [r3, #68]	@ 0x44
 8002006:	4a1b      	ldr	r2, [pc, #108]	@ (8002074 <HAL_TIM_IC_MspInit+0x98>)
 8002008:	f043 0301 	orr.w	r3, r3, #1
 800200c:	6453      	str	r3, [r2, #68]	@ 0x44
 800200e:	4b19      	ldr	r3, [pc, #100]	@ (8002074 <HAL_TIM_IC_MspInit+0x98>)
 8002010:	6c5b      	ldr	r3, [r3, #68]	@ 0x44
 8002012:	f003 0301 	and.w	r3, r3, #1
 8002016:	613b      	str	r3, [r7, #16]
 8002018:	693b      	ldr	r3, [r7, #16]

    __HAL_RCC_GPIOA_CLK_ENABLE();
 800201a:	2300      	movs	r3, #0
 800201c:	60fb      	str	r3, [r7, #12]
 800201e:	4b15      	ldr	r3, [pc, #84]	@ (8002074 <HAL_TIM_IC_MspInit+0x98>)
 8002020:	6b1b      	ldr	r3, [r3, #48]	@ 0x30
 8002022:	4a14      	ldr	r2, [pc, #80]	@ (8002074 <HAL_TIM_IC_MspInit+0x98>)
 8002024:	f043 0301 	orr.w	r3, r3, #1
 8002028:	6313      	str	r3, [r2, #48]	@ 0x30
 800202a:	4b12      	ldr	r3, [pc, #72]	@ (8002074 <HAL_TIM_IC_MspInit+0x98>)
 800202c:	6b1b      	ldr	r3, [r3, #48]	@ 0x30
 800202e:	f003 0301 	and.w	r3, r3, #1
 8002032:	60fb      	str	r3, [r7, #12]
 8002034:	68fb      	ldr	r3, [r7, #12]
    /**TIM1 GPIO Configuration
    PA9     ------> TIM1_CH2
    */
    GPIO_InitStruct.Pin = GPIO_PIN_9;
 8002036:	f44f 7300 	mov.w	r3, #512	@ 0x200
 800203a:	617b      	str	r3, [r7, #20]
    GPIO_InitStruct.Mode = GPIO_MODE_AF_PP;
 800203c:	2302      	movs	r3, #2
 800203e:	61bb      	str	r3, [r7, #24]
    GPIO_InitStruct.Pull = GPIO_NOPULL;
 8002040:	2300      	movs	r3, #0
 8002042:	61fb      	str	r3, [r7, #28]
    GPIO_InitStruct.Speed = GPIO_SPEED_FREQ_LOW;
 8002044:	2300      	movs	r3, #0
 8002046:	623b      	str	r3, [r7, #32]
    GPIO_InitStruct.Alternate = GPIO_AF1_TIM1;
 8002048:	2301      	movs	r3, #1
 800204a:	627b      	str	r3, [r7, #36]	@ 0x24
    HAL_GPIO_Init(GPIOA, &GPIO_InitStruct);
 800204c:	f107 0314 	add.w	r3, r7, #20
 8002050:	4619      	mov	r1, r3
 8002052:	4809      	ldr	r0, [pc, #36]	@ (8002078 <HAL_TIM_IC_MspInit+0x9c>)
 8002054:	f001 f82e 	bl	80030b4 <HAL_GPIO_Init>

    /* TIM1 interrupt Init */
    HAL_NVIC_SetPriority(TIM1_CC_IRQn, 0, 0);
 8002058:	2200      	movs	r2, #0
 800205a:	2100      	movs	r1, #0
 800205c:	201b      	movs	r0, #27
 800205e:	f000 fff2 	bl	8003046 <HAL_NVIC_SetPriority>
    HAL_NVIC_EnableIRQ(TIM1_CC_IRQn);
 8002062:	201b      	movs	r0, #27
 8002064:	f001 f80b 	bl	800307e <HAL_NVIC_EnableIRQ>

  /* USER CODE END TIM1_MspInit 1 */

  }

}
 8002068:	bf00      	nop
 800206a:	3728      	adds	r7, #40	@ 0x28
 800206c:	46bd      	mov	sp, r7
 800206e:	bd80      	pop	{r7, pc}
 8002070:	40010000 	.word	0x40010000
 8002074:	40023800 	.word	0x40023800
 8002078:	40020000 	.word	0x40020000

0800207c <HAL_TIM_Base_MspInit>:
* This function configures the hardware resources used in this example
* @param htim_base: TIM_Base handle pointer
* @retval None
*/
void HAL_TIM_Base_MspInit(TIM_HandleTypeDef* htim_base)
{
 800207c:	b480      	push	{r7}
 800207e:	b085      	sub	sp, #20
 8002080:	af00      	add	r7, sp, #0
 8002082:	6078      	str	r0, [r7, #4]
  if(htim_base->Instance==TIM4)
 8002084:	687b      	ldr	r3, [r7, #4]
 8002086:	681b      	ldr	r3, [r3, #0]
 8002088:	4a0b      	ldr	r2, [pc, #44]	@ (80020b8 <HAL_TIM_Base_MspInit+0x3c>)
 800208a:	4293      	cmp	r3, r2
 800208c:	d10d      	bne.n	80020aa <HAL_TIM_Base_MspInit+0x2e>
  {
  /* USER CODE BEGIN TIM4_MspInit 0 */

  /* USER CODE END TIM4_MspInit 0 */
    /* Peripheral clock enable */
    __HAL_RCC_TIM4_CLK_ENABLE();
 800208e:	2300      	movs	r3, #0
 8002090:	60fb      	str	r3, [r7, #12]
 8002092:	4b0a      	ldr	r3, [pc, #40]	@ (80020bc <HAL_TIM_Base_MspInit+0x40>)
 8002094:	6c1b      	ldr	r3, [r3, #64]	@ 0x40
 8002096:	4a09      	ldr	r2, [pc, #36]	@ (80020bc <HAL_TIM_Base_MspInit+0x40>)
 8002098:	f043 0304 	orr.w	r3, r3, #4
 800209c:	6413      	str	r3, [r2, #64]	@ 0x40
 800209e:	4b07      	ldr	r3, [pc, #28]	@ (80020bc <HAL_TIM_Base_MspInit+0x40>)
 80020a0:	6c1b      	ldr	r3, [r3, #64]	@ 0x40
 80020a2:	f003 0304 	and.w	r3, r3, #4
 80020a6:	60fb      	str	r3, [r7, #12]
 80020a8:	68fb      	ldr	r3, [r7, #12]

  /* USER CODE END TIM4_MspInit 1 */

  }

}
 80020aa:	bf00      	nop
 80020ac:	3714      	adds	r7, #20
 80020ae:	46bd      	mov	sp, r7
 80020b0:	f85d 7b04 	ldr.w	r7, [sp], #4
 80020b4:	4770      	bx	lr
 80020b6:	bf00      	nop
 80020b8:	40000800 	.word	0x40000800
 80020bc:	40023800 	.word	0x40023800

080020c0 <NMI_Handler>:
/******************************************************************************/
/**
  * @brief This function handles Non maskable interrupt.
  */
void NMI_Handler(void)
{
 80020c0:	b480      	push	{r7}
 80020c2:	af00      	add	r7, sp, #0
  /* USER CODE BEGIN NonMaskableInt_IRQn 0 */

  /* USER CODE END NonMaskableInt_IRQn 0 */
  /* USER CODE BEGIN NonMaskableInt_IRQn 1 */
   while (1)
 80020c4:	bf00      	nop
 80020c6:	e7fd      	b.n	80020c4 <NMI_Handler+0x4>

080020c8 <HardFault_Handler>:

/**
  * @brief This function handles Hard fault interrupt.
  */
void HardFault_Handler(void)
{
 80020c8:	b480      	push	{r7}
 80020ca:	af00      	add	r7, sp, #0
  /* USER CODE BEGIN HardFault_IRQn 0 */

  /* USER CODE END HardFault_IRQn 0 */
  while (1)
 80020cc:	bf00      	nop
 80020ce:	e7fd      	b.n	80020cc <HardFault_Handler+0x4>

080020d0 <MemManage_Handler>:

/**
  * @brief This function handles Memory management fault.
  */
void MemManage_Handler(void)
{
 80020d0:	b480      	push	{r7}
 80020d2:	af00      	add	r7, sp, #0
  /* USER CODE BEGIN MemoryManagement_IRQn 0 */

  /* USER CODE END MemoryManagement_IRQn 0 */
  while (1)
 80020d4:	bf00      	nop
 80020d6:	e7fd      	b.n	80020d4 <MemManage_Handler+0x4>

080020d8 <BusFault_Handler>:

/**
  * @brief This function handles Pre-fetch fault, memory access fault.
  */
void BusFault_Handler(void)
{
 80020d8:	b480      	push	{r7}
 80020da:	af00      	add	r7, sp, #0
  /* USER CODE BEGIN BusFault_IRQn 0 */

  /* USER CODE END BusFault_IRQn 0 */
  while (1)
 80020dc:	bf00      	nop
 80020de:	e7fd      	b.n	80020dc <BusFault_Handler+0x4>

080020e0 <UsageFault_Handler>:

/**
  * @brief This function handles Undefined instruction or illegal state.
  */
void UsageFault_Handler(void)
{
 80020e0:	b480      	push	{r7}
 80020e2:	af00      	add	r7, sp, #0
  /* USER CODE BEGIN UsageFault_IRQn 0 */

  /* USER CODE END UsageFault_IRQn 0 */
  while (1)
 80020e4:	bf00      	nop
 80020e6:	e7fd      	b.n	80020e4 <UsageFault_Handler+0x4>

080020e8 <SVC_Handler>:

/**
  * @brief This function handles System service call via SWI instruction.
  */
void SVC_Handler(void)
{
 80020e8:	b480      	push	{r7}
 80020ea:	af00      	add	r7, sp, #0

  /* USER CODE END SVCall_IRQn 0 */
  /* USER CODE BEGIN SVCall_IRQn 1 */

  /* USER CODE END SVCall_IRQn 1 */
}
 80020ec:	bf00      	nop
 80020ee:	46bd      	mov	sp, r7
 80020f0:	f85d 7b04 	ldr.w	r7, [sp], #4
 80020f4:	4770      	bx	lr

080020f6 <DebugMon_Handler>:

/**
  * @brief This function handles Debug monitor.
  */
void DebugMon_Handler(void)
{
 80020f6:	b480      	push	{r7}
 80020f8:	af00      	add	r7, sp, #0

  /* USER CODE END DebugMonitor_IRQn 0 */
  /* USER CODE BEGIN DebugMonitor_IRQn 1 */

  /* USER CODE END DebugMonitor_IRQn 1 */
}
 80020fa:	bf00      	nop
 80020fc:	46bd      	mov	sp, r7
 80020fe:	f85d 7b04 	ldr.w	r7, [sp], #4
 8002102:	4770      	bx	lr

08002104 <PendSV_Handler>:

/**
  * @brief This function handles Pendable request for system service.
  */
void PendSV_Handler(void)
{
 8002104:	b480      	push	{r7}
 8002106:	af00      	add	r7, sp, #0

  /* USER CODE END PendSV_IRQn 0 */
  /* USER CODE BEGIN PendSV_IRQn 1 */

  /* USER CODE END PendSV_IRQn 1 */
}
 8002108:	bf00      	nop
 800210a:	46bd      	mov	sp, r7
 800210c:	f85d 7b04 	ldr.w	r7, [sp], #4
 8002110:	4770      	bx	lr

08002112 <SysTick_Handler>:

/**
  * @brief This function handles System tick timer.
  */
void SysTick_Handler(void)
{
 8002112:	b580      	push	{r7, lr}
 8002114:	af00      	add	r7, sp, #0
  /* USER CODE BEGIN SysTick_IRQn 0 */

  /* USER CODE END SysTick_IRQn 0 */
  HAL_IncTick();
 8002116:	f000 f9fb 	bl	8002510 <HAL_IncTick>
  /* USER CODE BEGIN SysTick_IRQn 1 */

  /* USER CODE END SysTick_IRQn 1 */
}
 800211a:	bf00      	nop
 800211c:	bd80      	pop	{r7, pc}
	...

08002120 <ADC_IRQHandler>:

/**
  * @brief This function handles ADC1, ADC2 and ADC3 global interrupts.
  */
void ADC_IRQHandler(void)
{
 8002120:	b580      	push	{r7, lr}
 8002122:	af00      	add	r7, sp, #0
  /* USER CODE BEGIN ADC_IRQn 0 */

  /* USER CODE END ADC_IRQn 0 */
  HAL_ADC_IRQHandler(&hadc1);
 8002124:	4803      	ldr	r0, [pc, #12]	@ (8002134 <ADC_IRQHandler+0x14>)
 8002126:	f000 fb59 	bl	80027dc <HAL_ADC_IRQHandler>
  HAL_ADC_IRQHandler(&hadc2);
 800212a:	4803      	ldr	r0, [pc, #12]	@ (8002138 <ADC_IRQHandler+0x18>)
 800212c:	f000 fb56 	bl	80027dc <HAL_ADC_IRQHandler>
  /* USER CODE BEGIN ADC_IRQn 1 */

  /* USER CODE END ADC_IRQn 1 */
}
 8002130:	bf00      	nop
 8002132:	bd80      	pop	{r7, pc}
 8002134:	200001fc 	.word	0x200001fc
 8002138:	20000244 	.word	0x20000244

0800213c <TIM1_CC_IRQHandler>:

/**
  * @brief This function handles TIM1 capture compare interrupt.
  */
void TIM1_CC_IRQHandler(void)
{
 800213c:	b580      	push	{r7, lr}
 800213e:	af00      	add	r7, sp, #0
  /* USER CODE BEGIN TIM1_CC_IRQn 0 */

  /* USER CODE END TIM1_CC_IRQn 0 */
  HAL_TIM_IRQHandler(&htim1);
 8002140:	4802      	ldr	r0, [pc, #8]	@ (800214c <TIM1_CC_IRQHandler+0x10>)
 8002142:	f003 f83b 	bl	80051bc <HAL_TIM_IRQHandler>
  /* USER CODE BEGIN TIM1_CC_IRQn 1 */

  /* USER CODE END TIM1_CC_IRQn 1 */
}
 8002146:	bf00      	nop
 8002148:	bd80      	pop	{r7, pc}
 800214a:	bf00      	nop
 800214c:	200002e0 	.word	0x200002e0

08002150 <HAL_TIM_IC_CaptureCallback>:

/* USER CODE BEGIN 1 */
void HAL_TIM_IC_CaptureCallback(TIM_HandleTypeDef *htim)
{
 8002150:	b580      	push	{r7, lr}
 8002152:	b088      	sub	sp, #32
 8002154:	af00      	add	r7, sp, #0
 8002156:	6078      	str	r0, [r7, #4]
	if (htim->Channel != HAL_TIM_ACTIVE_CHANNEL_2) {
 8002158:	687b      	ldr	r3, [r7, #4]
 800215a:	7f1b      	ldrb	r3, [r3, #28]
 800215c:	2b02      	cmp	r3, #2
 800215e:	d172      	bne.n	8002246 <HAL_TIM_IC_CaptureCallback+0xf6>
		return;
	}
	if (shouldRise) {
 8002160:	4b3b      	ldr	r3, [pc, #236]	@ (8002250 <HAL_TIM_IC_CaptureCallback+0x100>)
 8002162:	781b      	ldrb	r3, [r3, #0]
 8002164:	b2db      	uxtb	r3, r3
 8002166:	2b00      	cmp	r3, #0
 8002168:	d01a      	beq.n	80021a0 <HAL_TIM_IC_CaptureCallback+0x50>
		risingTick = HAL_TIM_ReadCapturedValue(htim, TIM_CHANNEL_2);
 800216a:	2104      	movs	r1, #4
 800216c:	6878      	ldr	r0, [r7, #4]
 800216e:	f003 fa79 	bl	8005664 <HAL_TIM_ReadCapturedValue>
 8002172:	4603      	mov	r3, r0
 8002174:	4a37      	ldr	r2, [pc, #220]	@ (8002254 <HAL_TIM_IC_CaptureCallback+0x104>)
 8002176:	6013      	str	r3, [r2, #0]
		__HAL_TIM_SET_CAPTUREPOLARITY(htim, TIM_CHANNEL_2, TIM_INPUTCHANNELPOLARITY_FALLING);
 8002178:	687b      	ldr	r3, [r7, #4]
 800217a:	681b      	ldr	r3, [r3, #0]
 800217c:	6a1a      	ldr	r2, [r3, #32]
 800217e:	687b      	ldr	r3, [r7, #4]
 8002180:	681b      	ldr	r3, [r3, #0]
 8002182:	f022 02a0 	bic.w	r2, r2, #160	@ 0xa0
 8002186:	621a      	str	r2, [r3, #32]
 8002188:	687b      	ldr	r3, [r7, #4]
 800218a:	681b      	ldr	r3, [r3, #0]
 800218c:	6a1a      	ldr	r2, [r3, #32]
 800218e:	687b      	ldr	r3, [r7, #4]
 8002190:	681b      	ldr	r3, [r3, #0]
 8002192:	f042 0220 	orr.w	r2, r2, #32
 8002196:	621a      	str	r2, [r3, #32]
		shouldRise = false;
 8002198:	4b2d      	ldr	r3, [pc, #180]	@ (8002250 <HAL_TIM_IC_CaptureCallback+0x100>)
 800219a:	2200      	movs	r2, #0
 800219c:	701a      	strb	r2, [r3, #0]
		return;
 800219e:	e053      	b.n	8002248 <HAL_TIM_IC_CaptureCallback+0xf8>
	}
	fallingTick = HAL_TIM_ReadCapturedValue(htim, TIM_CHANNEL_2);
 80021a0:	2104      	movs	r1, #4
 80021a2:	6878      	ldr	r0, [r7, #4]
 80021a4:	f003 fa5e 	bl	8005664 <HAL_TIM_ReadCapturedValue>
 80021a8:	4603      	mov	r3, r0
 80021aa:	4a2b      	ldr	r2, [pc, #172]	@ (8002258 <HAL_TIM_IC_CaptureCallback+0x108>)
 80021ac:	6013      	str	r3, [r2, #0]
	__HAL_TIM_SET_CAPTUREPOLARITY(htim, TIM_CHANNEL_2, TIM_INPUTCHANNELPOLARITY_RISING);
 80021ae:	687b      	ldr	r3, [r7, #4]
 80021b0:	681b      	ldr	r3, [r3, #0]
 80021b2:	6a1a      	ldr	r2, [r3, #32]
 80021b4:	687b      	ldr	r3, [r7, #4]
 80021b6:	681b      	ldr	r3, [r3, #0]
 80021b8:	f022 02a0 	bic.w	r2, r2, #160	@ 0xa0
 80021bc:	621a      	str	r2, [r3, #32]
 80021be:	687b      	ldr	r3, [r7, #4]
 80021c0:	681a      	ldr	r2, [r3, #0]
 80021c2:	687b      	ldr	r3, [r7, #4]
 80021c4:	681b      	ldr	r3, [r3, #0]
 80021c6:	6a12      	ldr	r2, [r2, #32]
 80021c8:	621a      	str	r2, [r3, #32]
	shouldRise = true;
 80021ca:	4b21      	ldr	r3, [pc, #132]	@ (8002250 <HAL_TIM_IC_CaptureCallback+0x100>)
 80021cc:	2201      	movs	r2, #1
 80021ce:	701a      	strb	r2, [r3, #0]
	if (fallingTick >= risingTick) {
 80021d0:	4b21      	ldr	r3, [pc, #132]	@ (8002258 <HAL_TIM_IC_CaptureCallback+0x108>)
 80021d2:	681a      	ldr	r2, [r3, #0]
 80021d4:	4b1f      	ldr	r3, [pc, #124]	@ (8002254 <HAL_TIM_IC_CaptureCallback+0x104>)
 80021d6:	681b      	ldr	r3, [r3, #0]
 80021d8:	429a      	cmp	r2, r3
 80021da:	d307      	bcc.n	80021ec <HAL_TIM_IC_CaptureCallback+0x9c>
		soundTime = fallingTick - risingTick;
 80021dc:	4b1e      	ldr	r3, [pc, #120]	@ (8002258 <HAL_TIM_IC_CaptureCallback+0x108>)
 80021de:	681a      	ldr	r2, [r3, #0]
 80021e0:	4b1c      	ldr	r3, [pc, #112]	@ (8002254 <HAL_TIM_IC_CaptureCallback+0x104>)
 80021e2:	681b      	ldr	r3, [r3, #0]
 80021e4:	1ad3      	subs	r3, r2, r3
 80021e6:	4a1d      	ldr	r2, [pc, #116]	@ (800225c <HAL_TIM_IC_CaptureCallback+0x10c>)
 80021e8:	6013      	str	r3, [r2, #0]
 80021ea:	e00a      	b.n	8002202 <HAL_TIM_IC_CaptureCallback+0xb2>
	} else {
		soundTime = (htim->Instance->ARR - risingTick) + fallingTick;
 80021ec:	687b      	ldr	r3, [r7, #4]
 80021ee:	681b      	ldr	r3, [r3, #0]
 80021f0:	6ada      	ldr	r2, [r3, #44]	@ 0x2c
 80021f2:	4b18      	ldr	r3, [pc, #96]	@ (8002254 <HAL_TIM_IC_CaptureCallback+0x104>)
 80021f4:	681b      	ldr	r3, [r3, #0]
 80021f6:	1ad2      	subs	r2, r2, r3
 80021f8:	4b17      	ldr	r3, [pc, #92]	@ (8002258 <HAL_TIM_IC_CaptureCallback+0x108>)
 80021fa:	681b      	ldr	r3, [r3, #0]
 80021fc:	4413      	add	r3, r2
 80021fe:	4a17      	ldr	r2, [pc, #92]	@ (800225c <HAL_TIM_IC_CaptureCallback+0x10c>)
 8002200:	6013      	str	r3, [r2, #0]
	}
	float distance = (soundTime * SPEED_OF_SOUND_CM_IN_MS) / 2;
 8002202:	4b16      	ldr	r3, [pc, #88]	@ (800225c <HAL_TIM_IC_CaptureCallback+0x10c>)
 8002204:	681b      	ldr	r3, [r3, #0]
 8002206:	ee07 3a90 	vmov	s15, r3
 800220a:	eef8 7a67 	vcvt.f32.u32	s15, s15
 800220e:	ed9f 7a14 	vldr	s14, [pc, #80]	@ 8002260 <HAL_TIM_IC_CaptureCallback+0x110>
 8002212:	ee27 7a87 	vmul.f32	s14, s15, s14
 8002216:	eef0 6a00 	vmov.f32	s13, #0	@ 0x40000000  2.0
 800221a:	eec7 7a26 	vdiv.f32	s15, s14, s13
 800221e:	edc7 7a07 	vstr	s15, [r7, #28]

	char distanceOut[16];
	sprintf(distanceOut, "d = %.2f cm", distance);
 8002222:	69f8      	ldr	r0, [r7, #28]
 8002224:	f7fe f990 	bl	8000548 <__aeabi_f2d>
 8002228:	4602      	mov	r2, r0
 800222a:	460b      	mov	r3, r1
 800222c:	f107 000c 	add.w	r0, r7, #12
 8002230:	490c      	ldr	r1, [pc, #48]	@ (8002264 <HAL_TIM_IC_CaptureCallback+0x114>)
 8002232:	f004 fac3 	bl	80067bc <siprintf>
	lcdClrScr();
 8002236:	f7fe ff9f 	bl	8001178 <lcdClrScr>
	lcdPuts(distanceOut);
 800223a:	f107 030c 	add.w	r3, r7, #12
 800223e:	4618      	mov	r0, r3
 8002240:	f7ff f85c 	bl	80012fc <lcdPuts>
 8002244:	e000      	b.n	8002248 <HAL_TIM_IC_CaptureCallback+0xf8>
		return;
 8002246:	bf00      	nop
}
 8002248:	3720      	adds	r7, #32
 800224a:	46bd      	mov	sp, r7
 800224c:	bd80      	pop	{r7, pc}
 800224e:	bf00      	nop
 8002250:	20000008 	.word	0x20000008
 8002254:	2000037c 	.word	0x2000037c
 8002258:	20000380 	.word	0x20000380
 800225c:	20000384 	.word	0x20000384
 8002260:	3d0c7e28 	.word	0x3d0c7e28
 8002264:	08008a34 	.word	0x08008a34

08002268 <_getpid>:
void initialise_monitor_handles()
{
}

int _getpid(void)
{
 8002268:	b480      	push	{r7}
 800226a:	af00      	add	r7, sp, #0
  return 1;
 800226c:	2301      	movs	r3, #1
}
 800226e:	4618      	mov	r0, r3
 8002270:	46bd      	mov	sp, r7
 8002272:	f85d 7b04 	ldr.w	r7, [sp], #4
 8002276:	4770      	bx	lr

08002278 <_kill>:

int _kill(int pid, int sig)
{
 8002278:	b580      	push	{r7, lr}
 800227a:	b082      	sub	sp, #8
 800227c:	af00      	add	r7, sp, #0
 800227e:	6078      	str	r0, [r7, #4]
 8002280:	6039      	str	r1, [r7, #0]
  (void)pid;
  (void)sig;
  errno = EINVAL;
 8002282:	f004 fb51 	bl	8006928 <__errno>
 8002286:	4603      	mov	r3, r0
 8002288:	2216      	movs	r2, #22
 800228a:	601a      	str	r2, [r3, #0]
  return -1;
 800228c:	f04f 33ff 	mov.w	r3, #4294967295
}
 8002290:	4618      	mov	r0, r3
 8002292:	3708      	adds	r7, #8
 8002294:	46bd      	mov	sp, r7
 8002296:	bd80      	pop	{r7, pc}

08002298 <_exit>:

void _exit (int status)
{
 8002298:	b580      	push	{r7, lr}
 800229a:	b082      	sub	sp, #8
 800229c:	af00      	add	r7, sp, #0
 800229e:	6078      	str	r0, [r7, #4]
  _kill(status, -1);
 80022a0:	f04f 31ff 	mov.w	r1, #4294967295
 80022a4:	6878      	ldr	r0, [r7, #4]
 80022a6:	f7ff ffe7 	bl	8002278 <_kill>
  while (1) {}    /* Make sure we hang here */
 80022aa:	bf00      	nop
 80022ac:	e7fd      	b.n	80022aa <_exit+0x12>

080022ae <_read>:
}

__attribute__((weak)) int _read(int file, char *ptr, int len)
{
 80022ae:	b580      	push	{r7, lr}
 80022b0:	b086      	sub	sp, #24
 80022b2:	af00      	add	r7, sp, #0
 80022b4:	60f8      	str	r0, [r7, #12]
 80022b6:	60b9      	str	r1, [r7, #8]
 80022b8:	607a      	str	r2, [r7, #4]
  (void)file;
  int DataIdx;

  for (DataIdx = 0; DataIdx < len; DataIdx++)
 80022ba:	2300      	movs	r3, #0
 80022bc:	617b      	str	r3, [r7, #20]
 80022be:	e00a      	b.n	80022d6 <_read+0x28>
  {
    *ptr++ = __io_getchar();
 80022c0:	f3af 8000 	nop.w
 80022c4:	4601      	mov	r1, r0
 80022c6:	68bb      	ldr	r3, [r7, #8]
 80022c8:	1c5a      	adds	r2, r3, #1
 80022ca:	60ba      	str	r2, [r7, #8]
 80022cc:	b2ca      	uxtb	r2, r1
 80022ce:	701a      	strb	r2, [r3, #0]
  for (DataIdx = 0; DataIdx < len; DataIdx++)
 80022d0:	697b      	ldr	r3, [r7, #20]
 80022d2:	3301      	adds	r3, #1
 80022d4:	617b      	str	r3, [r7, #20]
 80022d6:	697a      	ldr	r2, [r7, #20]
 80022d8:	687b      	ldr	r3, [r7, #4]
 80022da:	429a      	cmp	r2, r3
 80022dc:	dbf0      	blt.n	80022c0 <_read+0x12>
  }

  return len;
 80022de:	687b      	ldr	r3, [r7, #4]
}
 80022e0:	4618      	mov	r0, r3
 80022e2:	3718      	adds	r7, #24
 80022e4:	46bd      	mov	sp, r7
 80022e6:	bd80      	pop	{r7, pc}

080022e8 <_write>:

__attribute__((weak)) int _write(int file, char *ptr, int len)
{
 80022e8:	b580      	push	{r7, lr}
 80022ea:	b086      	sub	sp, #24
 80022ec:	af00      	add	r7, sp, #0
 80022ee:	60f8      	str	r0, [r7, #12]
 80022f0:	60b9      	str	r1, [r7, #8]
 80022f2:	607a      	str	r2, [r7, #4]
  (void)file;
  int DataIdx;

  for (DataIdx = 0; DataIdx < len; DataIdx++)
 80022f4:	2300      	movs	r3, #0
 80022f6:	617b      	str	r3, [r7, #20]
 80022f8:	e009      	b.n	800230e <_write+0x26>
  {
    __io_putchar(*ptr++);
 80022fa:	68bb      	ldr	r3, [r7, #8]
 80022fc:	1c5a      	adds	r2, r3, #1
 80022fe:	60ba      	str	r2, [r7, #8]
 8002300:	781b      	ldrb	r3, [r3, #0]
 8002302:	4618      	mov	r0, r3
 8002304:	f3af 8000 	nop.w
  for (DataIdx = 0; DataIdx < len; DataIdx++)
 8002308:	697b      	ldr	r3, [r7, #20]
 800230a:	3301      	adds	r3, #1
 800230c:	617b      	str	r3, [r7, #20]
 800230e:	697a      	ldr	r2, [r7, #20]
 8002310:	687b      	ldr	r3, [r7, #4]
 8002312:	429a      	cmp	r2, r3
 8002314:	dbf1      	blt.n	80022fa <_write+0x12>
  }
  return len;
 8002316:	687b      	ldr	r3, [r7, #4]
}
 8002318:	4618      	mov	r0, r3
 800231a:	3718      	adds	r7, #24
 800231c:	46bd      	mov	sp, r7
 800231e:	bd80      	pop	{r7, pc}

08002320 <_close>:

int _close(int file)
{
 8002320:	b480      	push	{r7}
 8002322:	b083      	sub	sp, #12
 8002324:	af00      	add	r7, sp, #0
 8002326:	6078      	str	r0, [r7, #4]
  (void)file;
  return -1;
 8002328:	f04f 33ff 	mov.w	r3, #4294967295
}
 800232c:	4618      	mov	r0, r3
 800232e:	370c      	adds	r7, #12
 8002330:	46bd      	mov	sp, r7
 8002332:	f85d 7b04 	ldr.w	r7, [sp], #4
 8002336:	4770      	bx	lr

08002338 <_fstat>:


int _fstat(int file, struct stat *st)
{
 8002338:	b480      	push	{r7}
 800233a:	b083      	sub	sp, #12
 800233c:	af00      	add	r7, sp, #0
 800233e:	6078      	str	r0, [r7, #4]
 8002340:	6039      	str	r1, [r7, #0]
  (void)file;
  st->st_mode = S_IFCHR;
 8002342:	683b      	ldr	r3, [r7, #0]
 8002344:	f44f 5200 	mov.w	r2, #8192	@ 0x2000
 8002348:	605a      	str	r2, [r3, #4]
  return 0;
 800234a:	2300      	movs	r3, #0
}
 800234c:	4618      	mov	r0, r3
 800234e:	370c      	adds	r7, #12
 8002350:	46bd      	mov	sp, r7
 8002352:	f85d 7b04 	ldr.w	r7, [sp], #4
 8002356:	4770      	bx	lr

08002358 <_isatty>:

int _isatty(int file)
{
 8002358:	b480      	push	{r7}
 800235a:	b083      	sub	sp, #12
 800235c:	af00      	add	r7, sp, #0
 800235e:	6078      	str	r0, [r7, #4]
  (void)file;
  return 1;
 8002360:	2301      	movs	r3, #1
}
 8002362:	4618      	mov	r0, r3
 8002364:	370c      	adds	r7, #12
 8002366:	46bd      	mov	sp, r7
 8002368:	f85d 7b04 	ldr.w	r7, [sp], #4
 800236c:	4770      	bx	lr

0800236e <_lseek>:

int _lseek(int file, int ptr, int dir)
{
 800236e:	b480      	push	{r7}
 8002370:	b085      	sub	sp, #20
 8002372:	af00      	add	r7, sp, #0
 8002374:	60f8      	str	r0, [r7, #12]
 8002376:	60b9      	str	r1, [r7, #8]
 8002378:	607a      	str	r2, [r7, #4]
  (void)file;
  (void)ptr;
  (void)dir;
  return 0;
 800237a:	2300      	movs	r3, #0
}
 800237c:	4618      	mov	r0, r3
 800237e:	3714      	adds	r7, #20
 8002380:	46bd      	mov	sp, r7
 8002382:	f85d 7b04 	ldr.w	r7, [sp], #4
 8002386:	4770      	bx	lr

08002388 <_sbrk>:
 *
 * @param incr Memory size
 * @return Pointer to allocated memory
 */
void *_sbrk(ptrdiff_t incr)
{
 8002388:	b580      	push	{r7, lr}
 800238a:	b086      	sub	sp, #24
 800238c:	af00      	add	r7, sp, #0
 800238e:	6078      	str	r0, [r7, #4]
  extern uint8_t _end; /* Symbol defined in the linker script */
  extern uint8_t _estack; /* Symbol defined in the linker script */
  extern uint32_t _Min_Stack_Size; /* Symbol defined in the linker script */
  const uint32_t stack_limit = (uint32_t)&_estack - (uint32_t)&_Min_Stack_Size;
 8002390:	4a14      	ldr	r2, [pc, #80]	@ (80023e4 <_sbrk+0x5c>)
 8002392:	4b15      	ldr	r3, [pc, #84]	@ (80023e8 <_sbrk+0x60>)
 8002394:	1ad3      	subs	r3, r2, r3
 8002396:	617b      	str	r3, [r7, #20]
  const uint8_t *max_heap = (uint8_t *)stack_limit;
 8002398:	697b      	ldr	r3, [r7, #20]
 800239a:	613b      	str	r3, [r7, #16]
  uint8_t *prev_heap_end;

  /* Initialize heap end at first call */
  if (NULL == __sbrk_heap_end)
 800239c:	4b13      	ldr	r3, [pc, #76]	@ (80023ec <_sbrk+0x64>)
 800239e:	681b      	ldr	r3, [r3, #0]
 80023a0:	2b00      	cmp	r3, #0
 80023a2:	d102      	bne.n	80023aa <_sbrk+0x22>
  {
    __sbrk_heap_end = &_end;
 80023a4:	4b11      	ldr	r3, [pc, #68]	@ (80023ec <_sbrk+0x64>)
 80023a6:	4a12      	ldr	r2, [pc, #72]	@ (80023f0 <_sbrk+0x68>)
 80023a8:	601a      	str	r2, [r3, #0]
  }

  /* Protect heap from growing into the reserved MSP stack */
  if (__sbrk_heap_end + incr > max_heap)
 80023aa:	4b10      	ldr	r3, [pc, #64]	@ (80023ec <_sbrk+0x64>)
 80023ac:	681a      	ldr	r2, [r3, #0]
 80023ae:	687b      	ldr	r3, [r7, #4]
 80023b0:	4413      	add	r3, r2
 80023b2:	693a      	ldr	r2, [r7, #16]
 80023b4:	429a      	cmp	r2, r3
 80023b6:	d207      	bcs.n	80023c8 <_sbrk+0x40>
  {
    errno = ENOMEM;
 80023b8:	f004 fab6 	bl	8006928 <__errno>
 80023bc:	4603      	mov	r3, r0
 80023be:	220c      	movs	r2, #12
 80023c0:	601a      	str	r2, [r3, #0]
    return (void *)-1;
 80023c2:	f04f 33ff 	mov.w	r3, #4294967295
 80023c6:	e009      	b.n	80023dc <_sbrk+0x54>
  }

  prev_heap_end = __sbrk_heap_end;
 80023c8:	4b08      	ldr	r3, [pc, #32]	@ (80023ec <_sbrk+0x64>)
 80023ca:	681b      	ldr	r3, [r3, #0]
 80023cc:	60fb      	str	r3, [r7, #12]
  __sbrk_heap_end += incr;
 80023ce:	4b07      	ldr	r3, [pc, #28]	@ (80023ec <_sbrk+0x64>)
 80023d0:	681a      	ldr	r2, [r3, #0]
 80023d2:	687b      	ldr	r3, [r7, #4]
 80023d4:	4413      	add	r3, r2
 80023d6:	4a05      	ldr	r2, [pc, #20]	@ (80023ec <_sbrk+0x64>)
 80023d8:	6013      	str	r3, [r2, #0]

  return (void *)prev_heap_end;
 80023da:	68fb      	ldr	r3, [r7, #12]
}
 80023dc:	4618      	mov	r0, r3
 80023de:	3718      	adds	r7, #24
 80023e0:	46bd      	mov	sp, r7
 80023e2:	bd80      	pop	{r7, pc}
 80023e4:	20020000 	.word	0x20020000
 80023e8:	00000400 	.word	0x00000400
 80023ec:	20000388 	.word	0x20000388
 80023f0:	200004e0 	.word	0x200004e0

080023f4 <SystemInit>:
  *         configuration.
  * @param  None
  * @retval None
  */
void SystemInit(void)
{
 80023f4:	b480      	push	{r7}
 80023f6:	af00      	add	r7, sp, #0
  /* FPU settings ------------------------------------------------------------*/
  #if (__FPU_PRESENT == 1) && (__FPU_USED == 1)
    SCB->CPACR |= ((3UL << 10*2)|(3UL << 11*2));  /* set CP10 and CP11 Full Access */
 80023f8:	4b06      	ldr	r3, [pc, #24]	@ (8002414 <SystemInit+0x20>)
 80023fa:	f8d3 3088 	ldr.w	r3, [r3, #136]	@ 0x88
 80023fe:	4a05      	ldr	r2, [pc, #20]	@ (8002414 <SystemInit+0x20>)
 8002400:	f443 0370 	orr.w	r3, r3, #15728640	@ 0xf00000
 8002404:	f8c2 3088 	str.w	r3, [r2, #136]	@ 0x88

  /* Configure the Vector Table location -------------------------------------*/
#if defined(USER_VECT_TAB_ADDRESS)
  SCB->VTOR = VECT_TAB_BASE_ADDRESS | VECT_TAB_OFFSET; /* Vector Table Relocation in Internal SRAM */
#endif /* USER_VECT_TAB_ADDRESS */
}
 8002408:	bf00      	nop
 800240a:	46bd      	mov	sp, r7
 800240c:	f85d 7b04 	ldr.w	r7, [sp], #4
 8002410:	4770      	bx	lr
 8002412:	bf00      	nop
 8002414:	e000ed00 	.word	0xe000ed00

08002418 <Reset_Handler>:

    .section  .text.Reset_Handler
  .weak  Reset_Handler
  .type  Reset_Handler, %function
Reset_Handler:  
  ldr   sp, =_estack     /* set stack pointer */
 8002418:	f8df d034 	ldr.w	sp, [pc, #52]	@ 8002450 <LoopFillZerobss+0xe>
  
/* Call the clock system initialization function.*/
  bl  SystemInit  
 800241c:	f7ff ffea 	bl	80023f4 <SystemInit>

/* Copy the data segment initializers from flash to SRAM */  
  ldr r0, =_sdata
 8002420:	480c      	ldr	r0, [pc, #48]	@ (8002454 <LoopFillZerobss+0x12>)
  ldr r1, =_edata
 8002422:	490d      	ldr	r1, [pc, #52]	@ (8002458 <LoopFillZerobss+0x16>)
  ldr r2, =_sidata
 8002424:	4a0d      	ldr	r2, [pc, #52]	@ (800245c <LoopFillZerobss+0x1a>)
  movs r3, #0
 8002426:	2300      	movs	r3, #0
  b LoopCopyDataInit
 8002428:	e002      	b.n	8002430 <LoopCopyDataInit>

0800242a <CopyDataInit>:

CopyDataInit:
  ldr r4, [r2, r3]
 800242a:	58d4      	ldr	r4, [r2, r3]
  str r4, [r0, r3]
 800242c:	50c4      	str	r4, [r0, r3]
  adds r3, r3, #4
 800242e:	3304      	adds	r3, #4

08002430 <LoopCopyDataInit>:

LoopCopyDataInit:
  adds r4, r0, r3
 8002430:	18c4      	adds	r4, r0, r3
  cmp r4, r1
 8002432:	428c      	cmp	r4, r1
  bcc CopyDataInit
 8002434:	d3f9      	bcc.n	800242a <CopyDataInit>
  
/* Zero fill the bss segment. */
  ldr r2, =_sbss
 8002436:	4a0a      	ldr	r2, [pc, #40]	@ (8002460 <LoopFillZerobss+0x1e>)
  ldr r4, =_ebss
 8002438:	4c0a      	ldr	r4, [pc, #40]	@ (8002464 <LoopFillZerobss+0x22>)
  movs r3, #0
 800243a:	2300      	movs	r3, #0
  b LoopFillZerobss
 800243c:	e001      	b.n	8002442 <LoopFillZerobss>

0800243e <FillZerobss>:

FillZerobss:
  str  r3, [r2]
 800243e:	6013      	str	r3, [r2, #0]
  adds r2, r2, #4
 8002440:	3204      	adds	r2, #4

08002442 <LoopFillZerobss>:

LoopFillZerobss:
  cmp r2, r4
 8002442:	42a2      	cmp	r2, r4
  bcc FillZerobss
 8002444:	d3fb      	bcc.n	800243e <FillZerobss>

/* Call static constructors */
    bl __libc_init_array
 8002446:	f004 fa75 	bl	8006934 <__libc_init_array>
/* Call the application's entry point.*/
  bl  main
 800244a:	f7fe ffdb 	bl	8001404 <main>
  bx  lr    
 800244e:	4770      	bx	lr
  ldr   sp, =_estack     /* set stack pointer */
 8002450:	20020000 	.word	0x20020000
  ldr r0, =_sdata
 8002454:	20000000 	.word	0x20000000
  ldr r1, =_edata
 8002458:	200001e0 	.word	0x200001e0
  ldr r2, =_sidata
 800245c:	08008dd8 	.word	0x08008dd8
  ldr r2, =_sbss
 8002460:	200001e0 	.word	0x200001e0
  ldr r4, =_ebss
 8002464:	200004dc 	.word	0x200004dc

08002468 <CAN1_RX0_IRQHandler>:
 * @retval None       
*/
    .section  .text.Default_Handler,"ax",%progbits
Default_Handler:
Infinite_Loop:
  b  Infinite_Loop
 8002468:	e7fe      	b.n	8002468 <CAN1_RX0_IRQHandler>
	...

0800246c <HAL_Init>:
  *         need to ensure that the SysTick time base is always set to 1 millisecond
  *         to have correct HAL operation.
  * @retval HAL status
  */
HAL_StatusTypeDef HAL_Init(void)
{
 800246c:	b580      	push	{r7, lr}
 800246e:	af00      	add	r7, sp, #0
  /* Configure Flash prefetch, Instruction cache, Data cache */ 
#if (INSTRUCTION_CACHE_ENABLE != 0U)
  __HAL_FLASH_INSTRUCTION_CACHE_ENABLE();
 8002470:	4b0e      	ldr	r3, [pc, #56]	@ (80024ac <HAL_Init+0x40>)
 8002472:	681b      	ldr	r3, [r3, #0]
 8002474:	4a0d      	ldr	r2, [pc, #52]	@ (80024ac <HAL_Init+0x40>)
 8002476:	f443 7300 	orr.w	r3, r3, #512	@ 0x200
 800247a:	6013      	str	r3, [r2, #0]
#endif /* INSTRUCTION_CACHE_ENABLE */

#if (DATA_CACHE_ENABLE != 0U)
  __HAL_FLASH_DATA_CACHE_ENABLE();
 800247c:	4b0b      	ldr	r3, [pc, #44]	@ (80024ac <HAL_Init+0x40>)
 800247e:	681b      	ldr	r3, [r3, #0]
 8002480:	4a0a      	ldr	r2, [pc, #40]	@ (80024ac <HAL_Init+0x40>)
 8002482:	f443 6380 	orr.w	r3, r3, #1024	@ 0x400
 8002486:	6013      	str	r3, [r2, #0]
#endif /* DATA_CACHE_ENABLE */

#if (PREFETCH_ENABLE != 0U)
  __HAL_FLASH_PREFETCH_BUFFER_ENABLE();
 8002488:	4b08      	ldr	r3, [pc, #32]	@ (80024ac <HAL_Init+0x40>)
 800248a:	681b      	ldr	r3, [r3, #0]
 800248c:	4a07      	ldr	r2, [pc, #28]	@ (80024ac <HAL_Init+0x40>)
 800248e:	f443 7380 	orr.w	r3, r3, #256	@ 0x100
 8002492:	6013      	str	r3, [r2, #0]
#endif /* PREFETCH_ENABLE */

  /* Set Interrupt Group Priority */
  HAL_NVIC_SetPriorityGrouping(NVIC_PRIORITYGROUP_4);
 8002494:	2003      	movs	r0, #3
 8002496:	f000 fdcb 	bl	8003030 <HAL_NVIC_SetPriorityGrouping>

  /* Use systick as time base source and configure 1ms tick (default clock after Reset is HSI) */
  HAL_InitTick(TICK_INT_PRIORITY);
 800249a:	200f      	movs	r0, #15
 800249c:	f000 f808 	bl	80024b0 <HAL_InitTick>

  /* Init the low level hardware */
  HAL_MspInit();
 80024a0:	f7ff fca8 	bl	8001df4 <HAL_MspInit>

  /* Return function status */
  return HAL_OK;
 80024a4:	2300      	movs	r3, #0
}
 80024a6:	4618      	mov	r0, r3
 80024a8:	bd80      	pop	{r7, pc}
 80024aa:	bf00      	nop
 80024ac:	40023c00 	.word	0x40023c00

080024b0 <HAL_InitTick>:
  *       implementation  in user file.
  * @param TickPriority Tick interrupt priority.
  * @retval HAL status
  */
__weak HAL_StatusTypeDef HAL_InitTick(uint32_t TickPriority)
{
 80024b0:	b580      	push	{r7, lr}
 80024b2:	b082      	sub	sp, #8
 80024b4:	af00      	add	r7, sp, #0
 80024b6:	6078      	str	r0, [r7, #4]
  /* Configure the SysTick to have interrupt in 1ms time basis*/
  if (HAL_SYSTICK_Config(SystemCoreClock / (1000U / uwTickFreq)) > 0U)
 80024b8:	4b12      	ldr	r3, [pc, #72]	@ (8002504 <HAL_InitTick+0x54>)
 80024ba:	681a      	ldr	r2, [r3, #0]
 80024bc:	4b12      	ldr	r3, [pc, #72]	@ (8002508 <HAL_InitTick+0x58>)
 80024be:	781b      	ldrb	r3, [r3, #0]
 80024c0:	4619      	mov	r1, r3
 80024c2:	f44f 737a 	mov.w	r3, #1000	@ 0x3e8
 80024c6:	fbb3 f3f1 	udiv	r3, r3, r1
 80024ca:	fbb2 f3f3 	udiv	r3, r2, r3
 80024ce:	4618      	mov	r0, r3
 80024d0:	f000 fde3 	bl	800309a <HAL_SYSTICK_Config>
 80024d4:	4603      	mov	r3, r0
 80024d6:	2b00      	cmp	r3, #0
 80024d8:	d001      	beq.n	80024de <HAL_InitTick+0x2e>
  {
    return HAL_ERROR;
 80024da:	2301      	movs	r3, #1
 80024dc:	e00e      	b.n	80024fc <HAL_InitTick+0x4c>
  }

  /* Configure the SysTick IRQ priority */
  if (TickPriority < (1UL << __NVIC_PRIO_BITS))
 80024de:	687b      	ldr	r3, [r7, #4]
 80024e0:	2b0f      	cmp	r3, #15
 80024e2:	d80a      	bhi.n	80024fa <HAL_InitTick+0x4a>
  {
    HAL_NVIC_SetPriority(SysTick_IRQn, TickPriority, 0U);
 80024e4:	2200      	movs	r2, #0
 80024e6:	6879      	ldr	r1, [r7, #4]
 80024e8:	f04f 30ff 	mov.w	r0, #4294967295
 80024ec:	f000 fdab 	bl	8003046 <HAL_NVIC_SetPriority>
    uwTickPrio = TickPriority;
 80024f0:	4a06      	ldr	r2, [pc, #24]	@ (800250c <HAL_InitTick+0x5c>)
 80024f2:	687b      	ldr	r3, [r7, #4]
 80024f4:	6013      	str	r3, [r2, #0]
  {
    return HAL_ERROR;
  }

  /* Return function status */
  return HAL_OK;
 80024f6:	2300      	movs	r3, #0
 80024f8:	e000      	b.n	80024fc <HAL_InitTick+0x4c>
    return HAL_ERROR;
 80024fa:	2301      	movs	r3, #1
}
 80024fc:	4618      	mov	r0, r3
 80024fe:	3708      	adds	r7, #8
 8002500:	46bd      	mov	sp, r7
 8002502:	bd80      	pop	{r7, pc}
 8002504:	2000000c 	.word	0x2000000c
 8002508:	20000014 	.word	0x20000014
 800250c:	20000010 	.word	0x20000010

08002510 <HAL_IncTick>:
 * @note This function is declared as __weak to be overwritten in case of other 
  *      implementations in user file.
  * @retval None
  */
__weak void HAL_IncTick(void)
{
 8002510:	b480      	push	{r7}
 8002512:	af00      	add	r7, sp, #0
  uwTick += uwTickFreq;
 8002514:	4b06      	ldr	r3, [pc, #24]	@ (8002530 <HAL_IncTick+0x20>)
 8002516:	781b      	ldrb	r3, [r3, #0]
 8002518:	461a      	mov	r2, r3
 800251a:	4b06      	ldr	r3, [pc, #24]	@ (8002534 <HAL_IncTick+0x24>)
 800251c:	681b      	ldr	r3, [r3, #0]
 800251e:	4413      	add	r3, r2
 8002520:	4a04      	ldr	r2, [pc, #16]	@ (8002534 <HAL_IncTick+0x24>)
 8002522:	6013      	str	r3, [r2, #0]
}
 8002524:	bf00      	nop
 8002526:	46bd      	mov	sp, r7
 8002528:	f85d 7b04 	ldr.w	r7, [sp], #4
 800252c:	4770      	bx	lr
 800252e:	bf00      	nop
 8002530:	20000014 	.word	0x20000014
 8002534:	2000038c 	.word	0x2000038c

08002538 <HAL_GetTick>:
  * @note This function is declared as __weak to be overwritten in case of other 
  *       implementations in user file.
  * @retval tick value
  */
__weak uint32_t HAL_GetTick(void)
{
 8002538:	b480      	push	{r7}
 800253a:	af00      	add	r7, sp, #0
  return uwTick;
 800253c:	4b03      	ldr	r3, [pc, #12]	@ (800254c <HAL_GetTick+0x14>)
 800253e:	681b      	ldr	r3, [r3, #0]
}
 8002540:	4618      	mov	r0, r3
 8002542:	46bd      	mov	sp, r7
 8002544:	f85d 7b04 	ldr.w	r7, [sp], #4
 8002548:	4770      	bx	lr
 800254a:	bf00      	nop
 800254c:	2000038c 	.word	0x2000038c

08002550 <HAL_Delay>:
  *       implementations in user file.
  * @param Delay specifies the delay time length, in milliseconds.
  * @retval None
  */
__weak void HAL_Delay(uint32_t Delay)
{
 8002550:	b580      	push	{r7, lr}
 8002552:	b084      	sub	sp, #16
 8002554:	af00      	add	r7, sp, #0
 8002556:	6078      	str	r0, [r7, #4]
  uint32_t tickstart = HAL_GetTick();
 8002558:	f7ff ffee 	bl	8002538 <HAL_GetTick>
 800255c:	60b8      	str	r0, [r7, #8]
  uint32_t wait = Delay;
 800255e:	687b      	ldr	r3, [r7, #4]
 8002560:	60fb      	str	r3, [r7, #12]

  /* Add a freq to guarantee minimum wait */
  if (wait < HAL_MAX_DELAY)
 8002562:	68fb      	ldr	r3, [r7, #12]
 8002564:	f1b3 3fff 	cmp.w	r3, #4294967295
 8002568:	d005      	beq.n	8002576 <HAL_Delay+0x26>
  {
    wait += (uint32_t)(uwTickFreq);
 800256a:	4b0a      	ldr	r3, [pc, #40]	@ (8002594 <HAL_Delay+0x44>)
 800256c:	781b      	ldrb	r3, [r3, #0]
 800256e:	461a      	mov	r2, r3
 8002570:	68fb      	ldr	r3, [r7, #12]
 8002572:	4413      	add	r3, r2
 8002574:	60fb      	str	r3, [r7, #12]
  }

  while((HAL_GetTick() - tickstart) < wait)
 8002576:	bf00      	nop
 8002578:	f7ff ffde 	bl	8002538 <HAL_GetTick>
 800257c:	4602      	mov	r2, r0
 800257e:	68bb      	ldr	r3, [r7, #8]
 8002580:	1ad3      	subs	r3, r2, r3
 8002582:	68fa      	ldr	r2, [r7, #12]
 8002584:	429a      	cmp	r2, r3
 8002586:	d8f7      	bhi.n	8002578 <HAL_Delay+0x28>
  {
  }
}
 8002588:	bf00      	nop
 800258a:	bf00      	nop
 800258c:	3710      	adds	r7, #16
 800258e:	46bd      	mov	sp, r7
 8002590:	bd80      	pop	{r7, pc}
 8002592:	bf00      	nop
 8002594:	20000014 	.word	0x20000014

08002598 <HAL_ADC_Init>:
  * @param  hadc pointer to a ADC_HandleTypeDef structure that contains
  *         the configuration information for the specified ADC.
  * @retval HAL status
  */
HAL_StatusTypeDef HAL_ADC_Init(ADC_HandleTypeDef *hadc)
{
 8002598:	b580      	push	{r7, lr}
 800259a:	b084      	sub	sp, #16
 800259c:	af00      	add	r7, sp, #0
 800259e:	6078      	str	r0, [r7, #4]
  HAL_StatusTypeDef tmp_hal_status = HAL_OK;
 80025a0:	2300      	movs	r3, #0
 80025a2:	73fb      	strb	r3, [r7, #15]

  /* Check ADC handle */
  if (hadc == NULL)
 80025a4:	687b      	ldr	r3, [r7, #4]
 80025a6:	2b00      	cmp	r3, #0
 80025a8:	d101      	bne.n	80025ae <HAL_ADC_Init+0x16>
  {
    return HAL_ERROR;
 80025aa:	2301      	movs	r3, #1
 80025ac:	e033      	b.n	8002616 <HAL_ADC_Init+0x7e>
  if (hadc->Init.ExternalTrigConv != ADC_SOFTWARE_START)
  {
    assert_param(IS_ADC_EXT_TRIG_EDGE(hadc->Init.ExternalTrigConvEdge));
  }

  if (hadc->State == HAL_ADC_STATE_RESET)
 80025ae:	687b      	ldr	r3, [r7, #4]
 80025b0:	6c1b      	ldr	r3, [r3, #64]	@ 0x40
 80025b2:	2b00      	cmp	r3, #0
 80025b4:	d109      	bne.n	80025ca <HAL_ADC_Init+0x32>

    /* Init the low level hardware */
    hadc->MspInitCallback(hadc);
#else
    /* Init the low level hardware */
    HAL_ADC_MspInit(hadc);
 80025b6:	6878      	ldr	r0, [r7, #4]
 80025b8:	f7ff fc44 	bl	8001e44 <HAL_ADC_MspInit>
#endif /* USE_HAL_ADC_REGISTER_CALLBACKS */

    /* Initialize ADC error code */
    ADC_CLEAR_ERRORCODE(hadc);
 80025bc:	687b      	ldr	r3, [r7, #4]
 80025be:	2200      	movs	r2, #0
 80025c0:	645a      	str	r2, [r3, #68]	@ 0x44

    /* Allocate lock resource and initialize it */
    hadc->Lock = HAL_UNLOCKED;
 80025c2:	687b      	ldr	r3, [r7, #4]
 80025c4:	2200      	movs	r2, #0
 80025c6:	f883 203c 	strb.w	r2, [r3, #60]	@ 0x3c
  }

  /* Configuration of ADC parameters if previous preliminary actions are      */
  /* correctly completed.                                                     */
  if (HAL_IS_BIT_CLR(hadc->State, HAL_ADC_STATE_ERROR_INTERNAL))
 80025ca:	687b      	ldr	r3, [r7, #4]
 80025cc:	6c1b      	ldr	r3, [r3, #64]	@ 0x40
 80025ce:	f003 0310 	and.w	r3, r3, #16
 80025d2:	2b00      	cmp	r3, #0
 80025d4:	d118      	bne.n	8002608 <HAL_ADC_Init+0x70>
  {
    /* Set ADC state */
    ADC_STATE_CLR_SET(hadc->State,
 80025d6:	687b      	ldr	r3, [r7, #4]
 80025d8:	6c1b      	ldr	r3, [r3, #64]	@ 0x40
 80025da:	f423 5388 	bic.w	r3, r3, #4352	@ 0x1100
 80025de:	f023 0302 	bic.w	r3, r3, #2
 80025e2:	f043 0202 	orr.w	r2, r3, #2
 80025e6:	687b      	ldr	r3, [r7, #4]
 80025e8:	641a      	str	r2, [r3, #64]	@ 0x40
                      HAL_ADC_STATE_REG_BUSY | HAL_ADC_STATE_INJ_BUSY,
                      HAL_ADC_STATE_BUSY_INTERNAL);

    /* Set ADC parameters */
    ADC_Init(hadc);
 80025ea:	6878      	ldr	r0, [r7, #4]
 80025ec:	f000 fb4a 	bl	8002c84 <ADC_Init>

    /* Set ADC error code to none */
    ADC_CLEAR_ERRORCODE(hadc);
 80025f0:	687b      	ldr	r3, [r7, #4]
 80025f2:	2200      	movs	r2, #0
 80025f4:	645a      	str	r2, [r3, #68]	@ 0x44

    /* Set the ADC state */
    ADC_STATE_CLR_SET(hadc->State,
 80025f6:	687b      	ldr	r3, [r7, #4]
 80025f8:	6c1b      	ldr	r3, [r3, #64]	@ 0x40
 80025fa:	f023 0303 	bic.w	r3, r3, #3
 80025fe:	f043 0201 	orr.w	r2, r3, #1
 8002602:	687b      	ldr	r3, [r7, #4]
 8002604:	641a      	str	r2, [r3, #64]	@ 0x40
 8002606:	e001      	b.n	800260c <HAL_ADC_Init+0x74>
                      HAL_ADC_STATE_BUSY_INTERNAL,
                      HAL_ADC_STATE_READY);
  }
  else
  {
    tmp_hal_status = HAL_ERROR;
 8002608:	2301      	movs	r3, #1
 800260a:	73fb      	strb	r3, [r7, #15]
  }

  /* Release Lock */
  __HAL_UNLOCK(hadc);
 800260c:	687b      	ldr	r3, [r7, #4]
 800260e:	2200      	movs	r2, #0
 8002610:	f883 203c 	strb.w	r2, [r3, #60]	@ 0x3c

  /* Return function status */
  return tmp_hal_status;
 8002614:	7bfb      	ldrb	r3, [r7, #15]
}
 8002616:	4618      	mov	r0, r3
 8002618:	3710      	adds	r7, #16
 800261a:	46bd      	mov	sp, r7
 800261c:	bd80      	pop	{r7, pc}
	...

08002620 <HAL_ADC_Start_IT>:
  * @param  hadc pointer to a ADC_HandleTypeDef structure that contains
  *         the configuration information for the specified ADC.
  * @retval HAL status.
  */
HAL_StatusTypeDef HAL_ADC_Start_IT(ADC_HandleTypeDef *hadc)
{
 8002620:	b480      	push	{r7}
 8002622:	b085      	sub	sp, #20
 8002624:	af00      	add	r7, sp, #0
 8002626:	6078      	str	r0, [r7, #4]
  __IO uint32_t counter = 0U;
 8002628:	2300      	movs	r3, #0
 800262a:	60bb      	str	r3, [r7, #8]
  /* Check the parameters */
  assert_param(IS_FUNCTIONAL_STATE(hadc->Init.ContinuousConvMode));
  assert_param(IS_ADC_EXT_TRIG_EDGE(hadc->Init.ExternalTrigConvEdge));

  /* Process locked */
  __HAL_LOCK(hadc);
 800262c:	687b      	ldr	r3, [r7, #4]
 800262e:	f893 303c 	ldrb.w	r3, [r3, #60]	@ 0x3c
 8002632:	2b01      	cmp	r3, #1
 8002634:	d101      	bne.n	800263a <HAL_ADC_Start_IT+0x1a>
 8002636:	2302      	movs	r3, #2
 8002638:	e0bd      	b.n	80027b6 <HAL_ADC_Start_IT+0x196>
 800263a:	687b      	ldr	r3, [r7, #4]
 800263c:	2201      	movs	r2, #1
 800263e:	f883 203c 	strb.w	r2, [r3, #60]	@ 0x3c

  /* Enable the ADC peripheral */
  /* Check if ADC peripheral is disabled in order to enable it and wait during
  Tstab time the ADC's stabilization */
  if ((hadc->Instance->CR2 & ADC_CR2_ADON) != ADC_CR2_ADON)
 8002642:	687b      	ldr	r3, [r7, #4]
 8002644:	681b      	ldr	r3, [r3, #0]
 8002646:	689b      	ldr	r3, [r3, #8]
 8002648:	f003 0301 	and.w	r3, r3, #1
 800264c:	2b01      	cmp	r3, #1
 800264e:	d018      	beq.n	8002682 <HAL_ADC_Start_IT+0x62>
  {
    /* Enable the Peripheral */
    __HAL_ADC_ENABLE(hadc);
 8002650:	687b      	ldr	r3, [r7, #4]
 8002652:	681b      	ldr	r3, [r3, #0]
 8002654:	689a      	ldr	r2, [r3, #8]
 8002656:	687b      	ldr	r3, [r7, #4]
 8002658:	681b      	ldr	r3, [r3, #0]
 800265a:	f042 0201 	orr.w	r2, r2, #1
 800265e:	609a      	str	r2, [r3, #8]

    /* Delay for ADC stabilization time */
    /* Compute number of CPU cycles to wait for */
    counter = (ADC_STAB_DELAY_US * (SystemCoreClock / 1000000U));
 8002660:	4b58      	ldr	r3, [pc, #352]	@ (80027c4 <HAL_ADC_Start_IT+0x1a4>)
 8002662:	681b      	ldr	r3, [r3, #0]
 8002664:	4a58      	ldr	r2, [pc, #352]	@ (80027c8 <HAL_ADC_Start_IT+0x1a8>)
 8002666:	fba2 2303 	umull	r2, r3, r2, r3
 800266a:	0c9a      	lsrs	r2, r3, #18
 800266c:	4613      	mov	r3, r2
 800266e:	005b      	lsls	r3, r3, #1
 8002670:	4413      	add	r3, r2
 8002672:	60bb      	str	r3, [r7, #8]
    while (counter != 0U)
 8002674:	e002      	b.n	800267c <HAL_ADC_Start_IT+0x5c>
    {
      counter--;
 8002676:	68bb      	ldr	r3, [r7, #8]
 8002678:	3b01      	subs	r3, #1
 800267a:	60bb      	str	r3, [r7, #8]
    while (counter != 0U)
 800267c:	68bb      	ldr	r3, [r7, #8]
 800267e:	2b00      	cmp	r3, #0
 8002680:	d1f9      	bne.n	8002676 <HAL_ADC_Start_IT+0x56>
    }
  }

  /* Start conversion if ADC is effectively enabled */
  if (HAL_IS_BIT_SET(hadc->Instance->CR2, ADC_CR2_ADON))
 8002682:	687b      	ldr	r3, [r7, #4]
 8002684:	681b      	ldr	r3, [r3, #0]
 8002686:	689b      	ldr	r3, [r3, #8]
 8002688:	f003 0301 	and.w	r3, r3, #1
 800268c:	2b01      	cmp	r3, #1
 800268e:	f040 8085 	bne.w	800279c <HAL_ADC_Start_IT+0x17c>
  {
    /* Set ADC state                                                          */
    /* - Clear state bitfield related to regular group conversion results     */
    /* - Set state bitfield related to regular group operation                */
    ADC_STATE_CLR_SET(hadc->State,
 8002692:	687b      	ldr	r3, [r7, #4]
 8002694:	6c1b      	ldr	r3, [r3, #64]	@ 0x40
 8002696:	f423 63e0 	bic.w	r3, r3, #1792	@ 0x700
 800269a:	f023 0301 	bic.w	r3, r3, #1
 800269e:	f443 7280 	orr.w	r2, r3, #256	@ 0x100
 80026a2:	687b      	ldr	r3, [r7, #4]
 80026a4:	641a      	str	r2, [r3, #64]	@ 0x40
                      HAL_ADC_STATE_READY | HAL_ADC_STATE_REG_EOC | HAL_ADC_STATE_REG_OVR,
                      HAL_ADC_STATE_REG_BUSY);

    /* If conversions on group regular are also triggering group injected,    */
    /* update ADC state.                                                      */
    if (READ_BIT(hadc->Instance->CR1, ADC_CR1_JAUTO) != RESET)
 80026a6:	687b      	ldr	r3, [r7, #4]
 80026a8:	681b      	ldr	r3, [r3, #0]
 80026aa:	685b      	ldr	r3, [r3, #4]
 80026ac:	f403 6380 	and.w	r3, r3, #1024	@ 0x400
 80026b0:	2b00      	cmp	r3, #0
 80026b2:	d007      	beq.n	80026c4 <HAL_ADC_Start_IT+0xa4>
    {
      ADC_STATE_CLR_SET(hadc->State, HAL_ADC_STATE_INJ_EOC, HAL_ADC_STATE_INJ_BUSY);
 80026b4:	687b      	ldr	r3, [r7, #4]
 80026b6:	6c1b      	ldr	r3, [r3, #64]	@ 0x40
 80026b8:	f423 5340 	bic.w	r3, r3, #12288	@ 0x3000
 80026bc:	f443 5280 	orr.w	r2, r3, #4096	@ 0x1000
 80026c0:	687b      	ldr	r3, [r7, #4]
 80026c2:	641a      	str	r2, [r3, #64]	@ 0x40
    }

    /* State machine update: Check if an injected conversion is ongoing */
    if (HAL_IS_BIT_SET(hadc->State, HAL_ADC_STATE_INJ_BUSY))
 80026c4:	687b      	ldr	r3, [r7, #4]
 80026c6:	6c1b      	ldr	r3, [r3, #64]	@ 0x40
 80026c8:	f403 5380 	and.w	r3, r3, #4096	@ 0x1000
 80026cc:	f5b3 5f80 	cmp.w	r3, #4096	@ 0x1000
 80026d0:	d106      	bne.n	80026e0 <HAL_ADC_Start_IT+0xc0>
    {
      /* Reset ADC error code fields related to conversions on group regular */
      CLEAR_BIT(hadc->ErrorCode, (HAL_ADC_ERROR_OVR | HAL_ADC_ERROR_DMA));
 80026d2:	687b      	ldr	r3, [r7, #4]
 80026d4:	6c5b      	ldr	r3, [r3, #68]	@ 0x44
 80026d6:	f023 0206 	bic.w	r2, r3, #6
 80026da:	687b      	ldr	r3, [r7, #4]
 80026dc:	645a      	str	r2, [r3, #68]	@ 0x44
 80026de:	e002      	b.n	80026e6 <HAL_ADC_Start_IT+0xc6>
    }
    else
    {
      /* Reset ADC all error code fields */
      ADC_CLEAR_ERRORCODE(hadc);
 80026e0:	687b      	ldr	r3, [r7, #4]
 80026e2:	2200      	movs	r2, #0
 80026e4:	645a      	str	r2, [r3, #68]	@ 0x44
    }

    /* Process unlocked */
    /* Unlock before starting ADC conversions: in case of potential           */
    /* interruption, to let the process to ADC IRQ Handler.                   */
    __HAL_UNLOCK(hadc);
 80026e6:	687b      	ldr	r3, [r7, #4]
 80026e8:	2200      	movs	r2, #0
 80026ea:	f883 203c 	strb.w	r2, [r3, #60]	@ 0x3c

    /* Pointer to the common control register to which is belonging hadc    */
    /* (Depending on STM32F4 product, there may be up to 3 ADCs and 1 common */
    /* control register)                                                    */
    tmpADC_Common = ADC_COMMON_REGISTER(hadc);
 80026ee:	4b37      	ldr	r3, [pc, #220]	@ (80027cc <HAL_ADC_Start_IT+0x1ac>)
 80026f0:	60fb      	str	r3, [r7, #12]

    /* Clear regular group conversion flag and overrun flag */
    /* (To ensure of no unknown state from potential previous ADC operations) */
    __HAL_ADC_CLEAR_FLAG(hadc, ADC_FLAG_EOC | ADC_FLAG_OVR);
 80026f2:	687b      	ldr	r3, [r7, #4]
 80026f4:	681b      	ldr	r3, [r3, #0]
 80026f6:	f06f 0222 	mvn.w	r2, #34	@ 0x22
 80026fa:	601a      	str	r2, [r3, #0]

    /* Enable end of conversion interrupt for regular group */
    __HAL_ADC_ENABLE_IT(hadc, (ADC_IT_EOC | ADC_IT_OVR));
 80026fc:	687b      	ldr	r3, [r7, #4]
 80026fe:	681b      	ldr	r3, [r3, #0]
 8002700:	685b      	ldr	r3, [r3, #4]
 8002702:	687a      	ldr	r2, [r7, #4]
 8002704:	6812      	ldr	r2, [r2, #0]
 8002706:	f043 6380 	orr.w	r3, r3, #67108864	@ 0x4000000
 800270a:	f043 0320 	orr.w	r3, r3, #32
 800270e:	6053      	str	r3, [r2, #4]

    /* Check if Multimode enabled */
    if (HAL_IS_BIT_CLR(tmpADC_Common->CCR, ADC_CCR_MULTI))
 8002710:	68fb      	ldr	r3, [r7, #12]
 8002712:	685b      	ldr	r3, [r3, #4]
 8002714:	f003 031f 	and.w	r3, r3, #31
 8002718:	2b00      	cmp	r3, #0
 800271a:	d12a      	bne.n	8002772 <HAL_ADC_Start_IT+0x152>
    {
#if defined(ADC2) && defined(ADC3)
      if ((hadc->Instance == ADC1) || ((hadc->Instance == ADC2) && ((ADC->CCR & ADC_CCR_MULTI_Msk) < ADC_CCR_MULTI_0)) \
 800271c:	687b      	ldr	r3, [r7, #4]
 800271e:	681b      	ldr	r3, [r3, #0]
 8002720:	4a2b      	ldr	r2, [pc, #172]	@ (80027d0 <HAL_ADC_Start_IT+0x1b0>)
 8002722:	4293      	cmp	r3, r2
 8002724:	d015      	beq.n	8002752 <HAL_ADC_Start_IT+0x132>
 8002726:	687b      	ldr	r3, [r7, #4]
 8002728:	681b      	ldr	r3, [r3, #0]
 800272a:	4a2a      	ldr	r2, [pc, #168]	@ (80027d4 <HAL_ADC_Start_IT+0x1b4>)
 800272c:	4293      	cmp	r3, r2
 800272e:	d105      	bne.n	800273c <HAL_ADC_Start_IT+0x11c>
 8002730:	4b26      	ldr	r3, [pc, #152]	@ (80027cc <HAL_ADC_Start_IT+0x1ac>)
 8002732:	685b      	ldr	r3, [r3, #4]
 8002734:	f003 031f 	and.w	r3, r3, #31
 8002738:	2b00      	cmp	r3, #0
 800273a:	d00a      	beq.n	8002752 <HAL_ADC_Start_IT+0x132>
          || ((hadc->Instance == ADC3) && ((ADC->CCR & ADC_CCR_MULTI_Msk) < ADC_CCR_MULTI_4)))
 800273c:	687b      	ldr	r3, [r7, #4]
 800273e:	681b      	ldr	r3, [r3, #0]
 8002740:	4a25      	ldr	r2, [pc, #148]	@ (80027d8 <HAL_ADC_Start_IT+0x1b8>)
 8002742:	4293      	cmp	r3, r2
 8002744:	d136      	bne.n	80027b4 <HAL_ADC_Start_IT+0x194>
 8002746:	4b21      	ldr	r3, [pc, #132]	@ (80027cc <HAL_ADC_Start_IT+0x1ac>)
 8002748:	685b      	ldr	r3, [r3, #4]
 800274a:	f003 0310 	and.w	r3, r3, #16
 800274e:	2b00      	cmp	r3, #0
 8002750:	d130      	bne.n	80027b4 <HAL_ADC_Start_IT+0x194>
      {
#endif /* ADC2 || ADC3 */
        /* if no external trigger present enable software conversion of regular channels */
        if ((hadc->Instance->CR2 & ADC_CR2_EXTEN) == RESET)
 8002752:	687b      	ldr	r3, [r7, #4]
 8002754:	681b      	ldr	r3, [r3, #0]
 8002756:	689b      	ldr	r3, [r3, #8]
 8002758:	f003 5340 	and.w	r3, r3, #805306368	@ 0x30000000
 800275c:	2b00      	cmp	r3, #0
 800275e:	d129      	bne.n	80027b4 <HAL_ADC_Start_IT+0x194>
        {
          /* Enable the selected ADC software conversion for regular group */
          hadc->Instance->CR2 |= (uint32_t)ADC_CR2_SWSTART;
 8002760:	687b      	ldr	r3, [r7, #4]
 8002762:	681b      	ldr	r3, [r3, #0]
 8002764:	689a      	ldr	r2, [r3, #8]
 8002766:	687b      	ldr	r3, [r7, #4]
 8002768:	681b      	ldr	r3, [r3, #0]
 800276a:	f042 4280 	orr.w	r2, r2, #1073741824	@ 0x40000000
 800276e:	609a      	str	r2, [r3, #8]
 8002770:	e020      	b.n	80027b4 <HAL_ADC_Start_IT+0x194>
#endif /* ADC2 || ADC3 */
    }
    else
    {
      /* if instance of handle correspond to ADC1 and  no external trigger present enable software conversion of regular channels */
      if ((hadc->Instance == ADC1) && ((hadc->Instance->CR2 & ADC_CR2_EXTEN) == RESET))
 8002772:	687b      	ldr	r3, [r7, #4]
 8002774:	681b      	ldr	r3, [r3, #0]
 8002776:	4a16      	ldr	r2, [pc, #88]	@ (80027d0 <HAL_ADC_Start_IT+0x1b0>)
 8002778:	4293      	cmp	r3, r2
 800277a:	d11b      	bne.n	80027b4 <HAL_ADC_Start_IT+0x194>
 800277c:	687b      	ldr	r3, [r7, #4]
 800277e:	681b      	ldr	r3, [r3, #0]
 8002780:	689b      	ldr	r3, [r3, #8]
 8002782:	f003 5340 	and.w	r3, r3, #805306368	@ 0x30000000
 8002786:	2b00      	cmp	r3, #0
 8002788:	d114      	bne.n	80027b4 <HAL_ADC_Start_IT+0x194>
      {
        /* Enable the selected ADC software conversion for regular group */
        hadc->Instance->CR2 |= (uint32_t)ADC_CR2_SWSTART;
 800278a:	687b      	ldr	r3, [r7, #4]
 800278c:	681b      	ldr	r3, [r3, #0]
 800278e:	689a      	ldr	r2, [r3, #8]
 8002790:	687b      	ldr	r3, [r7, #4]
 8002792:	681b      	ldr	r3, [r3, #0]
 8002794:	f042 4280 	orr.w	r2, r2, #1073741824	@ 0x40000000
 8002798:	609a      	str	r2, [r3, #8]
 800279a:	e00b      	b.n	80027b4 <HAL_ADC_Start_IT+0x194>
    }
  }
  else
  {
    /* Update ADC state machine to error */
    SET_BIT(hadc->State, HAL_ADC_STATE_ERROR_INTERNAL);
 800279c:	687b      	ldr	r3, [r7, #4]
 800279e:	6c1b      	ldr	r3, [r3, #64]	@ 0x40
 80027a0:	f043 0210 	orr.w	r2, r3, #16
 80027a4:	687b      	ldr	r3, [r7, #4]
 80027a6:	641a      	str	r2, [r3, #64]	@ 0x40

    /* Set ADC error code to ADC IP internal error */
    SET_BIT(hadc->ErrorCode, HAL_ADC_ERROR_INTERNAL);
 80027a8:	687b      	ldr	r3, [r7, #4]
 80027aa:	6c5b      	ldr	r3, [r3, #68]	@ 0x44
 80027ac:	f043 0201 	orr.w	r2, r3, #1
 80027b0:	687b      	ldr	r3, [r7, #4]
 80027b2:	645a      	str	r2, [r3, #68]	@ 0x44
  }

  /* Return function status */
  return HAL_OK;
 80027b4:	2300      	movs	r3, #0
}
 80027b6:	4618      	mov	r0, r3
 80027b8:	3714      	adds	r7, #20
 80027ba:	46bd      	mov	sp, r7
 80027bc:	f85d 7b04 	ldr.w	r7, [sp], #4
 80027c0:	4770      	bx	lr
 80027c2:	bf00      	nop
 80027c4:	2000000c 	.word	0x2000000c
 80027c8:	431bde83 	.word	0x431bde83
 80027cc:	40012300 	.word	0x40012300
 80027d0:	40012000 	.word	0x40012000
 80027d4:	40012100 	.word	0x40012100
 80027d8:	40012200 	.word	0x40012200

080027dc <HAL_ADC_IRQHandler>:
  * @param  hadc pointer to a ADC_HandleTypeDef structure that contains
  *         the configuration information for the specified ADC.
  * @retval None
  */
void HAL_ADC_IRQHandler(ADC_HandleTypeDef *hadc)
{
 80027dc:	b580      	push	{r7, lr}
 80027de:	b086      	sub	sp, #24
 80027e0:	af00      	add	r7, sp, #0
 80027e2:	6078      	str	r0, [r7, #4]
  uint32_t tmp1 = 0U, tmp2 = 0U;
 80027e4:	2300      	movs	r3, #0
 80027e6:	617b      	str	r3, [r7, #20]
 80027e8:	2300      	movs	r3, #0
 80027ea:	613b      	str	r3, [r7, #16]

  uint32_t tmp_sr = hadc->Instance->SR;
 80027ec:	687b      	ldr	r3, [r7, #4]
 80027ee:	681b      	ldr	r3, [r3, #0]
 80027f0:	681b      	ldr	r3, [r3, #0]
 80027f2:	60fb      	str	r3, [r7, #12]
  uint32_t tmp_cr1 = hadc->Instance->CR1;
 80027f4:	687b      	ldr	r3, [r7, #4]
 80027f6:	681b      	ldr	r3, [r3, #0]
 80027f8:	685b      	ldr	r3, [r3, #4]
 80027fa:	60bb      	str	r3, [r7, #8]
  /* Check the parameters */
  assert_param(IS_FUNCTIONAL_STATE(hadc->Init.ContinuousConvMode));
  assert_param(IS_ADC_REGULAR_LENGTH(hadc->Init.NbrOfConversion));
  assert_param(IS_ADC_EOCSelection(hadc->Init.EOCSelection));

  tmp1 = tmp_sr & ADC_FLAG_EOC;
 80027fc:	68fb      	ldr	r3, [r7, #12]
 80027fe:	f003 0302 	and.w	r3, r3, #2
 8002802:	617b      	str	r3, [r7, #20]
  tmp2 = tmp_cr1 & ADC_IT_EOC;
 8002804:	68bb      	ldr	r3, [r7, #8]
 8002806:	f003 0320 	and.w	r3, r3, #32
 800280a:	613b      	str	r3, [r7, #16]
  /* Check End of conversion flag for regular channels */
  if (tmp1 && tmp2)
 800280c:	697b      	ldr	r3, [r7, #20]
 800280e:	2b00      	cmp	r3, #0
 8002810:	d049      	beq.n	80028a6 <HAL_ADC_IRQHandler+0xca>
 8002812:	693b      	ldr	r3, [r7, #16]
 8002814:	2b00      	cmp	r3, #0
 8002816:	d046      	beq.n	80028a6 <HAL_ADC_IRQHandler+0xca>
  {
    /* Update state machine on conversion status if not in error state */
    if (HAL_IS_BIT_CLR(hadc->State, HAL_ADC_STATE_ERROR_INTERNAL))
 8002818:	687b      	ldr	r3, [r7, #4]
 800281a:	6c1b      	ldr	r3, [r3, #64]	@ 0x40
 800281c:	f003 0310 	and.w	r3, r3, #16
 8002820:	2b00      	cmp	r3, #0
 8002822:	d105      	bne.n	8002830 <HAL_ADC_IRQHandler+0x54>
    {
      /* Set ADC state */
      SET_BIT(hadc->State, HAL_ADC_STATE_REG_EOC);
 8002824:	687b      	ldr	r3, [r7, #4]
 8002826:	6c1b      	ldr	r3, [r3, #64]	@ 0x40
 8002828:	f443 7200 	orr.w	r2, r3, #512	@ 0x200
 800282c:	687b      	ldr	r3, [r7, #4]
 800282e:	641a      	str	r2, [r3, #64]	@ 0x40
    /* by external trigger, continuous mode or scan sequence on going.      */
    /* Note: On STM32F4, there is no independent flag of end of sequence.   */
    /*       The test of scan sequence on going is done either with scan    */
    /*       sequence disabled or with end of conversion flag set to        */
    /*       of end of sequence.                                            */
    if (ADC_IS_SOFTWARE_START_REGULAR(hadc)                   &&
 8002830:	687b      	ldr	r3, [r7, #4]
 8002832:	681b      	ldr	r3, [r3, #0]
 8002834:	689b      	ldr	r3, [r3, #8]
 8002836:	f003 5340 	and.w	r3, r3, #805306368	@ 0x30000000
 800283a:	2b00      	cmp	r3, #0
 800283c:	d12b      	bne.n	8002896 <HAL_ADC_IRQHandler+0xba>
        (hadc->Init.ContinuousConvMode == DISABLE)            &&
 800283e:	687b      	ldr	r3, [r7, #4]
 8002840:	7e1b      	ldrb	r3, [r3, #24]
    if (ADC_IS_SOFTWARE_START_REGULAR(hadc)                   &&
 8002842:	2b00      	cmp	r3, #0
 8002844:	d127      	bne.n	8002896 <HAL_ADC_IRQHandler+0xba>
        (HAL_IS_BIT_CLR(hadc->Instance->SQR1, ADC_SQR1_L) ||
 8002846:	687b      	ldr	r3, [r7, #4]
 8002848:	681b      	ldr	r3, [r3, #0]
 800284a:	6adb      	ldr	r3, [r3, #44]	@ 0x2c
 800284c:	f403 0370 	and.w	r3, r3, #15728640	@ 0xf00000
        (hadc->Init.ContinuousConvMode == DISABLE)            &&
 8002850:	2b00      	cmp	r3, #0
 8002852:	d006      	beq.n	8002862 <HAL_ADC_IRQHandler+0x86>
         HAL_IS_BIT_CLR(hadc->Instance->CR2, ADC_CR2_EOCS)))
 8002854:	687b      	ldr	r3, [r7, #4]
 8002856:	681b      	ldr	r3, [r3, #0]
 8002858:	689b      	ldr	r3, [r3, #8]
 800285a:	f403 6380 	and.w	r3, r3, #1024	@ 0x400
        (HAL_IS_BIT_CLR(hadc->Instance->SQR1, ADC_SQR1_L) ||
 800285e:	2b00      	cmp	r3, #0
 8002860:	d119      	bne.n	8002896 <HAL_ADC_IRQHandler+0xba>
    {
      /* Disable ADC end of single conversion interrupt on group regular */
      /* Note: Overrun interrupt was enabled with EOC interrupt in          */
      /* HAL_ADC_Start_IT(), but is not disabled here because can be used   */
      /* by overrun IRQ process below.                                      */
      __HAL_ADC_DISABLE_IT(hadc, ADC_IT_EOC);
 8002862:	687b      	ldr	r3, [r7, #4]
 8002864:	681b      	ldr	r3, [r3, #0]
 8002866:	685a      	ldr	r2, [r3, #4]
 8002868:	687b      	ldr	r3, [r7, #4]
 800286a:	681b      	ldr	r3, [r3, #0]
 800286c:	f022 0220 	bic.w	r2, r2, #32
 8002870:	605a      	str	r2, [r3, #4]

      /* Set ADC state */
      CLEAR_BIT(hadc->State, HAL_ADC_STATE_REG_BUSY);
 8002872:	687b      	ldr	r3, [r7, #4]
 8002874:	6c1b      	ldr	r3, [r3, #64]	@ 0x40
 8002876:	f423 7280 	bic.w	r2, r3, #256	@ 0x100
 800287a:	687b      	ldr	r3, [r7, #4]
 800287c:	641a      	str	r2, [r3, #64]	@ 0x40

      if (HAL_IS_BIT_CLR(hadc->State, HAL_ADC_STATE_INJ_BUSY))
 800287e:	687b      	ldr	r3, [r7, #4]
 8002880:	6c1b      	ldr	r3, [r3, #64]	@ 0x40
 8002882:	f403 5380 	and.w	r3, r3, #4096	@ 0x1000
 8002886:	2b00      	cmp	r3, #0
 8002888:	d105      	bne.n	8002896 <HAL_ADC_IRQHandler+0xba>
      {
        SET_BIT(hadc->State, HAL_ADC_STATE_READY);
 800288a:	687b      	ldr	r3, [r7, #4]
 800288c:	6c1b      	ldr	r3, [r3, #64]	@ 0x40
 800288e:	f043 0201 	orr.w	r2, r3, #1
 8002892:	687b      	ldr	r3, [r7, #4]
 8002894:	641a      	str	r2, [r3, #64]	@ 0x40

    /* Conversion complete callback */
#if (USE_HAL_ADC_REGISTER_CALLBACKS == 1)
    hadc->ConvCpltCallback(hadc);
#else
    HAL_ADC_ConvCpltCallback(hadc);
 8002896:	6878      	ldr	r0, [r7, #4]
 8002898:	f7ff f942 	bl	8001b20 <HAL_ADC_ConvCpltCallback>
#endif /* USE_HAL_ADC_REGISTER_CALLBACKS */

    /* Clear regular group conversion flag */
    __HAL_ADC_CLEAR_FLAG(hadc, ADC_FLAG_STRT | ADC_FLAG_EOC);
 800289c:	687b      	ldr	r3, [r7, #4]
 800289e:	681b      	ldr	r3, [r3, #0]
 80028a0:	f06f 0212 	mvn.w	r2, #18
 80028a4:	601a      	str	r2, [r3, #0]
  }

  tmp1 = tmp_sr & ADC_FLAG_JEOC;
 80028a6:	68fb      	ldr	r3, [r7, #12]
 80028a8:	f003 0304 	and.w	r3, r3, #4
 80028ac:	617b      	str	r3, [r7, #20]
  tmp2 = tmp_cr1 & ADC_IT_JEOC;
 80028ae:	68bb      	ldr	r3, [r7, #8]
 80028b0:	f003 0380 	and.w	r3, r3, #128	@ 0x80
 80028b4:	613b      	str	r3, [r7, #16]
  /* Check End of conversion flag for injected channels */
  if (tmp1 && tmp2)
 80028b6:	697b      	ldr	r3, [r7, #20]
 80028b8:	2b00      	cmp	r3, #0
 80028ba:	d057      	beq.n	800296c <HAL_ADC_IRQHandler+0x190>
 80028bc:	693b      	ldr	r3, [r7, #16]
 80028be:	2b00      	cmp	r3, #0
 80028c0:	d054      	beq.n	800296c <HAL_ADC_IRQHandler+0x190>
  {
    /* Update state machine on conversion status if not in error state */
    if (HAL_IS_BIT_CLR(hadc->State, HAL_ADC_STATE_ERROR_INTERNAL))
 80028c2:	687b      	ldr	r3, [r7, #4]
 80028c4:	6c1b      	ldr	r3, [r3, #64]	@ 0x40
 80028c6:	f003 0310 	and.w	r3, r3, #16
 80028ca:	2b00      	cmp	r3, #0
 80028cc:	d105      	bne.n	80028da <HAL_ADC_IRQHandler+0xfe>
    {
      /* Set ADC state */
      SET_BIT(hadc->State, HAL_ADC_STATE_INJ_EOC);
 80028ce:	687b      	ldr	r3, [r7, #4]
 80028d0:	6c1b      	ldr	r3, [r3, #64]	@ 0x40
 80028d2:	f443 5200 	orr.w	r2, r3, #8192	@ 0x2000
 80028d6:	687b      	ldr	r3, [r7, #4]
 80028d8:	641a      	str	r2, [r3, #64]	@ 0x40

    /* Determine whether any further conversion upcoming on group injected  */
    /* by external trigger, scan sequence on going or by automatic injected */
    /* conversion from group regular (same conditions as group regular      */
    /* interruption disabling above).                                       */
    if (ADC_IS_SOFTWARE_START_INJECTED(hadc)                    &&
 80028da:	687b      	ldr	r3, [r7, #4]
 80028dc:	681b      	ldr	r3, [r3, #0]
 80028de:	689b      	ldr	r3, [r3, #8]
 80028e0:	f403 1340 	and.w	r3, r3, #3145728	@ 0x300000
 80028e4:	2b00      	cmp	r3, #0
 80028e6:	d139      	bne.n	800295c <HAL_ADC_IRQHandler+0x180>
        (HAL_IS_BIT_CLR(hadc->Instance->JSQR, ADC_JSQR_JL)  ||
 80028e8:	687b      	ldr	r3, [r7, #4]
 80028ea:	681b      	ldr	r3, [r3, #0]
 80028ec:	6b9b      	ldr	r3, [r3, #56]	@ 0x38
 80028ee:	f403 1340 	and.w	r3, r3, #3145728	@ 0x300000
    if (ADC_IS_SOFTWARE_START_INJECTED(hadc)                    &&
 80028f2:	2b00      	cmp	r3, #0
 80028f4:	d006      	beq.n	8002904 <HAL_ADC_IRQHandler+0x128>
         HAL_IS_BIT_CLR(hadc->Instance->CR2, ADC_CR2_EOCS)) &&
 80028f6:	687b      	ldr	r3, [r7, #4]
 80028f8:	681b      	ldr	r3, [r3, #0]
 80028fa:	689b      	ldr	r3, [r3, #8]
 80028fc:	f403 6380 	and.w	r3, r3, #1024	@ 0x400
        (HAL_IS_BIT_CLR(hadc->Instance->JSQR, ADC_JSQR_JL)  ||
 8002900:	2b00      	cmp	r3, #0
 8002902:	d12b      	bne.n	800295c <HAL_ADC_IRQHandler+0x180>
        (HAL_IS_BIT_CLR(hadc->Instance->CR1, ADC_CR1_JAUTO) &&
 8002904:	687b      	ldr	r3, [r7, #4]
 8002906:	681b      	ldr	r3, [r3, #0]
 8002908:	685b      	ldr	r3, [r3, #4]
 800290a:	f403 6380 	and.w	r3, r3, #1024	@ 0x400
         HAL_IS_BIT_CLR(hadc->Instance->CR2, ADC_CR2_EOCS)) &&
 800290e:	2b00      	cmp	r3, #0
 8002910:	d124      	bne.n	800295c <HAL_ADC_IRQHandler+0x180>
         (ADC_IS_SOFTWARE_START_REGULAR(hadc)       &&
 8002912:	687b      	ldr	r3, [r7, #4]
 8002914:	681b      	ldr	r3, [r3, #0]
 8002916:	689b      	ldr	r3, [r3, #8]
 8002918:	f003 5340 	and.w	r3, r3, #805306368	@ 0x30000000
        (HAL_IS_BIT_CLR(hadc->Instance->CR1, ADC_CR1_JAUTO) &&
 800291c:	2b00      	cmp	r3, #0
 800291e:	d11d      	bne.n	800295c <HAL_ADC_IRQHandler+0x180>
          (hadc->Init.ContinuousConvMode == DISABLE))))
 8002920:	687b      	ldr	r3, [r7, #4]
 8002922:	7e1b      	ldrb	r3, [r3, #24]
         (ADC_IS_SOFTWARE_START_REGULAR(hadc)       &&
 8002924:	2b00      	cmp	r3, #0
 8002926:	d119      	bne.n	800295c <HAL_ADC_IRQHandler+0x180>
    {
      /* Disable ADC end of single conversion interrupt on group injected */
      __HAL_ADC_DISABLE_IT(hadc, ADC_IT_JEOC);
 8002928:	687b      	ldr	r3, [r7, #4]
 800292a:	681b      	ldr	r3, [r3, #0]
 800292c:	685a      	ldr	r2, [r3, #4]
 800292e:	687b      	ldr	r3, [r7, #4]
 8002930:	681b      	ldr	r3, [r3, #0]
 8002932:	f022 0280 	bic.w	r2, r2, #128	@ 0x80
 8002936:	605a      	str	r2, [r3, #4]

      /* Set ADC state */
      CLEAR_BIT(hadc->State, HAL_ADC_STATE_INJ_BUSY);
 8002938:	687b      	ldr	r3, [r7, #4]
 800293a:	6c1b      	ldr	r3, [r3, #64]	@ 0x40
 800293c:	f423 5280 	bic.w	r2, r3, #4096	@ 0x1000
 8002940:	687b      	ldr	r3, [r7, #4]
 8002942:	641a      	str	r2, [r3, #64]	@ 0x40

      if (HAL_IS_BIT_CLR(hadc->State, HAL_ADC_STATE_REG_BUSY))
 8002944:	687b      	ldr	r3, [r7, #4]
 8002946:	6c1b      	ldr	r3, [r3, #64]	@ 0x40
 8002948:	f403 7380 	and.w	r3, r3, #256	@ 0x100
 800294c:	2b00      	cmp	r3, #0
 800294e:	d105      	bne.n	800295c <HAL_ADC_IRQHandler+0x180>
      {
        SET_BIT(hadc->State, HAL_ADC_STATE_READY);
 8002950:	687b      	ldr	r3, [r7, #4]
 8002952:	6c1b      	ldr	r3, [r3, #64]	@ 0x40
 8002954:	f043 0201 	orr.w	r2, r3, #1
 8002958:	687b      	ldr	r3, [r7, #4]
 800295a:	641a      	str	r2, [r3, #64]	@ 0x40
    /* Conversion complete callback */
    /* Conversion complete callback */
#if (USE_HAL_ADC_REGISTER_CALLBACKS == 1)
    hadc->InjectedConvCpltCallback(hadc);
#else
    HAL_ADCEx_InjectedConvCpltCallback(hadc);
 800295c:	6878      	ldr	r0, [r7, #4]
 800295e:	f000 fa8d 	bl	8002e7c <HAL_ADCEx_InjectedConvCpltCallback>
#endif /* USE_HAL_ADC_REGISTER_CALLBACKS */

    /* Clear injected group conversion flag */
    __HAL_ADC_CLEAR_FLAG(hadc, (ADC_FLAG_JSTRT | ADC_FLAG_JEOC));
 8002962:	687b      	ldr	r3, [r7, #4]
 8002964:	681b      	ldr	r3, [r3, #0]
 8002966:	f06f 020c 	mvn.w	r2, #12
 800296a:	601a      	str	r2, [r3, #0]
  }

  tmp1 = tmp_sr & ADC_FLAG_AWD;
 800296c:	68fb      	ldr	r3, [r7, #12]
 800296e:	f003 0301 	and.w	r3, r3, #1
 8002972:	617b      	str	r3, [r7, #20]
  tmp2 = tmp_cr1 & ADC_IT_AWD;
 8002974:	68bb      	ldr	r3, [r7, #8]
 8002976:	f003 0340 	and.w	r3, r3, #64	@ 0x40
 800297a:	613b      	str	r3, [r7, #16]
  /* Check Analog watchdog flag */
  if (tmp1 && tmp2)
 800297c:	697b      	ldr	r3, [r7, #20]
 800297e:	2b00      	cmp	r3, #0
 8002980:	d017      	beq.n	80029b2 <HAL_ADC_IRQHandler+0x1d6>
 8002982:	693b      	ldr	r3, [r7, #16]
 8002984:	2b00      	cmp	r3, #0
 8002986:	d014      	beq.n	80029b2 <HAL_ADC_IRQHandler+0x1d6>
  {
    if (__HAL_ADC_GET_FLAG(hadc, ADC_FLAG_AWD))
 8002988:	687b      	ldr	r3, [r7, #4]
 800298a:	681b      	ldr	r3, [r3, #0]
 800298c:	681b      	ldr	r3, [r3, #0]
 800298e:	f003 0301 	and.w	r3, r3, #1
 8002992:	2b01      	cmp	r3, #1
 8002994:	d10d      	bne.n	80029b2 <HAL_ADC_IRQHandler+0x1d6>
    {
      /* Set ADC state */
      SET_BIT(hadc->State, HAL_ADC_STATE_AWD1);
 8002996:	687b      	ldr	r3, [r7, #4]
 8002998:	6c1b      	ldr	r3, [r3, #64]	@ 0x40
 800299a:	f443 3280 	orr.w	r2, r3, #65536	@ 0x10000
 800299e:	687b      	ldr	r3, [r7, #4]
 80029a0:	641a      	str	r2, [r3, #64]	@ 0x40

      /* Level out of window callback */
#if (USE_HAL_ADC_REGISTER_CALLBACKS == 1)
      hadc->LevelOutOfWindowCallback(hadc);
#else
      HAL_ADC_LevelOutOfWindowCallback(hadc);
 80029a2:	6878      	ldr	r0, [r7, #4]
 80029a4:	f000 f837 	bl	8002a16 <HAL_ADC_LevelOutOfWindowCallback>
#endif /* USE_HAL_ADC_REGISTER_CALLBACKS */

      /* Clear the ADC analog watchdog flag */
      __HAL_ADC_CLEAR_FLAG(hadc, ADC_FLAG_AWD);
 80029a8:	687b      	ldr	r3, [r7, #4]
 80029aa:	681b      	ldr	r3, [r3, #0]
 80029ac:	f06f 0201 	mvn.w	r2, #1
 80029b0:	601a      	str	r2, [r3, #0]
    }
  }

  tmp1 = tmp_sr & ADC_FLAG_OVR;
 80029b2:	68fb      	ldr	r3, [r7, #12]
 80029b4:	f003 0320 	and.w	r3, r3, #32
 80029b8:	617b      	str	r3, [r7, #20]
  tmp2 = tmp_cr1 & ADC_IT_OVR;
 80029ba:	68bb      	ldr	r3, [r7, #8]
 80029bc:	f003 6380 	and.w	r3, r3, #67108864	@ 0x4000000
 80029c0:	613b      	str	r3, [r7, #16]
  /* Check Overrun flag */
  if (tmp1 && tmp2)
 80029c2:	697b      	ldr	r3, [r7, #20]
 80029c4:	2b00      	cmp	r3, #0
 80029c6:	d015      	beq.n	80029f4 <HAL_ADC_IRQHandler+0x218>
 80029c8:	693b      	ldr	r3, [r7, #16]
 80029ca:	2b00      	cmp	r3, #0
 80029cc:	d012      	beq.n	80029f4 <HAL_ADC_IRQHandler+0x218>
    /* Note: On STM32F4, ADC overrun can be set through other parameters    */
    /*       refer to description of parameter "EOCSelection" for more      */
    /*       details.                                                       */

    /* Set ADC error code to overrun */
    SET_BIT(hadc->ErrorCode, HAL_ADC_ERROR_OVR);
 80029ce:	687b      	ldr	r3, [r7, #4]
 80029d0:	6c5b      	ldr	r3, [r3, #68]	@ 0x44
 80029d2:	f043 0202 	orr.w	r2, r3, #2
 80029d6:	687b      	ldr	r3, [r7, #4]
 80029d8:	645a      	str	r2, [r3, #68]	@ 0x44

    /* Clear ADC overrun flag */
    __HAL_ADC_CLEAR_FLAG(hadc, ADC_FLAG_OVR);
 80029da:	687b      	ldr	r3, [r7, #4]
 80029dc:	681b      	ldr	r3, [r3, #0]
 80029de:	f06f 0220 	mvn.w	r2, #32
 80029e2:	601a      	str	r2, [r3, #0]

    /* Error callback */
#if (USE_HAL_ADC_REGISTER_CALLBACKS == 1)
    hadc->ErrorCallback(hadc);
#else
    HAL_ADC_ErrorCallback(hadc);
 80029e4:	6878      	ldr	r0, [r7, #4]
 80029e6:	f000 f820 	bl	8002a2a <HAL_ADC_ErrorCallback>
#endif /* USE_HAL_ADC_REGISTER_CALLBACKS */

    /* Clear the Overrun flag */
    __HAL_ADC_CLEAR_FLAG(hadc, ADC_FLAG_OVR);
 80029ea:	687b      	ldr	r3, [r7, #4]
 80029ec:	681b      	ldr	r3, [r3, #0]
 80029ee:	f06f 0220 	mvn.w	r2, #32
 80029f2:	601a      	str	r2, [r3, #0]
  }
}
 80029f4:	bf00      	nop
 80029f6:	3718      	adds	r7, #24
 80029f8:	46bd      	mov	sp, r7
 80029fa:	bd80      	pop	{r7, pc}

080029fc <HAL_ADC_GetValue>:
  * @param  hadc pointer to a ADC_HandleTypeDef structure that contains
  *         the configuration information for the specified ADC.
  * @retval Converted value
  */
uint32_t HAL_ADC_GetValue(ADC_HandleTypeDef *hadc)
{
 80029fc:	b480      	push	{r7}
 80029fe:	b083      	sub	sp, #12
 8002a00:	af00      	add	r7, sp, #0
 8002a02:	6078      	str	r0, [r7, #4]
  /* Return the selected ADC converted value */
  return hadc->Instance->DR;
 8002a04:	687b      	ldr	r3, [r7, #4]
 8002a06:	681b      	ldr	r3, [r3, #0]
 8002a08:	6cdb      	ldr	r3, [r3, #76]	@ 0x4c
}
 8002a0a:	4618      	mov	r0, r3
 8002a0c:	370c      	adds	r7, #12
 8002a0e:	46bd      	mov	sp, r7
 8002a10:	f85d 7b04 	ldr.w	r7, [sp], #4
 8002a14:	4770      	bx	lr

08002a16 <HAL_ADC_LevelOutOfWindowCallback>:
  * @param  hadc pointer to a ADC_HandleTypeDef structure that contains
  *         the configuration information for the specified ADC.
  * @retval None
  */
__weak void HAL_ADC_LevelOutOfWindowCallback(ADC_HandleTypeDef *hadc)
{
 8002a16:	b480      	push	{r7}
 8002a18:	b083      	sub	sp, #12
 8002a1a:	af00      	add	r7, sp, #0
 8002a1c:	6078      	str	r0, [r7, #4]
  /* Prevent unused argument(s) compilation warning */
  UNUSED(hadc);
  /* NOTE : This function Should not be modified, when the callback is needed,
            the HAL_ADC_LevelOoutOfWindowCallback could be implemented in the user file
   */
}
 8002a1e:	bf00      	nop
 8002a20:	370c      	adds	r7, #12
 8002a22:	46bd      	mov	sp, r7
 8002a24:	f85d 7b04 	ldr.w	r7, [sp], #4
 8002a28:	4770      	bx	lr

08002a2a <HAL_ADC_ErrorCallback>:
  * @param  hadc pointer to a ADC_HandleTypeDef structure that contains
  *         the configuration information for the specified ADC.
  * @retval None
  */
__weak void HAL_ADC_ErrorCallback(ADC_HandleTypeDef *hadc)
{
 8002a2a:	b480      	push	{r7}
 8002a2c:	b083      	sub	sp, #12
 8002a2e:	af00      	add	r7, sp, #0
 8002a30:	6078      	str	r0, [r7, #4]
  /* Prevent unused argument(s) compilation warning */
  UNUSED(hadc);
  /* NOTE : This function Should not be modified, when the callback is needed,
            the HAL_ADC_ErrorCallback could be implemented in the user file
   */
}
 8002a32:	bf00      	nop
 8002a34:	370c      	adds	r7, #12
 8002a36:	46bd      	mov	sp, r7
 8002a38:	f85d 7b04 	ldr.w	r7, [sp], #4
 8002a3c:	4770      	bx	lr
	...

08002a40 <HAL_ADC_ConfigChannel>:
*         the configuration information for the specified ADC.
* @param  sConfig ADC configuration structure.
* @retval HAL status
*/
HAL_StatusTypeDef HAL_ADC_ConfigChannel(ADC_HandleTypeDef *hadc, ADC_ChannelConfTypeDef *sConfig)
{
 8002a40:	b480      	push	{r7}
 8002a42:	b085      	sub	sp, #20
 8002a44:	af00      	add	r7, sp, #0
 8002a46:	6078      	str	r0, [r7, #4]
 8002a48:	6039      	str	r1, [r7, #0]
  __IO uint32_t counter = 0U;
 8002a4a:	2300      	movs	r3, #0
 8002a4c:	60bb      	str	r3, [r7, #8]
  assert_param(IS_ADC_CHANNEL(sConfig->Channel));
  assert_param(IS_ADC_REGULAR_RANK(sConfig->Rank));
  assert_param(IS_ADC_SAMPLE_TIME(sConfig->SamplingTime));

  /* Process locked */
  __HAL_LOCK(hadc);
 8002a4e:	687b      	ldr	r3, [r7, #4]
 8002a50:	f893 303c 	ldrb.w	r3, [r3, #60]	@ 0x3c
 8002a54:	2b01      	cmp	r3, #1
 8002a56:	d101      	bne.n	8002a5c <HAL_ADC_ConfigChannel+0x1c>
 8002a58:	2302      	movs	r3, #2
 8002a5a:	e105      	b.n	8002c68 <HAL_ADC_ConfigChannel+0x228>
 8002a5c:	687b      	ldr	r3, [r7, #4]
 8002a5e:	2201      	movs	r2, #1
 8002a60:	f883 203c 	strb.w	r2, [r3, #60]	@ 0x3c

  /* if ADC_Channel_10 ... ADC_Channel_18 is selected */
  if (sConfig->Channel > ADC_CHANNEL_9)
 8002a64:	683b      	ldr	r3, [r7, #0]
 8002a66:	681b      	ldr	r3, [r3, #0]
 8002a68:	2b09      	cmp	r3, #9
 8002a6a:	d925      	bls.n	8002ab8 <HAL_ADC_ConfigChannel+0x78>
  {
    /* Clear the old sample time */
    hadc->Instance->SMPR1 &= ~ADC_SMPR1(ADC_SMPR1_SMP10, sConfig->Channel);
 8002a6c:	687b      	ldr	r3, [r7, #4]
 8002a6e:	681b      	ldr	r3, [r3, #0]
 8002a70:	68d9      	ldr	r1, [r3, #12]
 8002a72:	683b      	ldr	r3, [r7, #0]
 8002a74:	681b      	ldr	r3, [r3, #0]
 8002a76:	b29b      	uxth	r3, r3
 8002a78:	461a      	mov	r2, r3
 8002a7a:	4613      	mov	r3, r2
 8002a7c:	005b      	lsls	r3, r3, #1
 8002a7e:	4413      	add	r3, r2
 8002a80:	3b1e      	subs	r3, #30
 8002a82:	2207      	movs	r2, #7
 8002a84:	fa02 f303 	lsl.w	r3, r2, r3
 8002a88:	43da      	mvns	r2, r3
 8002a8a:	687b      	ldr	r3, [r7, #4]
 8002a8c:	681b      	ldr	r3, [r3, #0]
 8002a8e:	400a      	ands	r2, r1
 8002a90:	60da      	str	r2, [r3, #12]

    /* Set the new sample time */
    hadc->Instance->SMPR1 |= ADC_SMPR1(sConfig->SamplingTime, sConfig->Channel);
 8002a92:	687b      	ldr	r3, [r7, #4]
 8002a94:	681b      	ldr	r3, [r3, #0]
 8002a96:	68d9      	ldr	r1, [r3, #12]
 8002a98:	683b      	ldr	r3, [r7, #0]
 8002a9a:	689a      	ldr	r2, [r3, #8]
 8002a9c:	683b      	ldr	r3, [r7, #0]
 8002a9e:	681b      	ldr	r3, [r3, #0]
 8002aa0:	b29b      	uxth	r3, r3
 8002aa2:	4618      	mov	r0, r3
 8002aa4:	4603      	mov	r3, r0
 8002aa6:	005b      	lsls	r3, r3, #1
 8002aa8:	4403      	add	r3, r0
 8002aaa:	3b1e      	subs	r3, #30
 8002aac:	409a      	lsls	r2, r3
 8002aae:	687b      	ldr	r3, [r7, #4]
 8002ab0:	681b      	ldr	r3, [r3, #0]
 8002ab2:	430a      	orrs	r2, r1
 8002ab4:	60da      	str	r2, [r3, #12]
 8002ab6:	e022      	b.n	8002afe <HAL_ADC_ConfigChannel+0xbe>
  }
  else /* ADC_Channel include in ADC_Channel_[0..9] */
  {
    /* Clear the old sample time */
    hadc->Instance->SMPR2 &= ~ADC_SMPR2(ADC_SMPR2_SMP0, sConfig->Channel);
 8002ab8:	687b      	ldr	r3, [r7, #4]
 8002aba:	681b      	ldr	r3, [r3, #0]
 8002abc:	6919      	ldr	r1, [r3, #16]
 8002abe:	683b      	ldr	r3, [r7, #0]
 8002ac0:	681b      	ldr	r3, [r3, #0]
 8002ac2:	b29b      	uxth	r3, r3
 8002ac4:	461a      	mov	r2, r3
 8002ac6:	4613      	mov	r3, r2
 8002ac8:	005b      	lsls	r3, r3, #1
 8002aca:	4413      	add	r3, r2
 8002acc:	2207      	movs	r2, #7
 8002ace:	fa02 f303 	lsl.w	r3, r2, r3
 8002ad2:	43da      	mvns	r2, r3
 8002ad4:	687b      	ldr	r3, [r7, #4]
 8002ad6:	681b      	ldr	r3, [r3, #0]
 8002ad8:	400a      	ands	r2, r1
 8002ada:	611a      	str	r2, [r3, #16]

    /* Set the new sample time */
    hadc->Instance->SMPR2 |= ADC_SMPR2(sConfig->SamplingTime, sConfig->Channel);
 8002adc:	687b      	ldr	r3, [r7, #4]
 8002ade:	681b      	ldr	r3, [r3, #0]
 8002ae0:	6919      	ldr	r1, [r3, #16]
 8002ae2:	683b      	ldr	r3, [r7, #0]
 8002ae4:	689a      	ldr	r2, [r3, #8]
 8002ae6:	683b      	ldr	r3, [r7, #0]
 8002ae8:	681b      	ldr	r3, [r3, #0]
 8002aea:	b29b      	uxth	r3, r3
 8002aec:	4618      	mov	r0, r3
 8002aee:	4603      	mov	r3, r0
 8002af0:	005b      	lsls	r3, r3, #1
 8002af2:	4403      	add	r3, r0
 8002af4:	409a      	lsls	r2, r3
 8002af6:	687b      	ldr	r3, [r7, #4]
 8002af8:	681b      	ldr	r3, [r3, #0]
 8002afa:	430a      	orrs	r2, r1
 8002afc:	611a      	str	r2, [r3, #16]
  }

  /* For Rank 1 to 6 */
  if (sConfig->Rank < 7U)
 8002afe:	683b      	ldr	r3, [r7, #0]
 8002b00:	685b      	ldr	r3, [r3, #4]
 8002b02:	2b06      	cmp	r3, #6
 8002b04:	d824      	bhi.n	8002b50 <HAL_ADC_ConfigChannel+0x110>
  {
    /* Clear the old SQx bits for the selected rank */
    hadc->Instance->SQR3 &= ~ADC_SQR3_RK(ADC_SQR3_SQ1, sConfig->Rank);
 8002b06:	687b      	ldr	r3, [r7, #4]
 8002b08:	681b      	ldr	r3, [r3, #0]
 8002b0a:	6b59      	ldr	r1, [r3, #52]	@ 0x34
 8002b0c:	683b      	ldr	r3, [r7, #0]
 8002b0e:	685a      	ldr	r2, [r3, #4]
 8002b10:	4613      	mov	r3, r2
 8002b12:	009b      	lsls	r3, r3, #2
 8002b14:	4413      	add	r3, r2
 8002b16:	3b05      	subs	r3, #5
 8002b18:	221f      	movs	r2, #31
 8002b1a:	fa02 f303 	lsl.w	r3, r2, r3
 8002b1e:	43da      	mvns	r2, r3
 8002b20:	687b      	ldr	r3, [r7, #4]
 8002b22:	681b      	ldr	r3, [r3, #0]
 8002b24:	400a      	ands	r2, r1
 8002b26:	635a      	str	r2, [r3, #52]	@ 0x34

    /* Set the SQx bits for the selected rank */
    hadc->Instance->SQR3 |= ADC_SQR3_RK(sConfig->Channel, sConfig->Rank);
 8002b28:	687b      	ldr	r3, [r7, #4]
 8002b2a:	681b      	ldr	r3, [r3, #0]
 8002b2c:	6b59      	ldr	r1, [r3, #52]	@ 0x34
 8002b2e:	683b      	ldr	r3, [r7, #0]
 8002b30:	681b      	ldr	r3, [r3, #0]
 8002b32:	b29b      	uxth	r3, r3
 8002b34:	4618      	mov	r0, r3
 8002b36:	683b      	ldr	r3, [r7, #0]
 8002b38:	685a      	ldr	r2, [r3, #4]
 8002b3a:	4613      	mov	r3, r2
 8002b3c:	009b      	lsls	r3, r3, #2
 8002b3e:	4413      	add	r3, r2
 8002b40:	3b05      	subs	r3, #5
 8002b42:	fa00 f203 	lsl.w	r2, r0, r3
 8002b46:	687b      	ldr	r3, [r7, #4]
 8002b48:	681b      	ldr	r3, [r3, #0]
 8002b4a:	430a      	orrs	r2, r1
 8002b4c:	635a      	str	r2, [r3, #52]	@ 0x34
 8002b4e:	e04c      	b.n	8002bea <HAL_ADC_ConfigChannel+0x1aa>
  }
  /* For Rank 7 to 12 */
  else if (sConfig->Rank < 13U)
 8002b50:	683b      	ldr	r3, [r7, #0]
 8002b52:	685b      	ldr	r3, [r3, #4]
 8002b54:	2b0c      	cmp	r3, #12
 8002b56:	d824      	bhi.n	8002ba2 <HAL_ADC_ConfigChannel+0x162>
  {
    /* Clear the old SQx bits for the selected rank */
    hadc->Instance->SQR2 &= ~ADC_SQR2_RK(ADC_SQR2_SQ7, sConfig->Rank);
 8002b58:	687b      	ldr	r3, [r7, #4]
 8002b5a:	681b      	ldr	r3, [r3, #0]
 8002b5c:	6b19      	ldr	r1, [r3, #48]	@ 0x30
 8002b5e:	683b      	ldr	r3, [r7, #0]
 8002b60:	685a      	ldr	r2, [r3, #4]
 8002b62:	4613      	mov	r3, r2
 8002b64:	009b      	lsls	r3, r3, #2
 8002b66:	4413      	add	r3, r2
 8002b68:	3b23      	subs	r3, #35	@ 0x23
 8002b6a:	221f      	movs	r2, #31
 8002b6c:	fa02 f303 	lsl.w	r3, r2, r3
 8002b70:	43da      	mvns	r2, r3
 8002b72:	687b      	ldr	r3, [r7, #4]
 8002b74:	681b      	ldr	r3, [r3, #0]
 8002b76:	400a      	ands	r2, r1
 8002b78:	631a      	str	r2, [r3, #48]	@ 0x30

    /* Set the SQx bits for the selected rank */
    hadc->Instance->SQR2 |= ADC_SQR2_RK(sConfig->Channel, sConfig->Rank);
 8002b7a:	687b      	ldr	r3, [r7, #4]
 8002b7c:	681b      	ldr	r3, [r3, #0]
 8002b7e:	6b19      	ldr	r1, [r3, #48]	@ 0x30
 8002b80:	683b      	ldr	r3, [r7, #0]
 8002b82:	681b      	ldr	r3, [r3, #0]
 8002b84:	b29b      	uxth	r3, r3
 8002b86:	4618      	mov	r0, r3
 8002b88:	683b      	ldr	r3, [r7, #0]
 8002b8a:	685a      	ldr	r2, [r3, #4]
 8002b8c:	4613      	mov	r3, r2
 8002b8e:	009b      	lsls	r3, r3, #2
 8002b90:	4413      	add	r3, r2
 8002b92:	3b23      	subs	r3, #35	@ 0x23
 8002b94:	fa00 f203 	lsl.w	r2, r0, r3
 8002b98:	687b      	ldr	r3, [r7, #4]
 8002b9a:	681b      	ldr	r3, [r3, #0]
 8002b9c:	430a      	orrs	r2, r1
 8002b9e:	631a      	str	r2, [r3, #48]	@ 0x30
 8002ba0:	e023      	b.n	8002bea <HAL_ADC_ConfigChannel+0x1aa>
  }
  /* For Rank 13 to 16 */
  else
  {
    /* Clear the old SQx bits for the selected rank */
    hadc->Instance->SQR1 &= ~ADC_SQR1_RK(ADC_SQR1_SQ13, sConfig->Rank);
 8002ba2:	687b      	ldr	r3, [r7, #4]
 8002ba4:	681b      	ldr	r3, [r3, #0]
 8002ba6:	6ad9      	ldr	r1, [r3, #44]	@ 0x2c
 8002ba8:	683b      	ldr	r3, [r7, #0]
 8002baa:	685a      	ldr	r2, [r3, #4]
 8002bac:	4613      	mov	r3, r2
 8002bae:	009b      	lsls	r3, r3, #2
 8002bb0:	4413      	add	r3, r2
 8002bb2:	3b41      	subs	r3, #65	@ 0x41
 8002bb4:	221f      	movs	r2, #31
 8002bb6:	fa02 f303 	lsl.w	r3, r2, r3
 8002bba:	43da      	mvns	r2, r3
 8002bbc:	687b      	ldr	r3, [r7, #4]
 8002bbe:	681b      	ldr	r3, [r3, #0]
 8002bc0:	400a      	ands	r2, r1
 8002bc2:	62da      	str	r2, [r3, #44]	@ 0x2c

    /* Set the SQx bits for the selected rank */
    hadc->Instance->SQR1 |= ADC_SQR1_RK(sConfig->Channel, sConfig->Rank);
 8002bc4:	687b      	ldr	r3, [r7, #4]
 8002bc6:	681b      	ldr	r3, [r3, #0]
 8002bc8:	6ad9      	ldr	r1, [r3, #44]	@ 0x2c
 8002bca:	683b      	ldr	r3, [r7, #0]
 8002bcc:	681b      	ldr	r3, [r3, #0]
 8002bce:	b29b      	uxth	r3, r3
 8002bd0:	4618      	mov	r0, r3
 8002bd2:	683b      	ldr	r3, [r7, #0]
 8002bd4:	685a      	ldr	r2, [r3, #4]
 8002bd6:	4613      	mov	r3, r2
 8002bd8:	009b      	lsls	r3, r3, #2
 8002bda:	4413      	add	r3, r2
 8002bdc:	3b41      	subs	r3, #65	@ 0x41
 8002bde:	fa00 f203 	lsl.w	r2, r0, r3
 8002be2:	687b      	ldr	r3, [r7, #4]
 8002be4:	681b      	ldr	r3, [r3, #0]
 8002be6:	430a      	orrs	r2, r1
 8002be8:	62da      	str	r2, [r3, #44]	@ 0x2c
  }

  /* Pointer to the common control register to which is belonging hadc    */
  /* (Depending on STM32F4 product, there may be up to 3 ADCs and 1 common */
  /* control register)                                                    */
  tmpADC_Common = ADC_COMMON_REGISTER(hadc);
 8002bea:	4b22      	ldr	r3, [pc, #136]	@ (8002c74 <HAL_ADC_ConfigChannel+0x234>)
 8002bec:	60fb      	str	r3, [r7, #12]

  /* if ADC1 Channel_18 is selected for VBAT Channel ennable VBATE */
  if ((hadc->Instance == ADC1) && (sConfig->Channel == ADC_CHANNEL_VBAT))
 8002bee:	687b      	ldr	r3, [r7, #4]
 8002bf0:	681b      	ldr	r3, [r3, #0]
 8002bf2:	4a21      	ldr	r2, [pc, #132]	@ (8002c78 <HAL_ADC_ConfigChannel+0x238>)
 8002bf4:	4293      	cmp	r3, r2
 8002bf6:	d109      	bne.n	8002c0c <HAL_ADC_ConfigChannel+0x1cc>
 8002bf8:	683b      	ldr	r3, [r7, #0]
 8002bfa:	681b      	ldr	r3, [r3, #0]
 8002bfc:	2b12      	cmp	r3, #18
 8002bfe:	d105      	bne.n	8002c0c <HAL_ADC_ConfigChannel+0x1cc>
    if ((uint16_t)ADC_CHANNEL_TEMPSENSOR == (uint16_t)ADC_CHANNEL_VBAT)
    {
      tmpADC_Common->CCR &= ~ADC_CCR_TSVREFE;
    }
    /* Enable the VBAT channel*/
    tmpADC_Common->CCR |= ADC_CCR_VBATE;
 8002c00:	68fb      	ldr	r3, [r7, #12]
 8002c02:	685b      	ldr	r3, [r3, #4]
 8002c04:	f443 0280 	orr.w	r2, r3, #4194304	@ 0x400000
 8002c08:	68fb      	ldr	r3, [r7, #12]
 8002c0a:	605a      	str	r2, [r3, #4]
  }

  /* if ADC1 Channel_16 or Channel_18 is selected for Temperature sensor or
     Channel_17 is selected for VREFINT enable TSVREFE */
  if ((hadc->Instance == ADC1) && ((sConfig->Channel == ADC_CHANNEL_TEMPSENSOR) || (sConfig->Channel == ADC_CHANNEL_VREFINT)))
 8002c0c:	687b      	ldr	r3, [r7, #4]
 8002c0e:	681b      	ldr	r3, [r3, #0]
 8002c10:	4a19      	ldr	r2, [pc, #100]	@ (8002c78 <HAL_ADC_ConfigChannel+0x238>)
 8002c12:	4293      	cmp	r3, r2
 8002c14:	d123      	bne.n	8002c5e <HAL_ADC_ConfigChannel+0x21e>
 8002c16:	683b      	ldr	r3, [r7, #0]
 8002c18:	681b      	ldr	r3, [r3, #0]
 8002c1a:	2b10      	cmp	r3, #16
 8002c1c:	d003      	beq.n	8002c26 <HAL_ADC_ConfigChannel+0x1e6>
 8002c1e:	683b      	ldr	r3, [r7, #0]
 8002c20:	681b      	ldr	r3, [r3, #0]
 8002c22:	2b11      	cmp	r3, #17
 8002c24:	d11b      	bne.n	8002c5e <HAL_ADC_ConfigChannel+0x21e>
    if ((uint16_t)ADC_CHANNEL_TEMPSENSOR == (uint16_t)ADC_CHANNEL_VBAT)
    {
      tmpADC_Common->CCR &= ~ADC_CCR_VBATE;
    }
    /* Enable the Temperature sensor and VREFINT channel*/
    tmpADC_Common->CCR |= ADC_CCR_TSVREFE;
 8002c26:	68fb      	ldr	r3, [r7, #12]
 8002c28:	685b      	ldr	r3, [r3, #4]
 8002c2a:	f443 0200 	orr.w	r2, r3, #8388608	@ 0x800000
 8002c2e:	68fb      	ldr	r3, [r7, #12]
 8002c30:	605a      	str	r2, [r3, #4]

    if (sConfig->Channel == ADC_CHANNEL_TEMPSENSOR)
 8002c32:	683b      	ldr	r3, [r7, #0]
 8002c34:	681b      	ldr	r3, [r3, #0]
 8002c36:	2b10      	cmp	r3, #16
 8002c38:	d111      	bne.n	8002c5e <HAL_ADC_ConfigChannel+0x21e>
    {
      /* Delay for temperature sensor stabilization time */
      /* Compute number of CPU cycles to wait for */
      counter = (ADC_TEMPSENSOR_DELAY_US * (SystemCoreClock / 1000000U));
 8002c3a:	4b10      	ldr	r3, [pc, #64]	@ (8002c7c <HAL_ADC_ConfigChannel+0x23c>)
 8002c3c:	681b      	ldr	r3, [r3, #0]
 8002c3e:	4a10      	ldr	r2, [pc, #64]	@ (8002c80 <HAL_ADC_ConfigChannel+0x240>)
 8002c40:	fba2 2303 	umull	r2, r3, r2, r3
 8002c44:	0c9a      	lsrs	r2, r3, #18
 8002c46:	4613      	mov	r3, r2
 8002c48:	009b      	lsls	r3, r3, #2
 8002c4a:	4413      	add	r3, r2
 8002c4c:	005b      	lsls	r3, r3, #1
 8002c4e:	60bb      	str	r3, [r7, #8]
      while (counter != 0U)
 8002c50:	e002      	b.n	8002c58 <HAL_ADC_ConfigChannel+0x218>
      {
        counter--;
 8002c52:	68bb      	ldr	r3, [r7, #8]
 8002c54:	3b01      	subs	r3, #1
 8002c56:	60bb      	str	r3, [r7, #8]
      while (counter != 0U)
 8002c58:	68bb      	ldr	r3, [r7, #8]
 8002c5a:	2b00      	cmp	r3, #0
 8002c5c:	d1f9      	bne.n	8002c52 <HAL_ADC_ConfigChannel+0x212>
      }
    }
  }

  /* Process unlocked */
  __HAL_UNLOCK(hadc);
 8002c5e:	687b      	ldr	r3, [r7, #4]
 8002c60:	2200      	movs	r2, #0
 8002c62:	f883 203c 	strb.w	r2, [r3, #60]	@ 0x3c

  /* Return function status */
  return HAL_OK;
 8002c66:	2300      	movs	r3, #0
}
 8002c68:	4618      	mov	r0, r3
 8002c6a:	3714      	adds	r7, #20
 8002c6c:	46bd      	mov	sp, r7
 8002c6e:	f85d 7b04 	ldr.w	r7, [sp], #4
 8002c72:	4770      	bx	lr
 8002c74:	40012300 	.word	0x40012300
 8002c78:	40012000 	.word	0x40012000
 8002c7c:	2000000c 	.word	0x2000000c
 8002c80:	431bde83 	.word	0x431bde83

08002c84 <ADC_Init>:
  * @param  hadc pointer to a ADC_HandleTypeDef structure that contains
  *         the configuration information for the specified ADC.
  * @retval None
  */
static void ADC_Init(ADC_HandleTypeDef *hadc)
{
 8002c84:	b480      	push	{r7}
 8002c86:	b085      	sub	sp, #20
 8002c88:	af00      	add	r7, sp, #0
 8002c8a:	6078      	str	r0, [r7, #4]

  /* Set ADC parameters */
  /* Pointer to the common control register to which is belonging hadc    */
  /* (Depending on STM32F4 product, there may be up to 3 ADCs and 1 common */
  /* control register)                                                    */
  tmpADC_Common = ADC_COMMON_REGISTER(hadc);
 8002c8c:	4b79      	ldr	r3, [pc, #484]	@ (8002e74 <ADC_Init+0x1f0>)
 8002c8e:	60fb      	str	r3, [r7, #12]

  /* Set the ADC clock prescaler */
  tmpADC_Common->CCR &= ~(ADC_CCR_ADCPRE);
 8002c90:	68fb      	ldr	r3, [r7, #12]
 8002c92:	685b      	ldr	r3, [r3, #4]
 8002c94:	f423 3240 	bic.w	r2, r3, #196608	@ 0x30000
 8002c98:	68fb      	ldr	r3, [r7, #12]
 8002c9a:	605a      	str	r2, [r3, #4]
  tmpADC_Common->CCR |=  hadc->Init.ClockPrescaler;
 8002c9c:	68fb      	ldr	r3, [r7, #12]
 8002c9e:	685a      	ldr	r2, [r3, #4]
 8002ca0:	687b      	ldr	r3, [r7, #4]
 8002ca2:	685b      	ldr	r3, [r3, #4]
 8002ca4:	431a      	orrs	r2, r3
 8002ca6:	68fb      	ldr	r3, [r7, #12]
 8002ca8:	605a      	str	r2, [r3, #4]

  /* Set ADC scan mode */
  hadc->Instance->CR1 &= ~(ADC_CR1_SCAN);
 8002caa:	687b      	ldr	r3, [r7, #4]
 8002cac:	681b      	ldr	r3, [r3, #0]
 8002cae:	685a      	ldr	r2, [r3, #4]
 8002cb0:	687b      	ldr	r3, [r7, #4]
 8002cb2:	681b      	ldr	r3, [r3, #0]
 8002cb4:	f422 7280 	bic.w	r2, r2, #256	@ 0x100
 8002cb8:	605a      	str	r2, [r3, #4]
  hadc->Instance->CR1 |=  ADC_CR1_SCANCONV(hadc->Init.ScanConvMode);
 8002cba:	687b      	ldr	r3, [r7, #4]
 8002cbc:	681b      	ldr	r3, [r3, #0]
 8002cbe:	6859      	ldr	r1, [r3, #4]
 8002cc0:	687b      	ldr	r3, [r7, #4]
 8002cc2:	691b      	ldr	r3, [r3, #16]
 8002cc4:	021a      	lsls	r2, r3, #8
 8002cc6:	687b      	ldr	r3, [r7, #4]
 8002cc8:	681b      	ldr	r3, [r3, #0]
 8002cca:	430a      	orrs	r2, r1
 8002ccc:	605a      	str	r2, [r3, #4]

  /* Set ADC resolution */
  hadc->Instance->CR1 &= ~(ADC_CR1_RES);
 8002cce:	687b      	ldr	r3, [r7, #4]
 8002cd0:	681b      	ldr	r3, [r3, #0]
 8002cd2:	685a      	ldr	r2, [r3, #4]
 8002cd4:	687b      	ldr	r3, [r7, #4]
 8002cd6:	681b      	ldr	r3, [r3, #0]
 8002cd8:	f022 7240 	bic.w	r2, r2, #50331648	@ 0x3000000
 8002cdc:	605a      	str	r2, [r3, #4]
  hadc->Instance->CR1 |=  hadc->Init.Resolution;
 8002cde:	687b      	ldr	r3, [r7, #4]
 8002ce0:	681b      	ldr	r3, [r3, #0]
 8002ce2:	6859      	ldr	r1, [r3, #4]
 8002ce4:	687b      	ldr	r3, [r7, #4]
 8002ce6:	689a      	ldr	r2, [r3, #8]
 8002ce8:	687b      	ldr	r3, [r7, #4]
 8002cea:	681b      	ldr	r3, [r3, #0]
 8002cec:	430a      	orrs	r2, r1
 8002cee:	605a      	str	r2, [r3, #4]

  /* Set ADC data alignment */
  hadc->Instance->CR2 &= ~(ADC_CR2_ALIGN);
 8002cf0:	687b      	ldr	r3, [r7, #4]
 8002cf2:	681b      	ldr	r3, [r3, #0]
 8002cf4:	689a      	ldr	r2, [r3, #8]
 8002cf6:	687b      	ldr	r3, [r7, #4]
 8002cf8:	681b      	ldr	r3, [r3, #0]
 8002cfa:	f422 6200 	bic.w	r2, r2, #2048	@ 0x800
 8002cfe:	609a      	str	r2, [r3, #8]
  hadc->Instance->CR2 |= hadc->Init.DataAlign;
 8002d00:	687b      	ldr	r3, [r7, #4]
 8002d02:	681b      	ldr	r3, [r3, #0]
 8002d04:	6899      	ldr	r1, [r3, #8]
 8002d06:	687b      	ldr	r3, [r7, #4]
 8002d08:	68da      	ldr	r2, [r3, #12]
 8002d0a:	687b      	ldr	r3, [r7, #4]
 8002d0c:	681b      	ldr	r3, [r3, #0]
 8002d0e:	430a      	orrs	r2, r1
 8002d10:	609a      	str	r2, [r3, #8]
  /* Enable external trigger if trigger selection is different of software  */
  /* start.                                                                 */
  /* Note: This configuration keeps the hardware feature of parameter       */
  /*       ExternalTrigConvEdge "trigger edge none" equivalent to           */
  /*       software start.                                                  */
  if (hadc->Init.ExternalTrigConv != ADC_SOFTWARE_START)
 8002d12:	687b      	ldr	r3, [r7, #4]
 8002d14:	6a9b      	ldr	r3, [r3, #40]	@ 0x28
 8002d16:	4a58      	ldr	r2, [pc, #352]	@ (8002e78 <ADC_Init+0x1f4>)
 8002d18:	4293      	cmp	r3, r2
 8002d1a:	d022      	beq.n	8002d62 <ADC_Init+0xde>
  {
    /* Select external trigger to start conversion */
    hadc->Instance->CR2 &= ~(ADC_CR2_EXTSEL);
 8002d1c:	687b      	ldr	r3, [r7, #4]
 8002d1e:	681b      	ldr	r3, [r3, #0]
 8002d20:	689a      	ldr	r2, [r3, #8]
 8002d22:	687b      	ldr	r3, [r7, #4]
 8002d24:	681b      	ldr	r3, [r3, #0]
 8002d26:	f022 6270 	bic.w	r2, r2, #251658240	@ 0xf000000
 8002d2a:	609a      	str	r2, [r3, #8]
    hadc->Instance->CR2 |= hadc->Init.ExternalTrigConv;
 8002d2c:	687b      	ldr	r3, [r7, #4]
 8002d2e:	681b      	ldr	r3, [r3, #0]
 8002d30:	6899      	ldr	r1, [r3, #8]
 8002d32:	687b      	ldr	r3, [r7, #4]
 8002d34:	6a9a      	ldr	r2, [r3, #40]	@ 0x28
 8002d36:	687b      	ldr	r3, [r7, #4]
 8002d38:	681b      	ldr	r3, [r3, #0]
 8002d3a:	430a      	orrs	r2, r1
 8002d3c:	609a      	str	r2, [r3, #8]

    /* Select external trigger polarity */
    hadc->Instance->CR2 &= ~(ADC_CR2_EXTEN);
 8002d3e:	687b      	ldr	r3, [r7, #4]
 8002d40:	681b      	ldr	r3, [r3, #0]
 8002d42:	689a      	ldr	r2, [r3, #8]
 8002d44:	687b      	ldr	r3, [r7, #4]
 8002d46:	681b      	ldr	r3, [r3, #0]
 8002d48:	f022 5240 	bic.w	r2, r2, #805306368	@ 0x30000000
 8002d4c:	609a      	str	r2, [r3, #8]
    hadc->Instance->CR2 |= hadc->Init.ExternalTrigConvEdge;
 8002d4e:	687b      	ldr	r3, [r7, #4]
 8002d50:	681b      	ldr	r3, [r3, #0]
 8002d52:	6899      	ldr	r1, [r3, #8]
 8002d54:	687b      	ldr	r3, [r7, #4]
 8002d56:	6ada      	ldr	r2, [r3, #44]	@ 0x2c
 8002d58:	687b      	ldr	r3, [r7, #4]
 8002d5a:	681b      	ldr	r3, [r3, #0]
 8002d5c:	430a      	orrs	r2, r1
 8002d5e:	609a      	str	r2, [r3, #8]
 8002d60:	e00f      	b.n	8002d82 <ADC_Init+0xfe>
  }
  else
  {
    /* Reset the external trigger */
    hadc->Instance->CR2 &= ~(ADC_CR2_EXTSEL);
 8002d62:	687b      	ldr	r3, [r7, #4]
 8002d64:	681b      	ldr	r3, [r3, #0]
 8002d66:	689a      	ldr	r2, [r3, #8]
 8002d68:	687b      	ldr	r3, [r7, #4]
 8002d6a:	681b      	ldr	r3, [r3, #0]
 8002d6c:	f022 6270 	bic.w	r2, r2, #251658240	@ 0xf000000
 8002d70:	609a      	str	r2, [r3, #8]
    hadc->Instance->CR2 &= ~(ADC_CR2_EXTEN);
 8002d72:	687b      	ldr	r3, [r7, #4]
 8002d74:	681b      	ldr	r3, [r3, #0]
 8002d76:	689a      	ldr	r2, [r3, #8]
 8002d78:	687b      	ldr	r3, [r7, #4]
 8002d7a:	681b      	ldr	r3, [r3, #0]
 8002d7c:	f022 5240 	bic.w	r2, r2, #805306368	@ 0x30000000
 8002d80:	609a      	str	r2, [r3, #8]
  }

  /* Enable or disable ADC continuous conversion mode */
  hadc->Instance->CR2 &= ~(ADC_CR2_CONT);
 8002d82:	687b      	ldr	r3, [r7, #4]
 8002d84:	681b      	ldr	r3, [r3, #0]
 8002d86:	689a      	ldr	r2, [r3, #8]
 8002d88:	687b      	ldr	r3, [r7, #4]
 8002d8a:	681b      	ldr	r3, [r3, #0]
 8002d8c:	f022 0202 	bic.w	r2, r2, #2
 8002d90:	609a      	str	r2, [r3, #8]
  hadc->Instance->CR2 |= ADC_CR2_CONTINUOUS((uint32_t)hadc->Init.ContinuousConvMode);
 8002d92:	687b      	ldr	r3, [r7, #4]
 8002d94:	681b      	ldr	r3, [r3, #0]
 8002d96:	6899      	ldr	r1, [r3, #8]
 8002d98:	687b      	ldr	r3, [r7, #4]
 8002d9a:	7e1b      	ldrb	r3, [r3, #24]
 8002d9c:	005a      	lsls	r2, r3, #1
 8002d9e:	687b      	ldr	r3, [r7, #4]
 8002da0:	681b      	ldr	r3, [r3, #0]
 8002da2:	430a      	orrs	r2, r1
 8002da4:	609a      	str	r2, [r3, #8]

  if (hadc->Init.DiscontinuousConvMode != DISABLE)
 8002da6:	687b      	ldr	r3, [r7, #4]
 8002da8:	f893 3020 	ldrb.w	r3, [r3, #32]
 8002dac:	2b00      	cmp	r3, #0
 8002dae:	d01b      	beq.n	8002de8 <ADC_Init+0x164>
  {
    assert_param(IS_ADC_REGULAR_DISC_NUMBER(hadc->Init.NbrOfDiscConversion));

    /* Enable the selected ADC regular discontinuous mode */
    hadc->Instance->CR1 |= (uint32_t)ADC_CR1_DISCEN;
 8002db0:	687b      	ldr	r3, [r7, #4]
 8002db2:	681b      	ldr	r3, [r3, #0]
 8002db4:	685a      	ldr	r2, [r3, #4]
 8002db6:	687b      	ldr	r3, [r7, #4]
 8002db8:	681b      	ldr	r3, [r3, #0]
 8002dba:	f442 6200 	orr.w	r2, r2, #2048	@ 0x800
 8002dbe:	605a      	str	r2, [r3, #4]

    /* Set the number of channels to be converted in discontinuous mode */
    hadc->Instance->CR1 &= ~(ADC_CR1_DISCNUM);
 8002dc0:	687b      	ldr	r3, [r7, #4]
 8002dc2:	681b      	ldr	r3, [r3, #0]
 8002dc4:	685a      	ldr	r2, [r3, #4]
 8002dc6:	687b      	ldr	r3, [r7, #4]
 8002dc8:	681b      	ldr	r3, [r3, #0]
 8002dca:	f422 4260 	bic.w	r2, r2, #57344	@ 0xe000
 8002dce:	605a      	str	r2, [r3, #4]
    hadc->Instance->CR1 |=  ADC_CR1_DISCONTINUOUS(hadc->Init.NbrOfDiscConversion);
 8002dd0:	687b      	ldr	r3, [r7, #4]
 8002dd2:	681b      	ldr	r3, [r3, #0]
 8002dd4:	6859      	ldr	r1, [r3, #4]
 8002dd6:	687b      	ldr	r3, [r7, #4]
 8002dd8:	6a5b      	ldr	r3, [r3, #36]	@ 0x24
 8002dda:	3b01      	subs	r3, #1
 8002ddc:	035a      	lsls	r2, r3, #13
 8002dde:	687b      	ldr	r3, [r7, #4]
 8002de0:	681b      	ldr	r3, [r3, #0]
 8002de2:	430a      	orrs	r2, r1
 8002de4:	605a      	str	r2, [r3, #4]
 8002de6:	e007      	b.n	8002df8 <ADC_Init+0x174>
  }
  else
  {
    /* Disable the selected ADC regular discontinuous mode */
    hadc->Instance->CR1 &= ~(ADC_CR1_DISCEN);
 8002de8:	687b      	ldr	r3, [r7, #4]
 8002dea:	681b      	ldr	r3, [r3, #0]
 8002dec:	685a      	ldr	r2, [r3, #4]
 8002dee:	687b      	ldr	r3, [r7, #4]
 8002df0:	681b      	ldr	r3, [r3, #0]
 8002df2:	f422 6200 	bic.w	r2, r2, #2048	@ 0x800
 8002df6:	605a      	str	r2, [r3, #4]
  }

  /* Set ADC number of conversion */
  hadc->Instance->SQR1 &= ~(ADC_SQR1_L);
 8002df8:	687b      	ldr	r3, [r7, #4]
 8002dfa:	681b      	ldr	r3, [r3, #0]
 8002dfc:	6ada      	ldr	r2, [r3, #44]	@ 0x2c
 8002dfe:	687b      	ldr	r3, [r7, #4]
 8002e00:	681b      	ldr	r3, [r3, #0]
 8002e02:	f422 0270 	bic.w	r2, r2, #15728640	@ 0xf00000
 8002e06:	62da      	str	r2, [r3, #44]	@ 0x2c
  hadc->Instance->SQR1 |=  ADC_SQR1(hadc->Init.NbrOfConversion);
 8002e08:	687b      	ldr	r3, [r7, #4]
 8002e0a:	681b      	ldr	r3, [r3, #0]
 8002e0c:	6ad9      	ldr	r1, [r3, #44]	@ 0x2c
 8002e0e:	687b      	ldr	r3, [r7, #4]
 8002e10:	69db      	ldr	r3, [r3, #28]
 8002e12:	3b01      	subs	r3, #1
 8002e14:	051a      	lsls	r2, r3, #20
 8002e16:	687b      	ldr	r3, [r7, #4]
 8002e18:	681b      	ldr	r3, [r3, #0]
 8002e1a:	430a      	orrs	r2, r1
 8002e1c:	62da      	str	r2, [r3, #44]	@ 0x2c

  /* Enable or disable ADC DMA continuous request */
  hadc->Instance->CR2 &= ~(ADC_CR2_DDS);
 8002e1e:	687b      	ldr	r3, [r7, #4]
 8002e20:	681b      	ldr	r3, [r3, #0]
 8002e22:	689a      	ldr	r2, [r3, #8]
 8002e24:	687b      	ldr	r3, [r7, #4]
 8002e26:	681b      	ldr	r3, [r3, #0]
 8002e28:	f422 7200 	bic.w	r2, r2, #512	@ 0x200
 8002e2c:	609a      	str	r2, [r3, #8]
  hadc->Instance->CR2 |= ADC_CR2_DMAContReq((uint32_t)hadc->Init.DMAContinuousRequests);
 8002e2e:	687b      	ldr	r3, [r7, #4]
 8002e30:	681b      	ldr	r3, [r3, #0]
 8002e32:	6899      	ldr	r1, [r3, #8]
 8002e34:	687b      	ldr	r3, [r7, #4]
 8002e36:	f893 3030 	ldrb.w	r3, [r3, #48]	@ 0x30
 8002e3a:	025a      	lsls	r2, r3, #9
 8002e3c:	687b      	ldr	r3, [r7, #4]
 8002e3e:	681b      	ldr	r3, [r3, #0]
 8002e40:	430a      	orrs	r2, r1
 8002e42:	609a      	str	r2, [r3, #8]

  /* Enable or disable ADC end of conversion selection */
  hadc->Instance->CR2 &= ~(ADC_CR2_EOCS);
 8002e44:	687b      	ldr	r3, [r7, #4]
 8002e46:	681b      	ldr	r3, [r3, #0]
 8002e48:	689a      	ldr	r2, [r3, #8]
 8002e4a:	687b      	ldr	r3, [r7, #4]
 8002e4c:	681b      	ldr	r3, [r3, #0]
 8002e4e:	f422 6280 	bic.w	r2, r2, #1024	@ 0x400
 8002e52:	609a      	str	r2, [r3, #8]
  hadc->Instance->CR2 |= ADC_CR2_EOCSelection(hadc->Init.EOCSelection);
 8002e54:	687b      	ldr	r3, [r7, #4]
 8002e56:	681b      	ldr	r3, [r3, #0]
 8002e58:	6899      	ldr	r1, [r3, #8]
 8002e5a:	687b      	ldr	r3, [r7, #4]
 8002e5c:	695b      	ldr	r3, [r3, #20]
 8002e5e:	029a      	lsls	r2, r3, #10
 8002e60:	687b      	ldr	r3, [r7, #4]
 8002e62:	681b      	ldr	r3, [r3, #0]
 8002e64:	430a      	orrs	r2, r1
 8002e66:	609a      	str	r2, [r3, #8]
}
 8002e68:	bf00      	nop
 8002e6a:	3714      	adds	r7, #20
 8002e6c:	46bd      	mov	sp, r7
 8002e6e:	f85d 7b04 	ldr.w	r7, [sp], #4
 8002e72:	4770      	bx	lr
 8002e74:	40012300 	.word	0x40012300
 8002e78:	0f000001 	.word	0x0f000001

08002e7c <HAL_ADCEx_InjectedConvCpltCallback>:
  * @param  hadc pointer to a ADC_HandleTypeDef structure that contains
  *         the configuration information for the specified ADC.
  * @retval None
  */
__weak void HAL_ADCEx_InjectedConvCpltCallback(ADC_HandleTypeDef *hadc)
{
 8002e7c:	b480      	push	{r7}
 8002e7e:	b083      	sub	sp, #12
 8002e80:	af00      	add	r7, sp, #0
 8002e82:	6078      	str	r0, [r7, #4]
  /* Prevent unused argument(s) compilation warning */
  UNUSED(hadc);
  /* NOTE : This function Should not be modified, when the callback is needed,
            the HAL_ADC_InjectedConvCpltCallback could be implemented in the user file
   */
}
 8002e84:	bf00      	nop
 8002e86:	370c      	adds	r7, #12
 8002e88:	46bd      	mov	sp, r7
 8002e8a:	f85d 7b04 	ldr.w	r7, [sp], #4
 8002e8e:	4770      	bx	lr

08002e90 <__NVIC_SetPriorityGrouping>:
           In case of a conflict between priority grouping and available
           priority bits (__NVIC_PRIO_BITS), the smallest possible priority group is set.
  \param [in]      PriorityGroup  Priority grouping field.
 */
__STATIC_INLINE void __NVIC_SetPriorityGrouping(uint32_t PriorityGroup)
{
 8002e90:	b480      	push	{r7}
 8002e92:	b085      	sub	sp, #20
 8002e94:	af00      	add	r7, sp, #0
 8002e96:	6078      	str	r0, [r7, #4]
  uint32_t reg_value;
  uint32_t PriorityGroupTmp = (PriorityGroup & (uint32_t)0x07UL);             /* only values 0..7 are used          */
 8002e98:	687b      	ldr	r3, [r7, #4]
 8002e9a:	f003 0307 	and.w	r3, r3, #7
 8002e9e:	60fb      	str	r3, [r7, #12]

  reg_value  =  SCB->AIRCR;                                                   /* read old register configuration    */
 8002ea0:	4b0c      	ldr	r3, [pc, #48]	@ (8002ed4 <__NVIC_SetPriorityGrouping+0x44>)
 8002ea2:	68db      	ldr	r3, [r3, #12]
 8002ea4:	60bb      	str	r3, [r7, #8]
  reg_value &= ~((uint32_t)(SCB_AIRCR_VECTKEY_Msk | SCB_AIRCR_PRIGROUP_Msk)); /* clear bits to change               */
 8002ea6:	68ba      	ldr	r2, [r7, #8]
 8002ea8:	f64f 03ff 	movw	r3, #63743	@ 0xf8ff
 8002eac:	4013      	ands	r3, r2
 8002eae:	60bb      	str	r3, [r7, #8]
  reg_value  =  (reg_value                                   |
                ((uint32_t)0x5FAUL << SCB_AIRCR_VECTKEY_Pos) |
                (PriorityGroupTmp << SCB_AIRCR_PRIGROUP_Pos)  );              /* Insert write key and priority group */
 8002eb0:	68fb      	ldr	r3, [r7, #12]
 8002eb2:	021a      	lsls	r2, r3, #8
                ((uint32_t)0x5FAUL << SCB_AIRCR_VECTKEY_Pos) |
 8002eb4:	68bb      	ldr	r3, [r7, #8]
 8002eb6:	4313      	orrs	r3, r2
  reg_value  =  (reg_value                                   |
 8002eb8:	f043 63bf 	orr.w	r3, r3, #100139008	@ 0x5f80000
 8002ebc:	f443 3300 	orr.w	r3, r3, #131072	@ 0x20000
 8002ec0:	60bb      	str	r3, [r7, #8]
  SCB->AIRCR =  reg_value;
 8002ec2:	4a04      	ldr	r2, [pc, #16]	@ (8002ed4 <__NVIC_SetPriorityGrouping+0x44>)
 8002ec4:	68bb      	ldr	r3, [r7, #8]
 8002ec6:	60d3      	str	r3, [r2, #12]
}
 8002ec8:	bf00      	nop
 8002eca:	3714      	adds	r7, #20
 8002ecc:	46bd      	mov	sp, r7
 8002ece:	f85d 7b04 	ldr.w	r7, [sp], #4
 8002ed2:	4770      	bx	lr
 8002ed4:	e000ed00 	.word	0xe000ed00

08002ed8 <__NVIC_GetPriorityGrouping>:
  \brief   Get Priority Grouping
  \details Reads the priority grouping field from the NVIC Interrupt Controller.
  \return                Priority grouping field (SCB->AIRCR [10:8] PRIGROUP field).
 */
__STATIC_INLINE uint32_t __NVIC_GetPriorityGrouping(void)
{
 8002ed8:	b480      	push	{r7}
 8002eda:	af00      	add	r7, sp, #0
  return ((uint32_t)((SCB->AIRCR & SCB_AIRCR_PRIGROUP_Msk) >> SCB_AIRCR_PRIGROUP_Pos));
 8002edc:	4b04      	ldr	r3, [pc, #16]	@ (8002ef0 <__NVIC_GetPriorityGrouping+0x18>)
 8002ede:	68db      	ldr	r3, [r3, #12]
 8002ee0:	0a1b      	lsrs	r3, r3, #8
 8002ee2:	f003 0307 	and.w	r3, r3, #7
}
 8002ee6:	4618      	mov	r0, r3
 8002ee8:	46bd      	mov	sp, r7
 8002eea:	f85d 7b04 	ldr.w	r7, [sp], #4
 8002eee:	4770      	bx	lr
 8002ef0:	e000ed00 	.word	0xe000ed00

08002ef4 <__NVIC_EnableIRQ>:
  \details Enables a device specific interrupt in the NVIC interrupt controller.
  \param [in]      IRQn  Device specific interrupt number.
  \note    IRQn must not be negative.
 */
__STATIC_INLINE void __NVIC_EnableIRQ(IRQn_Type IRQn)
{
 8002ef4:	b480      	push	{r7}
 8002ef6:	b083      	sub	sp, #12
 8002ef8:	af00      	add	r7, sp, #0
 8002efa:	4603      	mov	r3, r0
 8002efc:	71fb      	strb	r3, [r7, #7]
  if ((int32_t)(IRQn) >= 0)
 8002efe:	f997 3007 	ldrsb.w	r3, [r7, #7]
 8002f02:	2b00      	cmp	r3, #0
 8002f04:	db0b      	blt.n	8002f1e <__NVIC_EnableIRQ+0x2a>
  {
    __COMPILER_BARRIER();
    NVIC->ISER[(((uint32_t)IRQn) >> 5UL)] = (uint32_t)(1UL << (((uint32_t)IRQn) & 0x1FUL));
 8002f06:	79fb      	ldrb	r3, [r7, #7]
 8002f08:	f003 021f 	and.w	r2, r3, #31
 8002f0c:	4907      	ldr	r1, [pc, #28]	@ (8002f2c <__NVIC_EnableIRQ+0x38>)
 8002f0e:	f997 3007 	ldrsb.w	r3, [r7, #7]
 8002f12:	095b      	lsrs	r3, r3, #5
 8002f14:	2001      	movs	r0, #1
 8002f16:	fa00 f202 	lsl.w	r2, r0, r2
 8002f1a:	f841 2023 	str.w	r2, [r1, r3, lsl #2]
    __COMPILER_BARRIER();
  }
}
 8002f1e:	bf00      	nop
 8002f20:	370c      	adds	r7, #12
 8002f22:	46bd      	mov	sp, r7
 8002f24:	f85d 7b04 	ldr.w	r7, [sp], #4
 8002f28:	4770      	bx	lr
 8002f2a:	bf00      	nop
 8002f2c:	e000e100 	.word	0xe000e100

08002f30 <__NVIC_SetPriority>:
  \param [in]      IRQn  Interrupt number.
  \param [in]  priority  Priority to set.
  \note    The priority cannot be set for every processor exception.
 */
__STATIC_INLINE void __NVIC_SetPriority(IRQn_Type IRQn, uint32_t priority)
{
 8002f30:	b480      	push	{r7}
 8002f32:	b083      	sub	sp, #12
 8002f34:	af00      	add	r7, sp, #0
 8002f36:	4603      	mov	r3, r0
 8002f38:	6039      	str	r1, [r7, #0]
 8002f3a:	71fb      	strb	r3, [r7, #7]
  if ((int32_t)(IRQn) >= 0)
 8002f3c:	f997 3007 	ldrsb.w	r3, [r7, #7]
 8002f40:	2b00      	cmp	r3, #0
 8002f42:	db0a      	blt.n	8002f5a <__NVIC_SetPriority+0x2a>
  {
    NVIC->IP[((uint32_t)IRQn)]               = (uint8_t)((priority << (8U - __NVIC_PRIO_BITS)) & (uint32_t)0xFFUL);
 8002f44:	683b      	ldr	r3, [r7, #0]
 8002f46:	b2da      	uxtb	r2, r3
 8002f48:	490c      	ldr	r1, [pc, #48]	@ (8002f7c <__NVIC_SetPriority+0x4c>)
 8002f4a:	f997 3007 	ldrsb.w	r3, [r7, #7]
 8002f4e:	0112      	lsls	r2, r2, #4
 8002f50:	b2d2      	uxtb	r2, r2
 8002f52:	440b      	add	r3, r1
 8002f54:	f883 2300 	strb.w	r2, [r3, #768]	@ 0x300
  }
  else
  {
    SCB->SHP[(((uint32_t)IRQn) & 0xFUL)-4UL] = (uint8_t)((priority << (8U - __NVIC_PRIO_BITS)) & (uint32_t)0xFFUL);
  }
}
 8002f58:	e00a      	b.n	8002f70 <__NVIC_SetPriority+0x40>
    SCB->SHP[(((uint32_t)IRQn) & 0xFUL)-4UL] = (uint8_t)((priority << (8U - __NVIC_PRIO_BITS)) & (uint32_t)0xFFUL);
 8002f5a:	683b      	ldr	r3, [r7, #0]
 8002f5c:	b2da      	uxtb	r2, r3
 8002f5e:	4908      	ldr	r1, [pc, #32]	@ (8002f80 <__NVIC_SetPriority+0x50>)
 8002f60:	79fb      	ldrb	r3, [r7, #7]
 8002f62:	f003 030f 	and.w	r3, r3, #15
 8002f66:	3b04      	subs	r3, #4
 8002f68:	0112      	lsls	r2, r2, #4
 8002f6a:	b2d2      	uxtb	r2, r2
 8002f6c:	440b      	add	r3, r1
 8002f6e:	761a      	strb	r2, [r3, #24]
}
 8002f70:	bf00      	nop
 8002f72:	370c      	adds	r7, #12
 8002f74:	46bd      	mov	sp, r7
 8002f76:	f85d 7b04 	ldr.w	r7, [sp], #4
 8002f7a:	4770      	bx	lr
 8002f7c:	e000e100 	.word	0xe000e100
 8002f80:	e000ed00 	.word	0xe000ed00

08002f84 <NVIC_EncodePriority>:
  \param [in]   PreemptPriority  Preemptive priority value (starting from 0).
  \param [in]       SubPriority  Subpriority value (starting from 0).
  \return                        Encoded priority. Value can be used in the function \ref NVIC_SetPriority().
 */
__STATIC_INLINE uint32_t NVIC_EncodePriority (uint32_t PriorityGroup, uint32_t PreemptPriority, uint32_t SubPriority)
{
 8002f84:	b480      	push	{r7}
 8002f86:	b089      	sub	sp, #36	@ 0x24
 8002f88:	af00      	add	r7, sp, #0
 8002f8a:	60f8      	str	r0, [r7, #12]
 8002f8c:	60b9      	str	r1, [r7, #8]
 8002f8e:	607a      	str	r2, [r7, #4]
  uint32_t PriorityGroupTmp = (PriorityGroup & (uint32_t)0x07UL);   /* only values 0..7 are used          */
 8002f90:	68fb      	ldr	r3, [r7, #12]
 8002f92:	f003 0307 	and.w	r3, r3, #7
 8002f96:	61fb      	str	r3, [r7, #28]
  uint32_t PreemptPriorityBits;
  uint32_t SubPriorityBits;

  PreemptPriorityBits = ((7UL - PriorityGroupTmp) > (uint32_t)(__NVIC_PRIO_BITS)) ? (uint32_t)(__NVIC_PRIO_BITS) : (uint32_t)(7UL - PriorityGroupTmp);
 8002f98:	69fb      	ldr	r3, [r7, #28]
 8002f9a:	f1c3 0307 	rsb	r3, r3, #7
 8002f9e:	2b04      	cmp	r3, #4
 8002fa0:	bf28      	it	cs
 8002fa2:	2304      	movcs	r3, #4
 8002fa4:	61bb      	str	r3, [r7, #24]
  SubPriorityBits     = ((PriorityGroupTmp + (uint32_t)(__NVIC_PRIO_BITS)) < (uint32_t)7UL) ? (uint32_t)0UL : (uint32_t)((PriorityGroupTmp - 7UL) + (uint32_t)(__NVIC_PRIO_BITS));
 8002fa6:	69fb      	ldr	r3, [r7, #28]
 8002fa8:	3304      	adds	r3, #4
 8002faa:	2b06      	cmp	r3, #6
 8002fac:	d902      	bls.n	8002fb4 <NVIC_EncodePriority+0x30>
 8002fae:	69fb      	ldr	r3, [r7, #28]
 8002fb0:	3b03      	subs	r3, #3
 8002fb2:	e000      	b.n	8002fb6 <NVIC_EncodePriority+0x32>
 8002fb4:	2300      	movs	r3, #0
 8002fb6:	617b      	str	r3, [r7, #20]

  return (
           ((PreemptPriority & (uint32_t)((1UL << (PreemptPriorityBits)) - 1UL)) << SubPriorityBits) |
 8002fb8:	f04f 32ff 	mov.w	r2, #4294967295
 8002fbc:	69bb      	ldr	r3, [r7, #24]
 8002fbe:	fa02 f303 	lsl.w	r3, r2, r3
 8002fc2:	43da      	mvns	r2, r3
 8002fc4:	68bb      	ldr	r3, [r7, #8]
 8002fc6:	401a      	ands	r2, r3
 8002fc8:	697b      	ldr	r3, [r7, #20]
 8002fca:	409a      	lsls	r2, r3
           ((SubPriority     & (uint32_t)((1UL << (SubPriorityBits    )) - 1UL)))
 8002fcc:	f04f 31ff 	mov.w	r1, #4294967295
 8002fd0:	697b      	ldr	r3, [r7, #20]
 8002fd2:	fa01 f303 	lsl.w	r3, r1, r3
 8002fd6:	43d9      	mvns	r1, r3
 8002fd8:	687b      	ldr	r3, [r7, #4]
 8002fda:	400b      	ands	r3, r1
           ((PreemptPriority & (uint32_t)((1UL << (PreemptPriorityBits)) - 1UL)) << SubPriorityBits) |
 8002fdc:	4313      	orrs	r3, r2
         );
}
 8002fde:	4618      	mov	r0, r3
 8002fe0:	3724      	adds	r7, #36	@ 0x24
 8002fe2:	46bd      	mov	sp, r7
 8002fe4:	f85d 7b04 	ldr.w	r7, [sp], #4
 8002fe8:	4770      	bx	lr
	...

08002fec <SysTick_Config>:
  \note    When the variable <b>__Vendor_SysTickConfig</b> is set to 1, then the
           function <b>SysTick_Config</b> is not included. In this case, the file <b><i>device</i>.h</b>
           must contain a vendor-specific implementation of this function.
 */
__STATIC_INLINE uint32_t SysTick_Config(uint32_t ticks)
{
 8002fec:	b580      	push	{r7, lr}
 8002fee:	b082      	sub	sp, #8
 8002ff0:	af00      	add	r7, sp, #0
 8002ff2:	6078      	str	r0, [r7, #4]
  if ((ticks - 1UL) > SysTick_LOAD_RELOAD_Msk)
 8002ff4:	687b      	ldr	r3, [r7, #4]
 8002ff6:	3b01      	subs	r3, #1
 8002ff8:	f1b3 7f80 	cmp.w	r3, #16777216	@ 0x1000000
 8002ffc:	d301      	bcc.n	8003002 <SysTick_Config+0x16>
  {
    return (1UL);                                                   /* Reload value impossible */
 8002ffe:	2301      	movs	r3, #1
 8003000:	e00f      	b.n	8003022 <SysTick_Config+0x36>
  }

  SysTick->LOAD  = (uint32_t)(ticks - 1UL);                         /* set reload register */
 8003002:	4a0a      	ldr	r2, [pc, #40]	@ (800302c <SysTick_Config+0x40>)
 8003004:	687b      	ldr	r3, [r7, #4]
 8003006:	3b01      	subs	r3, #1
 8003008:	6053      	str	r3, [r2, #4]
  NVIC_SetPriority (SysTick_IRQn, (1UL << __NVIC_PRIO_BITS) - 1UL); /* set Priority for Systick Interrupt */
 800300a:	210f      	movs	r1, #15
 800300c:	f04f 30ff 	mov.w	r0, #4294967295
 8003010:	f7ff ff8e 	bl	8002f30 <__NVIC_SetPriority>
  SysTick->VAL   = 0UL;                                             /* Load the SysTick Counter Value */
 8003014:	4b05      	ldr	r3, [pc, #20]	@ (800302c <SysTick_Config+0x40>)
 8003016:	2200      	movs	r2, #0
 8003018:	609a      	str	r2, [r3, #8]
  SysTick->CTRL  = SysTick_CTRL_CLKSOURCE_Msk |
 800301a:	4b04      	ldr	r3, [pc, #16]	@ (800302c <SysTick_Config+0x40>)
 800301c:	2207      	movs	r2, #7
 800301e:	601a      	str	r2, [r3, #0]
                   SysTick_CTRL_TICKINT_Msk   |
                   SysTick_CTRL_ENABLE_Msk;                         /* Enable SysTick IRQ and SysTick Timer */
  return (0UL);                                                     /* Function successful */
 8003020:	2300      	movs	r3, #0
}
 8003022:	4618      	mov	r0, r3
 8003024:	3708      	adds	r7, #8
 8003026:	46bd      	mov	sp, r7
 8003028:	bd80      	pop	{r7, pc}
 800302a:	bf00      	nop
 800302c:	e000e010 	.word	0xe000e010

08003030 <HAL_NVIC_SetPriorityGrouping>:
  * @note   When the NVIC_PriorityGroup_0 is selected, IRQ preemption is no more possible. 
  *         The pending IRQ priority will be managed only by the subpriority. 
  * @retval None
  */
void HAL_NVIC_SetPriorityGrouping(uint32_t PriorityGroup)
{
 8003030:	b580      	push	{r7, lr}
 8003032:	b082      	sub	sp, #8
 8003034:	af00      	add	r7, sp, #0
 8003036:	6078      	str	r0, [r7, #4]
  /* Check the parameters */
  assert_param(IS_NVIC_PRIORITY_GROUP(PriorityGroup));
  
  /* Set the PRIGROUP[10:8] bits according to the PriorityGroup parameter value */
  NVIC_SetPriorityGrouping(PriorityGroup);
 8003038:	6878      	ldr	r0, [r7, #4]
 800303a:	f7ff ff29 	bl	8002e90 <__NVIC_SetPriorityGrouping>
}
 800303e:	bf00      	nop
 8003040:	3708      	adds	r7, #8
 8003042:	46bd      	mov	sp, r7
 8003044:	bd80      	pop	{r7, pc}

08003046 <HAL_NVIC_SetPriority>:
  *         This parameter can be a value between 0 and 15
  *         A lower priority value indicates a higher priority.          
  * @retval None
  */
void HAL_NVIC_SetPriority(IRQn_Type IRQn, uint32_t PreemptPriority, uint32_t SubPriority)
{ 
 8003046:	b580      	push	{r7, lr}
 8003048:	b086      	sub	sp, #24
 800304a:	af00      	add	r7, sp, #0
 800304c:	4603      	mov	r3, r0
 800304e:	60b9      	str	r1, [r7, #8]
 8003050:	607a      	str	r2, [r7, #4]
 8003052:	73fb      	strb	r3, [r7, #15]
  uint32_t prioritygroup = 0x00U;
 8003054:	2300      	movs	r3, #0
 8003056:	617b      	str	r3, [r7, #20]
  
  /* Check the parameters */
  assert_param(IS_NVIC_SUB_PRIORITY(SubPriority));
  assert_param(IS_NVIC_PREEMPTION_PRIORITY(PreemptPriority));
  
  prioritygroup = NVIC_GetPriorityGrouping();
 8003058:	f7ff ff3e 	bl	8002ed8 <__NVIC_GetPriorityGrouping>
 800305c:	6178      	str	r0, [r7, #20]
  
  NVIC_SetPriority(IRQn, NVIC_EncodePriority(prioritygroup, PreemptPriority, SubPriority));
 800305e:	687a      	ldr	r2, [r7, #4]
 8003060:	68b9      	ldr	r1, [r7, #8]
 8003062:	6978      	ldr	r0, [r7, #20]
 8003064:	f7ff ff8e 	bl	8002f84 <NVIC_EncodePriority>
 8003068:	4602      	mov	r2, r0
 800306a:	f997 300f 	ldrsb.w	r3, [r7, #15]
 800306e:	4611      	mov	r1, r2
 8003070:	4618      	mov	r0, r3
 8003072:	f7ff ff5d 	bl	8002f30 <__NVIC_SetPriority>
}
 8003076:	bf00      	nop
 8003078:	3718      	adds	r7, #24
 800307a:	46bd      	mov	sp, r7
 800307c:	bd80      	pop	{r7, pc}

0800307e <HAL_NVIC_EnableIRQ>:
  *         This parameter can be an enumerator of IRQn_Type enumeration
  *         (For the complete STM32 Devices IRQ Channels list, please refer to the appropriate CMSIS device file (stm32f4xxxx.h))
  * @retval None
  */
void HAL_NVIC_EnableIRQ(IRQn_Type IRQn)
{
 800307e:	b580      	push	{r7, lr}
 8003080:	b082      	sub	sp, #8
 8003082:	af00      	add	r7, sp, #0
 8003084:	4603      	mov	r3, r0
 8003086:	71fb      	strb	r3, [r7, #7]
  /* Check the parameters */
  assert_param(IS_NVIC_DEVICE_IRQ(IRQn));
  
  /* Enable interrupt */
  NVIC_EnableIRQ(IRQn);
 8003088:	f997 3007 	ldrsb.w	r3, [r7, #7]
 800308c:	4618      	mov	r0, r3
 800308e:	f7ff ff31 	bl	8002ef4 <__NVIC_EnableIRQ>
}
 8003092:	bf00      	nop
 8003094:	3708      	adds	r7, #8
 8003096:	46bd      	mov	sp, r7
 8003098:	bd80      	pop	{r7, pc}

0800309a <HAL_SYSTICK_Config>:
  * @param  TicksNumb Specifies the ticks Number of ticks between two interrupts.
  * @retval status:  - 0  Function succeeded.
  *                  - 1  Function failed.
  */
uint32_t HAL_SYSTICK_Config(uint32_t TicksNumb)
{
 800309a:	b580      	push	{r7, lr}
 800309c:	b082      	sub	sp, #8
 800309e:	af00      	add	r7, sp, #0
 80030a0:	6078      	str	r0, [r7, #4]
   return SysTick_Config(TicksNumb);
 80030a2:	6878      	ldr	r0, [r7, #4]
 80030a4:	f7ff ffa2 	bl	8002fec <SysTick_Config>
 80030a8:	4603      	mov	r3, r0
}
 80030aa:	4618      	mov	r0, r3
 80030ac:	3708      	adds	r7, #8
 80030ae:	46bd      	mov	sp, r7
 80030b0:	bd80      	pop	{r7, pc}
	...

080030b4 <HAL_GPIO_Init>:
  * @param  GPIO_Init pointer to a GPIO_InitTypeDef structure that contains
  *         the configuration information for the specified GPIO peripheral.
  * @retval None
  */
void HAL_GPIO_Init(GPIO_TypeDef  *GPIOx, GPIO_InitTypeDef *GPIO_Init)
{
 80030b4:	b480      	push	{r7}
 80030b6:	b089      	sub	sp, #36	@ 0x24
 80030b8:	af00      	add	r7, sp, #0
 80030ba:	6078      	str	r0, [r7, #4]
 80030bc:	6039      	str	r1, [r7, #0]
  uint32_t position;
  uint32_t ioposition = 0x00U;
 80030be:	2300      	movs	r3, #0
 80030c0:	617b      	str	r3, [r7, #20]
  uint32_t iocurrent = 0x00U;
 80030c2:	2300      	movs	r3, #0
 80030c4:	613b      	str	r3, [r7, #16]
  uint32_t temp = 0x00U;
 80030c6:	2300      	movs	r3, #0
 80030c8:	61bb      	str	r3, [r7, #24]
  assert_param(IS_GPIO_ALL_INSTANCE(GPIOx));
  assert_param(IS_GPIO_PIN(GPIO_Init->Pin));
  assert_param(IS_GPIO_MODE(GPIO_Init->Mode));

  /* Configure the port pins */
  for(position = 0U; position < GPIO_NUMBER; position++)
 80030ca:	2300      	movs	r3, #0
 80030cc:	61fb      	str	r3, [r7, #28]
 80030ce:	e16b      	b.n	80033a8 <HAL_GPIO_Init+0x2f4>
  {
    /* Get the IO position */
    ioposition = 0x01U << position;
 80030d0:	2201      	movs	r2, #1
 80030d2:	69fb      	ldr	r3, [r7, #28]
 80030d4:	fa02 f303 	lsl.w	r3, r2, r3
 80030d8:	617b      	str	r3, [r7, #20]
    /* Get the current IO position */
    iocurrent = (uint32_t)(GPIO_Init->Pin) & ioposition;
 80030da:	683b      	ldr	r3, [r7, #0]
 80030dc:	681b      	ldr	r3, [r3, #0]
 80030de:	697a      	ldr	r2, [r7, #20]
 80030e0:	4013      	ands	r3, r2
 80030e2:	613b      	str	r3, [r7, #16]

    if(iocurrent == ioposition)
 80030e4:	693a      	ldr	r2, [r7, #16]
 80030e6:	697b      	ldr	r3, [r7, #20]
 80030e8:	429a      	cmp	r2, r3
 80030ea:	f040 815a 	bne.w	80033a2 <HAL_GPIO_Init+0x2ee>
    {
      /*--------------------- GPIO Mode Configuration ------------------------*/
      /* In case of Output or Alternate function mode selection */
      if(((GPIO_Init->Mode & GPIO_MODE) == MODE_OUTPUT) || \
 80030ee:	683b      	ldr	r3, [r7, #0]
 80030f0:	685b      	ldr	r3, [r3, #4]
 80030f2:	f003 0303 	and.w	r3, r3, #3
 80030f6:	2b01      	cmp	r3, #1
 80030f8:	d005      	beq.n	8003106 <HAL_GPIO_Init+0x52>
          (GPIO_Init->Mode & GPIO_MODE) == MODE_AF)
 80030fa:	683b      	ldr	r3, [r7, #0]
 80030fc:	685b      	ldr	r3, [r3, #4]
 80030fe:	f003 0303 	and.w	r3, r3, #3
      if(((GPIO_Init->Mode & GPIO_MODE) == MODE_OUTPUT) || \
 8003102:	2b02      	cmp	r3, #2
 8003104:	d130      	bne.n	8003168 <HAL_GPIO_Init+0xb4>
      {
        /* Check the Speed parameter */
        assert_param(IS_GPIO_SPEED(GPIO_Init->Speed));
        /* Configure the IO Speed */
        temp = GPIOx->OSPEEDR; 
 8003106:	687b      	ldr	r3, [r7, #4]
 8003108:	689b      	ldr	r3, [r3, #8]
 800310a:	61bb      	str	r3, [r7, #24]
        temp &= ~(GPIO_OSPEEDER_OSPEEDR0 << (position * 2U));
 800310c:	69fb      	ldr	r3, [r7, #28]
 800310e:	005b      	lsls	r3, r3, #1
 8003110:	2203      	movs	r2, #3
 8003112:	fa02 f303 	lsl.w	r3, r2, r3
 8003116:	43db      	mvns	r3, r3
 8003118:	69ba      	ldr	r2, [r7, #24]
 800311a:	4013      	ands	r3, r2
 800311c:	61bb      	str	r3, [r7, #24]
        temp |= (GPIO_Init->Speed << (position * 2U));
 800311e:	683b      	ldr	r3, [r7, #0]
 8003120:	68da      	ldr	r2, [r3, #12]
 8003122:	69fb      	ldr	r3, [r7, #28]
 8003124:	005b      	lsls	r3, r3, #1
 8003126:	fa02 f303 	lsl.w	r3, r2, r3
 800312a:	69ba      	ldr	r2, [r7, #24]
 800312c:	4313      	orrs	r3, r2
 800312e:	61bb      	str	r3, [r7, #24]
        GPIOx->OSPEEDR = temp;
 8003130:	687b      	ldr	r3, [r7, #4]
 8003132:	69ba      	ldr	r2, [r7, #24]
 8003134:	609a      	str	r2, [r3, #8]

        /* Configure the IO Output Type */
        temp = GPIOx->OTYPER;
 8003136:	687b      	ldr	r3, [r7, #4]
 8003138:	685b      	ldr	r3, [r3, #4]
 800313a:	61bb      	str	r3, [r7, #24]
        temp &= ~(GPIO_OTYPER_OT_0 << position) ;
 800313c:	2201      	movs	r2, #1
 800313e:	69fb      	ldr	r3, [r7, #28]
 8003140:	fa02 f303 	lsl.w	r3, r2, r3
 8003144:	43db      	mvns	r3, r3
 8003146:	69ba      	ldr	r2, [r7, #24]
 8003148:	4013      	ands	r3, r2
 800314a:	61bb      	str	r3, [r7, #24]
        temp |= (((GPIO_Init->Mode & OUTPUT_TYPE) >> OUTPUT_TYPE_Pos) << position);
 800314c:	683b      	ldr	r3, [r7, #0]
 800314e:	685b      	ldr	r3, [r3, #4]
 8003150:	091b      	lsrs	r3, r3, #4
 8003152:	f003 0201 	and.w	r2, r3, #1
 8003156:	69fb      	ldr	r3, [r7, #28]
 8003158:	fa02 f303 	lsl.w	r3, r2, r3
 800315c:	69ba      	ldr	r2, [r7, #24]
 800315e:	4313      	orrs	r3, r2
 8003160:	61bb      	str	r3, [r7, #24]
        GPIOx->OTYPER = temp;
 8003162:	687b      	ldr	r3, [r7, #4]
 8003164:	69ba      	ldr	r2, [r7, #24]
 8003166:	605a      	str	r2, [r3, #4]
       }

      if((GPIO_Init->Mode & GPIO_MODE) != MODE_ANALOG)
 8003168:	683b      	ldr	r3, [r7, #0]
 800316a:	685b      	ldr	r3, [r3, #4]
 800316c:	f003 0303 	and.w	r3, r3, #3
 8003170:	2b03      	cmp	r3, #3
 8003172:	d017      	beq.n	80031a4 <HAL_GPIO_Init+0xf0>
      {
        /* Check the parameters */
        assert_param(IS_GPIO_PULL(GPIO_Init->Pull));
        
        /* Activate the Pull-up or Pull down resistor for the current IO */
        temp = GPIOx->PUPDR;
 8003174:	687b      	ldr	r3, [r7, #4]
 8003176:	68db      	ldr	r3, [r3, #12]
 8003178:	61bb      	str	r3, [r7, #24]
        temp &= ~(GPIO_PUPDR_PUPDR0 << (position * 2U));
 800317a:	69fb      	ldr	r3, [r7, #28]
 800317c:	005b      	lsls	r3, r3, #1
 800317e:	2203      	movs	r2, #3
 8003180:	fa02 f303 	lsl.w	r3, r2, r3
 8003184:	43db      	mvns	r3, r3
 8003186:	69ba      	ldr	r2, [r7, #24]
 8003188:	4013      	ands	r3, r2
 800318a:	61bb      	str	r3, [r7, #24]
        temp |= ((GPIO_Init->Pull) << (position * 2U));
 800318c:	683b      	ldr	r3, [r7, #0]
 800318e:	689a      	ldr	r2, [r3, #8]
 8003190:	69fb      	ldr	r3, [r7, #28]
 8003192:	005b      	lsls	r3, r3, #1
 8003194:	fa02 f303 	lsl.w	r3, r2, r3
 8003198:	69ba      	ldr	r2, [r7, #24]
 800319a:	4313      	orrs	r3, r2
 800319c:	61bb      	str	r3, [r7, #24]
        GPIOx->PUPDR = temp;
 800319e:	687b      	ldr	r3, [r7, #4]
 80031a0:	69ba      	ldr	r2, [r7, #24]
 80031a2:	60da      	str	r2, [r3, #12]
      }

      /* In case of Alternate function mode selection */
      if((GPIO_Init->Mode & GPIO_MODE) == MODE_AF)
 80031a4:	683b      	ldr	r3, [r7, #0]
 80031a6:	685b      	ldr	r3, [r3, #4]
 80031a8:	f003 0303 	and.w	r3, r3, #3
 80031ac:	2b02      	cmp	r3, #2
 80031ae:	d123      	bne.n	80031f8 <HAL_GPIO_Init+0x144>
      {
        /* Check the Alternate function parameter */
        assert_param(IS_GPIO_AF(GPIO_Init->Alternate));
        /* Configure Alternate function mapped with the current IO */
        temp = GPIOx->AFR[position >> 3U];
 80031b0:	69fb      	ldr	r3, [r7, #28]
 80031b2:	08da      	lsrs	r2, r3, #3
 80031b4:	687b      	ldr	r3, [r7, #4]
 80031b6:	3208      	adds	r2, #8
 80031b8:	f853 3022 	ldr.w	r3, [r3, r2, lsl #2]
 80031bc:	61bb      	str	r3, [r7, #24]
        temp &= ~(0xFU << ((uint32_t)(position & 0x07U) * 4U)) ;
 80031be:	69fb      	ldr	r3, [r7, #28]
 80031c0:	f003 0307 	and.w	r3, r3, #7
 80031c4:	009b      	lsls	r3, r3, #2
 80031c6:	220f      	movs	r2, #15
 80031c8:	fa02 f303 	lsl.w	r3, r2, r3
 80031cc:	43db      	mvns	r3, r3
 80031ce:	69ba      	ldr	r2, [r7, #24]
 80031d0:	4013      	ands	r3, r2
 80031d2:	61bb      	str	r3, [r7, #24]
        temp |= ((uint32_t)(GPIO_Init->Alternate) << (((uint32_t)position & 0x07U) * 4U));
 80031d4:	683b      	ldr	r3, [r7, #0]
 80031d6:	691a      	ldr	r2, [r3, #16]
 80031d8:	69fb      	ldr	r3, [r7, #28]
 80031da:	f003 0307 	and.w	r3, r3, #7
 80031de:	009b      	lsls	r3, r3, #2
 80031e0:	fa02 f303 	lsl.w	r3, r2, r3
 80031e4:	69ba      	ldr	r2, [r7, #24]
 80031e6:	4313      	orrs	r3, r2
 80031e8:	61bb      	str	r3, [r7, #24]
        GPIOx->AFR[position >> 3U] = temp;
 80031ea:	69fb      	ldr	r3, [r7, #28]
 80031ec:	08da      	lsrs	r2, r3, #3
 80031ee:	687b      	ldr	r3, [r7, #4]
 80031f0:	3208      	adds	r2, #8
 80031f2:	69b9      	ldr	r1, [r7, #24]
 80031f4:	f843 1022 	str.w	r1, [r3, r2, lsl #2]
      }

      /* Configure IO Direction mode (Input, Output, Alternate or Analog) */
      temp = GPIOx->MODER;
 80031f8:	687b      	ldr	r3, [r7, #4]
 80031fa:	681b      	ldr	r3, [r3, #0]
 80031fc:	61bb      	str	r3, [r7, #24]
      temp &= ~(GPIO_MODER_MODER0 << (position * 2U));
 80031fe:	69fb      	ldr	r3, [r7, #28]
 8003200:	005b      	lsls	r3, r3, #1
 8003202:	2203      	movs	r2, #3
 8003204:	fa02 f303 	lsl.w	r3, r2, r3
 8003208:	43db      	mvns	r3, r3
 800320a:	69ba      	ldr	r2, [r7, #24]
 800320c:	4013      	ands	r3, r2
 800320e:	61bb      	str	r3, [r7, #24]
      temp |= ((GPIO_Init->Mode & GPIO_MODE) << (position * 2U));
 8003210:	683b      	ldr	r3, [r7, #0]
 8003212:	685b      	ldr	r3, [r3, #4]
 8003214:	f003 0203 	and.w	r2, r3, #3
 8003218:	69fb      	ldr	r3, [r7, #28]
 800321a:	005b      	lsls	r3, r3, #1
 800321c:	fa02 f303 	lsl.w	r3, r2, r3
 8003220:	69ba      	ldr	r2, [r7, #24]
 8003222:	4313      	orrs	r3, r2
 8003224:	61bb      	str	r3, [r7, #24]
      GPIOx->MODER = temp;
 8003226:	687b      	ldr	r3, [r7, #4]
 8003228:	69ba      	ldr	r2, [r7, #24]
 800322a:	601a      	str	r2, [r3, #0]

      /*--------------------- EXTI Mode Configuration ------------------------*/
      /* Configure the External Interrupt or event for the current IO */
      if((GPIO_Init->Mode & EXTI_MODE) != 0x00U)
 800322c:	683b      	ldr	r3, [r7, #0]
 800322e:	685b      	ldr	r3, [r3, #4]
 8003230:	f403 3340 	and.w	r3, r3, #196608	@ 0x30000
 8003234:	2b00      	cmp	r3, #0
 8003236:	f000 80b4 	beq.w	80033a2 <HAL_GPIO_Init+0x2ee>
      {
        /* Enable SYSCFG Clock */
        __HAL_RCC_SYSCFG_CLK_ENABLE();
 800323a:	2300      	movs	r3, #0
 800323c:	60fb      	str	r3, [r7, #12]
 800323e:	4b60      	ldr	r3, [pc, #384]	@ (80033c0 <HAL_GPIO_Init+0x30c>)
 8003240:	6c5b      	ldr	r3, [r3, #68]	@ 0x44
 8003242:	4a5f      	ldr	r2, [pc, #380]	@ (80033c0 <HAL_GPIO_Init+0x30c>)
 8003244:	f443 4380 	orr.w	r3, r3, #16384	@ 0x4000
 8003248:	6453      	str	r3, [r2, #68]	@ 0x44
 800324a:	4b5d      	ldr	r3, [pc, #372]	@ (80033c0 <HAL_GPIO_Init+0x30c>)
 800324c:	6c5b      	ldr	r3, [r3, #68]	@ 0x44
 800324e:	f403 4380 	and.w	r3, r3, #16384	@ 0x4000
 8003252:	60fb      	str	r3, [r7, #12]
 8003254:	68fb      	ldr	r3, [r7, #12]

        temp = SYSCFG->EXTICR[position >> 2U];
 8003256:	4a5b      	ldr	r2, [pc, #364]	@ (80033c4 <HAL_GPIO_Init+0x310>)
 8003258:	69fb      	ldr	r3, [r7, #28]
 800325a:	089b      	lsrs	r3, r3, #2
 800325c:	3302      	adds	r3, #2
 800325e:	f852 3023 	ldr.w	r3, [r2, r3, lsl #2]
 8003262:	61bb      	str	r3, [r7, #24]
        temp &= ~(0x0FU << (4U * (position & 0x03U)));
 8003264:	69fb      	ldr	r3, [r7, #28]
 8003266:	f003 0303 	and.w	r3, r3, #3
 800326a:	009b      	lsls	r3, r3, #2
 800326c:	220f      	movs	r2, #15
 800326e:	fa02 f303 	lsl.w	r3, r2, r3
 8003272:	43db      	mvns	r3, r3
 8003274:	69ba      	ldr	r2, [r7, #24]
 8003276:	4013      	ands	r3, r2
 8003278:	61bb      	str	r3, [r7, #24]
        temp |= ((uint32_t)(GPIO_GET_INDEX(GPIOx)) << (4U * (position & 0x03U)));
 800327a:	687b      	ldr	r3, [r7, #4]
 800327c:	4a52      	ldr	r2, [pc, #328]	@ (80033c8 <HAL_GPIO_Init+0x314>)
 800327e:	4293      	cmp	r3, r2
 8003280:	d02b      	beq.n	80032da <HAL_GPIO_Init+0x226>
 8003282:	687b      	ldr	r3, [r7, #4]
 8003284:	4a51      	ldr	r2, [pc, #324]	@ (80033cc <HAL_GPIO_Init+0x318>)
 8003286:	4293      	cmp	r3, r2
 8003288:	d025      	beq.n	80032d6 <HAL_GPIO_Init+0x222>
 800328a:	687b      	ldr	r3, [r7, #4]
 800328c:	4a50      	ldr	r2, [pc, #320]	@ (80033d0 <HAL_GPIO_Init+0x31c>)
 800328e:	4293      	cmp	r3, r2
 8003290:	d01f      	beq.n	80032d2 <HAL_GPIO_Init+0x21e>
 8003292:	687b      	ldr	r3, [r7, #4]
 8003294:	4a4f      	ldr	r2, [pc, #316]	@ (80033d4 <HAL_GPIO_Init+0x320>)
 8003296:	4293      	cmp	r3, r2
 8003298:	d019      	beq.n	80032ce <HAL_GPIO_Init+0x21a>
 800329a:	687b      	ldr	r3, [r7, #4]
 800329c:	4a4e      	ldr	r2, [pc, #312]	@ (80033d8 <HAL_GPIO_Init+0x324>)
 800329e:	4293      	cmp	r3, r2
 80032a0:	d013      	beq.n	80032ca <HAL_GPIO_Init+0x216>
 80032a2:	687b      	ldr	r3, [r7, #4]
 80032a4:	4a4d      	ldr	r2, [pc, #308]	@ (80033dc <HAL_GPIO_Init+0x328>)
 80032a6:	4293      	cmp	r3, r2
 80032a8:	d00d      	beq.n	80032c6 <HAL_GPIO_Init+0x212>
 80032aa:	687b      	ldr	r3, [r7, #4]
 80032ac:	4a4c      	ldr	r2, [pc, #304]	@ (80033e0 <HAL_GPIO_Init+0x32c>)
 80032ae:	4293      	cmp	r3, r2
 80032b0:	d007      	beq.n	80032c2 <HAL_GPIO_Init+0x20e>
 80032b2:	687b      	ldr	r3, [r7, #4]
 80032b4:	4a4b      	ldr	r2, [pc, #300]	@ (80033e4 <HAL_GPIO_Init+0x330>)
 80032b6:	4293      	cmp	r3, r2
 80032b8:	d101      	bne.n	80032be <HAL_GPIO_Init+0x20a>
 80032ba:	2307      	movs	r3, #7
 80032bc:	e00e      	b.n	80032dc <HAL_GPIO_Init+0x228>
 80032be:	2308      	movs	r3, #8
 80032c0:	e00c      	b.n	80032dc <HAL_GPIO_Init+0x228>
 80032c2:	2306      	movs	r3, #6
 80032c4:	e00a      	b.n	80032dc <HAL_GPIO_Init+0x228>
 80032c6:	2305      	movs	r3, #5
 80032c8:	e008      	b.n	80032dc <HAL_GPIO_Init+0x228>
 80032ca:	2304      	movs	r3, #4
 80032cc:	e006      	b.n	80032dc <HAL_GPIO_Init+0x228>
 80032ce:	2303      	movs	r3, #3
 80032d0:	e004      	b.n	80032dc <HAL_GPIO_Init+0x228>
 80032d2:	2302      	movs	r3, #2
 80032d4:	e002      	b.n	80032dc <HAL_GPIO_Init+0x228>
 80032d6:	2301      	movs	r3, #1
 80032d8:	e000      	b.n	80032dc <HAL_GPIO_Init+0x228>
 80032da:	2300      	movs	r3, #0
 80032dc:	69fa      	ldr	r2, [r7, #28]
 80032de:	f002 0203 	and.w	r2, r2, #3
 80032e2:	0092      	lsls	r2, r2, #2
 80032e4:	4093      	lsls	r3, r2
 80032e6:	69ba      	ldr	r2, [r7, #24]
 80032e8:	4313      	orrs	r3, r2
 80032ea:	61bb      	str	r3, [r7, #24]
        SYSCFG->EXTICR[position >> 2U] = temp;
 80032ec:	4935      	ldr	r1, [pc, #212]	@ (80033c4 <HAL_GPIO_Init+0x310>)
 80032ee:	69fb      	ldr	r3, [r7, #28]
 80032f0:	089b      	lsrs	r3, r3, #2
 80032f2:	3302      	adds	r3, #2
 80032f4:	69ba      	ldr	r2, [r7, #24]
 80032f6:	f841 2023 	str.w	r2, [r1, r3, lsl #2]

        /* Clear Rising Falling edge configuration */
        temp = EXTI->RTSR;
 80032fa:	4b3b      	ldr	r3, [pc, #236]	@ (80033e8 <HAL_GPIO_Init+0x334>)
 80032fc:	689b      	ldr	r3, [r3, #8]
 80032fe:	61bb      	str	r3, [r7, #24]
        temp &= ~((uint32_t)iocurrent);
 8003300:	693b      	ldr	r3, [r7, #16]
 8003302:	43db      	mvns	r3, r3
 8003304:	69ba      	ldr	r2, [r7, #24]
 8003306:	4013      	ands	r3, r2
 8003308:	61bb      	str	r3, [r7, #24]
        if((GPIO_Init->Mode & TRIGGER_RISING) != 0x00U)
 800330a:	683b      	ldr	r3, [r7, #0]
 800330c:	685b      	ldr	r3, [r3, #4]
 800330e:	f403 1380 	and.w	r3, r3, #1048576	@ 0x100000
 8003312:	2b00      	cmp	r3, #0
 8003314:	d003      	beq.n	800331e <HAL_GPIO_Init+0x26a>
        {
          temp |= iocurrent;
 8003316:	69ba      	ldr	r2, [r7, #24]
 8003318:	693b      	ldr	r3, [r7, #16]
 800331a:	4313      	orrs	r3, r2
 800331c:	61bb      	str	r3, [r7, #24]
        }
        EXTI->RTSR = temp;
 800331e:	4a32      	ldr	r2, [pc, #200]	@ (80033e8 <HAL_GPIO_Init+0x334>)
 8003320:	69bb      	ldr	r3, [r7, #24]
 8003322:	6093      	str	r3, [r2, #8]

        temp = EXTI->FTSR;
 8003324:	4b30      	ldr	r3, [pc, #192]	@ (80033e8 <HAL_GPIO_Init+0x334>)
 8003326:	68db      	ldr	r3, [r3, #12]
 8003328:	61bb      	str	r3, [r7, #24]
        temp &= ~((uint32_t)iocurrent);
 800332a:	693b      	ldr	r3, [r7, #16]
 800332c:	43db      	mvns	r3, r3
 800332e:	69ba      	ldr	r2, [r7, #24]
 8003330:	4013      	ands	r3, r2
 8003332:	61bb      	str	r3, [r7, #24]
        if((GPIO_Init->Mode & TRIGGER_FALLING) != 0x00U)
 8003334:	683b      	ldr	r3, [r7, #0]
 8003336:	685b      	ldr	r3, [r3, #4]
 8003338:	f403 1300 	and.w	r3, r3, #2097152	@ 0x200000
 800333c:	2b00      	cmp	r3, #0
 800333e:	d003      	beq.n	8003348 <HAL_GPIO_Init+0x294>
        {
          temp |= iocurrent;
 8003340:	69ba      	ldr	r2, [r7, #24]
 8003342:	693b      	ldr	r3, [r7, #16]
 8003344:	4313      	orrs	r3, r2
 8003346:	61bb      	str	r3, [r7, #24]
        }
        EXTI->FTSR = temp;
 8003348:	4a27      	ldr	r2, [pc, #156]	@ (80033e8 <HAL_GPIO_Init+0x334>)
 800334a:	69bb      	ldr	r3, [r7, #24]
 800334c:	60d3      	str	r3, [r2, #12]

        temp = EXTI->EMR;
 800334e:	4b26      	ldr	r3, [pc, #152]	@ (80033e8 <HAL_GPIO_Init+0x334>)
 8003350:	685b      	ldr	r3, [r3, #4]
 8003352:	61bb      	str	r3, [r7, #24]
        temp &= ~((uint32_t)iocurrent);
 8003354:	693b      	ldr	r3, [r7, #16]
 8003356:	43db      	mvns	r3, r3
 8003358:	69ba      	ldr	r2, [r7, #24]
 800335a:	4013      	ands	r3, r2
 800335c:	61bb      	str	r3, [r7, #24]
        if((GPIO_Init->Mode & EXTI_EVT) != 0x00U)
 800335e:	683b      	ldr	r3, [r7, #0]
 8003360:	685b      	ldr	r3, [r3, #4]
 8003362:	f403 3300 	and.w	r3, r3, #131072	@ 0x20000
 8003366:	2b00      	cmp	r3, #0
 8003368:	d003      	beq.n	8003372 <HAL_GPIO_Init+0x2be>
        {
          temp |= iocurrent;
 800336a:	69ba      	ldr	r2, [r7, #24]
 800336c:	693b      	ldr	r3, [r7, #16]
 800336e:	4313      	orrs	r3, r2
 8003370:	61bb      	str	r3, [r7, #24]
        }
        EXTI->EMR = temp;
 8003372:	4a1d      	ldr	r2, [pc, #116]	@ (80033e8 <HAL_GPIO_Init+0x334>)
 8003374:	69bb      	ldr	r3, [r7, #24]
 8003376:	6053      	str	r3, [r2, #4]

        /* Clear EXTI line configuration */
        temp = EXTI->IMR;
 8003378:	4b1b      	ldr	r3, [pc, #108]	@ (80033e8 <HAL_GPIO_Init+0x334>)
 800337a:	681b      	ldr	r3, [r3, #0]
 800337c:	61bb      	str	r3, [r7, #24]
        temp &= ~((uint32_t)iocurrent);
 800337e:	693b      	ldr	r3, [r7, #16]
 8003380:	43db      	mvns	r3, r3
 8003382:	69ba      	ldr	r2, [r7, #24]
 8003384:	4013      	ands	r3, r2
 8003386:	61bb      	str	r3, [r7, #24]
        if((GPIO_Init->Mode & EXTI_IT) != 0x00U)
 8003388:	683b      	ldr	r3, [r7, #0]
 800338a:	685b      	ldr	r3, [r3, #4]
 800338c:	f403 3380 	and.w	r3, r3, #65536	@ 0x10000
 8003390:	2b00      	cmp	r3, #0
 8003392:	d003      	beq.n	800339c <HAL_GPIO_Init+0x2e8>
        {
          temp |= iocurrent;
 8003394:	69ba      	ldr	r2, [r7, #24]
 8003396:	693b      	ldr	r3, [r7, #16]
 8003398:	4313      	orrs	r3, r2
 800339a:	61bb      	str	r3, [r7, #24]
        }
        EXTI->IMR = temp;
 800339c:	4a12      	ldr	r2, [pc, #72]	@ (80033e8 <HAL_GPIO_Init+0x334>)
 800339e:	69bb      	ldr	r3, [r7, #24]
 80033a0:	6013      	str	r3, [r2, #0]
  for(position = 0U; position < GPIO_NUMBER; position++)
 80033a2:	69fb      	ldr	r3, [r7, #28]
 80033a4:	3301      	adds	r3, #1
 80033a6:	61fb      	str	r3, [r7, #28]
 80033a8:	69fb      	ldr	r3, [r7, #28]
 80033aa:	2b0f      	cmp	r3, #15
 80033ac:	f67f ae90 	bls.w	80030d0 <HAL_GPIO_Init+0x1c>
      }
    }
  }
}
 80033b0:	bf00      	nop
 80033b2:	bf00      	nop
 80033b4:	3724      	adds	r7, #36	@ 0x24
 80033b6:	46bd      	mov	sp, r7
 80033b8:	f85d 7b04 	ldr.w	r7, [sp], #4
 80033bc:	4770      	bx	lr
 80033be:	bf00      	nop
 80033c0:	40023800 	.word	0x40023800
 80033c4:	40013800 	.word	0x40013800
 80033c8:	40020000 	.word	0x40020000
 80033cc:	40020400 	.word	0x40020400
 80033d0:	40020800 	.word	0x40020800
 80033d4:	40020c00 	.word	0x40020c00
 80033d8:	40021000 	.word	0x40021000
 80033dc:	40021400 	.word	0x40021400
 80033e0:	40021800 	.word	0x40021800
 80033e4:	40021c00 	.word	0x40021c00
 80033e8:	40013c00 	.word	0x40013c00

080033ec <HAL_GPIO_WritePin>:
  *            @arg GPIO_PIN_RESET: to clear the port pin
  *            @arg GPIO_PIN_SET: to set the port pin
  * @retval None
  */
void HAL_GPIO_WritePin(GPIO_TypeDef* GPIOx, uint16_t GPIO_Pin, GPIO_PinState PinState)
{
 80033ec:	b480      	push	{r7}
 80033ee:	b083      	sub	sp, #12
 80033f0:	af00      	add	r7, sp, #0
 80033f2:	6078      	str	r0, [r7, #4]
 80033f4:	460b      	mov	r3, r1
 80033f6:	807b      	strh	r3, [r7, #2]
 80033f8:	4613      	mov	r3, r2
 80033fa:	707b      	strb	r3, [r7, #1]
  /* Check the parameters */
  assert_param(IS_GPIO_PIN(GPIO_Pin));
  assert_param(IS_GPIO_PIN_ACTION(PinState));

  if(PinState != GPIO_PIN_RESET)
 80033fc:	787b      	ldrb	r3, [r7, #1]
 80033fe:	2b00      	cmp	r3, #0
 8003400:	d003      	beq.n	800340a <HAL_GPIO_WritePin+0x1e>
  {
    GPIOx->BSRR = GPIO_Pin;
 8003402:	887a      	ldrh	r2, [r7, #2]
 8003404:	687b      	ldr	r3, [r7, #4]
 8003406:	619a      	str	r2, [r3, #24]
  }
  else
  {
    GPIOx->BSRR = (uint32_t)GPIO_Pin << 16U;
  }
}
 8003408:	e003      	b.n	8003412 <HAL_GPIO_WritePin+0x26>
    GPIOx->BSRR = (uint32_t)GPIO_Pin << 16U;
 800340a:	887b      	ldrh	r3, [r7, #2]
 800340c:	041a      	lsls	r2, r3, #16
 800340e:	687b      	ldr	r3, [r7, #4]
 8003410:	619a      	str	r2, [r3, #24]
}
 8003412:	bf00      	nop
 8003414:	370c      	adds	r7, #12
 8003416:	46bd      	mov	sp, r7
 8003418:	f85d 7b04 	ldr.w	r7, [sp], #4
 800341c:	4770      	bx	lr
	...

08003420 <HAL_I2C_Init>:
  * @param  hi2c Pointer to a I2C_HandleTypeDef structure that contains
  *                the configuration information for the specified I2C.
  * @retval HAL status
  */
HAL_StatusTypeDef HAL_I2C_Init(I2C_HandleTypeDef *hi2c)
{
 8003420:	b580      	push	{r7, lr}
 8003422:	b084      	sub	sp, #16
 8003424:	af00      	add	r7, sp, #0
 8003426:	6078      	str	r0, [r7, #4]
  uint32_t freqrange;
  uint32_t pclk1;

  /* Check the I2C handle allocation */
  if (hi2c == NULL)
 8003428:	687b      	ldr	r3, [r7, #4]
 800342a:	2b00      	cmp	r3, #0
 800342c:	d101      	bne.n	8003432 <HAL_I2C_Init+0x12>
  {
    return HAL_ERROR;
 800342e:	2301      	movs	r3, #1
 8003430:	e12b      	b.n	800368a <HAL_I2C_Init+0x26a>
  assert_param(IS_I2C_DUAL_ADDRESS(hi2c->Init.DualAddressMode));
  assert_param(IS_I2C_OWN_ADDRESS2(hi2c->Init.OwnAddress2));
  assert_param(IS_I2C_GENERAL_CALL(hi2c->Init.GeneralCallMode));
  assert_param(IS_I2C_NO_STRETCH(hi2c->Init.NoStretchMode));

  if (hi2c->State == HAL_I2C_STATE_RESET)
 8003432:	687b      	ldr	r3, [r7, #4]
 8003434:	f893 303d 	ldrb.w	r3, [r3, #61]	@ 0x3d
 8003438:	b2db      	uxtb	r3, r3
 800343a:	2b00      	cmp	r3, #0
 800343c:	d106      	bne.n	800344c <HAL_I2C_Init+0x2c>
  {
    /* Allocate lock resource and initialize it */
    hi2c->Lock = HAL_UNLOCKED;
 800343e:	687b      	ldr	r3, [r7, #4]
 8003440:	2200      	movs	r2, #0
 8003442:	f883 203c 	strb.w	r2, [r3, #60]	@ 0x3c

    /* Init the low level hardware : GPIO, CLOCK, NVIC */
    hi2c->MspInitCallback(hi2c);
#else
    /* Init the low level hardware : GPIO, CLOCK, NVIC */
    HAL_I2C_MspInit(hi2c);
 8003446:	6878      	ldr	r0, [r7, #4]
 8003448:	f7fe fd80 	bl	8001f4c <HAL_I2C_MspInit>
#endif /* USE_HAL_I2C_REGISTER_CALLBACKS */
  }

  hi2c->State = HAL_I2C_STATE_BUSY;
 800344c:	687b      	ldr	r3, [r7, #4]
 800344e:	2224      	movs	r2, #36	@ 0x24
 8003450:	f883 203d 	strb.w	r2, [r3, #61]	@ 0x3d

  /* Disable the selected I2C peripheral */
  __HAL_I2C_DISABLE(hi2c);
 8003454:	687b      	ldr	r3, [r7, #4]
 8003456:	681b      	ldr	r3, [r3, #0]
 8003458:	681a      	ldr	r2, [r3, #0]
 800345a:	687b      	ldr	r3, [r7, #4]
 800345c:	681b      	ldr	r3, [r3, #0]
 800345e:	f022 0201 	bic.w	r2, r2, #1
 8003462:	601a      	str	r2, [r3, #0]

  /*Reset I2C*/
  hi2c->Instance->CR1 |= I2C_CR1_SWRST;
 8003464:	687b      	ldr	r3, [r7, #4]
 8003466:	681b      	ldr	r3, [r3, #0]
 8003468:	681a      	ldr	r2, [r3, #0]
 800346a:	687b      	ldr	r3, [r7, #4]
 800346c:	681b      	ldr	r3, [r3, #0]
 800346e:	f442 4200 	orr.w	r2, r2, #32768	@ 0x8000
 8003472:	601a      	str	r2, [r3, #0]
  hi2c->Instance->CR1 &= ~I2C_CR1_SWRST;
 8003474:	687b      	ldr	r3, [r7, #4]
 8003476:	681b      	ldr	r3, [r3, #0]
 8003478:	681a      	ldr	r2, [r3, #0]
 800347a:	687b      	ldr	r3, [r7, #4]
 800347c:	681b      	ldr	r3, [r3, #0]
 800347e:	f422 4200 	bic.w	r2, r2, #32768	@ 0x8000
 8003482:	601a      	str	r2, [r3, #0]

  /* Get PCLK1 frequency */
  pclk1 = HAL_RCC_GetPCLK1Freq();
 8003484:	f001 fbf6 	bl	8004c74 <HAL_RCC_GetPCLK1Freq>
 8003488:	60f8      	str	r0, [r7, #12]

  /* Check the minimum allowed PCLK1 frequency */
  if (I2C_MIN_PCLK_FREQ(pclk1, hi2c->Init.ClockSpeed) == 1U)
 800348a:	687b      	ldr	r3, [r7, #4]
 800348c:	685b      	ldr	r3, [r3, #4]
 800348e:	4a81      	ldr	r2, [pc, #516]	@ (8003694 <HAL_I2C_Init+0x274>)
 8003490:	4293      	cmp	r3, r2
 8003492:	d807      	bhi.n	80034a4 <HAL_I2C_Init+0x84>
 8003494:	68fb      	ldr	r3, [r7, #12]
 8003496:	4a80      	ldr	r2, [pc, #512]	@ (8003698 <HAL_I2C_Init+0x278>)
 8003498:	4293      	cmp	r3, r2
 800349a:	bf94      	ite	ls
 800349c:	2301      	movls	r3, #1
 800349e:	2300      	movhi	r3, #0
 80034a0:	b2db      	uxtb	r3, r3
 80034a2:	e006      	b.n	80034b2 <HAL_I2C_Init+0x92>
 80034a4:	68fb      	ldr	r3, [r7, #12]
 80034a6:	4a7d      	ldr	r2, [pc, #500]	@ (800369c <HAL_I2C_Init+0x27c>)
 80034a8:	4293      	cmp	r3, r2
 80034aa:	bf94      	ite	ls
 80034ac:	2301      	movls	r3, #1
 80034ae:	2300      	movhi	r3, #0
 80034b0:	b2db      	uxtb	r3, r3
 80034b2:	2b00      	cmp	r3, #0
 80034b4:	d001      	beq.n	80034ba <HAL_I2C_Init+0x9a>
  {
    return HAL_ERROR;
 80034b6:	2301      	movs	r3, #1
 80034b8:	e0e7      	b.n	800368a <HAL_I2C_Init+0x26a>
  }

  /* Calculate frequency range */
  freqrange = I2C_FREQRANGE(pclk1);
 80034ba:	68fb      	ldr	r3, [r7, #12]
 80034bc:	4a78      	ldr	r2, [pc, #480]	@ (80036a0 <HAL_I2C_Init+0x280>)
 80034be:	fba2 2303 	umull	r2, r3, r2, r3
 80034c2:	0c9b      	lsrs	r3, r3, #18
 80034c4:	60bb      	str	r3, [r7, #8]

  /*---------------------------- I2Cx CR2 Configuration ----------------------*/
  /* Configure I2Cx: Frequency range */
  MODIFY_REG(hi2c->Instance->CR2, I2C_CR2_FREQ, freqrange);
 80034c6:	687b      	ldr	r3, [r7, #4]
 80034c8:	681b      	ldr	r3, [r3, #0]
 80034ca:	685b      	ldr	r3, [r3, #4]
 80034cc:	f023 013f 	bic.w	r1, r3, #63	@ 0x3f
 80034d0:	687b      	ldr	r3, [r7, #4]
 80034d2:	681b      	ldr	r3, [r3, #0]
 80034d4:	68ba      	ldr	r2, [r7, #8]
 80034d6:	430a      	orrs	r2, r1
 80034d8:	605a      	str	r2, [r3, #4]

  /*---------------------------- I2Cx TRISE Configuration --------------------*/
  /* Configure I2Cx: Rise Time */
  MODIFY_REG(hi2c->Instance->TRISE, I2C_TRISE_TRISE, I2C_RISE_TIME(freqrange, hi2c->Init.ClockSpeed));
 80034da:	687b      	ldr	r3, [r7, #4]
 80034dc:	681b      	ldr	r3, [r3, #0]
 80034de:	6a1b      	ldr	r3, [r3, #32]
 80034e0:	f023 013f 	bic.w	r1, r3, #63	@ 0x3f
 80034e4:	687b      	ldr	r3, [r7, #4]
 80034e6:	685b      	ldr	r3, [r3, #4]
 80034e8:	4a6a      	ldr	r2, [pc, #424]	@ (8003694 <HAL_I2C_Init+0x274>)
 80034ea:	4293      	cmp	r3, r2
 80034ec:	d802      	bhi.n	80034f4 <HAL_I2C_Init+0xd4>
 80034ee:	68bb      	ldr	r3, [r7, #8]
 80034f0:	3301      	adds	r3, #1
 80034f2:	e009      	b.n	8003508 <HAL_I2C_Init+0xe8>
 80034f4:	68bb      	ldr	r3, [r7, #8]
 80034f6:	f44f 7296 	mov.w	r2, #300	@ 0x12c
 80034fa:	fb02 f303 	mul.w	r3, r2, r3
 80034fe:	4a69      	ldr	r2, [pc, #420]	@ (80036a4 <HAL_I2C_Init+0x284>)
 8003500:	fba2 2303 	umull	r2, r3, r2, r3
 8003504:	099b      	lsrs	r3, r3, #6
 8003506:	3301      	adds	r3, #1
 8003508:	687a      	ldr	r2, [r7, #4]
 800350a:	6812      	ldr	r2, [r2, #0]
 800350c:	430b      	orrs	r3, r1
 800350e:	6213      	str	r3, [r2, #32]

  /*---------------------------- I2Cx CCR Configuration ----------------------*/
  /* Configure I2Cx: Speed */
  MODIFY_REG(hi2c->Instance->CCR, (I2C_CCR_FS | I2C_CCR_DUTY | I2C_CCR_CCR), I2C_SPEED(pclk1, hi2c->Init.ClockSpeed, hi2c->Init.DutyCycle));
 8003510:	687b      	ldr	r3, [r7, #4]
 8003512:	681b      	ldr	r3, [r3, #0]
 8003514:	69db      	ldr	r3, [r3, #28]
 8003516:	f423 424f 	bic.w	r2, r3, #52992	@ 0xcf00
 800351a:	f022 02ff 	bic.w	r2, r2, #255	@ 0xff
 800351e:	687b      	ldr	r3, [r7, #4]
 8003520:	685b      	ldr	r3, [r3, #4]
 8003522:	495c      	ldr	r1, [pc, #368]	@ (8003694 <HAL_I2C_Init+0x274>)
 8003524:	428b      	cmp	r3, r1
 8003526:	d819      	bhi.n	800355c <HAL_I2C_Init+0x13c>
 8003528:	68fb      	ldr	r3, [r7, #12]
 800352a:	1e59      	subs	r1, r3, #1
 800352c:	687b      	ldr	r3, [r7, #4]
 800352e:	685b      	ldr	r3, [r3, #4]
 8003530:	005b      	lsls	r3, r3, #1
 8003532:	fbb1 f3f3 	udiv	r3, r1, r3
 8003536:	1c59      	adds	r1, r3, #1
 8003538:	f640 73fc 	movw	r3, #4092	@ 0xffc
 800353c:	400b      	ands	r3, r1
 800353e:	2b00      	cmp	r3, #0
 8003540:	d00a      	beq.n	8003558 <HAL_I2C_Init+0x138>
 8003542:	68fb      	ldr	r3, [r7, #12]
 8003544:	1e59      	subs	r1, r3, #1
 8003546:	687b      	ldr	r3, [r7, #4]
 8003548:	685b      	ldr	r3, [r3, #4]
 800354a:	005b      	lsls	r3, r3, #1
 800354c:	fbb1 f3f3 	udiv	r3, r1, r3
 8003550:	3301      	adds	r3, #1
 8003552:	f3c3 030b 	ubfx	r3, r3, #0, #12
 8003556:	e051      	b.n	80035fc <HAL_I2C_Init+0x1dc>
 8003558:	2304      	movs	r3, #4
 800355a:	e04f      	b.n	80035fc <HAL_I2C_Init+0x1dc>
 800355c:	687b      	ldr	r3, [r7, #4]
 800355e:	689b      	ldr	r3, [r3, #8]
 8003560:	2b00      	cmp	r3, #0
 8003562:	d111      	bne.n	8003588 <HAL_I2C_Init+0x168>
 8003564:	68fb      	ldr	r3, [r7, #12]
 8003566:	1e58      	subs	r0, r3, #1
 8003568:	687b      	ldr	r3, [r7, #4]
 800356a:	6859      	ldr	r1, [r3, #4]
 800356c:	460b      	mov	r3, r1
 800356e:	005b      	lsls	r3, r3, #1
 8003570:	440b      	add	r3, r1
 8003572:	fbb0 f3f3 	udiv	r3, r0, r3
 8003576:	3301      	adds	r3, #1
 8003578:	f3c3 030b 	ubfx	r3, r3, #0, #12
 800357c:	2b00      	cmp	r3, #0
 800357e:	bf0c      	ite	eq
 8003580:	2301      	moveq	r3, #1
 8003582:	2300      	movne	r3, #0
 8003584:	b2db      	uxtb	r3, r3
 8003586:	e012      	b.n	80035ae <HAL_I2C_Init+0x18e>
 8003588:	68fb      	ldr	r3, [r7, #12]
 800358a:	1e58      	subs	r0, r3, #1
 800358c:	687b      	ldr	r3, [r7, #4]
 800358e:	6859      	ldr	r1, [r3, #4]
 8003590:	460b      	mov	r3, r1
 8003592:	009b      	lsls	r3, r3, #2
 8003594:	440b      	add	r3, r1
 8003596:	0099      	lsls	r1, r3, #2
 8003598:	440b      	add	r3, r1
 800359a:	fbb0 f3f3 	udiv	r3, r0, r3
 800359e:	3301      	adds	r3, #1
 80035a0:	f3c3 030b 	ubfx	r3, r3, #0, #12
 80035a4:	2b00      	cmp	r3, #0
 80035a6:	bf0c      	ite	eq
 80035a8:	2301      	moveq	r3, #1
 80035aa:	2300      	movne	r3, #0
 80035ac:	b2db      	uxtb	r3, r3
 80035ae:	2b00      	cmp	r3, #0
 80035b0:	d001      	beq.n	80035b6 <HAL_I2C_Init+0x196>
 80035b2:	2301      	movs	r3, #1
 80035b4:	e022      	b.n	80035fc <HAL_I2C_Init+0x1dc>
 80035b6:	687b      	ldr	r3, [r7, #4]
 80035b8:	689b      	ldr	r3, [r3, #8]
 80035ba:	2b00      	cmp	r3, #0
 80035bc:	d10e      	bne.n	80035dc <HAL_I2C_Init+0x1bc>
 80035be:	68fb      	ldr	r3, [r7, #12]
 80035c0:	1e58      	subs	r0, r3, #1
 80035c2:	687b      	ldr	r3, [r7, #4]
 80035c4:	6859      	ldr	r1, [r3, #4]
 80035c6:	460b      	mov	r3, r1
 80035c8:	005b      	lsls	r3, r3, #1
 80035ca:	440b      	add	r3, r1
 80035cc:	fbb0 f3f3 	udiv	r3, r0, r3
 80035d0:	3301      	adds	r3, #1
 80035d2:	f3c3 030b 	ubfx	r3, r3, #0, #12
 80035d6:	f443 4300 	orr.w	r3, r3, #32768	@ 0x8000
 80035da:	e00f      	b.n	80035fc <HAL_I2C_Init+0x1dc>
 80035dc:	68fb      	ldr	r3, [r7, #12]
 80035de:	1e58      	subs	r0, r3, #1
 80035e0:	687b      	ldr	r3, [r7, #4]
 80035e2:	6859      	ldr	r1, [r3, #4]
 80035e4:	460b      	mov	r3, r1
 80035e6:	009b      	lsls	r3, r3, #2
 80035e8:	440b      	add	r3, r1
 80035ea:	0099      	lsls	r1, r3, #2
 80035ec:	440b      	add	r3, r1
 80035ee:	fbb0 f3f3 	udiv	r3, r0, r3
 80035f2:	3301      	adds	r3, #1
 80035f4:	f3c3 030b 	ubfx	r3, r3, #0, #12
 80035f8:	f443 4340 	orr.w	r3, r3, #49152	@ 0xc000
 80035fc:	6879      	ldr	r1, [r7, #4]
 80035fe:	6809      	ldr	r1, [r1, #0]
 8003600:	4313      	orrs	r3, r2
 8003602:	61cb      	str	r3, [r1, #28]

  /*---------------------------- I2Cx CR1 Configuration ----------------------*/
  /* Configure I2Cx: Generalcall and NoStretch mode */
  MODIFY_REG(hi2c->Instance->CR1, (I2C_CR1_ENGC | I2C_CR1_NOSTRETCH), (hi2c->Init.GeneralCallMode | hi2c->Init.NoStretchMode));
 8003604:	687b      	ldr	r3, [r7, #4]
 8003606:	681b      	ldr	r3, [r3, #0]
 8003608:	681b      	ldr	r3, [r3, #0]
 800360a:	f023 01c0 	bic.w	r1, r3, #192	@ 0xc0
 800360e:	687b      	ldr	r3, [r7, #4]
 8003610:	69da      	ldr	r2, [r3, #28]
 8003612:	687b      	ldr	r3, [r7, #4]
 8003614:	6a1b      	ldr	r3, [r3, #32]
 8003616:	431a      	orrs	r2, r3
 8003618:	687b      	ldr	r3, [r7, #4]
 800361a:	681b      	ldr	r3, [r3, #0]
 800361c:	430a      	orrs	r2, r1
 800361e:	601a      	str	r2, [r3, #0]

  /*---------------------------- I2Cx OAR1 Configuration ---------------------*/
  /* Configure I2Cx: Own Address1 and addressing mode */
  MODIFY_REG(hi2c->Instance->OAR1, (I2C_OAR1_ADDMODE | I2C_OAR1_ADD8_9 | I2C_OAR1_ADD1_7 | I2C_OAR1_ADD0), (hi2c->Init.AddressingMode | hi2c->Init.OwnAddress1));
 8003620:	687b      	ldr	r3, [r7, #4]
 8003622:	681b      	ldr	r3, [r3, #0]
 8003624:	689b      	ldr	r3, [r3, #8]
 8003626:	f423 4303 	bic.w	r3, r3, #33536	@ 0x8300
 800362a:	f023 03ff 	bic.w	r3, r3, #255	@ 0xff
 800362e:	687a      	ldr	r2, [r7, #4]
 8003630:	6911      	ldr	r1, [r2, #16]
 8003632:	687a      	ldr	r2, [r7, #4]
 8003634:	68d2      	ldr	r2, [r2, #12]
 8003636:	4311      	orrs	r1, r2
 8003638:	687a      	ldr	r2, [r7, #4]
 800363a:	6812      	ldr	r2, [r2, #0]
 800363c:	430b      	orrs	r3, r1
 800363e:	6093      	str	r3, [r2, #8]

  /*---------------------------- I2Cx OAR2 Configuration ---------------------*/
  /* Configure I2Cx: Dual mode and Own Address2 */
  MODIFY_REG(hi2c->Instance->OAR2, (I2C_OAR2_ENDUAL | I2C_OAR2_ADD2), (hi2c->Init.DualAddressMode | hi2c->Init.OwnAddress2));
 8003640:	687b      	ldr	r3, [r7, #4]
 8003642:	681b      	ldr	r3, [r3, #0]
 8003644:	68db      	ldr	r3, [r3, #12]
 8003646:	f023 01ff 	bic.w	r1, r3, #255	@ 0xff
 800364a:	687b      	ldr	r3, [r7, #4]
 800364c:	695a      	ldr	r2, [r3, #20]
 800364e:	687b      	ldr	r3, [r7, #4]
 8003650:	699b      	ldr	r3, [r3, #24]
 8003652:	431a      	orrs	r2, r3
 8003654:	687b      	ldr	r3, [r7, #4]
 8003656:	681b      	ldr	r3, [r3, #0]
 8003658:	430a      	orrs	r2, r1
 800365a:	60da      	str	r2, [r3, #12]

  /* Enable the selected I2C peripheral */
  __HAL_I2C_ENABLE(hi2c);
 800365c:	687b      	ldr	r3, [r7, #4]
 800365e:	681b      	ldr	r3, [r3, #0]
 8003660:	681a      	ldr	r2, [r3, #0]
 8003662:	687b      	ldr	r3, [r7, #4]
 8003664:	681b      	ldr	r3, [r3, #0]
 8003666:	f042 0201 	orr.w	r2, r2, #1
 800366a:	601a      	str	r2, [r3, #0]

  hi2c->ErrorCode = HAL_I2C_ERROR_NONE;
 800366c:	687b      	ldr	r3, [r7, #4]
 800366e:	2200      	movs	r2, #0
 8003670:	641a      	str	r2, [r3, #64]	@ 0x40
  hi2c->State = HAL_I2C_STATE_READY;
 8003672:	687b      	ldr	r3, [r7, #4]
 8003674:	2220      	movs	r2, #32
 8003676:	f883 203d 	strb.w	r2, [r3, #61]	@ 0x3d
  hi2c->PreviousState = I2C_STATE_NONE;
 800367a:	687b      	ldr	r3, [r7, #4]
 800367c:	2200      	movs	r2, #0
 800367e:	631a      	str	r2, [r3, #48]	@ 0x30
  hi2c->Mode = HAL_I2C_MODE_NONE;
 8003680:	687b      	ldr	r3, [r7, #4]
 8003682:	2200      	movs	r2, #0
 8003684:	f883 203e 	strb.w	r2, [r3, #62]	@ 0x3e

  return HAL_OK;
 8003688:	2300      	movs	r3, #0
}
 800368a:	4618      	mov	r0, r3
 800368c:	3710      	adds	r7, #16
 800368e:	46bd      	mov	sp, r7
 8003690:	bd80      	pop	{r7, pc}
 8003692:	bf00      	nop
 8003694:	000186a0 	.word	0x000186a0
 8003698:	001e847f 	.word	0x001e847f
 800369c:	003d08ff 	.word	0x003d08ff
 80036a0:	431bde83 	.word	0x431bde83
 80036a4:	10624dd3 	.word	0x10624dd3

080036a8 <HAL_I2C_Master_Transmit>:
  * @param  Size Amount of data to be sent
  * @param  Timeout Timeout duration
  * @retval HAL status
  */
HAL_StatusTypeDef HAL_I2C_Master_Transmit(I2C_HandleTypeDef *hi2c, uint16_t DevAddress, uint8_t *pData, uint16_t Size, uint32_t Timeout)
{
 80036a8:	b580      	push	{r7, lr}
 80036aa:	b088      	sub	sp, #32
 80036ac:	af02      	add	r7, sp, #8
 80036ae:	60f8      	str	r0, [r7, #12]
 80036b0:	607a      	str	r2, [r7, #4]
 80036b2:	461a      	mov	r2, r3
 80036b4:	460b      	mov	r3, r1
 80036b6:	817b      	strh	r3, [r7, #10]
 80036b8:	4613      	mov	r3, r2
 80036ba:	813b      	strh	r3, [r7, #8]
  /* Init tickstart for timeout management*/
  uint32_t tickstart = HAL_GetTick();
 80036bc:	f7fe ff3c 	bl	8002538 <HAL_GetTick>
 80036c0:	6178      	str	r0, [r7, #20]

  if (hi2c->State == HAL_I2C_STATE_READY)
 80036c2:	68fb      	ldr	r3, [r7, #12]
 80036c4:	f893 303d 	ldrb.w	r3, [r3, #61]	@ 0x3d
 80036c8:	b2db      	uxtb	r3, r3
 80036ca:	2b20      	cmp	r3, #32
 80036cc:	f040 80e0 	bne.w	8003890 <HAL_I2C_Master_Transmit+0x1e8>
  {
    /* Wait until BUSY flag is reset */
    if (I2C_WaitOnFlagUntilTimeout(hi2c, I2C_FLAG_BUSY, SET, I2C_TIMEOUT_BUSY_FLAG, tickstart) != HAL_OK)
 80036d0:	697b      	ldr	r3, [r7, #20]
 80036d2:	9300      	str	r3, [sp, #0]
 80036d4:	2319      	movs	r3, #25
 80036d6:	2201      	movs	r2, #1
 80036d8:	4970      	ldr	r1, [pc, #448]	@ (800389c <HAL_I2C_Master_Transmit+0x1f4>)
 80036da:	68f8      	ldr	r0, [r7, #12]
 80036dc:	f000 fc64 	bl	8003fa8 <I2C_WaitOnFlagUntilTimeout>
 80036e0:	4603      	mov	r3, r0
 80036e2:	2b00      	cmp	r3, #0
 80036e4:	d001      	beq.n	80036ea <HAL_I2C_Master_Transmit+0x42>
    {
      return HAL_BUSY;
 80036e6:	2302      	movs	r3, #2
 80036e8:	e0d3      	b.n	8003892 <HAL_I2C_Master_Transmit+0x1ea>
    }

    /* Process Locked */
    __HAL_LOCK(hi2c);
 80036ea:	68fb      	ldr	r3, [r7, #12]
 80036ec:	f893 303c 	ldrb.w	r3, [r3, #60]	@ 0x3c
 80036f0:	2b01      	cmp	r3, #1
 80036f2:	d101      	bne.n	80036f8 <HAL_I2C_Master_Transmit+0x50>
 80036f4:	2302      	movs	r3, #2
 80036f6:	e0cc      	b.n	8003892 <HAL_I2C_Master_Transmit+0x1ea>
 80036f8:	68fb      	ldr	r3, [r7, #12]
 80036fa:	2201      	movs	r2, #1
 80036fc:	f883 203c 	strb.w	r2, [r3, #60]	@ 0x3c

    /* Check if the I2C is already enabled */
    if ((hi2c->Instance->CR1 & I2C_CR1_PE) != I2C_CR1_PE)
 8003700:	68fb      	ldr	r3, [r7, #12]
 8003702:	681b      	ldr	r3, [r3, #0]
 8003704:	681b      	ldr	r3, [r3, #0]
 8003706:	f003 0301 	and.w	r3, r3, #1
 800370a:	2b01      	cmp	r3, #1
 800370c:	d007      	beq.n	800371e <HAL_I2C_Master_Transmit+0x76>
    {
      /* Enable I2C peripheral */
      __HAL_I2C_ENABLE(hi2c);
 800370e:	68fb      	ldr	r3, [r7, #12]
 8003710:	681b      	ldr	r3, [r3, #0]
 8003712:	681a      	ldr	r2, [r3, #0]
 8003714:	68fb      	ldr	r3, [r7, #12]
 8003716:	681b      	ldr	r3, [r3, #0]
 8003718:	f042 0201 	orr.w	r2, r2, #1
 800371c:	601a      	str	r2, [r3, #0]
    }

    /* Disable Pos */
    CLEAR_BIT(hi2c->Instance->CR1, I2C_CR1_POS);
 800371e:	68fb      	ldr	r3, [r7, #12]
 8003720:	681b      	ldr	r3, [r3, #0]
 8003722:	681a      	ldr	r2, [r3, #0]
 8003724:	68fb      	ldr	r3, [r7, #12]
 8003726:	681b      	ldr	r3, [r3, #0]
 8003728:	f422 6200 	bic.w	r2, r2, #2048	@ 0x800
 800372c:	601a      	str	r2, [r3, #0]

    hi2c->State       = HAL_I2C_STATE_BUSY_TX;
 800372e:	68fb      	ldr	r3, [r7, #12]
 8003730:	2221      	movs	r2, #33	@ 0x21
 8003732:	f883 203d 	strb.w	r2, [r3, #61]	@ 0x3d
    hi2c->Mode        = HAL_I2C_MODE_MASTER;
 8003736:	68fb      	ldr	r3, [r7, #12]
 8003738:	2210      	movs	r2, #16
 800373a:	f883 203e 	strb.w	r2, [r3, #62]	@ 0x3e
    hi2c->ErrorCode   = HAL_I2C_ERROR_NONE;
 800373e:	68fb      	ldr	r3, [r7, #12]
 8003740:	2200      	movs	r2, #0
 8003742:	641a      	str	r2, [r3, #64]	@ 0x40

    /* Prepare transfer parameters */
    hi2c->pBuffPtr    = pData;
 8003744:	68fb      	ldr	r3, [r7, #12]
 8003746:	687a      	ldr	r2, [r7, #4]
 8003748:	625a      	str	r2, [r3, #36]	@ 0x24
    hi2c->XferCount   = Size;
 800374a:	68fb      	ldr	r3, [r7, #12]
 800374c:	893a      	ldrh	r2, [r7, #8]
 800374e:	855a      	strh	r2, [r3, #42]	@ 0x2a
    hi2c->XferSize    = hi2c->XferCount;
 8003750:	68fb      	ldr	r3, [r7, #12]
 8003752:	8d5b      	ldrh	r3, [r3, #42]	@ 0x2a
 8003754:	b29a      	uxth	r2, r3
 8003756:	68fb      	ldr	r3, [r7, #12]
 8003758:	851a      	strh	r2, [r3, #40]	@ 0x28
    hi2c->XferOptions = I2C_NO_OPTION_FRAME;
 800375a:	68fb      	ldr	r3, [r7, #12]
 800375c:	4a50      	ldr	r2, [pc, #320]	@ (80038a0 <HAL_I2C_Master_Transmit+0x1f8>)
 800375e:	62da      	str	r2, [r3, #44]	@ 0x2c

    /* Send Slave Address */
    if (I2C_MasterRequestWrite(hi2c, DevAddress, Timeout, tickstart) != HAL_OK)
 8003760:	8979      	ldrh	r1, [r7, #10]
 8003762:	697b      	ldr	r3, [r7, #20]
 8003764:	6a3a      	ldr	r2, [r7, #32]
 8003766:	68f8      	ldr	r0, [r7, #12]
 8003768:	f000 face 	bl	8003d08 <I2C_MasterRequestWrite>
 800376c:	4603      	mov	r3, r0
 800376e:	2b00      	cmp	r3, #0
 8003770:	d001      	beq.n	8003776 <HAL_I2C_Master_Transmit+0xce>
    {
      return HAL_ERROR;
 8003772:	2301      	movs	r3, #1
 8003774:	e08d      	b.n	8003892 <HAL_I2C_Master_Transmit+0x1ea>
    }

    /* Clear ADDR flag */
    __HAL_I2C_CLEAR_ADDRFLAG(hi2c);
 8003776:	2300      	movs	r3, #0
 8003778:	613b      	str	r3, [r7, #16]
 800377a:	68fb      	ldr	r3, [r7, #12]
 800377c:	681b      	ldr	r3, [r3, #0]
 800377e:	695b      	ldr	r3, [r3, #20]
 8003780:	613b      	str	r3, [r7, #16]
 8003782:	68fb      	ldr	r3, [r7, #12]
 8003784:	681b      	ldr	r3, [r3, #0]
 8003786:	699b      	ldr	r3, [r3, #24]
 8003788:	613b      	str	r3, [r7, #16]
 800378a:	693b      	ldr	r3, [r7, #16]

    while (hi2c->XferSize > 0U)
 800378c:	e066      	b.n	800385c <HAL_I2C_Master_Transmit+0x1b4>
    {
      /* Wait until TXE flag is set */
      if (I2C_WaitOnTXEFlagUntilTimeout(hi2c, Timeout, tickstart) != HAL_OK)
 800378e:	697a      	ldr	r2, [r7, #20]
 8003790:	6a39      	ldr	r1, [r7, #32]
 8003792:	68f8      	ldr	r0, [r7, #12]
 8003794:	f000 fd22 	bl	80041dc <I2C_WaitOnTXEFlagUntilTimeout>
 8003798:	4603      	mov	r3, r0
 800379a:	2b00      	cmp	r3, #0
 800379c:	d00d      	beq.n	80037ba <HAL_I2C_Master_Transmit+0x112>
      {
        if (hi2c->ErrorCode == HAL_I2C_ERROR_AF)
 800379e:	68fb      	ldr	r3, [r7, #12]
 80037a0:	6c1b      	ldr	r3, [r3, #64]	@ 0x40
 80037a2:	2b04      	cmp	r3, #4
 80037a4:	d107      	bne.n	80037b6 <HAL_I2C_Master_Transmit+0x10e>
        {
          /* Generate Stop */
          SET_BIT(hi2c->Instance->CR1, I2C_CR1_STOP);
 80037a6:	68fb      	ldr	r3, [r7, #12]
 80037a8:	681b      	ldr	r3, [r3, #0]
 80037aa:	681a      	ldr	r2, [r3, #0]
 80037ac:	68fb      	ldr	r3, [r7, #12]
 80037ae:	681b      	ldr	r3, [r3, #0]
 80037b0:	f442 7200 	orr.w	r2, r2, #512	@ 0x200
 80037b4:	601a      	str	r2, [r3, #0]
        }
        return HAL_ERROR;
 80037b6:	2301      	movs	r3, #1
 80037b8:	e06b      	b.n	8003892 <HAL_I2C_Master_Transmit+0x1ea>
      }

      /* Write data to DR */
      hi2c->Instance->DR = *hi2c->pBuffPtr;
 80037ba:	68fb      	ldr	r3, [r7, #12]
 80037bc:	6a5b      	ldr	r3, [r3, #36]	@ 0x24
 80037be:	781a      	ldrb	r2, [r3, #0]
 80037c0:	68fb      	ldr	r3, [r7, #12]
 80037c2:	681b      	ldr	r3, [r3, #0]
 80037c4:	611a      	str	r2, [r3, #16]

      /* Increment Buffer pointer */
      hi2c->pBuffPtr++;
 80037c6:	68fb      	ldr	r3, [r7, #12]
 80037c8:	6a5b      	ldr	r3, [r3, #36]	@ 0x24
 80037ca:	1c5a      	adds	r2, r3, #1
 80037cc:	68fb      	ldr	r3, [r7, #12]
 80037ce:	625a      	str	r2, [r3, #36]	@ 0x24

      /* Update counter */
      hi2c->XferCount--;
 80037d0:	68fb      	ldr	r3, [r7, #12]
 80037d2:	8d5b      	ldrh	r3, [r3, #42]	@ 0x2a
 80037d4:	b29b      	uxth	r3, r3
 80037d6:	3b01      	subs	r3, #1
 80037d8:	b29a      	uxth	r2, r3
 80037da:	68fb      	ldr	r3, [r7, #12]
 80037dc:	855a      	strh	r2, [r3, #42]	@ 0x2a
      hi2c->XferSize--;
 80037de:	68fb      	ldr	r3, [r7, #12]
 80037e0:	8d1b      	ldrh	r3, [r3, #40]	@ 0x28
 80037e2:	3b01      	subs	r3, #1
 80037e4:	b29a      	uxth	r2, r3
 80037e6:	68fb      	ldr	r3, [r7, #12]
 80037e8:	851a      	strh	r2, [r3, #40]	@ 0x28

      if ((__HAL_I2C_GET_FLAG(hi2c, I2C_FLAG_BTF) == SET) && (hi2c->XferSize != 0U))
 80037ea:	68fb      	ldr	r3, [r7, #12]
 80037ec:	681b      	ldr	r3, [r3, #0]
 80037ee:	695b      	ldr	r3, [r3, #20]
 80037f0:	f003 0304 	and.w	r3, r3, #4
 80037f4:	2b04      	cmp	r3, #4
 80037f6:	d11b      	bne.n	8003830 <HAL_I2C_Master_Transmit+0x188>
 80037f8:	68fb      	ldr	r3, [r7, #12]
 80037fa:	8d1b      	ldrh	r3, [r3, #40]	@ 0x28
 80037fc:	2b00      	cmp	r3, #0
 80037fe:	d017      	beq.n	8003830 <HAL_I2C_Master_Transmit+0x188>
      {
        /* Write data to DR */
        hi2c->Instance->DR = *hi2c->pBuffPtr;
 8003800:	68fb      	ldr	r3, [r7, #12]
 8003802:	6a5b      	ldr	r3, [r3, #36]	@ 0x24
 8003804:	781a      	ldrb	r2, [r3, #0]
 8003806:	68fb      	ldr	r3, [r7, #12]
 8003808:	681b      	ldr	r3, [r3, #0]
 800380a:	611a      	str	r2, [r3, #16]

        /* Increment Buffer pointer */
        hi2c->pBuffPtr++;
 800380c:	68fb      	ldr	r3, [r7, #12]
 800380e:	6a5b      	ldr	r3, [r3, #36]	@ 0x24
 8003810:	1c5a      	adds	r2, r3, #1
 8003812:	68fb      	ldr	r3, [r7, #12]
 8003814:	625a      	str	r2, [r3, #36]	@ 0x24

        /* Update counter */
        hi2c->XferCount--;
 8003816:	68fb      	ldr	r3, [r7, #12]
 8003818:	8d5b      	ldrh	r3, [r3, #42]	@ 0x2a
 800381a:	b29b      	uxth	r3, r3
 800381c:	3b01      	subs	r3, #1
 800381e:	b29a      	uxth	r2, r3
 8003820:	68fb      	ldr	r3, [r7, #12]
 8003822:	855a      	strh	r2, [r3, #42]	@ 0x2a
        hi2c->XferSize--;
 8003824:	68fb      	ldr	r3, [r7, #12]
 8003826:	8d1b      	ldrh	r3, [r3, #40]	@ 0x28
 8003828:	3b01      	subs	r3, #1
 800382a:	b29a      	uxth	r2, r3
 800382c:	68fb      	ldr	r3, [r7, #12]
 800382e:	851a      	strh	r2, [r3, #40]	@ 0x28
      }

      /* Wait until BTF flag is set */
      if (I2C_WaitOnBTFFlagUntilTimeout(hi2c, Timeout, tickstart) != HAL_OK)
 8003830:	697a      	ldr	r2, [r7, #20]
 8003832:	6a39      	ldr	r1, [r7, #32]
 8003834:	68f8      	ldr	r0, [r7, #12]
 8003836:	f000 fd19 	bl	800426c <I2C_WaitOnBTFFlagUntilTimeout>
 800383a:	4603      	mov	r3, r0
 800383c:	2b00      	cmp	r3, #0
 800383e:	d00d      	beq.n	800385c <HAL_I2C_Master_Transmit+0x1b4>
      {
        if (hi2c->ErrorCode == HAL_I2C_ERROR_AF)
 8003840:	68fb      	ldr	r3, [r7, #12]
 8003842:	6c1b      	ldr	r3, [r3, #64]	@ 0x40
 8003844:	2b04      	cmp	r3, #4
 8003846:	d107      	bne.n	8003858 <HAL_I2C_Master_Transmit+0x1b0>
        {
          /* Generate Stop */
          SET_BIT(hi2c->Instance->CR1, I2C_CR1_STOP);
 8003848:	68fb      	ldr	r3, [r7, #12]
 800384a:	681b      	ldr	r3, [r3, #0]
 800384c:	681a      	ldr	r2, [r3, #0]
 800384e:	68fb      	ldr	r3, [r7, #12]
 8003850:	681b      	ldr	r3, [r3, #0]
 8003852:	f442 7200 	orr.w	r2, r2, #512	@ 0x200
 8003856:	601a      	str	r2, [r3, #0]
        }
        return HAL_ERROR;
 8003858:	2301      	movs	r3, #1
 800385a:	e01a      	b.n	8003892 <HAL_I2C_Master_Transmit+0x1ea>
    while (hi2c->XferSize > 0U)
 800385c:	68fb      	ldr	r3, [r7, #12]
 800385e:	8d1b      	ldrh	r3, [r3, #40]	@ 0x28
 8003860:	2b00      	cmp	r3, #0
 8003862:	d194      	bne.n	800378e <HAL_I2C_Master_Transmit+0xe6>
      }
    }

    /* Generate Stop */
    SET_BIT(hi2c->Instance->CR1, I2C_CR1_STOP);
 8003864:	68fb      	ldr	r3, [r7, #12]
 8003866:	681b      	ldr	r3, [r3, #0]
 8003868:	681a      	ldr	r2, [r3, #0]
 800386a:	68fb      	ldr	r3, [r7, #12]
 800386c:	681b      	ldr	r3, [r3, #0]
 800386e:	f442 7200 	orr.w	r2, r2, #512	@ 0x200
 8003872:	601a      	str	r2, [r3, #0]

    hi2c->State = HAL_I2C_STATE_READY;
 8003874:	68fb      	ldr	r3, [r7, #12]
 8003876:	2220      	movs	r2, #32
 8003878:	f883 203d 	strb.w	r2, [r3, #61]	@ 0x3d
    hi2c->Mode = HAL_I2C_MODE_NONE;
 800387c:	68fb      	ldr	r3, [r7, #12]
 800387e:	2200      	movs	r2, #0
 8003880:	f883 203e 	strb.w	r2, [r3, #62]	@ 0x3e

    /* Process Unlocked */
    __HAL_UNLOCK(hi2c);
 8003884:	68fb      	ldr	r3, [r7, #12]
 8003886:	2200      	movs	r2, #0
 8003888:	f883 203c 	strb.w	r2, [r3, #60]	@ 0x3c

    return HAL_OK;
 800388c:	2300      	movs	r3, #0
 800388e:	e000      	b.n	8003892 <HAL_I2C_Master_Transmit+0x1ea>
  }
  else
  {
    return HAL_BUSY;
 8003890:	2302      	movs	r3, #2
  }
}
 8003892:	4618      	mov	r0, r3
 8003894:	3718      	adds	r7, #24
 8003896:	46bd      	mov	sp, r7
 8003898:	bd80      	pop	{r7, pc}
 800389a:	bf00      	nop
 800389c:	00100002 	.word	0x00100002
 80038a0:	ffff0000 	.word	0xffff0000

080038a4 <HAL_I2C_Master_Receive>:
  * @param  Size Amount of data to be sent
  * @param  Timeout Timeout duration
  * @retval HAL status
  */
HAL_StatusTypeDef HAL_I2C_Master_Receive(I2C_HandleTypeDef *hi2c, uint16_t DevAddress, uint8_t *pData, uint16_t Size, uint32_t Timeout)
{
 80038a4:	b580      	push	{r7, lr}
 80038a6:	b08c      	sub	sp, #48	@ 0x30
 80038a8:	af02      	add	r7, sp, #8
 80038aa:	60f8      	str	r0, [r7, #12]
 80038ac:	607a      	str	r2, [r7, #4]
 80038ae:	461a      	mov	r2, r3
 80038b0:	460b      	mov	r3, r1
 80038b2:	817b      	strh	r3, [r7, #10]
 80038b4:	4613      	mov	r3, r2
 80038b6:	813b      	strh	r3, [r7, #8]
  /* Init tickstart for timeout management*/
  uint32_t tickstart = HAL_GetTick();
 80038b8:	f7fe fe3e 	bl	8002538 <HAL_GetTick>
 80038bc:	6278      	str	r0, [r7, #36]	@ 0x24

  if (hi2c->State == HAL_I2C_STATE_READY)
 80038be:	68fb      	ldr	r3, [r7, #12]
 80038c0:	f893 303d 	ldrb.w	r3, [r3, #61]	@ 0x3d
 80038c4:	b2db      	uxtb	r3, r3
 80038c6:	2b20      	cmp	r3, #32
 80038c8:	f040 8217 	bne.w	8003cfa <HAL_I2C_Master_Receive+0x456>
  {
    /* Wait until BUSY flag is reset */
    if (I2C_WaitOnFlagUntilTimeout(hi2c, I2C_FLAG_BUSY, SET, I2C_TIMEOUT_BUSY_FLAG, tickstart) != HAL_OK)
 80038cc:	6a7b      	ldr	r3, [r7, #36]	@ 0x24
 80038ce:	9300      	str	r3, [sp, #0]
 80038d0:	2319      	movs	r3, #25
 80038d2:	2201      	movs	r2, #1
 80038d4:	497c      	ldr	r1, [pc, #496]	@ (8003ac8 <HAL_I2C_Master_Receive+0x224>)
 80038d6:	68f8      	ldr	r0, [r7, #12]
 80038d8:	f000 fb66 	bl	8003fa8 <I2C_WaitOnFlagUntilTimeout>
 80038dc:	4603      	mov	r3, r0
 80038de:	2b00      	cmp	r3, #0
 80038e0:	d001      	beq.n	80038e6 <HAL_I2C_Master_Receive+0x42>
    {
      return HAL_BUSY;
 80038e2:	2302      	movs	r3, #2
 80038e4:	e20a      	b.n	8003cfc <HAL_I2C_Master_Receive+0x458>
    }

    /* Process Locked */
    __HAL_LOCK(hi2c);
 80038e6:	68fb      	ldr	r3, [r7, #12]
 80038e8:	f893 303c 	ldrb.w	r3, [r3, #60]	@ 0x3c
 80038ec:	2b01      	cmp	r3, #1
 80038ee:	d101      	bne.n	80038f4 <HAL_I2C_Master_Receive+0x50>
 80038f0:	2302      	movs	r3, #2
 80038f2:	e203      	b.n	8003cfc <HAL_I2C_Master_Receive+0x458>
 80038f4:	68fb      	ldr	r3, [r7, #12]
 80038f6:	2201      	movs	r2, #1
 80038f8:	f883 203c 	strb.w	r2, [r3, #60]	@ 0x3c

    /* Check if the I2C is already enabled */
    if ((hi2c->Instance->CR1 & I2C_CR1_PE) != I2C_CR1_PE)
 80038fc:	68fb      	ldr	r3, [r7, #12]
 80038fe:	681b      	ldr	r3, [r3, #0]
 8003900:	681b      	ldr	r3, [r3, #0]
 8003902:	f003 0301 	and.w	r3, r3, #1
 8003906:	2b01      	cmp	r3, #1
 8003908:	d007      	beq.n	800391a <HAL_I2C_Master_Receive+0x76>
    {
      /* Enable I2C peripheral */
      __HAL_I2C_ENABLE(hi2c);
 800390a:	68fb      	ldr	r3, [r7, #12]
 800390c:	681b      	ldr	r3, [r3, #0]
 800390e:	681a      	ldr	r2, [r3, #0]
 8003910:	68fb      	ldr	r3, [r7, #12]
 8003912:	681b      	ldr	r3, [r3, #0]
 8003914:	f042 0201 	orr.w	r2, r2, #1
 8003918:	601a      	str	r2, [r3, #0]
    }

    /* Disable Pos */
    CLEAR_BIT(hi2c->Instance->CR1, I2C_CR1_POS);
 800391a:	68fb      	ldr	r3, [r7, #12]
 800391c:	681b      	ldr	r3, [r3, #0]
 800391e:	681a      	ldr	r2, [r3, #0]
 8003920:	68fb      	ldr	r3, [r7, #12]
 8003922:	681b      	ldr	r3, [r3, #0]
 8003924:	f422 6200 	bic.w	r2, r2, #2048	@ 0x800
 8003928:	601a      	str	r2, [r3, #0]

    hi2c->State       = HAL_I2C_STATE_BUSY_RX;
 800392a:	68fb      	ldr	r3, [r7, #12]
 800392c:	2222      	movs	r2, #34	@ 0x22
 800392e:	f883 203d 	strb.w	r2, [r3, #61]	@ 0x3d
    hi2c->Mode        = HAL_I2C_MODE_MASTER;
 8003932:	68fb      	ldr	r3, [r7, #12]
 8003934:	2210      	movs	r2, #16
 8003936:	f883 203e 	strb.w	r2, [r3, #62]	@ 0x3e
    hi2c->ErrorCode   = HAL_I2C_ERROR_NONE;
 800393a:	68fb      	ldr	r3, [r7, #12]
 800393c:	2200      	movs	r2, #0
 800393e:	641a      	str	r2, [r3, #64]	@ 0x40

    /* Prepare transfer parameters */
    hi2c->pBuffPtr    = pData;
 8003940:	68fb      	ldr	r3, [r7, #12]
 8003942:	687a      	ldr	r2, [r7, #4]
 8003944:	625a      	str	r2, [r3, #36]	@ 0x24
    hi2c->XferCount   = Size;
 8003946:	68fb      	ldr	r3, [r7, #12]
 8003948:	893a      	ldrh	r2, [r7, #8]
 800394a:	855a      	strh	r2, [r3, #42]	@ 0x2a
    hi2c->XferSize    = hi2c->XferCount;
 800394c:	68fb      	ldr	r3, [r7, #12]
 800394e:	8d5b      	ldrh	r3, [r3, #42]	@ 0x2a
 8003950:	b29a      	uxth	r2, r3
 8003952:	68fb      	ldr	r3, [r7, #12]
 8003954:	851a      	strh	r2, [r3, #40]	@ 0x28
    hi2c->XferOptions = I2C_NO_OPTION_FRAME;
 8003956:	68fb      	ldr	r3, [r7, #12]
 8003958:	4a5c      	ldr	r2, [pc, #368]	@ (8003acc <HAL_I2C_Master_Receive+0x228>)
 800395a:	62da      	str	r2, [r3, #44]	@ 0x2c

    /* Send Slave Address */
    if (I2C_MasterRequestRead(hi2c, DevAddress, Timeout, tickstart) != HAL_OK)
 800395c:	8979      	ldrh	r1, [r7, #10]
 800395e:	6a7b      	ldr	r3, [r7, #36]	@ 0x24
 8003960:	6b3a      	ldr	r2, [r7, #48]	@ 0x30
 8003962:	68f8      	ldr	r0, [r7, #12]
 8003964:	f000 fa52 	bl	8003e0c <I2C_MasterRequestRead>
 8003968:	4603      	mov	r3, r0
 800396a:	2b00      	cmp	r3, #0
 800396c:	d001      	beq.n	8003972 <HAL_I2C_Master_Receive+0xce>
    {
      return HAL_ERROR;
 800396e:	2301      	movs	r3, #1
 8003970:	e1c4      	b.n	8003cfc <HAL_I2C_Master_Receive+0x458>
    }

    if (hi2c->XferSize == 0U)
 8003972:	68fb      	ldr	r3, [r7, #12]
 8003974:	8d1b      	ldrh	r3, [r3, #40]	@ 0x28
 8003976:	2b00      	cmp	r3, #0
 8003978:	d113      	bne.n	80039a2 <HAL_I2C_Master_Receive+0xfe>
    {
      /* Clear ADDR flag */
      __HAL_I2C_CLEAR_ADDRFLAG(hi2c);
 800397a:	2300      	movs	r3, #0
 800397c:	623b      	str	r3, [r7, #32]
 800397e:	68fb      	ldr	r3, [r7, #12]
 8003980:	681b      	ldr	r3, [r3, #0]
 8003982:	695b      	ldr	r3, [r3, #20]
 8003984:	623b      	str	r3, [r7, #32]
 8003986:	68fb      	ldr	r3, [r7, #12]
 8003988:	681b      	ldr	r3, [r3, #0]
 800398a:	699b      	ldr	r3, [r3, #24]
 800398c:	623b      	str	r3, [r7, #32]
 800398e:	6a3b      	ldr	r3, [r7, #32]

      /* Generate Stop */
      SET_BIT(hi2c->Instance->CR1, I2C_CR1_STOP);
 8003990:	68fb      	ldr	r3, [r7, #12]
 8003992:	681b      	ldr	r3, [r3, #0]
 8003994:	681a      	ldr	r2, [r3, #0]
 8003996:	68fb      	ldr	r3, [r7, #12]
 8003998:	681b      	ldr	r3, [r3, #0]
 800399a:	f442 7200 	orr.w	r2, r2, #512	@ 0x200
 800399e:	601a      	str	r2, [r3, #0]
 80039a0:	e198      	b.n	8003cd4 <HAL_I2C_Master_Receive+0x430>
    }
    else if (hi2c->XferSize == 1U)
 80039a2:	68fb      	ldr	r3, [r7, #12]
 80039a4:	8d1b      	ldrh	r3, [r3, #40]	@ 0x28
 80039a6:	2b01      	cmp	r3, #1
 80039a8:	d11b      	bne.n	80039e2 <HAL_I2C_Master_Receive+0x13e>
    {
      /* Disable Acknowledge */
      CLEAR_BIT(hi2c->Instance->CR1, I2C_CR1_ACK);
 80039aa:	68fb      	ldr	r3, [r7, #12]
 80039ac:	681b      	ldr	r3, [r3, #0]
 80039ae:	681a      	ldr	r2, [r3, #0]
 80039b0:	68fb      	ldr	r3, [r7, #12]
 80039b2:	681b      	ldr	r3, [r3, #0]
 80039b4:	f422 6280 	bic.w	r2, r2, #1024	@ 0x400
 80039b8:	601a      	str	r2, [r3, #0]

      /* Clear ADDR flag */
      __HAL_I2C_CLEAR_ADDRFLAG(hi2c);
 80039ba:	2300      	movs	r3, #0
 80039bc:	61fb      	str	r3, [r7, #28]
 80039be:	68fb      	ldr	r3, [r7, #12]
 80039c0:	681b      	ldr	r3, [r3, #0]
 80039c2:	695b      	ldr	r3, [r3, #20]
 80039c4:	61fb      	str	r3, [r7, #28]
 80039c6:	68fb      	ldr	r3, [r7, #12]
 80039c8:	681b      	ldr	r3, [r3, #0]
 80039ca:	699b      	ldr	r3, [r3, #24]
 80039cc:	61fb      	str	r3, [r7, #28]
 80039ce:	69fb      	ldr	r3, [r7, #28]

      /* Generate Stop */
      SET_BIT(hi2c->Instance->CR1, I2C_CR1_STOP);
 80039d0:	68fb      	ldr	r3, [r7, #12]
 80039d2:	681b      	ldr	r3, [r3, #0]
 80039d4:	681a      	ldr	r2, [r3, #0]
 80039d6:	68fb      	ldr	r3, [r7, #12]
 80039d8:	681b      	ldr	r3, [r3, #0]
 80039da:	f442 7200 	orr.w	r2, r2, #512	@ 0x200
 80039de:	601a      	str	r2, [r3, #0]
 80039e0:	e178      	b.n	8003cd4 <HAL_I2C_Master_Receive+0x430>
    }
    else if (hi2c->XferSize == 2U)
 80039e2:	68fb      	ldr	r3, [r7, #12]
 80039e4:	8d1b      	ldrh	r3, [r3, #40]	@ 0x28
 80039e6:	2b02      	cmp	r3, #2
 80039e8:	d11b      	bne.n	8003a22 <HAL_I2C_Master_Receive+0x17e>
    {
      /* Disable Acknowledge */
      CLEAR_BIT(hi2c->Instance->CR1, I2C_CR1_ACK);
 80039ea:	68fb      	ldr	r3, [r7, #12]
 80039ec:	681b      	ldr	r3, [r3, #0]
 80039ee:	681a      	ldr	r2, [r3, #0]
 80039f0:	68fb      	ldr	r3, [r7, #12]
 80039f2:	681b      	ldr	r3, [r3, #0]
 80039f4:	f422 6280 	bic.w	r2, r2, #1024	@ 0x400
 80039f8:	601a      	str	r2, [r3, #0]

      /* Enable Pos */
      SET_BIT(hi2c->Instance->CR1, I2C_CR1_POS);
 80039fa:	68fb      	ldr	r3, [r7, #12]
 80039fc:	681b      	ldr	r3, [r3, #0]
 80039fe:	681a      	ldr	r2, [r3, #0]
 8003a00:	68fb      	ldr	r3, [r7, #12]
 8003a02:	681b      	ldr	r3, [r3, #0]
 8003a04:	f442 6200 	orr.w	r2, r2, #2048	@ 0x800
 8003a08:	601a      	str	r2, [r3, #0]

      /* Clear ADDR flag */
      __HAL_I2C_CLEAR_ADDRFLAG(hi2c);
 8003a0a:	2300      	movs	r3, #0
 8003a0c:	61bb      	str	r3, [r7, #24]
 8003a0e:	68fb      	ldr	r3, [r7, #12]
 8003a10:	681b      	ldr	r3, [r3, #0]
 8003a12:	695b      	ldr	r3, [r3, #20]
 8003a14:	61bb      	str	r3, [r7, #24]
 8003a16:	68fb      	ldr	r3, [r7, #12]
 8003a18:	681b      	ldr	r3, [r3, #0]
 8003a1a:	699b      	ldr	r3, [r3, #24]
 8003a1c:	61bb      	str	r3, [r7, #24]
 8003a1e:	69bb      	ldr	r3, [r7, #24]
 8003a20:	e158      	b.n	8003cd4 <HAL_I2C_Master_Receive+0x430>
    }
    else
    {
      /* Enable Acknowledge */
      SET_BIT(hi2c->Instance->CR1, I2C_CR1_ACK);
 8003a22:	68fb      	ldr	r3, [r7, #12]
 8003a24:	681b      	ldr	r3, [r3, #0]
 8003a26:	681a      	ldr	r2, [r3, #0]
 8003a28:	68fb      	ldr	r3, [r7, #12]
 8003a2a:	681b      	ldr	r3, [r3, #0]
 8003a2c:	f442 6280 	orr.w	r2, r2, #1024	@ 0x400
 8003a30:	601a      	str	r2, [r3, #0]

      /* Clear ADDR flag */
      __HAL_I2C_CLEAR_ADDRFLAG(hi2c);
 8003a32:	2300      	movs	r3, #0
 8003a34:	617b      	str	r3, [r7, #20]
 8003a36:	68fb      	ldr	r3, [r7, #12]
 8003a38:	681b      	ldr	r3, [r3, #0]
 8003a3a:	695b      	ldr	r3, [r3, #20]
 8003a3c:	617b      	str	r3, [r7, #20]
 8003a3e:	68fb      	ldr	r3, [r7, #12]
 8003a40:	681b      	ldr	r3, [r3, #0]
 8003a42:	699b      	ldr	r3, [r3, #24]
 8003a44:	617b      	str	r3, [r7, #20]
 8003a46:	697b      	ldr	r3, [r7, #20]
    }

    while (hi2c->XferSize > 0U)
 8003a48:	e144      	b.n	8003cd4 <HAL_I2C_Master_Receive+0x430>
    {
      if (hi2c->XferSize <= 3U)
 8003a4a:	68fb      	ldr	r3, [r7, #12]
 8003a4c:	8d1b      	ldrh	r3, [r3, #40]	@ 0x28
 8003a4e:	2b03      	cmp	r3, #3
 8003a50:	f200 80f1 	bhi.w	8003c36 <HAL_I2C_Master_Receive+0x392>
      {
        /* One byte */
        if (hi2c->XferSize == 1U)
 8003a54:	68fb      	ldr	r3, [r7, #12]
 8003a56:	8d1b      	ldrh	r3, [r3, #40]	@ 0x28
 8003a58:	2b01      	cmp	r3, #1
 8003a5a:	d123      	bne.n	8003aa4 <HAL_I2C_Master_Receive+0x200>
        {
          /* Wait until RXNE flag is set */
          if (I2C_WaitOnRXNEFlagUntilTimeout(hi2c, Timeout, tickstart) != HAL_OK)
 8003a5c:	6a7a      	ldr	r2, [r7, #36]	@ 0x24
 8003a5e:	6b39      	ldr	r1, [r7, #48]	@ 0x30
 8003a60:	68f8      	ldr	r0, [r7, #12]
 8003a62:	f000 fc4b 	bl	80042fc <I2C_WaitOnRXNEFlagUntilTimeout>
 8003a66:	4603      	mov	r3, r0
 8003a68:	2b00      	cmp	r3, #0
 8003a6a:	d001      	beq.n	8003a70 <HAL_I2C_Master_Receive+0x1cc>
          {
            return HAL_ERROR;
 8003a6c:	2301      	movs	r3, #1
 8003a6e:	e145      	b.n	8003cfc <HAL_I2C_Master_Receive+0x458>
          }

          /* Read data from DR */
          *hi2c->pBuffPtr = (uint8_t)hi2c->Instance->DR;
 8003a70:	68fb      	ldr	r3, [r7, #12]
 8003a72:	681b      	ldr	r3, [r3, #0]
 8003a74:	691a      	ldr	r2, [r3, #16]
 8003a76:	68fb      	ldr	r3, [r7, #12]
 8003a78:	6a5b      	ldr	r3, [r3, #36]	@ 0x24
 8003a7a:	b2d2      	uxtb	r2, r2
 8003a7c:	701a      	strb	r2, [r3, #0]

          /* Increment Buffer pointer */
          hi2c->pBuffPtr++;
 8003a7e:	68fb      	ldr	r3, [r7, #12]
 8003a80:	6a5b      	ldr	r3, [r3, #36]	@ 0x24
 8003a82:	1c5a      	adds	r2, r3, #1
 8003a84:	68fb      	ldr	r3, [r7, #12]
 8003a86:	625a      	str	r2, [r3, #36]	@ 0x24

          /* Update counter */
          hi2c->XferSize--;
 8003a88:	68fb      	ldr	r3, [r7, #12]
 8003a8a:	8d1b      	ldrh	r3, [r3, #40]	@ 0x28
 8003a8c:	3b01      	subs	r3, #1
 8003a8e:	b29a      	uxth	r2, r3
 8003a90:	68fb      	ldr	r3, [r7, #12]
 8003a92:	851a      	strh	r2, [r3, #40]	@ 0x28
          hi2c->XferCount--;
 8003a94:	68fb      	ldr	r3, [r7, #12]
 8003a96:	8d5b      	ldrh	r3, [r3, #42]	@ 0x2a
 8003a98:	b29b      	uxth	r3, r3
 8003a9a:	3b01      	subs	r3, #1
 8003a9c:	b29a      	uxth	r2, r3
 8003a9e:	68fb      	ldr	r3, [r7, #12]
 8003aa0:	855a      	strh	r2, [r3, #42]	@ 0x2a
 8003aa2:	e117      	b.n	8003cd4 <HAL_I2C_Master_Receive+0x430>
        }
        /* Two bytes */
        else if (hi2c->XferSize == 2U)
 8003aa4:	68fb      	ldr	r3, [r7, #12]
 8003aa6:	8d1b      	ldrh	r3, [r3, #40]	@ 0x28
 8003aa8:	2b02      	cmp	r3, #2
 8003aaa:	d14e      	bne.n	8003b4a <HAL_I2C_Master_Receive+0x2a6>
        {
          /* Wait until BTF flag is set */
          if (I2C_WaitOnFlagUntilTimeout(hi2c, I2C_FLAG_BTF, RESET, Timeout, tickstart) != HAL_OK)
 8003aac:	6a7b      	ldr	r3, [r7, #36]	@ 0x24
 8003aae:	9300      	str	r3, [sp, #0]
 8003ab0:	6b3b      	ldr	r3, [r7, #48]	@ 0x30
 8003ab2:	2200      	movs	r2, #0
 8003ab4:	4906      	ldr	r1, [pc, #24]	@ (8003ad0 <HAL_I2C_Master_Receive+0x22c>)
 8003ab6:	68f8      	ldr	r0, [r7, #12]
 8003ab8:	f000 fa76 	bl	8003fa8 <I2C_WaitOnFlagUntilTimeout>
 8003abc:	4603      	mov	r3, r0
 8003abe:	2b00      	cmp	r3, #0
 8003ac0:	d008      	beq.n	8003ad4 <HAL_I2C_Master_Receive+0x230>
          {
            return HAL_ERROR;
 8003ac2:	2301      	movs	r3, #1
 8003ac4:	e11a      	b.n	8003cfc <HAL_I2C_Master_Receive+0x458>
 8003ac6:	bf00      	nop
 8003ac8:	00100002 	.word	0x00100002
 8003acc:	ffff0000 	.word	0xffff0000
 8003ad0:	00010004 	.word	0x00010004
          }

          /* Generate Stop */
          SET_BIT(hi2c->Instance->CR1, I2C_CR1_STOP);
 8003ad4:	68fb      	ldr	r3, [r7, #12]
 8003ad6:	681b      	ldr	r3, [r3, #0]
 8003ad8:	681a      	ldr	r2, [r3, #0]
 8003ada:	68fb      	ldr	r3, [r7, #12]
 8003adc:	681b      	ldr	r3, [r3, #0]
 8003ade:	f442 7200 	orr.w	r2, r2, #512	@ 0x200
 8003ae2:	601a      	str	r2, [r3, #0]

          /* Read data from DR */
          *hi2c->pBuffPtr = (uint8_t)hi2c->Instance->DR;
 8003ae4:	68fb      	ldr	r3, [r7, #12]
 8003ae6:	681b      	ldr	r3, [r3, #0]
 8003ae8:	691a      	ldr	r2, [r3, #16]
 8003aea:	68fb      	ldr	r3, [r7, #12]
 8003aec:	6a5b      	ldr	r3, [r3, #36]	@ 0x24
 8003aee:	b2d2      	uxtb	r2, r2
 8003af0:	701a      	strb	r2, [r3, #0]

          /* Increment Buffer pointer */
          hi2c->pBuffPtr++;
 8003af2:	68fb      	ldr	r3, [r7, #12]
 8003af4:	6a5b      	ldr	r3, [r3, #36]	@ 0x24
 8003af6:	1c5a      	adds	r2, r3, #1
 8003af8:	68fb      	ldr	r3, [r7, #12]
 8003afa:	625a      	str	r2, [r3, #36]	@ 0x24

          /* Update counter */
          hi2c->XferSize--;
 8003afc:	68fb      	ldr	r3, [r7, #12]
 8003afe:	8d1b      	ldrh	r3, [r3, #40]	@ 0x28
 8003b00:	3b01      	subs	r3, #1
 8003b02:	b29a      	uxth	r2, r3
 8003b04:	68fb      	ldr	r3, [r7, #12]
 8003b06:	851a      	strh	r2, [r3, #40]	@ 0x28
          hi2c->XferCount--;
 8003b08:	68fb      	ldr	r3, [r7, #12]
 8003b0a:	8d5b      	ldrh	r3, [r3, #42]	@ 0x2a
 8003b0c:	b29b      	uxth	r3, r3
 8003b0e:	3b01      	subs	r3, #1
 8003b10:	b29a      	uxth	r2, r3
 8003b12:	68fb      	ldr	r3, [r7, #12]
 8003b14:	855a      	strh	r2, [r3, #42]	@ 0x2a

          /* Read data from DR */
          *hi2c->pBuffPtr = (uint8_t)hi2c->Instance->DR;
 8003b16:	68fb      	ldr	r3, [r7, #12]
 8003b18:	681b      	ldr	r3, [r3, #0]
 8003b1a:	691a      	ldr	r2, [r3, #16]
 8003b1c:	68fb      	ldr	r3, [r7, #12]
 8003b1e:	6a5b      	ldr	r3, [r3, #36]	@ 0x24
 8003b20:	b2d2      	uxtb	r2, r2
 8003b22:	701a      	strb	r2, [r3, #0]

          /* Increment Buffer pointer */
          hi2c->pBuffPtr++;
 8003b24:	68fb      	ldr	r3, [r7, #12]
 8003b26:	6a5b      	ldr	r3, [r3, #36]	@ 0x24
 8003b28:	1c5a      	adds	r2, r3, #1
 8003b2a:	68fb      	ldr	r3, [r7, #12]
 8003b2c:	625a      	str	r2, [r3, #36]	@ 0x24

          /* Update counter */
          hi2c->XferSize--;
 8003b2e:	68fb      	ldr	r3, [r7, #12]
 8003b30:	8d1b      	ldrh	r3, [r3, #40]	@ 0x28
 8003b32:	3b01      	subs	r3, #1
 8003b34:	b29a      	uxth	r2, r3
 8003b36:	68fb      	ldr	r3, [r7, #12]
 8003b38:	851a      	strh	r2, [r3, #40]	@ 0x28
          hi2c->XferCount--;
 8003b3a:	68fb      	ldr	r3, [r7, #12]
 8003b3c:	8d5b      	ldrh	r3, [r3, #42]	@ 0x2a
 8003b3e:	b29b      	uxth	r3, r3
 8003b40:	3b01      	subs	r3, #1
 8003b42:	b29a      	uxth	r2, r3
 8003b44:	68fb      	ldr	r3, [r7, #12]
 8003b46:	855a      	strh	r2, [r3, #42]	@ 0x2a
 8003b48:	e0c4      	b.n	8003cd4 <HAL_I2C_Master_Receive+0x430>
        }
        /* 3 Last bytes */
        else
        {
          /* Wait until BTF flag is set */
          if (I2C_WaitOnFlagUntilTimeout(hi2c, I2C_FLAG_BTF, RESET, Timeout, tickstart) != HAL_OK)
 8003b4a:	6a7b      	ldr	r3, [r7, #36]	@ 0x24
 8003b4c:	9300      	str	r3, [sp, #0]
 8003b4e:	6b3b      	ldr	r3, [r7, #48]	@ 0x30
 8003b50:	2200      	movs	r2, #0
 8003b52:	496c      	ldr	r1, [pc, #432]	@ (8003d04 <HAL_I2C_Master_Receive+0x460>)
 8003b54:	68f8      	ldr	r0, [r7, #12]
 8003b56:	f000 fa27 	bl	8003fa8 <I2C_WaitOnFlagUntilTimeout>
 8003b5a:	4603      	mov	r3, r0
 8003b5c:	2b00      	cmp	r3, #0
 8003b5e:	d001      	beq.n	8003b64 <HAL_I2C_Master_Receive+0x2c0>
          {
            return HAL_ERROR;
 8003b60:	2301      	movs	r3, #1
 8003b62:	e0cb      	b.n	8003cfc <HAL_I2C_Master_Receive+0x458>
          }

          /* Disable Acknowledge */
          CLEAR_BIT(hi2c->Instance->CR1, I2C_CR1_ACK);
 8003b64:	68fb      	ldr	r3, [r7, #12]
 8003b66:	681b      	ldr	r3, [r3, #0]
 8003b68:	681a      	ldr	r2, [r3, #0]
 8003b6a:	68fb      	ldr	r3, [r7, #12]
 8003b6c:	681b      	ldr	r3, [r3, #0]
 8003b6e:	f422 6280 	bic.w	r2, r2, #1024	@ 0x400
 8003b72:	601a      	str	r2, [r3, #0]

          /* Read data from DR */
          *hi2c->pBuffPtr = (uint8_t)hi2c->Instance->DR;
 8003b74:	68fb      	ldr	r3, [r7, #12]
 8003b76:	681b      	ldr	r3, [r3, #0]
 8003b78:	691a      	ldr	r2, [r3, #16]
 8003b7a:	68fb      	ldr	r3, [r7, #12]
 8003b7c:	6a5b      	ldr	r3, [r3, #36]	@ 0x24
 8003b7e:	b2d2      	uxtb	r2, r2
 8003b80:	701a      	strb	r2, [r3, #0]

          /* Increment Buffer pointer */
          hi2c->pBuffPtr++;
 8003b82:	68fb      	ldr	r3, [r7, #12]
 8003b84:	6a5b      	ldr	r3, [r3, #36]	@ 0x24
 8003b86:	1c5a      	adds	r2, r3, #1
 8003b88:	68fb      	ldr	r3, [r7, #12]
 8003b8a:	625a      	str	r2, [r3, #36]	@ 0x24

          /* Update counter */
          hi2c->XferSize--;
 8003b8c:	68fb      	ldr	r3, [r7, #12]
 8003b8e:	8d1b      	ldrh	r3, [r3, #40]	@ 0x28
 8003b90:	3b01      	subs	r3, #1
 8003b92:	b29a      	uxth	r2, r3
 8003b94:	68fb      	ldr	r3, [r7, #12]
 8003b96:	851a      	strh	r2, [r3, #40]	@ 0x28
          hi2c->XferCount--;
 8003b98:	68fb      	ldr	r3, [r7, #12]
 8003b9a:	8d5b      	ldrh	r3, [r3, #42]	@ 0x2a
 8003b9c:	b29b      	uxth	r3, r3
 8003b9e:	3b01      	subs	r3, #1
 8003ba0:	b29a      	uxth	r2, r3
 8003ba2:	68fb      	ldr	r3, [r7, #12]
 8003ba4:	855a      	strh	r2, [r3, #42]	@ 0x2a

          /* Wait until BTF flag is set */
          if (I2C_WaitOnFlagUntilTimeout(hi2c, I2C_FLAG_BTF, RESET, Timeout, tickstart) != HAL_OK)
 8003ba6:	6a7b      	ldr	r3, [r7, #36]	@ 0x24
 8003ba8:	9300      	str	r3, [sp, #0]
 8003baa:	6b3b      	ldr	r3, [r7, #48]	@ 0x30
 8003bac:	2200      	movs	r2, #0
 8003bae:	4955      	ldr	r1, [pc, #340]	@ (8003d04 <HAL_I2C_Master_Receive+0x460>)
 8003bb0:	68f8      	ldr	r0, [r7, #12]
 8003bb2:	f000 f9f9 	bl	8003fa8 <I2C_WaitOnFlagUntilTimeout>
 8003bb6:	4603      	mov	r3, r0
 8003bb8:	2b00      	cmp	r3, #0
 8003bba:	d001      	beq.n	8003bc0 <HAL_I2C_Master_Receive+0x31c>
          {
            return HAL_ERROR;
 8003bbc:	2301      	movs	r3, #1
 8003bbe:	e09d      	b.n	8003cfc <HAL_I2C_Master_Receive+0x458>
          }

          /* Generate Stop */
          SET_BIT(hi2c->Instance->CR1, I2C_CR1_STOP);
 8003bc0:	68fb      	ldr	r3, [r7, #12]
 8003bc2:	681b      	ldr	r3, [r3, #0]
 8003bc4:	681a      	ldr	r2, [r3, #0]
 8003bc6:	68fb      	ldr	r3, [r7, #12]
 8003bc8:	681b      	ldr	r3, [r3, #0]
 8003bca:	f442 7200 	orr.w	r2, r2, #512	@ 0x200
 8003bce:	601a      	str	r2, [r3, #0]

          /* Read data from DR */
          *hi2c->pBuffPtr = (uint8_t)hi2c->Instance->DR;
 8003bd0:	68fb      	ldr	r3, [r7, #12]
 8003bd2:	681b      	ldr	r3, [r3, #0]
 8003bd4:	691a      	ldr	r2, [r3, #16]
 8003bd6:	68fb      	ldr	r3, [r7, #12]
 8003bd8:	6a5b      	ldr	r3, [r3, #36]	@ 0x24
 8003bda:	b2d2      	uxtb	r2, r2
 8003bdc:	701a      	strb	r2, [r3, #0]

          /* Increment Buffer pointer */
          hi2c->pBuffPtr++;
 8003bde:	68fb      	ldr	r3, [r7, #12]
 8003be0:	6a5b      	ldr	r3, [r3, #36]	@ 0x24
 8003be2:	1c5a      	adds	r2, r3, #1
 8003be4:	68fb      	ldr	r3, [r7, #12]
 8003be6:	625a      	str	r2, [r3, #36]	@ 0x24

          /* Update counter */
          hi2c->XferSize--;
 8003be8:	68fb      	ldr	r3, [r7, #12]
 8003bea:	8d1b      	ldrh	r3, [r3, #40]	@ 0x28
 8003bec:	3b01      	subs	r3, #1
 8003bee:	b29a      	uxth	r2, r3
 8003bf0:	68fb      	ldr	r3, [r7, #12]
 8003bf2:	851a      	strh	r2, [r3, #40]	@ 0x28
          hi2c->XferCount--;
 8003bf4:	68fb      	ldr	r3, [r7, #12]
 8003bf6:	8d5b      	ldrh	r3, [r3, #42]	@ 0x2a
 8003bf8:	b29b      	uxth	r3, r3
 8003bfa:	3b01      	subs	r3, #1
 8003bfc:	b29a      	uxth	r2, r3
 8003bfe:	68fb      	ldr	r3, [r7, #12]
 8003c00:	855a      	strh	r2, [r3, #42]	@ 0x2a

          /* Read data from DR */
          *hi2c->pBuffPtr = (uint8_t)hi2c->Instance->DR;
 8003c02:	68fb      	ldr	r3, [r7, #12]
 8003c04:	681b      	ldr	r3, [r3, #0]
 8003c06:	691a      	ldr	r2, [r3, #16]
 8003c08:	68fb      	ldr	r3, [r7, #12]
 8003c0a:	6a5b      	ldr	r3, [r3, #36]	@ 0x24
 8003c0c:	b2d2      	uxtb	r2, r2
 8003c0e:	701a      	strb	r2, [r3, #0]

          /* Increment Buffer pointer */
          hi2c->pBuffPtr++;
 8003c10:	68fb      	ldr	r3, [r7, #12]
 8003c12:	6a5b      	ldr	r3, [r3, #36]	@ 0x24
 8003c14:	1c5a      	adds	r2, r3, #1
 8003c16:	68fb      	ldr	r3, [r7, #12]
 8003c18:	625a      	str	r2, [r3, #36]	@ 0x24

          /* Update counter */
          hi2c->XferSize--;
 8003c1a:	68fb      	ldr	r3, [r7, #12]
 8003c1c:	8d1b      	ldrh	r3, [r3, #40]	@ 0x28
 8003c1e:	3b01      	subs	r3, #1
 8003c20:	b29a      	uxth	r2, r3
 8003c22:	68fb      	ldr	r3, [r7, #12]
 8003c24:	851a      	strh	r2, [r3, #40]	@ 0x28
          hi2c->XferCount--;
 8003c26:	68fb      	ldr	r3, [r7, #12]
 8003c28:	8d5b      	ldrh	r3, [r3, #42]	@ 0x2a
 8003c2a:	b29b      	uxth	r3, r3
 8003c2c:	3b01      	subs	r3, #1
 8003c2e:	b29a      	uxth	r2, r3
 8003c30:	68fb      	ldr	r3, [r7, #12]
 8003c32:	855a      	strh	r2, [r3, #42]	@ 0x2a
 8003c34:	e04e      	b.n	8003cd4 <HAL_I2C_Master_Receive+0x430>
        }
      }
      else
      {
        /* Wait until RXNE flag is set */
        if (I2C_WaitOnRXNEFlagUntilTimeout(hi2c, Timeout, tickstart) != HAL_OK)
 8003c36:	6a7a      	ldr	r2, [r7, #36]	@ 0x24
 8003c38:	6b39      	ldr	r1, [r7, #48]	@ 0x30
 8003c3a:	68f8      	ldr	r0, [r7, #12]
 8003c3c:	f000 fb5e 	bl	80042fc <I2C_WaitOnRXNEFlagUntilTimeout>
 8003c40:	4603      	mov	r3, r0
 8003c42:	2b00      	cmp	r3, #0
 8003c44:	d001      	beq.n	8003c4a <HAL_I2C_Master_Receive+0x3a6>
        {
          return HAL_ERROR;
 8003c46:	2301      	movs	r3, #1
 8003c48:	e058      	b.n	8003cfc <HAL_I2C_Master_Receive+0x458>
        }

        /* Read data from DR */
        *hi2c->pBuffPtr = (uint8_t)hi2c->Instance->DR;
 8003c4a:	68fb      	ldr	r3, [r7, #12]
 8003c4c:	681b      	ldr	r3, [r3, #0]
 8003c4e:	691a      	ldr	r2, [r3, #16]
 8003c50:	68fb      	ldr	r3, [r7, #12]
 8003c52:	6a5b      	ldr	r3, [r3, #36]	@ 0x24
 8003c54:	b2d2      	uxtb	r2, r2
 8003c56:	701a      	strb	r2, [r3, #0]

        /* Increment Buffer pointer */
        hi2c->pBuffPtr++;
 8003c58:	68fb      	ldr	r3, [r7, #12]
 8003c5a:	6a5b      	ldr	r3, [r3, #36]	@ 0x24
 8003c5c:	1c5a      	adds	r2, r3, #1
 8003c5e:	68fb      	ldr	r3, [r7, #12]
 8003c60:	625a      	str	r2, [r3, #36]	@ 0x24

        /* Update counter */
        hi2c->XferSize--;
 8003c62:	68fb      	ldr	r3, [r7, #12]
 8003c64:	8d1b      	ldrh	r3, [r3, #40]	@ 0x28
 8003c66:	3b01      	subs	r3, #1
 8003c68:	b29a      	uxth	r2, r3
 8003c6a:	68fb      	ldr	r3, [r7, #12]
 8003c6c:	851a      	strh	r2, [r3, #40]	@ 0x28
        hi2c->XferCount--;
 8003c6e:	68fb      	ldr	r3, [r7, #12]
 8003c70:	8d5b      	ldrh	r3, [r3, #42]	@ 0x2a
 8003c72:	b29b      	uxth	r3, r3
 8003c74:	3b01      	subs	r3, #1
 8003c76:	b29a      	uxth	r2, r3
 8003c78:	68fb      	ldr	r3, [r7, #12]
 8003c7a:	855a      	strh	r2, [r3, #42]	@ 0x2a

        if (__HAL_I2C_GET_FLAG(hi2c, I2C_FLAG_BTF) == SET)
 8003c7c:	68fb      	ldr	r3, [r7, #12]
 8003c7e:	681b      	ldr	r3, [r3, #0]
 8003c80:	695b      	ldr	r3, [r3, #20]
 8003c82:	f003 0304 	and.w	r3, r3, #4
 8003c86:	2b04      	cmp	r3, #4
 8003c88:	d124      	bne.n	8003cd4 <HAL_I2C_Master_Receive+0x430>
        {

          if (hi2c->XferSize == 3U)
 8003c8a:	68fb      	ldr	r3, [r7, #12]
 8003c8c:	8d1b      	ldrh	r3, [r3, #40]	@ 0x28
 8003c8e:	2b03      	cmp	r3, #3
 8003c90:	d107      	bne.n	8003ca2 <HAL_I2C_Master_Receive+0x3fe>
          {
            /* Disable Acknowledge */
            CLEAR_BIT(hi2c->Instance->CR1, I2C_CR1_ACK);
 8003c92:	68fb      	ldr	r3, [r7, #12]
 8003c94:	681b      	ldr	r3, [r3, #0]
 8003c96:	681a      	ldr	r2, [r3, #0]
 8003c98:	68fb      	ldr	r3, [r7, #12]
 8003c9a:	681b      	ldr	r3, [r3, #0]
 8003c9c:	f422 6280 	bic.w	r2, r2, #1024	@ 0x400
 8003ca0:	601a      	str	r2, [r3, #0]
          }

          /* Read data from DR */
          *hi2c->pBuffPtr = (uint8_t)hi2c->Instance->DR;
 8003ca2:	68fb      	ldr	r3, [r7, #12]
 8003ca4:	681b      	ldr	r3, [r3, #0]
 8003ca6:	691a      	ldr	r2, [r3, #16]
 8003ca8:	68fb      	ldr	r3, [r7, #12]
 8003caa:	6a5b      	ldr	r3, [r3, #36]	@ 0x24
 8003cac:	b2d2      	uxtb	r2, r2
 8003cae:	701a      	strb	r2, [r3, #0]

          /* Increment Buffer pointer */
          hi2c->pBuffPtr++;
 8003cb0:	68fb      	ldr	r3, [r7, #12]
 8003cb2:	6a5b      	ldr	r3, [r3, #36]	@ 0x24
 8003cb4:	1c5a      	adds	r2, r3, #1
 8003cb6:	68fb      	ldr	r3, [r7, #12]
 8003cb8:	625a      	str	r2, [r3, #36]	@ 0x24

          /* Update counter */
          hi2c->XferSize--;
 8003cba:	68fb      	ldr	r3, [r7, #12]
 8003cbc:	8d1b      	ldrh	r3, [r3, #40]	@ 0x28
 8003cbe:	3b01      	subs	r3, #1
 8003cc0:	b29a      	uxth	r2, r3
 8003cc2:	68fb      	ldr	r3, [r7, #12]
 8003cc4:	851a      	strh	r2, [r3, #40]	@ 0x28
          hi2c->XferCount--;
 8003cc6:	68fb      	ldr	r3, [r7, #12]
 8003cc8:	8d5b      	ldrh	r3, [r3, #42]	@ 0x2a
 8003cca:	b29b      	uxth	r3, r3
 8003ccc:	3b01      	subs	r3, #1
 8003cce:	b29a      	uxth	r2, r3
 8003cd0:	68fb      	ldr	r3, [r7, #12]
 8003cd2:	855a      	strh	r2, [r3, #42]	@ 0x2a
    while (hi2c->XferSize > 0U)
 8003cd4:	68fb      	ldr	r3, [r7, #12]
 8003cd6:	8d1b      	ldrh	r3, [r3, #40]	@ 0x28
 8003cd8:	2b00      	cmp	r3, #0
 8003cda:	f47f aeb6 	bne.w	8003a4a <HAL_I2C_Master_Receive+0x1a6>
        }
      }
    }

    hi2c->State = HAL_I2C_STATE_READY;
 8003cde:	68fb      	ldr	r3, [r7, #12]
 8003ce0:	2220      	movs	r2, #32
 8003ce2:	f883 203d 	strb.w	r2, [r3, #61]	@ 0x3d
    hi2c->Mode = HAL_I2C_MODE_NONE;
 8003ce6:	68fb      	ldr	r3, [r7, #12]
 8003ce8:	2200      	movs	r2, #0
 8003cea:	f883 203e 	strb.w	r2, [r3, #62]	@ 0x3e

    /* Process Unlocked */
    __HAL_UNLOCK(hi2c);
 8003cee:	68fb      	ldr	r3, [r7, #12]
 8003cf0:	2200      	movs	r2, #0
 8003cf2:	f883 203c 	strb.w	r2, [r3, #60]	@ 0x3c

    return HAL_OK;
 8003cf6:	2300      	movs	r3, #0
 8003cf8:	e000      	b.n	8003cfc <HAL_I2C_Master_Receive+0x458>
  }
  else
  {
    return HAL_BUSY;
 8003cfa:	2302      	movs	r3, #2
  }
}
 8003cfc:	4618      	mov	r0, r3
 8003cfe:	3728      	adds	r7, #40	@ 0x28
 8003d00:	46bd      	mov	sp, r7
 8003d02:	bd80      	pop	{r7, pc}
 8003d04:	00010004 	.word	0x00010004

08003d08 <I2C_MasterRequestWrite>:
  * @param  Timeout Timeout duration
  * @param  Tickstart Tick start value
  * @retval HAL status
  */
static HAL_StatusTypeDef I2C_MasterRequestWrite(I2C_HandleTypeDef *hi2c, uint16_t DevAddress, uint32_t Timeout, uint32_t Tickstart)
{
 8003d08:	b580      	push	{r7, lr}
 8003d0a:	b088      	sub	sp, #32
 8003d0c:	af02      	add	r7, sp, #8
 8003d0e:	60f8      	str	r0, [r7, #12]
 8003d10:	607a      	str	r2, [r7, #4]
 8003d12:	603b      	str	r3, [r7, #0]
 8003d14:	460b      	mov	r3, r1
 8003d16:	817b      	strh	r3, [r7, #10]
  /* Declaration of temporary variable to prevent undefined behavior of volatile usage */
  uint32_t CurrentXferOptions = hi2c->XferOptions;
 8003d18:	68fb      	ldr	r3, [r7, #12]
 8003d1a:	6adb      	ldr	r3, [r3, #44]	@ 0x2c
 8003d1c:	617b      	str	r3, [r7, #20]

  /* Generate Start condition if first transfer */
  if ((CurrentXferOptions == I2C_FIRST_AND_LAST_FRAME) || (CurrentXferOptions == I2C_FIRST_FRAME) || (CurrentXferOptions == I2C_NO_OPTION_FRAME))
 8003d1e:	697b      	ldr	r3, [r7, #20]
 8003d20:	2b08      	cmp	r3, #8
 8003d22:	d006      	beq.n	8003d32 <I2C_MasterRequestWrite+0x2a>
 8003d24:	697b      	ldr	r3, [r7, #20]
 8003d26:	2b01      	cmp	r3, #1
 8003d28:	d003      	beq.n	8003d32 <I2C_MasterRequestWrite+0x2a>
 8003d2a:	697b      	ldr	r3, [r7, #20]
 8003d2c:	f513 3f80 	cmn.w	r3, #65536	@ 0x10000
 8003d30:	d108      	bne.n	8003d44 <I2C_MasterRequestWrite+0x3c>
  {
    /* Generate Start */
    SET_BIT(hi2c->Instance->CR1, I2C_CR1_START);
 8003d32:	68fb      	ldr	r3, [r7, #12]
 8003d34:	681b      	ldr	r3, [r3, #0]
 8003d36:	681a      	ldr	r2, [r3, #0]
 8003d38:	68fb      	ldr	r3, [r7, #12]
 8003d3a:	681b      	ldr	r3, [r3, #0]
 8003d3c:	f442 7280 	orr.w	r2, r2, #256	@ 0x100
 8003d40:	601a      	str	r2, [r3, #0]
 8003d42:	e00b      	b.n	8003d5c <I2C_MasterRequestWrite+0x54>
  }
  else if (hi2c->PreviousState == I2C_STATE_MASTER_BUSY_RX)
 8003d44:	68fb      	ldr	r3, [r7, #12]
 8003d46:	6b1b      	ldr	r3, [r3, #48]	@ 0x30
 8003d48:	2b12      	cmp	r3, #18
 8003d4a:	d107      	bne.n	8003d5c <I2C_MasterRequestWrite+0x54>
  {
    /* Generate ReStart */
    SET_BIT(hi2c->Instance->CR1, I2C_CR1_START);
 8003d4c:	68fb      	ldr	r3, [r7, #12]
 8003d4e:	681b      	ldr	r3, [r3, #0]
 8003d50:	681a      	ldr	r2, [r3, #0]
 8003d52:	68fb      	ldr	r3, [r7, #12]
 8003d54:	681b      	ldr	r3, [r3, #0]
 8003d56:	f442 7280 	orr.w	r2, r2, #256	@ 0x100
 8003d5a:	601a      	str	r2, [r3, #0]
  {
    /* Do nothing */
  }

  /* Wait until SB flag is set */
  if (I2C_WaitOnFlagUntilTimeout(hi2c, I2C_FLAG_SB, RESET, Timeout, Tickstart) != HAL_OK)
 8003d5c:	683b      	ldr	r3, [r7, #0]
 8003d5e:	9300      	str	r3, [sp, #0]
 8003d60:	687b      	ldr	r3, [r7, #4]
 8003d62:	2200      	movs	r2, #0
 8003d64:	f04f 1101 	mov.w	r1, #65537	@ 0x10001
 8003d68:	68f8      	ldr	r0, [r7, #12]
 8003d6a:	f000 f91d 	bl	8003fa8 <I2C_WaitOnFlagUntilTimeout>
 8003d6e:	4603      	mov	r3, r0
 8003d70:	2b00      	cmp	r3, #0
 8003d72:	d00d      	beq.n	8003d90 <I2C_MasterRequestWrite+0x88>
  {
    if (READ_BIT(hi2c->Instance->CR1, I2C_CR1_START) == I2C_CR1_START)
 8003d74:	68fb      	ldr	r3, [r7, #12]
 8003d76:	681b      	ldr	r3, [r3, #0]
 8003d78:	681b      	ldr	r3, [r3, #0]
 8003d7a:	f403 7380 	and.w	r3, r3, #256	@ 0x100
 8003d7e:	f5b3 7f80 	cmp.w	r3, #256	@ 0x100
 8003d82:	d103      	bne.n	8003d8c <I2C_MasterRequestWrite+0x84>
    {
      hi2c->ErrorCode = HAL_I2C_WRONG_START;
 8003d84:	68fb      	ldr	r3, [r7, #12]
 8003d86:	f44f 7200 	mov.w	r2, #512	@ 0x200
 8003d8a:	641a      	str	r2, [r3, #64]	@ 0x40
    }
    return HAL_TIMEOUT;
 8003d8c:	2303      	movs	r3, #3
 8003d8e:	e035      	b.n	8003dfc <I2C_MasterRequestWrite+0xf4>
  }

  if (hi2c->Init.AddressingMode == I2C_ADDRESSINGMODE_7BIT)
 8003d90:	68fb      	ldr	r3, [r7, #12]
 8003d92:	691b      	ldr	r3, [r3, #16]
 8003d94:	f5b3 4f80 	cmp.w	r3, #16384	@ 0x4000
 8003d98:	d108      	bne.n	8003dac <I2C_MasterRequestWrite+0xa4>
  {
    /* Send slave address */
    hi2c->Instance->DR = I2C_7BIT_ADD_WRITE(DevAddress);
 8003d9a:	897b      	ldrh	r3, [r7, #10]
 8003d9c:	b2db      	uxtb	r3, r3
 8003d9e:	461a      	mov	r2, r3
 8003da0:	68fb      	ldr	r3, [r7, #12]
 8003da2:	681b      	ldr	r3, [r3, #0]
 8003da4:	f002 02fe 	and.w	r2, r2, #254	@ 0xfe
 8003da8:	611a      	str	r2, [r3, #16]
 8003daa:	e01b      	b.n	8003de4 <I2C_MasterRequestWrite+0xdc>
  }
  else
  {
    /* Send header of slave address */
    hi2c->Instance->DR = I2C_10BIT_HEADER_WRITE(DevAddress);
 8003dac:	897b      	ldrh	r3, [r7, #10]
 8003dae:	11db      	asrs	r3, r3, #7
 8003db0:	b2db      	uxtb	r3, r3
 8003db2:	f003 0306 	and.w	r3, r3, #6
 8003db6:	b2db      	uxtb	r3, r3
 8003db8:	f063 030f 	orn	r3, r3, #15
 8003dbc:	b2da      	uxtb	r2, r3
 8003dbe:	68fb      	ldr	r3, [r7, #12]
 8003dc0:	681b      	ldr	r3, [r3, #0]
 8003dc2:	611a      	str	r2, [r3, #16]

    /* Wait until ADD10 flag is set */
    if (I2C_WaitOnMasterAddressFlagUntilTimeout(hi2c, I2C_FLAG_ADD10, Timeout, Tickstart) != HAL_OK)
 8003dc4:	683b      	ldr	r3, [r7, #0]
 8003dc6:	687a      	ldr	r2, [r7, #4]
 8003dc8:	490e      	ldr	r1, [pc, #56]	@ (8003e04 <I2C_MasterRequestWrite+0xfc>)
 8003dca:	68f8      	ldr	r0, [r7, #12]
 8003dcc:	f000 f966 	bl	800409c <I2C_WaitOnMasterAddressFlagUntilTimeout>
 8003dd0:	4603      	mov	r3, r0
 8003dd2:	2b00      	cmp	r3, #0
 8003dd4:	d001      	beq.n	8003dda <I2C_MasterRequestWrite+0xd2>
    {
      return HAL_ERROR;
 8003dd6:	2301      	movs	r3, #1
 8003dd8:	e010      	b.n	8003dfc <I2C_MasterRequestWrite+0xf4>
    }

    /* Send slave address */
    hi2c->Instance->DR = I2C_10BIT_ADDRESS(DevAddress);
 8003dda:	897b      	ldrh	r3, [r7, #10]
 8003ddc:	b2da      	uxtb	r2, r3
 8003dde:	68fb      	ldr	r3, [r7, #12]
 8003de0:	681b      	ldr	r3, [r3, #0]
 8003de2:	611a      	str	r2, [r3, #16]
  }

  /* Wait until ADDR flag is set */
  if (I2C_WaitOnMasterAddressFlagUntilTimeout(hi2c, I2C_FLAG_ADDR, Timeout, Tickstart) != HAL_OK)
 8003de4:	683b      	ldr	r3, [r7, #0]
 8003de6:	687a      	ldr	r2, [r7, #4]
 8003de8:	4907      	ldr	r1, [pc, #28]	@ (8003e08 <I2C_MasterRequestWrite+0x100>)
 8003dea:	68f8      	ldr	r0, [r7, #12]
 8003dec:	f000 f956 	bl	800409c <I2C_WaitOnMasterAddressFlagUntilTimeout>
 8003df0:	4603      	mov	r3, r0
 8003df2:	2b00      	cmp	r3, #0
 8003df4:	d001      	beq.n	8003dfa <I2C_MasterRequestWrite+0xf2>
  {
    return HAL_ERROR;
 8003df6:	2301      	movs	r3, #1
 8003df8:	e000      	b.n	8003dfc <I2C_MasterRequestWrite+0xf4>
  }

  return HAL_OK;
 8003dfa:	2300      	movs	r3, #0
}
 8003dfc:	4618      	mov	r0, r3
 8003dfe:	3718      	adds	r7, #24
 8003e00:	46bd      	mov	sp, r7
 8003e02:	bd80      	pop	{r7, pc}
 8003e04:	00010008 	.word	0x00010008
 8003e08:	00010002 	.word	0x00010002

08003e0c <I2C_MasterRequestRead>:
  * @param  Timeout Timeout duration
  * @param  Tickstart Tick start value
  * @retval HAL status
  */
static HAL_StatusTypeDef I2C_MasterRequestRead(I2C_HandleTypeDef *hi2c, uint16_t DevAddress, uint32_t Timeout, uint32_t Tickstart)
{
 8003e0c:	b580      	push	{r7, lr}
 8003e0e:	b088      	sub	sp, #32
 8003e10:	af02      	add	r7, sp, #8
 8003e12:	60f8      	str	r0, [r7, #12]
 8003e14:	607a      	str	r2, [r7, #4]
 8003e16:	603b      	str	r3, [r7, #0]
 8003e18:	460b      	mov	r3, r1
 8003e1a:	817b      	strh	r3, [r7, #10]
  /* Declaration of temporary variable to prevent undefined behavior of volatile usage */
  uint32_t CurrentXferOptions = hi2c->XferOptions;
 8003e1c:	68fb      	ldr	r3, [r7, #12]
 8003e1e:	6adb      	ldr	r3, [r3, #44]	@ 0x2c
 8003e20:	617b      	str	r3, [r7, #20]

  /* Enable Acknowledge */
  SET_BIT(hi2c->Instance->CR1, I2C_CR1_ACK);
 8003e22:	68fb      	ldr	r3, [r7, #12]
 8003e24:	681b      	ldr	r3, [r3, #0]
 8003e26:	681a      	ldr	r2, [r3, #0]
 8003e28:	68fb      	ldr	r3, [r7, #12]
 8003e2a:	681b      	ldr	r3, [r3, #0]
 8003e2c:	f442 6280 	orr.w	r2, r2, #1024	@ 0x400
 8003e30:	601a      	str	r2, [r3, #0]

  /* Generate Start condition if first transfer */
  if ((CurrentXferOptions == I2C_FIRST_AND_LAST_FRAME) || (CurrentXferOptions == I2C_FIRST_FRAME)  || (CurrentXferOptions == I2C_NO_OPTION_FRAME))
 8003e32:	697b      	ldr	r3, [r7, #20]
 8003e34:	2b08      	cmp	r3, #8
 8003e36:	d006      	beq.n	8003e46 <I2C_MasterRequestRead+0x3a>
 8003e38:	697b      	ldr	r3, [r7, #20]
 8003e3a:	2b01      	cmp	r3, #1
 8003e3c:	d003      	beq.n	8003e46 <I2C_MasterRequestRead+0x3a>
 8003e3e:	697b      	ldr	r3, [r7, #20]
 8003e40:	f513 3f80 	cmn.w	r3, #65536	@ 0x10000
 8003e44:	d108      	bne.n	8003e58 <I2C_MasterRequestRead+0x4c>
  {
    /* Generate Start */
    SET_BIT(hi2c->Instance->CR1, I2C_CR1_START);
 8003e46:	68fb      	ldr	r3, [r7, #12]
 8003e48:	681b      	ldr	r3, [r3, #0]
 8003e4a:	681a      	ldr	r2, [r3, #0]
 8003e4c:	68fb      	ldr	r3, [r7, #12]
 8003e4e:	681b      	ldr	r3, [r3, #0]
 8003e50:	f442 7280 	orr.w	r2, r2, #256	@ 0x100
 8003e54:	601a      	str	r2, [r3, #0]
 8003e56:	e00b      	b.n	8003e70 <I2C_MasterRequestRead+0x64>
  }
  else if (hi2c->PreviousState == I2C_STATE_MASTER_BUSY_TX)
 8003e58:	68fb      	ldr	r3, [r7, #12]
 8003e5a:	6b1b      	ldr	r3, [r3, #48]	@ 0x30
 8003e5c:	2b11      	cmp	r3, #17
 8003e5e:	d107      	bne.n	8003e70 <I2C_MasterRequestRead+0x64>
  {
    /* Generate ReStart */
    SET_BIT(hi2c->Instance->CR1, I2C_CR1_START);
 8003e60:	68fb      	ldr	r3, [r7, #12]
 8003e62:	681b      	ldr	r3, [r3, #0]
 8003e64:	681a      	ldr	r2, [r3, #0]
 8003e66:	68fb      	ldr	r3, [r7, #12]
 8003e68:	681b      	ldr	r3, [r3, #0]
 8003e6a:	f442 7280 	orr.w	r2, r2, #256	@ 0x100
 8003e6e:	601a      	str	r2, [r3, #0]
  {
    /* Do nothing */
  }

  /* Wait until SB flag is set */
  if (I2C_WaitOnFlagUntilTimeout(hi2c, I2C_FLAG_SB, RESET, Timeout, Tickstart) != HAL_OK)
 8003e70:	683b      	ldr	r3, [r7, #0]
 8003e72:	9300      	str	r3, [sp, #0]
 8003e74:	687b      	ldr	r3, [r7, #4]
 8003e76:	2200      	movs	r2, #0
 8003e78:	f04f 1101 	mov.w	r1, #65537	@ 0x10001
 8003e7c:	68f8      	ldr	r0, [r7, #12]
 8003e7e:	f000 f893 	bl	8003fa8 <I2C_WaitOnFlagUntilTimeout>
 8003e82:	4603      	mov	r3, r0
 8003e84:	2b00      	cmp	r3, #0
 8003e86:	d00d      	beq.n	8003ea4 <I2C_MasterRequestRead+0x98>
  {
    if (READ_BIT(hi2c->Instance->CR1, I2C_CR1_START) == I2C_CR1_START)
 8003e88:	68fb      	ldr	r3, [r7, #12]
 8003e8a:	681b      	ldr	r3, [r3, #0]
 8003e8c:	681b      	ldr	r3, [r3, #0]
 8003e8e:	f403 7380 	and.w	r3, r3, #256	@ 0x100
 8003e92:	f5b3 7f80 	cmp.w	r3, #256	@ 0x100
 8003e96:	d103      	bne.n	8003ea0 <I2C_MasterRequestRead+0x94>
    {
      hi2c->ErrorCode = HAL_I2C_WRONG_START;
 8003e98:	68fb      	ldr	r3, [r7, #12]
 8003e9a:	f44f 7200 	mov.w	r2, #512	@ 0x200
 8003e9e:	641a      	str	r2, [r3, #64]	@ 0x40
    }
    return HAL_TIMEOUT;
 8003ea0:	2303      	movs	r3, #3
 8003ea2:	e079      	b.n	8003f98 <I2C_MasterRequestRead+0x18c>
  }

  if (hi2c->Init.AddressingMode == I2C_ADDRESSINGMODE_7BIT)
 8003ea4:	68fb      	ldr	r3, [r7, #12]
 8003ea6:	691b      	ldr	r3, [r3, #16]
 8003ea8:	f5b3 4f80 	cmp.w	r3, #16384	@ 0x4000
 8003eac:	d108      	bne.n	8003ec0 <I2C_MasterRequestRead+0xb4>
  {
    /* Send slave address */
    hi2c->Instance->DR = I2C_7BIT_ADD_READ(DevAddress);
 8003eae:	897b      	ldrh	r3, [r7, #10]
 8003eb0:	b2db      	uxtb	r3, r3
 8003eb2:	f043 0301 	orr.w	r3, r3, #1
 8003eb6:	b2da      	uxtb	r2, r3
 8003eb8:	68fb      	ldr	r3, [r7, #12]
 8003eba:	681b      	ldr	r3, [r3, #0]
 8003ebc:	611a      	str	r2, [r3, #16]
 8003ebe:	e05f      	b.n	8003f80 <I2C_MasterRequestRead+0x174>
  }
  else
  {
    /* Send header of slave address */
    hi2c->Instance->DR = I2C_10BIT_HEADER_WRITE(DevAddress);
 8003ec0:	897b      	ldrh	r3, [r7, #10]
 8003ec2:	11db      	asrs	r3, r3, #7
 8003ec4:	b2db      	uxtb	r3, r3
 8003ec6:	f003 0306 	and.w	r3, r3, #6
 8003eca:	b2db      	uxtb	r3, r3
 8003ecc:	f063 030f 	orn	r3, r3, #15
 8003ed0:	b2da      	uxtb	r2, r3
 8003ed2:	68fb      	ldr	r3, [r7, #12]
 8003ed4:	681b      	ldr	r3, [r3, #0]
 8003ed6:	611a      	str	r2, [r3, #16]

    /* Wait until ADD10 flag is set */
    if (I2C_WaitOnMasterAddressFlagUntilTimeout(hi2c, I2C_FLAG_ADD10, Timeout, Tickstart) != HAL_OK)
 8003ed8:	683b      	ldr	r3, [r7, #0]
 8003eda:	687a      	ldr	r2, [r7, #4]
 8003edc:	4930      	ldr	r1, [pc, #192]	@ (8003fa0 <I2C_MasterRequestRead+0x194>)
 8003ede:	68f8      	ldr	r0, [r7, #12]
 8003ee0:	f000 f8dc 	bl	800409c <I2C_WaitOnMasterAddressFlagUntilTimeout>
 8003ee4:	4603      	mov	r3, r0
 8003ee6:	2b00      	cmp	r3, #0
 8003ee8:	d001      	beq.n	8003eee <I2C_MasterRequestRead+0xe2>
    {
      return HAL_ERROR;
 8003eea:	2301      	movs	r3, #1
 8003eec:	e054      	b.n	8003f98 <I2C_MasterRequestRead+0x18c>
    }

    /* Send slave address */
    hi2c->Instance->DR = I2C_10BIT_ADDRESS(DevAddress);
 8003eee:	897b      	ldrh	r3, [r7, #10]
 8003ef0:	b2da      	uxtb	r2, r3
 8003ef2:	68fb      	ldr	r3, [r7, #12]
 8003ef4:	681b      	ldr	r3, [r3, #0]
 8003ef6:	611a      	str	r2, [r3, #16]

    /* Wait until ADDR flag is set */
    if (I2C_WaitOnMasterAddressFlagUntilTimeout(hi2c, I2C_FLAG_ADDR, Timeout, Tickstart) != HAL_OK)
 8003ef8:	683b      	ldr	r3, [r7, #0]
 8003efa:	687a      	ldr	r2, [r7, #4]
 8003efc:	4929      	ldr	r1, [pc, #164]	@ (8003fa4 <I2C_MasterRequestRead+0x198>)
 8003efe:	68f8      	ldr	r0, [r7, #12]
 8003f00:	f000 f8cc 	bl	800409c <I2C_WaitOnMasterAddressFlagUntilTimeout>
 8003f04:	4603      	mov	r3, r0
 8003f06:	2b00      	cmp	r3, #0
 8003f08:	d001      	beq.n	8003f0e <I2C_MasterRequestRead+0x102>
    {
      return HAL_ERROR;
 8003f0a:	2301      	movs	r3, #1
 8003f0c:	e044      	b.n	8003f98 <I2C_MasterRequestRead+0x18c>
    }

    /* Clear ADDR flag */
    __HAL_I2C_CLEAR_ADDRFLAG(hi2c);
 8003f0e:	2300      	movs	r3, #0
 8003f10:	613b      	str	r3, [r7, #16]
 8003f12:	68fb      	ldr	r3, [r7, #12]
 8003f14:	681b      	ldr	r3, [r3, #0]
 8003f16:	695b      	ldr	r3, [r3, #20]
 8003f18:	613b      	str	r3, [r7, #16]
 8003f1a:	68fb      	ldr	r3, [r7, #12]
 8003f1c:	681b      	ldr	r3, [r3, #0]
 8003f1e:	699b      	ldr	r3, [r3, #24]
 8003f20:	613b      	str	r3, [r7, #16]
 8003f22:	693b      	ldr	r3, [r7, #16]

    /* Generate Restart */
    SET_BIT(hi2c->Instance->CR1, I2C_CR1_START);
 8003f24:	68fb      	ldr	r3, [r7, #12]
 8003f26:	681b      	ldr	r3, [r3, #0]
 8003f28:	681a      	ldr	r2, [r3, #0]
 8003f2a:	68fb      	ldr	r3, [r7, #12]
 8003f2c:	681b      	ldr	r3, [r3, #0]
 8003f2e:	f442 7280 	orr.w	r2, r2, #256	@ 0x100
 8003f32:	601a      	str	r2, [r3, #0]

    /* Wait until SB flag is set */
    if (I2C_WaitOnFlagUntilTimeout(hi2c, I2C_FLAG_SB, RESET, Timeout, Tickstart) != HAL_OK)
 8003f34:	683b      	ldr	r3, [r7, #0]
 8003f36:	9300      	str	r3, [sp, #0]
 8003f38:	687b      	ldr	r3, [r7, #4]
 8003f3a:	2200      	movs	r2, #0
 8003f3c:	f04f 1101 	mov.w	r1, #65537	@ 0x10001
 8003f40:	68f8      	ldr	r0, [r7, #12]
 8003f42:	f000 f831 	bl	8003fa8 <I2C_WaitOnFlagUntilTimeout>
 8003f46:	4603      	mov	r3, r0
 8003f48:	2b00      	cmp	r3, #0
 8003f4a:	d00d      	beq.n	8003f68 <I2C_MasterRequestRead+0x15c>
    {
      if (READ_BIT(hi2c->Instance->CR1, I2C_CR1_START) == I2C_CR1_START)
 8003f4c:	68fb      	ldr	r3, [r7, #12]
 8003f4e:	681b      	ldr	r3, [r3, #0]
 8003f50:	681b      	ldr	r3, [r3, #0]
 8003f52:	f403 7380 	and.w	r3, r3, #256	@ 0x100
 8003f56:	f5b3 7f80 	cmp.w	r3, #256	@ 0x100
 8003f5a:	d103      	bne.n	8003f64 <I2C_MasterRequestRead+0x158>
      {
        hi2c->ErrorCode = HAL_I2C_WRONG_START;
 8003f5c:	68fb      	ldr	r3, [r7, #12]
 8003f5e:	f44f 7200 	mov.w	r2, #512	@ 0x200
 8003f62:	641a      	str	r2, [r3, #64]	@ 0x40
      }
      return HAL_TIMEOUT;
 8003f64:	2303      	movs	r3, #3
 8003f66:	e017      	b.n	8003f98 <I2C_MasterRequestRead+0x18c>
    }

    /* Send header of slave address */
    hi2c->Instance->DR = I2C_10BIT_HEADER_READ(DevAddress);
 8003f68:	897b      	ldrh	r3, [r7, #10]
 8003f6a:	11db      	asrs	r3, r3, #7
 8003f6c:	b2db      	uxtb	r3, r3
 8003f6e:	f003 0306 	and.w	r3, r3, #6
 8003f72:	b2db      	uxtb	r3, r3
 8003f74:	f063 030e 	orn	r3, r3, #14
 8003f78:	b2da      	uxtb	r2, r3
 8003f7a:	68fb      	ldr	r3, [r7, #12]
 8003f7c:	681b      	ldr	r3, [r3, #0]
 8003f7e:	611a      	str	r2, [r3, #16]
  }

  /* Wait until ADDR flag is set */
  if (I2C_WaitOnMasterAddressFlagUntilTimeout(hi2c, I2C_FLAG_ADDR, Timeout, Tickstart) != HAL_OK)
 8003f80:	683b      	ldr	r3, [r7, #0]
 8003f82:	687a      	ldr	r2, [r7, #4]
 8003f84:	4907      	ldr	r1, [pc, #28]	@ (8003fa4 <I2C_MasterRequestRead+0x198>)
 8003f86:	68f8      	ldr	r0, [r7, #12]
 8003f88:	f000 f888 	bl	800409c <I2C_WaitOnMasterAddressFlagUntilTimeout>
 8003f8c:	4603      	mov	r3, r0
 8003f8e:	2b00      	cmp	r3, #0
 8003f90:	d001      	beq.n	8003f96 <I2C_MasterRequestRead+0x18a>
  {
    return HAL_ERROR;
 8003f92:	2301      	movs	r3, #1
 8003f94:	e000      	b.n	8003f98 <I2C_MasterRequestRead+0x18c>
  }

  return HAL_OK;
 8003f96:	2300      	movs	r3, #0
}
 8003f98:	4618      	mov	r0, r3
 8003f9a:	3718      	adds	r7, #24
 8003f9c:	46bd      	mov	sp, r7
 8003f9e:	bd80      	pop	{r7, pc}
 8003fa0:	00010008 	.word	0x00010008
 8003fa4:	00010002 	.word	0x00010002

08003fa8 <I2C_WaitOnFlagUntilTimeout>:
  * @param  Timeout Timeout duration
  * @param  Tickstart Tick start value
  * @retval HAL status
  */
static HAL_StatusTypeDef I2C_WaitOnFlagUntilTimeout(I2C_HandleTypeDef *hi2c, uint32_t Flag, FlagStatus Status, uint32_t Timeout, uint32_t Tickstart)
{
 8003fa8:	b580      	push	{r7, lr}
 8003faa:	b084      	sub	sp, #16
 8003fac:	af00      	add	r7, sp, #0
 8003fae:	60f8      	str	r0, [r7, #12]
 8003fb0:	60b9      	str	r1, [r7, #8]
 8003fb2:	603b      	str	r3, [r7, #0]
 8003fb4:	4613      	mov	r3, r2
 8003fb6:	71fb      	strb	r3, [r7, #7]
  /* Wait until flag is set */
  while (__HAL_I2C_GET_FLAG(hi2c, Flag) == Status)
 8003fb8:	e048      	b.n	800404c <I2C_WaitOnFlagUntilTimeout+0xa4>
  {
    /* Check for the Timeout */
    if (Timeout != HAL_MAX_DELAY)
 8003fba:	683b      	ldr	r3, [r7, #0]
 8003fbc:	f1b3 3fff 	cmp.w	r3, #4294967295
 8003fc0:	d044      	beq.n	800404c <I2C_WaitOnFlagUntilTimeout+0xa4>
    {
      if (((HAL_GetTick() - Tickstart) > Timeout) || (Timeout == 0U))
 8003fc2:	f7fe fab9 	bl	8002538 <HAL_GetTick>
 8003fc6:	4602      	mov	r2, r0
 8003fc8:	69bb      	ldr	r3, [r7, #24]
 8003fca:	1ad3      	subs	r3, r2, r3
 8003fcc:	683a      	ldr	r2, [r7, #0]
 8003fce:	429a      	cmp	r2, r3
 8003fd0:	d302      	bcc.n	8003fd8 <I2C_WaitOnFlagUntilTimeout+0x30>
 8003fd2:	683b      	ldr	r3, [r7, #0]
 8003fd4:	2b00      	cmp	r3, #0
 8003fd6:	d139      	bne.n	800404c <I2C_WaitOnFlagUntilTimeout+0xa4>
      {
        if ((__HAL_I2C_GET_FLAG(hi2c, Flag) == Status))
 8003fd8:	68bb      	ldr	r3, [r7, #8]
 8003fda:	0c1b      	lsrs	r3, r3, #16
 8003fdc:	b2db      	uxtb	r3, r3
 8003fde:	2b01      	cmp	r3, #1
 8003fe0:	d10d      	bne.n	8003ffe <I2C_WaitOnFlagUntilTimeout+0x56>
 8003fe2:	68fb      	ldr	r3, [r7, #12]
 8003fe4:	681b      	ldr	r3, [r3, #0]
 8003fe6:	695b      	ldr	r3, [r3, #20]
 8003fe8:	43da      	mvns	r2, r3
 8003fea:	68bb      	ldr	r3, [r7, #8]
 8003fec:	4013      	ands	r3, r2
 8003fee:	b29b      	uxth	r3, r3
 8003ff0:	2b00      	cmp	r3, #0
 8003ff2:	bf0c      	ite	eq
 8003ff4:	2301      	moveq	r3, #1
 8003ff6:	2300      	movne	r3, #0
 8003ff8:	b2db      	uxtb	r3, r3
 8003ffa:	461a      	mov	r2, r3
 8003ffc:	e00c      	b.n	8004018 <I2C_WaitOnFlagUntilTimeout+0x70>
 8003ffe:	68fb      	ldr	r3, [r7, #12]
 8004000:	681b      	ldr	r3, [r3, #0]
 8004002:	699b      	ldr	r3, [r3, #24]
 8004004:	43da      	mvns	r2, r3
 8004006:	68bb      	ldr	r3, [r7, #8]
 8004008:	4013      	ands	r3, r2
 800400a:	b29b      	uxth	r3, r3
 800400c:	2b00      	cmp	r3, #0
 800400e:	bf0c      	ite	eq
 8004010:	2301      	moveq	r3, #1
 8004012:	2300      	movne	r3, #0
 8004014:	b2db      	uxtb	r3, r3
 8004016:	461a      	mov	r2, r3
 8004018:	79fb      	ldrb	r3, [r7, #7]
 800401a:	429a      	cmp	r2, r3
 800401c:	d116      	bne.n	800404c <I2C_WaitOnFlagUntilTimeout+0xa4>
        {
          hi2c->PreviousState     = I2C_STATE_NONE;
 800401e:	68fb      	ldr	r3, [r7, #12]
 8004020:	2200      	movs	r2, #0
 8004022:	631a      	str	r2, [r3, #48]	@ 0x30
          hi2c->State             = HAL_I2C_STATE_READY;
 8004024:	68fb      	ldr	r3, [r7, #12]
 8004026:	2220      	movs	r2, #32
 8004028:	f883 203d 	strb.w	r2, [r3, #61]	@ 0x3d
          hi2c->Mode              = HAL_I2C_MODE_NONE;
 800402c:	68fb      	ldr	r3, [r7, #12]
 800402e:	2200      	movs	r2, #0
 8004030:	f883 203e 	strb.w	r2, [r3, #62]	@ 0x3e
          hi2c->ErrorCode         |= HAL_I2C_ERROR_TIMEOUT;
 8004034:	68fb      	ldr	r3, [r7, #12]
 8004036:	6c1b      	ldr	r3, [r3, #64]	@ 0x40
 8004038:	f043 0220 	orr.w	r2, r3, #32
 800403c:	68fb      	ldr	r3, [r7, #12]
 800403e:	641a      	str	r2, [r3, #64]	@ 0x40

          /* Process Unlocked */
          __HAL_UNLOCK(hi2c);
 8004040:	68fb      	ldr	r3, [r7, #12]
 8004042:	2200      	movs	r2, #0
 8004044:	f883 203c 	strb.w	r2, [r3, #60]	@ 0x3c

          return HAL_ERROR;
 8004048:	2301      	movs	r3, #1
 800404a:	e023      	b.n	8004094 <I2C_WaitOnFlagUntilTimeout+0xec>
  while (__HAL_I2C_GET_FLAG(hi2c, Flag) == Status)
 800404c:	68bb      	ldr	r3, [r7, #8]
 800404e:	0c1b      	lsrs	r3, r3, #16
 8004050:	b2db      	uxtb	r3, r3
 8004052:	2b01      	cmp	r3, #1
 8004054:	d10d      	bne.n	8004072 <I2C_WaitOnFlagUntilTimeout+0xca>
 8004056:	68fb      	ldr	r3, [r7, #12]
 8004058:	681b      	ldr	r3, [r3, #0]
 800405a:	695b      	ldr	r3, [r3, #20]
 800405c:	43da      	mvns	r2, r3
 800405e:	68bb      	ldr	r3, [r7, #8]
 8004060:	4013      	ands	r3, r2
 8004062:	b29b      	uxth	r3, r3
 8004064:	2b00      	cmp	r3, #0
 8004066:	bf0c      	ite	eq
 8004068:	2301      	moveq	r3, #1
 800406a:	2300      	movne	r3, #0
 800406c:	b2db      	uxtb	r3, r3
 800406e:	461a      	mov	r2, r3
 8004070:	e00c      	b.n	800408c <I2C_WaitOnFlagUntilTimeout+0xe4>
 8004072:	68fb      	ldr	r3, [r7, #12]
 8004074:	681b      	ldr	r3, [r3, #0]
 8004076:	699b      	ldr	r3, [r3, #24]
 8004078:	43da      	mvns	r2, r3
 800407a:	68bb      	ldr	r3, [r7, #8]
 800407c:	4013      	ands	r3, r2
 800407e:	b29b      	uxth	r3, r3
 8004080:	2b00      	cmp	r3, #0
 8004082:	bf0c      	ite	eq
 8004084:	2301      	moveq	r3, #1
 8004086:	2300      	movne	r3, #0
 8004088:	b2db      	uxtb	r3, r3
 800408a:	461a      	mov	r2, r3
 800408c:	79fb      	ldrb	r3, [r7, #7]
 800408e:	429a      	cmp	r2, r3
 8004090:	d093      	beq.n	8003fba <I2C_WaitOnFlagUntilTimeout+0x12>
        }
      }
    }
  }
  return HAL_OK;
 8004092:	2300      	movs	r3, #0
}
 8004094:	4618      	mov	r0, r3
 8004096:	3710      	adds	r7, #16
 8004098:	46bd      	mov	sp, r7
 800409a:	bd80      	pop	{r7, pc}

0800409c <I2C_WaitOnMasterAddressFlagUntilTimeout>:
  * @param  Timeout Timeout duration
  * @param  Tickstart Tick start value
  * @retval HAL status
  */
static HAL_StatusTypeDef I2C_WaitOnMasterAddressFlagUntilTimeout(I2C_HandleTypeDef *hi2c, uint32_t Flag, uint32_t Timeout, uint32_t Tickstart)
{
 800409c:	b580      	push	{r7, lr}
 800409e:	b084      	sub	sp, #16
 80040a0:	af00      	add	r7, sp, #0
 80040a2:	60f8      	str	r0, [r7, #12]
 80040a4:	60b9      	str	r1, [r7, #8]
 80040a6:	607a      	str	r2, [r7, #4]
 80040a8:	603b      	str	r3, [r7, #0]
  while (__HAL_I2C_GET_FLAG(hi2c, Flag) == RESET)
 80040aa:	e071      	b.n	8004190 <I2C_WaitOnMasterAddressFlagUntilTimeout+0xf4>
  {
    if (__HAL_I2C_GET_FLAG(hi2c, I2C_FLAG_AF) == SET)
 80040ac:	68fb      	ldr	r3, [r7, #12]
 80040ae:	681b      	ldr	r3, [r3, #0]
 80040b0:	695b      	ldr	r3, [r3, #20]
 80040b2:	f403 6380 	and.w	r3, r3, #1024	@ 0x400
 80040b6:	f5b3 6f80 	cmp.w	r3, #1024	@ 0x400
 80040ba:	d123      	bne.n	8004104 <I2C_WaitOnMasterAddressFlagUntilTimeout+0x68>
    {
      /* Generate Stop */
      SET_BIT(hi2c->Instance->CR1, I2C_CR1_STOP);
 80040bc:	68fb      	ldr	r3, [r7, #12]
 80040be:	681b      	ldr	r3, [r3, #0]
 80040c0:	681a      	ldr	r2, [r3, #0]
 80040c2:	68fb      	ldr	r3, [r7, #12]
 80040c4:	681b      	ldr	r3, [r3, #0]
 80040c6:	f442 7200 	orr.w	r2, r2, #512	@ 0x200
 80040ca:	601a      	str	r2, [r3, #0]

      /* Clear AF Flag */
      __HAL_I2C_CLEAR_FLAG(hi2c, I2C_FLAG_AF);
 80040cc:	68fb      	ldr	r3, [r7, #12]
 80040ce:	681b      	ldr	r3, [r3, #0]
 80040d0:	f46f 6280 	mvn.w	r2, #1024	@ 0x400
 80040d4:	615a      	str	r2, [r3, #20]

      hi2c->PreviousState       = I2C_STATE_NONE;
 80040d6:	68fb      	ldr	r3, [r7, #12]
 80040d8:	2200      	movs	r2, #0
 80040da:	631a      	str	r2, [r3, #48]	@ 0x30
      hi2c->State               = HAL_I2C_STATE_READY;
 80040dc:	68fb      	ldr	r3, [r7, #12]
 80040de:	2220      	movs	r2, #32
 80040e0:	f883 203d 	strb.w	r2, [r3, #61]	@ 0x3d
      hi2c->Mode                = HAL_I2C_MODE_NONE;
 80040e4:	68fb      	ldr	r3, [r7, #12]
 80040e6:	2200      	movs	r2, #0
 80040e8:	f883 203e 	strb.w	r2, [r3, #62]	@ 0x3e
      hi2c->ErrorCode           |= HAL_I2C_ERROR_AF;
 80040ec:	68fb      	ldr	r3, [r7, #12]
 80040ee:	6c1b      	ldr	r3, [r3, #64]	@ 0x40
 80040f0:	f043 0204 	orr.w	r2, r3, #4
 80040f4:	68fb      	ldr	r3, [r7, #12]
 80040f6:	641a      	str	r2, [r3, #64]	@ 0x40

      /* Process Unlocked */
      __HAL_UNLOCK(hi2c);
 80040f8:	68fb      	ldr	r3, [r7, #12]
 80040fa:	2200      	movs	r2, #0
 80040fc:	f883 203c 	strb.w	r2, [r3, #60]	@ 0x3c

      return HAL_ERROR;
 8004100:	2301      	movs	r3, #1
 8004102:	e067      	b.n	80041d4 <I2C_WaitOnMasterAddressFlagUntilTimeout+0x138>
    }

    /* Check for the Timeout */
    if (Timeout != HAL_MAX_DELAY)
 8004104:	687b      	ldr	r3, [r7, #4]
 8004106:	f1b3 3fff 	cmp.w	r3, #4294967295
 800410a:	d041      	beq.n	8004190 <I2C_WaitOnMasterAddressFlagUntilTimeout+0xf4>
    {
      if (((HAL_GetTick() - Tickstart) > Timeout) || (Timeout == 0U))
 800410c:	f7fe fa14 	bl	8002538 <HAL_GetTick>
 8004110:	4602      	mov	r2, r0
 8004112:	683b      	ldr	r3, [r7, #0]
 8004114:	1ad3      	subs	r3, r2, r3
 8004116:	687a      	ldr	r2, [r7, #4]
 8004118:	429a      	cmp	r2, r3
 800411a:	d302      	bcc.n	8004122 <I2C_WaitOnMasterAddressFlagUntilTimeout+0x86>
 800411c:	687b      	ldr	r3, [r7, #4]
 800411e:	2b00      	cmp	r3, #0
 8004120:	d136      	bne.n	8004190 <I2C_WaitOnMasterAddressFlagUntilTimeout+0xf4>
      {
        if ((__HAL_I2C_GET_FLAG(hi2c, Flag) == RESET))
 8004122:	68bb      	ldr	r3, [r7, #8]
 8004124:	0c1b      	lsrs	r3, r3, #16
 8004126:	b2db      	uxtb	r3, r3
 8004128:	2b01      	cmp	r3, #1
 800412a:	d10c      	bne.n	8004146 <I2C_WaitOnMasterAddressFlagUntilTimeout+0xaa>
 800412c:	68fb      	ldr	r3, [r7, #12]
 800412e:	681b      	ldr	r3, [r3, #0]
 8004130:	695b      	ldr	r3, [r3, #20]
 8004132:	43da      	mvns	r2, r3
 8004134:	68bb      	ldr	r3, [r7, #8]
 8004136:	4013      	ands	r3, r2
 8004138:	b29b      	uxth	r3, r3
 800413a:	2b00      	cmp	r3, #0
 800413c:	bf14      	ite	ne
 800413e:	2301      	movne	r3, #1
 8004140:	2300      	moveq	r3, #0
 8004142:	b2db      	uxtb	r3, r3
 8004144:	e00b      	b.n	800415e <I2C_WaitOnMasterAddressFlagUntilTimeout+0xc2>
 8004146:	68fb      	ldr	r3, [r7, #12]
 8004148:	681b      	ldr	r3, [r3, #0]
 800414a:	699b      	ldr	r3, [r3, #24]
 800414c:	43da      	mvns	r2, r3
 800414e:	68bb      	ldr	r3, [r7, #8]
 8004150:	4013      	ands	r3, r2
 8004152:	b29b      	uxth	r3, r3
 8004154:	2b00      	cmp	r3, #0
 8004156:	bf14      	ite	ne
 8004158:	2301      	movne	r3, #1
 800415a:	2300      	moveq	r3, #0
 800415c:	b2db      	uxtb	r3, r3
 800415e:	2b00      	cmp	r3, #0
 8004160:	d016      	beq.n	8004190 <I2C_WaitOnMasterAddressFlagUntilTimeout+0xf4>
        {
          hi2c->PreviousState       = I2C_STATE_NONE;
 8004162:	68fb      	ldr	r3, [r7, #12]
 8004164:	2200      	movs	r2, #0
 8004166:	631a      	str	r2, [r3, #48]	@ 0x30
          hi2c->State               = HAL_I2C_STATE_READY;
 8004168:	68fb      	ldr	r3, [r7, #12]
 800416a:	2220      	movs	r2, #32
 800416c:	f883 203d 	strb.w	r2, [r3, #61]	@ 0x3d
          hi2c->Mode                = HAL_I2C_MODE_NONE;
 8004170:	68fb      	ldr	r3, [r7, #12]
 8004172:	2200      	movs	r2, #0
 8004174:	f883 203e 	strb.w	r2, [r3, #62]	@ 0x3e
          hi2c->ErrorCode           |= HAL_I2C_ERROR_TIMEOUT;
 8004178:	68fb      	ldr	r3, [r7, #12]
 800417a:	6c1b      	ldr	r3, [r3, #64]	@ 0x40
 800417c:	f043 0220 	orr.w	r2, r3, #32
 8004180:	68fb      	ldr	r3, [r7, #12]
 8004182:	641a      	str	r2, [r3, #64]	@ 0x40

          /* Process Unlocked */
          __HAL_UNLOCK(hi2c);
 8004184:	68fb      	ldr	r3, [r7, #12]
 8004186:	2200      	movs	r2, #0
 8004188:	f883 203c 	strb.w	r2, [r3, #60]	@ 0x3c

          return HAL_ERROR;
 800418c:	2301      	movs	r3, #1
 800418e:	e021      	b.n	80041d4 <I2C_WaitOnMasterAddressFlagUntilTimeout+0x138>
  while (__HAL_I2C_GET_FLAG(hi2c, Flag) == RESET)
 8004190:	68bb      	ldr	r3, [r7, #8]
 8004192:	0c1b      	lsrs	r3, r3, #16
 8004194:	b2db      	uxtb	r3, r3
 8004196:	2b01      	cmp	r3, #1
 8004198:	d10c      	bne.n	80041b4 <I2C_WaitOnMasterAddressFlagUntilTimeout+0x118>
 800419a:	68fb      	ldr	r3, [r7, #12]
 800419c:	681b      	ldr	r3, [r3, #0]
 800419e:	695b      	ldr	r3, [r3, #20]
 80041a0:	43da      	mvns	r2, r3
 80041a2:	68bb      	ldr	r3, [r7, #8]
 80041a4:	4013      	ands	r3, r2
 80041a6:	b29b      	uxth	r3, r3
 80041a8:	2b00      	cmp	r3, #0
 80041aa:	bf14      	ite	ne
 80041ac:	2301      	movne	r3, #1
 80041ae:	2300      	moveq	r3, #0
 80041b0:	b2db      	uxtb	r3, r3
 80041b2:	e00b      	b.n	80041cc <I2C_WaitOnMasterAddressFlagUntilTimeout+0x130>
 80041b4:	68fb      	ldr	r3, [r7, #12]
 80041b6:	681b      	ldr	r3, [r3, #0]
 80041b8:	699b      	ldr	r3, [r3, #24]
 80041ba:	43da      	mvns	r2, r3
 80041bc:	68bb      	ldr	r3, [r7, #8]
 80041be:	4013      	ands	r3, r2
 80041c0:	b29b      	uxth	r3, r3
 80041c2:	2b00      	cmp	r3, #0
 80041c4:	bf14      	ite	ne
 80041c6:	2301      	movne	r3, #1
 80041c8:	2300      	moveq	r3, #0
 80041ca:	b2db      	uxtb	r3, r3
 80041cc:	2b00      	cmp	r3, #0
 80041ce:	f47f af6d 	bne.w	80040ac <I2C_WaitOnMasterAddressFlagUntilTimeout+0x10>
        }
      }
    }
  }
  return HAL_OK;
 80041d2:	2300      	movs	r3, #0
}
 80041d4:	4618      	mov	r0, r3
 80041d6:	3710      	adds	r7, #16
 80041d8:	46bd      	mov	sp, r7
 80041da:	bd80      	pop	{r7, pc}

080041dc <I2C_WaitOnTXEFlagUntilTimeout>:
  * @param  Timeout Timeout duration
  * @param  Tickstart Tick start value
  * @retval HAL status
  */
static HAL_StatusTypeDef I2C_WaitOnTXEFlagUntilTimeout(I2C_HandleTypeDef *hi2c, uint32_t Timeout, uint32_t Tickstart)
{
 80041dc:	b580      	push	{r7, lr}
 80041de:	b084      	sub	sp, #16
 80041e0:	af00      	add	r7, sp, #0
 80041e2:	60f8      	str	r0, [r7, #12]
 80041e4:	60b9      	str	r1, [r7, #8]
 80041e6:	607a      	str	r2, [r7, #4]
  while (__HAL_I2C_GET_FLAG(hi2c, I2C_FLAG_TXE) == RESET)
 80041e8:	e034      	b.n	8004254 <I2C_WaitOnTXEFlagUntilTimeout+0x78>
  {
    /* Check if a NACK is detected */
    if (I2C_IsAcknowledgeFailed(hi2c) != HAL_OK)
 80041ea:	68f8      	ldr	r0, [r7, #12]
 80041ec:	f000 f8e3 	bl	80043b6 <I2C_IsAcknowledgeFailed>
 80041f0:	4603      	mov	r3, r0
 80041f2:	2b00      	cmp	r3, #0
 80041f4:	d001      	beq.n	80041fa <I2C_WaitOnTXEFlagUntilTimeout+0x1e>
    {
      return HAL_ERROR;
 80041f6:	2301      	movs	r3, #1
 80041f8:	e034      	b.n	8004264 <I2C_WaitOnTXEFlagUntilTimeout+0x88>
    }

    /* Check for the Timeout */
    if (Timeout != HAL_MAX_DELAY)
 80041fa:	68bb      	ldr	r3, [r7, #8]
 80041fc:	f1b3 3fff 	cmp.w	r3, #4294967295
 8004200:	d028      	beq.n	8004254 <I2C_WaitOnTXEFlagUntilTimeout+0x78>
    {
      if (((HAL_GetTick() - Tickstart) > Timeout) || (Timeout == 0U))
 8004202:	f7fe f999 	bl	8002538 <HAL_GetTick>
 8004206:	4602      	mov	r2, r0
 8004208:	687b      	ldr	r3, [r7, #4]
 800420a:	1ad3      	subs	r3, r2, r3
 800420c:	68ba      	ldr	r2, [r7, #8]
 800420e:	429a      	cmp	r2, r3
 8004210:	d302      	bcc.n	8004218 <I2C_WaitOnTXEFlagUntilTimeout+0x3c>
 8004212:	68bb      	ldr	r3, [r7, #8]
 8004214:	2b00      	cmp	r3, #0
 8004216:	d11d      	bne.n	8004254 <I2C_WaitOnTXEFlagUntilTimeout+0x78>
      {
        if ((__HAL_I2C_GET_FLAG(hi2c, I2C_FLAG_TXE) == RESET))
 8004218:	68fb      	ldr	r3, [r7, #12]
 800421a:	681b      	ldr	r3, [r3, #0]
 800421c:	695b      	ldr	r3, [r3, #20]
 800421e:	f003 0380 	and.w	r3, r3, #128	@ 0x80
 8004222:	2b80      	cmp	r3, #128	@ 0x80
 8004224:	d016      	beq.n	8004254 <I2C_WaitOnTXEFlagUntilTimeout+0x78>
        {
          hi2c->PreviousState       = I2C_STATE_NONE;
 8004226:	68fb      	ldr	r3, [r7, #12]
 8004228:	2200      	movs	r2, #0
 800422a:	631a      	str	r2, [r3, #48]	@ 0x30
          hi2c->State               = HAL_I2C_STATE_READY;
 800422c:	68fb      	ldr	r3, [r7, #12]
 800422e:	2220      	movs	r2, #32
 8004230:	f883 203d 	strb.w	r2, [r3, #61]	@ 0x3d
          hi2c->Mode                = HAL_I2C_MODE_NONE;
 8004234:	68fb      	ldr	r3, [r7, #12]
 8004236:	2200      	movs	r2, #0
 8004238:	f883 203e 	strb.w	r2, [r3, #62]	@ 0x3e
          hi2c->ErrorCode           |= HAL_I2C_ERROR_TIMEOUT;
 800423c:	68fb      	ldr	r3, [r7, #12]
 800423e:	6c1b      	ldr	r3, [r3, #64]	@ 0x40
 8004240:	f043 0220 	orr.w	r2, r3, #32
 8004244:	68fb      	ldr	r3, [r7, #12]
 8004246:	641a      	str	r2, [r3, #64]	@ 0x40

          /* Process Unlocked */
          __HAL_UNLOCK(hi2c);
 8004248:	68fb      	ldr	r3, [r7, #12]
 800424a:	2200      	movs	r2, #0
 800424c:	f883 203c 	strb.w	r2, [r3, #60]	@ 0x3c

          return HAL_ERROR;
 8004250:	2301      	movs	r3, #1
 8004252:	e007      	b.n	8004264 <I2C_WaitOnTXEFlagUntilTimeout+0x88>
  while (__HAL_I2C_GET_FLAG(hi2c, I2C_FLAG_TXE) == RESET)
 8004254:	68fb      	ldr	r3, [r7, #12]
 8004256:	681b      	ldr	r3, [r3, #0]
 8004258:	695b      	ldr	r3, [r3, #20]
 800425a:	f003 0380 	and.w	r3, r3, #128	@ 0x80
 800425e:	2b80      	cmp	r3, #128	@ 0x80
 8004260:	d1c3      	bne.n	80041ea <I2C_WaitOnTXEFlagUntilTimeout+0xe>
        }
      }
    }
  }
  return HAL_OK;
 8004262:	2300      	movs	r3, #0
}
 8004264:	4618      	mov	r0, r3
 8004266:	3710      	adds	r7, #16
 8004268:	46bd      	mov	sp, r7
 800426a:	bd80      	pop	{r7, pc}

0800426c <I2C_WaitOnBTFFlagUntilTimeout>:
  * @param  Timeout Timeout duration
  * @param  Tickstart Tick start value
  * @retval HAL status
  */
static HAL_StatusTypeDef I2C_WaitOnBTFFlagUntilTimeout(I2C_HandleTypeDef *hi2c, uint32_t Timeout, uint32_t Tickstart)
{
 800426c:	b580      	push	{r7, lr}
 800426e:	b084      	sub	sp, #16
 8004270:	af00      	add	r7, sp, #0
 8004272:	60f8      	str	r0, [r7, #12]
 8004274:	60b9      	str	r1, [r7, #8]
 8004276:	607a      	str	r2, [r7, #4]
  while (__HAL_I2C_GET_FLAG(hi2c, I2C_FLAG_BTF) == RESET)
 8004278:	e034      	b.n	80042e4 <I2C_WaitOnBTFFlagUntilTimeout+0x78>
  {
    /* Check if a NACK is detected */
    if (I2C_IsAcknowledgeFailed(hi2c) != HAL_OK)
 800427a:	68f8      	ldr	r0, [r7, #12]
 800427c:	f000 f89b 	bl	80043b6 <I2C_IsAcknowledgeFailed>
 8004280:	4603      	mov	r3, r0
 8004282:	2b00      	cmp	r3, #0
 8004284:	d001      	beq.n	800428a <I2C_WaitOnBTFFlagUntilTimeout+0x1e>
    {
      return HAL_ERROR;
 8004286:	2301      	movs	r3, #1
 8004288:	e034      	b.n	80042f4 <I2C_WaitOnBTFFlagUntilTimeout+0x88>
    }

    /* Check for the Timeout */
    if (Timeout != HAL_MAX_DELAY)
 800428a:	68bb      	ldr	r3, [r7, #8]
 800428c:	f1b3 3fff 	cmp.w	r3, #4294967295
 8004290:	d028      	beq.n	80042e4 <I2C_WaitOnBTFFlagUntilTimeout+0x78>
    {
      if (((HAL_GetTick() - Tickstart) > Timeout) || (Timeout == 0U))
 8004292:	f7fe f951 	bl	8002538 <HAL_GetTick>
 8004296:	4602      	mov	r2, r0
 8004298:	687b      	ldr	r3, [r7, #4]
 800429a:	1ad3      	subs	r3, r2, r3
 800429c:	68ba      	ldr	r2, [r7, #8]
 800429e:	429a      	cmp	r2, r3
 80042a0:	d302      	bcc.n	80042a8 <I2C_WaitOnBTFFlagUntilTimeout+0x3c>
 80042a2:	68bb      	ldr	r3, [r7, #8]
 80042a4:	2b00      	cmp	r3, #0
 80042a6:	d11d      	bne.n	80042e4 <I2C_WaitOnBTFFlagUntilTimeout+0x78>
      {
        if ((__HAL_I2C_GET_FLAG(hi2c, I2C_FLAG_BTF) == RESET))
 80042a8:	68fb      	ldr	r3, [r7, #12]
 80042aa:	681b      	ldr	r3, [r3, #0]
 80042ac:	695b      	ldr	r3, [r3, #20]
 80042ae:	f003 0304 	and.w	r3, r3, #4
 80042b2:	2b04      	cmp	r3, #4
 80042b4:	d016      	beq.n	80042e4 <I2C_WaitOnBTFFlagUntilTimeout+0x78>
        {
          hi2c->PreviousState       = I2C_STATE_NONE;
 80042b6:	68fb      	ldr	r3, [r7, #12]
 80042b8:	2200      	movs	r2, #0
 80042ba:	631a      	str	r2, [r3, #48]	@ 0x30
          hi2c->State               = HAL_I2C_STATE_READY;
 80042bc:	68fb      	ldr	r3, [r7, #12]
 80042be:	2220      	movs	r2, #32
 80042c0:	f883 203d 	strb.w	r2, [r3, #61]	@ 0x3d
          hi2c->Mode                = HAL_I2C_MODE_NONE;
 80042c4:	68fb      	ldr	r3, [r7, #12]
 80042c6:	2200      	movs	r2, #0
 80042c8:	f883 203e 	strb.w	r2, [r3, #62]	@ 0x3e
          hi2c->ErrorCode           |= HAL_I2C_ERROR_TIMEOUT;
 80042cc:	68fb      	ldr	r3, [r7, #12]
 80042ce:	6c1b      	ldr	r3, [r3, #64]	@ 0x40
 80042d0:	f043 0220 	orr.w	r2, r3, #32
 80042d4:	68fb      	ldr	r3, [r7, #12]
 80042d6:	641a      	str	r2, [r3, #64]	@ 0x40

          /* Process Unlocked */
          __HAL_UNLOCK(hi2c);
 80042d8:	68fb      	ldr	r3, [r7, #12]
 80042da:	2200      	movs	r2, #0
 80042dc:	f883 203c 	strb.w	r2, [r3, #60]	@ 0x3c

          return HAL_ERROR;
 80042e0:	2301      	movs	r3, #1
 80042e2:	e007      	b.n	80042f4 <I2C_WaitOnBTFFlagUntilTimeout+0x88>
  while (__HAL_I2C_GET_FLAG(hi2c, I2C_FLAG_BTF) == RESET)
 80042e4:	68fb      	ldr	r3, [r7, #12]
 80042e6:	681b      	ldr	r3, [r3, #0]
 80042e8:	695b      	ldr	r3, [r3, #20]
 80042ea:	f003 0304 	and.w	r3, r3, #4
 80042ee:	2b04      	cmp	r3, #4
 80042f0:	d1c3      	bne.n	800427a <I2C_WaitOnBTFFlagUntilTimeout+0xe>
        }
      }
    }
  }
  return HAL_OK;
 80042f2:	2300      	movs	r3, #0
}
 80042f4:	4618      	mov	r0, r3
 80042f6:	3710      	adds	r7, #16
 80042f8:	46bd      	mov	sp, r7
 80042fa:	bd80      	pop	{r7, pc}

080042fc <I2C_WaitOnRXNEFlagUntilTimeout>:
  * @param  Timeout Timeout duration
  * @param  Tickstart Tick start value
  * @retval HAL status
  */
static HAL_StatusTypeDef I2C_WaitOnRXNEFlagUntilTimeout(I2C_HandleTypeDef *hi2c, uint32_t Timeout, uint32_t Tickstart)
{
 80042fc:	b580      	push	{r7, lr}
 80042fe:	b084      	sub	sp, #16
 8004300:	af00      	add	r7, sp, #0
 8004302:	60f8      	str	r0, [r7, #12]
 8004304:	60b9      	str	r1, [r7, #8]
 8004306:	607a      	str	r2, [r7, #4]

  while (__HAL_I2C_GET_FLAG(hi2c, I2C_FLAG_RXNE) == RESET)
 8004308:	e049      	b.n	800439e <I2C_WaitOnRXNEFlagUntilTimeout+0xa2>
  {
    /* Check if a STOPF is detected */
    if (__HAL_I2C_GET_FLAG(hi2c, I2C_FLAG_STOPF) == SET)
 800430a:	68fb      	ldr	r3, [r7, #12]
 800430c:	681b      	ldr	r3, [r3, #0]
 800430e:	695b      	ldr	r3, [r3, #20]
 8004310:	f003 0310 	and.w	r3, r3, #16
 8004314:	2b10      	cmp	r3, #16
 8004316:	d119      	bne.n	800434c <I2C_WaitOnRXNEFlagUntilTimeout+0x50>
    {
      /* Clear STOP Flag */
      __HAL_I2C_CLEAR_FLAG(hi2c, I2C_FLAG_STOPF);
 8004318:	68fb      	ldr	r3, [r7, #12]
 800431a:	681b      	ldr	r3, [r3, #0]
 800431c:	f06f 0210 	mvn.w	r2, #16
 8004320:	615a      	str	r2, [r3, #20]

      hi2c->PreviousState       = I2C_STATE_NONE;
 8004322:	68fb      	ldr	r3, [r7, #12]
 8004324:	2200      	movs	r2, #0
 8004326:	631a      	str	r2, [r3, #48]	@ 0x30
      hi2c->State               = HAL_I2C_STATE_READY;
 8004328:	68fb      	ldr	r3, [r7, #12]
 800432a:	2220      	movs	r2, #32
 800432c:	f883 203d 	strb.w	r2, [r3, #61]	@ 0x3d
      hi2c->Mode                = HAL_I2C_MODE_NONE;
 8004330:	68fb      	ldr	r3, [r7, #12]
 8004332:	2200      	movs	r2, #0
 8004334:	f883 203e 	strb.w	r2, [r3, #62]	@ 0x3e
      hi2c->ErrorCode           |= HAL_I2C_ERROR_NONE;
 8004338:	68fb      	ldr	r3, [r7, #12]
 800433a:	6c1a      	ldr	r2, [r3, #64]	@ 0x40
 800433c:	68fb      	ldr	r3, [r7, #12]
 800433e:	641a      	str	r2, [r3, #64]	@ 0x40

      /* Process Unlocked */
      __HAL_UNLOCK(hi2c);
 8004340:	68fb      	ldr	r3, [r7, #12]
 8004342:	2200      	movs	r2, #0
 8004344:	f883 203c 	strb.w	r2, [r3, #60]	@ 0x3c

      return HAL_ERROR;
 8004348:	2301      	movs	r3, #1
 800434a:	e030      	b.n	80043ae <I2C_WaitOnRXNEFlagUntilTimeout+0xb2>
    }

    /* Check for the Timeout */
    if (((HAL_GetTick() - Tickstart) > Timeout) || (Timeout == 0U))
 800434c:	f7fe f8f4 	bl	8002538 <HAL_GetTick>
 8004350:	4602      	mov	r2, r0
 8004352:	687b      	ldr	r3, [r7, #4]
 8004354:	1ad3      	subs	r3, r2, r3
 8004356:	68ba      	ldr	r2, [r7, #8]
 8004358:	429a      	cmp	r2, r3
 800435a:	d302      	bcc.n	8004362 <I2C_WaitOnRXNEFlagUntilTimeout+0x66>
 800435c:	68bb      	ldr	r3, [r7, #8]
 800435e:	2b00      	cmp	r3, #0
 8004360:	d11d      	bne.n	800439e <I2C_WaitOnRXNEFlagUntilTimeout+0xa2>
    {
      if ((__HAL_I2C_GET_FLAG(hi2c, I2C_FLAG_RXNE) == RESET))
 8004362:	68fb      	ldr	r3, [r7, #12]
 8004364:	681b      	ldr	r3, [r3, #0]
 8004366:	695b      	ldr	r3, [r3, #20]
 8004368:	f003 0340 	and.w	r3, r3, #64	@ 0x40
 800436c:	2b40      	cmp	r3, #64	@ 0x40
 800436e:	d016      	beq.n	800439e <I2C_WaitOnRXNEFlagUntilTimeout+0xa2>
      {
        hi2c->PreviousState       = I2C_STATE_NONE;
 8004370:	68fb      	ldr	r3, [r7, #12]
 8004372:	2200      	movs	r2, #0
 8004374:	631a      	str	r2, [r3, #48]	@ 0x30
        hi2c->State               = HAL_I2C_STATE_READY;
 8004376:	68fb      	ldr	r3, [r7, #12]
 8004378:	2220      	movs	r2, #32
 800437a:	f883 203d 	strb.w	r2, [r3, #61]	@ 0x3d
        hi2c->Mode                = HAL_I2C_MODE_NONE;
 800437e:	68fb      	ldr	r3, [r7, #12]
 8004380:	2200      	movs	r2, #0
 8004382:	f883 203e 	strb.w	r2, [r3, #62]	@ 0x3e
        hi2c->ErrorCode           |= HAL_I2C_ERROR_TIMEOUT;
 8004386:	68fb      	ldr	r3, [r7, #12]
 8004388:	6c1b      	ldr	r3, [r3, #64]	@ 0x40
 800438a:	f043 0220 	orr.w	r2, r3, #32
 800438e:	68fb      	ldr	r3, [r7, #12]
 8004390:	641a      	str	r2, [r3, #64]	@ 0x40

        /* Process Unlocked */
        __HAL_UNLOCK(hi2c);
 8004392:	68fb      	ldr	r3, [r7, #12]
 8004394:	2200      	movs	r2, #0
 8004396:	f883 203c 	strb.w	r2, [r3, #60]	@ 0x3c

        return HAL_ERROR;
 800439a:	2301      	movs	r3, #1
 800439c:	e007      	b.n	80043ae <I2C_WaitOnRXNEFlagUntilTimeout+0xb2>
  while (__HAL_I2C_GET_FLAG(hi2c, I2C_FLAG_RXNE) == RESET)
 800439e:	68fb      	ldr	r3, [r7, #12]
 80043a0:	681b      	ldr	r3, [r3, #0]
 80043a2:	695b      	ldr	r3, [r3, #20]
 80043a4:	f003 0340 	and.w	r3, r3, #64	@ 0x40
 80043a8:	2b40      	cmp	r3, #64	@ 0x40
 80043aa:	d1ae      	bne.n	800430a <I2C_WaitOnRXNEFlagUntilTimeout+0xe>
      }
    }
  }
  return HAL_OK;
 80043ac:	2300      	movs	r3, #0
}
 80043ae:	4618      	mov	r0, r3
 80043b0:	3710      	adds	r7, #16
 80043b2:	46bd      	mov	sp, r7
 80043b4:	bd80      	pop	{r7, pc}

080043b6 <I2C_IsAcknowledgeFailed>:
  * @param  hi2c Pointer to a I2C_HandleTypeDef structure that contains
  *                the configuration information for the specified I2C.
  * @retval HAL status
  */
static HAL_StatusTypeDef I2C_IsAcknowledgeFailed(I2C_HandleTypeDef *hi2c)
{
 80043b6:	b480      	push	{r7}
 80043b8:	b083      	sub	sp, #12
 80043ba:	af00      	add	r7, sp, #0
 80043bc:	6078      	str	r0, [r7, #4]
  if (__HAL_I2C_GET_FLAG(hi2c, I2C_FLAG_AF) == SET)
 80043be:	687b      	ldr	r3, [r7, #4]
 80043c0:	681b      	ldr	r3, [r3, #0]
 80043c2:	695b      	ldr	r3, [r3, #20]
 80043c4:	f403 6380 	and.w	r3, r3, #1024	@ 0x400
 80043c8:	f5b3 6f80 	cmp.w	r3, #1024	@ 0x400
 80043cc:	d11b      	bne.n	8004406 <I2C_IsAcknowledgeFailed+0x50>
  {
    /* Clear NACKF Flag */
    __HAL_I2C_CLEAR_FLAG(hi2c, I2C_FLAG_AF);
 80043ce:	687b      	ldr	r3, [r7, #4]
 80043d0:	681b      	ldr	r3, [r3, #0]
 80043d2:	f46f 6280 	mvn.w	r2, #1024	@ 0x400
 80043d6:	615a      	str	r2, [r3, #20]

    hi2c->PreviousState       = I2C_STATE_NONE;
 80043d8:	687b      	ldr	r3, [r7, #4]
 80043da:	2200      	movs	r2, #0
 80043dc:	631a      	str	r2, [r3, #48]	@ 0x30
    hi2c->State               = HAL_I2C_STATE_READY;
 80043de:	687b      	ldr	r3, [r7, #4]
 80043e0:	2220      	movs	r2, #32
 80043e2:	f883 203d 	strb.w	r2, [r3, #61]	@ 0x3d
    hi2c->Mode                = HAL_I2C_MODE_NONE;
 80043e6:	687b      	ldr	r3, [r7, #4]
 80043e8:	2200      	movs	r2, #0
 80043ea:	f883 203e 	strb.w	r2, [r3, #62]	@ 0x3e
    hi2c->ErrorCode           |= HAL_I2C_ERROR_AF;
 80043ee:	687b      	ldr	r3, [r7, #4]
 80043f0:	6c1b      	ldr	r3, [r3, #64]	@ 0x40
 80043f2:	f043 0204 	orr.w	r2, r3, #4
 80043f6:	687b      	ldr	r3, [r7, #4]
 80043f8:	641a      	str	r2, [r3, #64]	@ 0x40

    /* Process Unlocked */
    __HAL_UNLOCK(hi2c);
 80043fa:	687b      	ldr	r3, [r7, #4]
 80043fc:	2200      	movs	r2, #0
 80043fe:	f883 203c 	strb.w	r2, [r3, #60]	@ 0x3c

    return HAL_ERROR;
 8004402:	2301      	movs	r3, #1
 8004404:	e000      	b.n	8004408 <I2C_IsAcknowledgeFailed+0x52>
  }
  return HAL_OK;
 8004406:	2300      	movs	r3, #0
}
 8004408:	4618      	mov	r0, r3
 800440a:	370c      	adds	r7, #12
 800440c:	46bd      	mov	sp, r7
 800440e:	f85d 7b04 	ldr.w	r7, [sp], #4
 8004412:	4770      	bx	lr

08004414 <HAL_RCC_OscConfig>:
  *         supported by this API. User should request a transition to HSE Off
  *         first and then HSE On or HSE Bypass.
  * @retval HAL status
  */
__weak HAL_StatusTypeDef HAL_RCC_OscConfig(RCC_OscInitTypeDef  *RCC_OscInitStruct)
{
 8004414:	b580      	push	{r7, lr}
 8004416:	b086      	sub	sp, #24
 8004418:	af00      	add	r7, sp, #0
 800441a:	6078      	str	r0, [r7, #4]
  uint32_t tickstart;
  uint32_t pll_config;
  /* Check Null pointer */
  if (RCC_OscInitStruct == NULL)
 800441c:	687b      	ldr	r3, [r7, #4]
 800441e:	2b00      	cmp	r3, #0
 8004420:	d101      	bne.n	8004426 <HAL_RCC_OscConfig+0x12>
  {
    return HAL_ERROR;
 8004422:	2301      	movs	r3, #1
 8004424:	e267      	b.n	80048f6 <HAL_RCC_OscConfig+0x4e2>
  }

  /* Check the parameters */
  assert_param(IS_RCC_OSCILLATORTYPE(RCC_OscInitStruct->OscillatorType));
  /*------------------------------- HSE Configuration ------------------------*/
  if (((RCC_OscInitStruct->OscillatorType) & RCC_OSCILLATORTYPE_HSE) == RCC_OSCILLATORTYPE_HSE)
 8004426:	687b      	ldr	r3, [r7, #4]
 8004428:	681b      	ldr	r3, [r3, #0]
 800442a:	f003 0301 	and.w	r3, r3, #1
 800442e:	2b00      	cmp	r3, #0
 8004430:	d075      	beq.n	800451e <HAL_RCC_OscConfig+0x10a>
  {
    /* Check the parameters */
    assert_param(IS_RCC_HSE(RCC_OscInitStruct->HSEState));
    /* When the HSE is used as system clock or clock source for PLL in these cases HSE will not disabled */
    if ((__HAL_RCC_GET_SYSCLK_SOURCE() == RCC_CFGR_SWS_HSE) || \
 8004432:	4b88      	ldr	r3, [pc, #544]	@ (8004654 <HAL_RCC_OscConfig+0x240>)
 8004434:	689b      	ldr	r3, [r3, #8]
 8004436:	f003 030c 	and.w	r3, r3, #12
 800443a:	2b04      	cmp	r3, #4
 800443c:	d00c      	beq.n	8004458 <HAL_RCC_OscConfig+0x44>
        ((__HAL_RCC_GET_SYSCLK_SOURCE() == RCC_CFGR_SWS_PLL) && ((RCC->PLLCFGR & RCC_PLLCFGR_PLLSRC) == RCC_PLLCFGR_PLLSRC_HSE)))
 800443e:	4b85      	ldr	r3, [pc, #532]	@ (8004654 <HAL_RCC_OscConfig+0x240>)
 8004440:	689b      	ldr	r3, [r3, #8]
 8004442:	f003 030c 	and.w	r3, r3, #12
    if ((__HAL_RCC_GET_SYSCLK_SOURCE() == RCC_CFGR_SWS_HSE) || \
 8004446:	2b08      	cmp	r3, #8
 8004448:	d112      	bne.n	8004470 <HAL_RCC_OscConfig+0x5c>
        ((__HAL_RCC_GET_SYSCLK_SOURCE() == RCC_CFGR_SWS_PLL) && ((RCC->PLLCFGR & RCC_PLLCFGR_PLLSRC) == RCC_PLLCFGR_PLLSRC_HSE)))
 800444a:	4b82      	ldr	r3, [pc, #520]	@ (8004654 <HAL_RCC_OscConfig+0x240>)
 800444c:	685b      	ldr	r3, [r3, #4]
 800444e:	f403 0380 	and.w	r3, r3, #4194304	@ 0x400000
 8004452:	f5b3 0f80 	cmp.w	r3, #4194304	@ 0x400000
 8004456:	d10b      	bne.n	8004470 <HAL_RCC_OscConfig+0x5c>
    {
      if ((__HAL_RCC_GET_FLAG(RCC_FLAG_HSERDY) != RESET) && (RCC_OscInitStruct->HSEState == RCC_HSE_OFF))
 8004458:	4b7e      	ldr	r3, [pc, #504]	@ (8004654 <HAL_RCC_OscConfig+0x240>)
 800445a:	681b      	ldr	r3, [r3, #0]
 800445c:	f403 3300 	and.w	r3, r3, #131072	@ 0x20000
 8004460:	2b00      	cmp	r3, #0
 8004462:	d05b      	beq.n	800451c <HAL_RCC_OscConfig+0x108>
 8004464:	687b      	ldr	r3, [r7, #4]
 8004466:	685b      	ldr	r3, [r3, #4]
 8004468:	2b00      	cmp	r3, #0
 800446a:	d157      	bne.n	800451c <HAL_RCC_OscConfig+0x108>
      {
        return HAL_ERROR;
 800446c:	2301      	movs	r3, #1
 800446e:	e242      	b.n	80048f6 <HAL_RCC_OscConfig+0x4e2>
      }
    }
    else
    {
      /* Set the new HSE configuration ---------------------------------------*/
      __HAL_RCC_HSE_CONFIG(RCC_OscInitStruct->HSEState);
 8004470:	687b      	ldr	r3, [r7, #4]
 8004472:	685b      	ldr	r3, [r3, #4]
 8004474:	f5b3 3f80 	cmp.w	r3, #65536	@ 0x10000
 8004478:	d106      	bne.n	8004488 <HAL_RCC_OscConfig+0x74>
 800447a:	4b76      	ldr	r3, [pc, #472]	@ (8004654 <HAL_RCC_OscConfig+0x240>)
 800447c:	681b      	ldr	r3, [r3, #0]
 800447e:	4a75      	ldr	r2, [pc, #468]	@ (8004654 <HAL_RCC_OscConfig+0x240>)
 8004480:	f443 3380 	orr.w	r3, r3, #65536	@ 0x10000
 8004484:	6013      	str	r3, [r2, #0]
 8004486:	e01d      	b.n	80044c4 <HAL_RCC_OscConfig+0xb0>
 8004488:	687b      	ldr	r3, [r7, #4]
 800448a:	685b      	ldr	r3, [r3, #4]
 800448c:	f5b3 2fa0 	cmp.w	r3, #327680	@ 0x50000
 8004490:	d10c      	bne.n	80044ac <HAL_RCC_OscConfig+0x98>
 8004492:	4b70      	ldr	r3, [pc, #448]	@ (8004654 <HAL_RCC_OscConfig+0x240>)
 8004494:	681b      	ldr	r3, [r3, #0]
 8004496:	4a6f      	ldr	r2, [pc, #444]	@ (8004654 <HAL_RCC_OscConfig+0x240>)
 8004498:	f443 2380 	orr.w	r3, r3, #262144	@ 0x40000
 800449c:	6013      	str	r3, [r2, #0]
 800449e:	4b6d      	ldr	r3, [pc, #436]	@ (8004654 <HAL_RCC_OscConfig+0x240>)
 80044a0:	681b      	ldr	r3, [r3, #0]
 80044a2:	4a6c      	ldr	r2, [pc, #432]	@ (8004654 <HAL_RCC_OscConfig+0x240>)
 80044a4:	f443 3380 	orr.w	r3, r3, #65536	@ 0x10000
 80044a8:	6013      	str	r3, [r2, #0]
 80044aa:	e00b      	b.n	80044c4 <HAL_RCC_OscConfig+0xb0>
 80044ac:	4b69      	ldr	r3, [pc, #420]	@ (8004654 <HAL_RCC_OscConfig+0x240>)
 80044ae:	681b      	ldr	r3, [r3, #0]
 80044b0:	4a68      	ldr	r2, [pc, #416]	@ (8004654 <HAL_RCC_OscConfig+0x240>)
 80044b2:	f423 3380 	bic.w	r3, r3, #65536	@ 0x10000
 80044b6:	6013      	str	r3, [r2, #0]
 80044b8:	4b66      	ldr	r3, [pc, #408]	@ (8004654 <HAL_RCC_OscConfig+0x240>)
 80044ba:	681b      	ldr	r3, [r3, #0]
 80044bc:	4a65      	ldr	r2, [pc, #404]	@ (8004654 <HAL_RCC_OscConfig+0x240>)
 80044be:	f423 2380 	bic.w	r3, r3, #262144	@ 0x40000
 80044c2:	6013      	str	r3, [r2, #0]

      /* Check the HSE State */
      if ((RCC_OscInitStruct->HSEState) != RCC_HSE_OFF)
 80044c4:	687b      	ldr	r3, [r7, #4]
 80044c6:	685b      	ldr	r3, [r3, #4]
 80044c8:	2b00      	cmp	r3, #0
 80044ca:	d013      	beq.n	80044f4 <HAL_RCC_OscConfig+0xe0>
      {
        /* Get Start Tick */
        tickstart = HAL_GetTick();
 80044cc:	f7fe f834 	bl	8002538 <HAL_GetTick>
 80044d0:	6138      	str	r0, [r7, #16]

        /* Wait till HSE is ready */
        while (__HAL_RCC_GET_FLAG(RCC_FLAG_HSERDY) == RESET)
 80044d2:	e008      	b.n	80044e6 <HAL_RCC_OscConfig+0xd2>
        {
          if ((HAL_GetTick() - tickstart) > HSE_TIMEOUT_VALUE)
 80044d4:	f7fe f830 	bl	8002538 <HAL_GetTick>
 80044d8:	4602      	mov	r2, r0
 80044da:	693b      	ldr	r3, [r7, #16]
 80044dc:	1ad3      	subs	r3, r2, r3
 80044de:	2b64      	cmp	r3, #100	@ 0x64
 80044e0:	d901      	bls.n	80044e6 <HAL_RCC_OscConfig+0xd2>
          {
            return HAL_TIMEOUT;
 80044e2:	2303      	movs	r3, #3
 80044e4:	e207      	b.n	80048f6 <HAL_RCC_OscConfig+0x4e2>
        while (__HAL_RCC_GET_FLAG(RCC_FLAG_HSERDY) == RESET)
 80044e6:	4b5b      	ldr	r3, [pc, #364]	@ (8004654 <HAL_RCC_OscConfig+0x240>)
 80044e8:	681b      	ldr	r3, [r3, #0]
 80044ea:	f403 3300 	and.w	r3, r3, #131072	@ 0x20000
 80044ee:	2b00      	cmp	r3, #0
 80044f0:	d0f0      	beq.n	80044d4 <HAL_RCC_OscConfig+0xc0>
 80044f2:	e014      	b.n	800451e <HAL_RCC_OscConfig+0x10a>
        }
      }
      else
      {
        /* Get Start Tick */
        tickstart = HAL_GetTick();
 80044f4:	f7fe f820 	bl	8002538 <HAL_GetTick>
 80044f8:	6138      	str	r0, [r7, #16]

        /* Wait till HSE is bypassed or disabled */
        while (__HAL_RCC_GET_FLAG(RCC_FLAG_HSERDY) != RESET)
 80044fa:	e008      	b.n	800450e <HAL_RCC_OscConfig+0xfa>
        {
          if ((HAL_GetTick() - tickstart) > HSE_TIMEOUT_VALUE)
 80044fc:	f7fe f81c 	bl	8002538 <HAL_GetTick>
 8004500:	4602      	mov	r2, r0
 8004502:	693b      	ldr	r3, [r7, #16]
 8004504:	1ad3      	subs	r3, r2, r3
 8004506:	2b64      	cmp	r3, #100	@ 0x64
 8004508:	d901      	bls.n	800450e <HAL_RCC_OscConfig+0xfa>
          {
            return HAL_TIMEOUT;
 800450a:	2303      	movs	r3, #3
 800450c:	e1f3      	b.n	80048f6 <HAL_RCC_OscConfig+0x4e2>
        while (__HAL_RCC_GET_FLAG(RCC_FLAG_HSERDY) != RESET)
 800450e:	4b51      	ldr	r3, [pc, #324]	@ (8004654 <HAL_RCC_OscConfig+0x240>)
 8004510:	681b      	ldr	r3, [r3, #0]
 8004512:	f403 3300 	and.w	r3, r3, #131072	@ 0x20000
 8004516:	2b00      	cmp	r3, #0
 8004518:	d1f0      	bne.n	80044fc <HAL_RCC_OscConfig+0xe8>
 800451a:	e000      	b.n	800451e <HAL_RCC_OscConfig+0x10a>
      if ((__HAL_RCC_GET_FLAG(RCC_FLAG_HSERDY) != RESET) && (RCC_OscInitStruct->HSEState == RCC_HSE_OFF))
 800451c:	bf00      	nop
        }
      }
    }
  }
  /*----------------------------- HSI Configuration --------------------------*/
  if (((RCC_OscInitStruct->OscillatorType) & RCC_OSCILLATORTYPE_HSI) == RCC_OSCILLATORTYPE_HSI)
 800451e:	687b      	ldr	r3, [r7, #4]
 8004520:	681b      	ldr	r3, [r3, #0]
 8004522:	f003 0302 	and.w	r3, r3, #2
 8004526:	2b00      	cmp	r3, #0
 8004528:	d063      	beq.n	80045f2 <HAL_RCC_OscConfig+0x1de>
    /* Check the parameters */
    assert_param(IS_RCC_HSI(RCC_OscInitStruct->HSIState));
    assert_param(IS_RCC_CALIBRATION_VALUE(RCC_OscInitStruct->HSICalibrationValue));

    /* Check if HSI is used as system clock or as PLL source when PLL is selected as system clock */
    if ((__HAL_RCC_GET_SYSCLK_SOURCE() == RCC_CFGR_SWS_HSI) || \
 800452a:	4b4a      	ldr	r3, [pc, #296]	@ (8004654 <HAL_RCC_OscConfig+0x240>)
 800452c:	689b      	ldr	r3, [r3, #8]
 800452e:	f003 030c 	and.w	r3, r3, #12
 8004532:	2b00      	cmp	r3, #0
 8004534:	d00b      	beq.n	800454e <HAL_RCC_OscConfig+0x13a>
        ((__HAL_RCC_GET_SYSCLK_SOURCE() == RCC_CFGR_SWS_PLL) && ((RCC->PLLCFGR & RCC_PLLCFGR_PLLSRC) == RCC_PLLCFGR_PLLSRC_HSI)))
 8004536:	4b47      	ldr	r3, [pc, #284]	@ (8004654 <HAL_RCC_OscConfig+0x240>)
 8004538:	689b      	ldr	r3, [r3, #8]
 800453a:	f003 030c 	and.w	r3, r3, #12
    if ((__HAL_RCC_GET_SYSCLK_SOURCE() == RCC_CFGR_SWS_HSI) || \
 800453e:	2b08      	cmp	r3, #8
 8004540:	d11c      	bne.n	800457c <HAL_RCC_OscConfig+0x168>
        ((__HAL_RCC_GET_SYSCLK_SOURCE() == RCC_CFGR_SWS_PLL) && ((RCC->PLLCFGR & RCC_PLLCFGR_PLLSRC) == RCC_PLLCFGR_PLLSRC_HSI)))
 8004542:	4b44      	ldr	r3, [pc, #272]	@ (8004654 <HAL_RCC_OscConfig+0x240>)
 8004544:	685b      	ldr	r3, [r3, #4]
 8004546:	f403 0380 	and.w	r3, r3, #4194304	@ 0x400000
 800454a:	2b00      	cmp	r3, #0
 800454c:	d116      	bne.n	800457c <HAL_RCC_OscConfig+0x168>
    {
      /* When HSI is used as system clock it will not disabled */
      if ((__HAL_RCC_GET_FLAG(RCC_FLAG_HSIRDY) != RESET) && (RCC_OscInitStruct->HSIState != RCC_HSI_ON))
 800454e:	4b41      	ldr	r3, [pc, #260]	@ (8004654 <HAL_RCC_OscConfig+0x240>)
 8004550:	681b      	ldr	r3, [r3, #0]
 8004552:	f003 0302 	and.w	r3, r3, #2
 8004556:	2b00      	cmp	r3, #0
 8004558:	d005      	beq.n	8004566 <HAL_RCC_OscConfig+0x152>
 800455a:	687b      	ldr	r3, [r7, #4]
 800455c:	68db      	ldr	r3, [r3, #12]
 800455e:	2b01      	cmp	r3, #1
 8004560:	d001      	beq.n	8004566 <HAL_RCC_OscConfig+0x152>
      {
        return HAL_ERROR;
 8004562:	2301      	movs	r3, #1
 8004564:	e1c7      	b.n	80048f6 <HAL_RCC_OscConfig+0x4e2>
      }
      /* Otherwise, just the calibration is allowed */
      else
      {
        /* Adjusts the Internal High Speed oscillator (HSI) calibration value.*/
        __HAL_RCC_HSI_CALIBRATIONVALUE_ADJUST(RCC_OscInitStruct->HSICalibrationValue);
 8004566:	4b3b      	ldr	r3, [pc, #236]	@ (8004654 <HAL_RCC_OscConfig+0x240>)
 8004568:	681b      	ldr	r3, [r3, #0]
 800456a:	f023 02f8 	bic.w	r2, r3, #248	@ 0xf8
 800456e:	687b      	ldr	r3, [r7, #4]
 8004570:	691b      	ldr	r3, [r3, #16]
 8004572:	00db      	lsls	r3, r3, #3
 8004574:	4937      	ldr	r1, [pc, #220]	@ (8004654 <HAL_RCC_OscConfig+0x240>)
 8004576:	4313      	orrs	r3, r2
 8004578:	600b      	str	r3, [r1, #0]
      if ((__HAL_RCC_GET_FLAG(RCC_FLAG_HSIRDY) != RESET) && (RCC_OscInitStruct->HSIState != RCC_HSI_ON))
 800457a:	e03a      	b.n	80045f2 <HAL_RCC_OscConfig+0x1de>
      }
    }
    else
    {
      /* Check the HSI State */
      if ((RCC_OscInitStruct->HSIState) != RCC_HSI_OFF)
 800457c:	687b      	ldr	r3, [r7, #4]
 800457e:	68db      	ldr	r3, [r3, #12]
 8004580:	2b00      	cmp	r3, #0
 8004582:	d020      	beq.n	80045c6 <HAL_RCC_OscConfig+0x1b2>
      {
        /* Enable the Internal High Speed oscillator (HSI). */
        __HAL_RCC_HSI_ENABLE();
 8004584:	4b34      	ldr	r3, [pc, #208]	@ (8004658 <HAL_RCC_OscConfig+0x244>)
 8004586:	2201      	movs	r2, #1
 8004588:	601a      	str	r2, [r3, #0]

        /* Get Start Tick*/
        tickstart = HAL_GetTick();
 800458a:	f7fd ffd5 	bl	8002538 <HAL_GetTick>
 800458e:	6138      	str	r0, [r7, #16]

        /* Wait till HSI is ready */
        while (__HAL_RCC_GET_FLAG(RCC_FLAG_HSIRDY) == RESET)
 8004590:	e008      	b.n	80045a4 <HAL_RCC_OscConfig+0x190>
        {
          if ((HAL_GetTick() - tickstart) > HSI_TIMEOUT_VALUE)
 8004592:	f7fd ffd1 	bl	8002538 <HAL_GetTick>
 8004596:	4602      	mov	r2, r0
 8004598:	693b      	ldr	r3, [r7, #16]
 800459a:	1ad3      	subs	r3, r2, r3
 800459c:	2b02      	cmp	r3, #2
 800459e:	d901      	bls.n	80045a4 <HAL_RCC_OscConfig+0x190>
          {
            return HAL_TIMEOUT;
 80045a0:	2303      	movs	r3, #3
 80045a2:	e1a8      	b.n	80048f6 <HAL_RCC_OscConfig+0x4e2>
        while (__HAL_RCC_GET_FLAG(RCC_FLAG_HSIRDY) == RESET)
 80045a4:	4b2b      	ldr	r3, [pc, #172]	@ (8004654 <HAL_RCC_OscConfig+0x240>)
 80045a6:	681b      	ldr	r3, [r3, #0]
 80045a8:	f003 0302 	and.w	r3, r3, #2
 80045ac:	2b00      	cmp	r3, #0
 80045ae:	d0f0      	beq.n	8004592 <HAL_RCC_OscConfig+0x17e>
          }
        }

        /* Adjusts the Internal High Speed oscillator (HSI) calibration value. */
        __HAL_RCC_HSI_CALIBRATIONVALUE_ADJUST(RCC_OscInitStruct->HSICalibrationValue);
 80045b0:	4b28      	ldr	r3, [pc, #160]	@ (8004654 <HAL_RCC_OscConfig+0x240>)
 80045b2:	681b      	ldr	r3, [r3, #0]
 80045b4:	f023 02f8 	bic.w	r2, r3, #248	@ 0xf8
 80045b8:	687b      	ldr	r3, [r7, #4]
 80045ba:	691b      	ldr	r3, [r3, #16]
 80045bc:	00db      	lsls	r3, r3, #3
 80045be:	4925      	ldr	r1, [pc, #148]	@ (8004654 <HAL_RCC_OscConfig+0x240>)
 80045c0:	4313      	orrs	r3, r2
 80045c2:	600b      	str	r3, [r1, #0]
 80045c4:	e015      	b.n	80045f2 <HAL_RCC_OscConfig+0x1de>
      }
      else
      {
        /* Disable the Internal High Speed oscillator (HSI). */
        __HAL_RCC_HSI_DISABLE();
 80045c6:	4b24      	ldr	r3, [pc, #144]	@ (8004658 <HAL_RCC_OscConfig+0x244>)
 80045c8:	2200      	movs	r2, #0
 80045ca:	601a      	str	r2, [r3, #0]

        /* Get Start Tick*/
        tickstart = HAL_GetTick();
 80045cc:	f7fd ffb4 	bl	8002538 <HAL_GetTick>
 80045d0:	6138      	str	r0, [r7, #16]

        /* Wait till HSI is ready */
        while (__HAL_RCC_GET_FLAG(RCC_FLAG_HSIRDY) != RESET)
 80045d2:	e008      	b.n	80045e6 <HAL_RCC_OscConfig+0x1d2>
        {
          if ((HAL_GetTick() - tickstart) > HSI_TIMEOUT_VALUE)
 80045d4:	f7fd ffb0 	bl	8002538 <HAL_GetTick>
 80045d8:	4602      	mov	r2, r0
 80045da:	693b      	ldr	r3, [r7, #16]
 80045dc:	1ad3      	subs	r3, r2, r3
 80045de:	2b02      	cmp	r3, #2
 80045e0:	d901      	bls.n	80045e6 <HAL_RCC_OscConfig+0x1d2>
          {
            return HAL_TIMEOUT;
 80045e2:	2303      	movs	r3, #3
 80045e4:	e187      	b.n	80048f6 <HAL_RCC_OscConfig+0x4e2>
        while (__HAL_RCC_GET_FLAG(RCC_FLAG_HSIRDY) != RESET)
 80045e6:	4b1b      	ldr	r3, [pc, #108]	@ (8004654 <HAL_RCC_OscConfig+0x240>)
 80045e8:	681b      	ldr	r3, [r3, #0]
 80045ea:	f003 0302 	and.w	r3, r3, #2
 80045ee:	2b00      	cmp	r3, #0
 80045f0:	d1f0      	bne.n	80045d4 <HAL_RCC_OscConfig+0x1c0>
        }
      }
    }
  }
  /*------------------------------ LSI Configuration -------------------------*/
  if (((RCC_OscInitStruct->OscillatorType) & RCC_OSCILLATORTYPE_LSI) == RCC_OSCILLATORTYPE_LSI)
 80045f2:	687b      	ldr	r3, [r7, #4]
 80045f4:	681b      	ldr	r3, [r3, #0]
 80045f6:	f003 0308 	and.w	r3, r3, #8
 80045fa:	2b00      	cmp	r3, #0
 80045fc:	d036      	beq.n	800466c <HAL_RCC_OscConfig+0x258>
  {
    /* Check the parameters */
    assert_param(IS_RCC_LSI(RCC_OscInitStruct->LSIState));

    /* Check the LSI State */
    if ((RCC_OscInitStruct->LSIState) != RCC_LSI_OFF)
 80045fe:	687b      	ldr	r3, [r7, #4]
 8004600:	695b      	ldr	r3, [r3, #20]
 8004602:	2b00      	cmp	r3, #0
 8004604:	d016      	beq.n	8004634 <HAL_RCC_OscConfig+0x220>
    {
      /* Enable the Internal Low Speed oscillator (LSI). */
      __HAL_RCC_LSI_ENABLE();
 8004606:	4b15      	ldr	r3, [pc, #84]	@ (800465c <HAL_RCC_OscConfig+0x248>)
 8004608:	2201      	movs	r2, #1
 800460a:	601a      	str	r2, [r3, #0]

      /* Get Start Tick*/
      tickstart = HAL_GetTick();
 800460c:	f7fd ff94 	bl	8002538 <HAL_GetTick>
 8004610:	6138      	str	r0, [r7, #16]

      /* Wait till LSI is ready */
      while (__HAL_RCC_GET_FLAG(RCC_FLAG_LSIRDY) == RESET)
 8004612:	e008      	b.n	8004626 <HAL_RCC_OscConfig+0x212>
      {
        if ((HAL_GetTick() - tickstart) > LSI_TIMEOUT_VALUE)
 8004614:	f7fd ff90 	bl	8002538 <HAL_GetTick>
 8004618:	4602      	mov	r2, r0
 800461a:	693b      	ldr	r3, [r7, #16]
 800461c:	1ad3      	subs	r3, r2, r3
 800461e:	2b02      	cmp	r3, #2
 8004620:	d901      	bls.n	8004626 <HAL_RCC_OscConfig+0x212>
        {
          return HAL_TIMEOUT;
 8004622:	2303      	movs	r3, #3
 8004624:	e167      	b.n	80048f6 <HAL_RCC_OscConfig+0x4e2>
      while (__HAL_RCC_GET_FLAG(RCC_FLAG_LSIRDY) == RESET)
 8004626:	4b0b      	ldr	r3, [pc, #44]	@ (8004654 <HAL_RCC_OscConfig+0x240>)
 8004628:	6f5b      	ldr	r3, [r3, #116]	@ 0x74
 800462a:	f003 0302 	and.w	r3, r3, #2
 800462e:	2b00      	cmp	r3, #0
 8004630:	d0f0      	beq.n	8004614 <HAL_RCC_OscConfig+0x200>
 8004632:	e01b      	b.n	800466c <HAL_RCC_OscConfig+0x258>
      }
    }
    else
    {
      /* Disable the Internal Low Speed oscillator (LSI). */
      __HAL_RCC_LSI_DISABLE();
 8004634:	4b09      	ldr	r3, [pc, #36]	@ (800465c <HAL_RCC_OscConfig+0x248>)
 8004636:	2200      	movs	r2, #0
 8004638:	601a      	str	r2, [r3, #0]

      /* Get Start Tick */
      tickstart = HAL_GetTick();
 800463a:	f7fd ff7d 	bl	8002538 <HAL_GetTick>
 800463e:	6138      	str	r0, [r7, #16]

      /* Wait till LSI is ready */
      while (__HAL_RCC_GET_FLAG(RCC_FLAG_LSIRDY) != RESET)
 8004640:	e00e      	b.n	8004660 <HAL_RCC_OscConfig+0x24c>
      {
        if ((HAL_GetTick() - tickstart) > LSI_TIMEOUT_VALUE)
 8004642:	f7fd ff79 	bl	8002538 <HAL_GetTick>
 8004646:	4602      	mov	r2, r0
 8004648:	693b      	ldr	r3, [r7, #16]
 800464a:	1ad3      	subs	r3, r2, r3
 800464c:	2b02      	cmp	r3, #2
 800464e:	d907      	bls.n	8004660 <HAL_RCC_OscConfig+0x24c>
        {
          return HAL_TIMEOUT;
 8004650:	2303      	movs	r3, #3
 8004652:	e150      	b.n	80048f6 <HAL_RCC_OscConfig+0x4e2>
 8004654:	40023800 	.word	0x40023800
 8004658:	42470000 	.word	0x42470000
 800465c:	42470e80 	.word	0x42470e80
      while (__HAL_RCC_GET_FLAG(RCC_FLAG_LSIRDY) != RESET)
 8004660:	4b88      	ldr	r3, [pc, #544]	@ (8004884 <HAL_RCC_OscConfig+0x470>)
 8004662:	6f5b      	ldr	r3, [r3, #116]	@ 0x74
 8004664:	f003 0302 	and.w	r3, r3, #2
 8004668:	2b00      	cmp	r3, #0
 800466a:	d1ea      	bne.n	8004642 <HAL_RCC_OscConfig+0x22e>
        }
      }
    }
  }
  /*------------------------------ LSE Configuration -------------------------*/
  if (((RCC_OscInitStruct->OscillatorType) & RCC_OSCILLATORTYPE_LSE) == RCC_OSCILLATORTYPE_LSE)
 800466c:	687b      	ldr	r3, [r7, #4]
 800466e:	681b      	ldr	r3, [r3, #0]
 8004670:	f003 0304 	and.w	r3, r3, #4
 8004674:	2b00      	cmp	r3, #0
 8004676:	f000 8097 	beq.w	80047a8 <HAL_RCC_OscConfig+0x394>
  {
    FlagStatus       pwrclkchanged = RESET;
 800467a:	2300      	movs	r3, #0
 800467c:	75fb      	strb	r3, [r7, #23]
    /* Check the parameters */
    assert_param(IS_RCC_LSE(RCC_OscInitStruct->LSEState));

    /* Update LSE configuration in Backup Domain control register    */
    /* Requires to enable write access to Backup Domain of necessary */
    if (__HAL_RCC_PWR_IS_CLK_DISABLED())
 800467e:	4b81      	ldr	r3, [pc, #516]	@ (8004884 <HAL_RCC_OscConfig+0x470>)
 8004680:	6c1b      	ldr	r3, [r3, #64]	@ 0x40
 8004682:	f003 5380 	and.w	r3, r3, #268435456	@ 0x10000000
 8004686:	2b00      	cmp	r3, #0
 8004688:	d10f      	bne.n	80046aa <HAL_RCC_OscConfig+0x296>
    {
      __HAL_RCC_PWR_CLK_ENABLE();
 800468a:	2300      	movs	r3, #0
 800468c:	60bb      	str	r3, [r7, #8]
 800468e:	4b7d      	ldr	r3, [pc, #500]	@ (8004884 <HAL_RCC_OscConfig+0x470>)
 8004690:	6c1b      	ldr	r3, [r3, #64]	@ 0x40
 8004692:	4a7c      	ldr	r2, [pc, #496]	@ (8004884 <HAL_RCC_OscConfig+0x470>)
 8004694:	f043 5380 	orr.w	r3, r3, #268435456	@ 0x10000000
 8004698:	6413      	str	r3, [r2, #64]	@ 0x40
 800469a:	4b7a      	ldr	r3, [pc, #488]	@ (8004884 <HAL_RCC_OscConfig+0x470>)
 800469c:	6c1b      	ldr	r3, [r3, #64]	@ 0x40
 800469e:	f003 5380 	and.w	r3, r3, #268435456	@ 0x10000000
 80046a2:	60bb      	str	r3, [r7, #8]
 80046a4:	68bb      	ldr	r3, [r7, #8]
      pwrclkchanged = SET;
 80046a6:	2301      	movs	r3, #1
 80046a8:	75fb      	strb	r3, [r7, #23]
    }

    if (HAL_IS_BIT_CLR(PWR->CR, PWR_CR_DBP))
 80046aa:	4b77      	ldr	r3, [pc, #476]	@ (8004888 <HAL_RCC_OscConfig+0x474>)
 80046ac:	681b      	ldr	r3, [r3, #0]
 80046ae:	f403 7380 	and.w	r3, r3, #256	@ 0x100
 80046b2:	2b00      	cmp	r3, #0
 80046b4:	d118      	bne.n	80046e8 <HAL_RCC_OscConfig+0x2d4>
    {
      /* Enable write access to Backup domain */
      SET_BIT(PWR->CR, PWR_CR_DBP);
 80046b6:	4b74      	ldr	r3, [pc, #464]	@ (8004888 <HAL_RCC_OscConfig+0x474>)
 80046b8:	681b      	ldr	r3, [r3, #0]
 80046ba:	4a73      	ldr	r2, [pc, #460]	@ (8004888 <HAL_RCC_OscConfig+0x474>)
 80046bc:	f443 7380 	orr.w	r3, r3, #256	@ 0x100
 80046c0:	6013      	str	r3, [r2, #0]

      /* Wait for Backup domain Write protection disable */
      tickstart = HAL_GetTick();
 80046c2:	f7fd ff39 	bl	8002538 <HAL_GetTick>
 80046c6:	6138      	str	r0, [r7, #16]

      while (HAL_IS_BIT_CLR(PWR->CR, PWR_CR_DBP))
 80046c8:	e008      	b.n	80046dc <HAL_RCC_OscConfig+0x2c8>
      {
        if ((HAL_GetTick() - tickstart) > RCC_DBP_TIMEOUT_VALUE)
 80046ca:	f7fd ff35 	bl	8002538 <HAL_GetTick>
 80046ce:	4602      	mov	r2, r0
 80046d0:	693b      	ldr	r3, [r7, #16]
 80046d2:	1ad3      	subs	r3, r2, r3
 80046d4:	2b02      	cmp	r3, #2
 80046d6:	d901      	bls.n	80046dc <HAL_RCC_OscConfig+0x2c8>
        {
          return HAL_TIMEOUT;
 80046d8:	2303      	movs	r3, #3
 80046da:	e10c      	b.n	80048f6 <HAL_RCC_OscConfig+0x4e2>
      while (HAL_IS_BIT_CLR(PWR->CR, PWR_CR_DBP))
 80046dc:	4b6a      	ldr	r3, [pc, #424]	@ (8004888 <HAL_RCC_OscConfig+0x474>)
 80046de:	681b      	ldr	r3, [r3, #0]
 80046e0:	f403 7380 	and.w	r3, r3, #256	@ 0x100
 80046e4:	2b00      	cmp	r3, #0
 80046e6:	d0f0      	beq.n	80046ca <HAL_RCC_OscConfig+0x2b6>
        }
      }
    }

    /* Set the new LSE configuration -----------------------------------------*/
    __HAL_RCC_LSE_CONFIG(RCC_OscInitStruct->LSEState);
 80046e8:	687b      	ldr	r3, [r7, #4]
 80046ea:	689b      	ldr	r3, [r3, #8]
 80046ec:	2b01      	cmp	r3, #1
 80046ee:	d106      	bne.n	80046fe <HAL_RCC_OscConfig+0x2ea>
 80046f0:	4b64      	ldr	r3, [pc, #400]	@ (8004884 <HAL_RCC_OscConfig+0x470>)
 80046f2:	6f1b      	ldr	r3, [r3, #112]	@ 0x70
 80046f4:	4a63      	ldr	r2, [pc, #396]	@ (8004884 <HAL_RCC_OscConfig+0x470>)
 80046f6:	f043 0301 	orr.w	r3, r3, #1
 80046fa:	6713      	str	r3, [r2, #112]	@ 0x70
 80046fc:	e01c      	b.n	8004738 <HAL_RCC_OscConfig+0x324>
 80046fe:	687b      	ldr	r3, [r7, #4]
 8004700:	689b      	ldr	r3, [r3, #8]
 8004702:	2b05      	cmp	r3, #5
 8004704:	d10c      	bne.n	8004720 <HAL_RCC_OscConfig+0x30c>
 8004706:	4b5f      	ldr	r3, [pc, #380]	@ (8004884 <HAL_RCC_OscConfig+0x470>)
 8004708:	6f1b      	ldr	r3, [r3, #112]	@ 0x70
 800470a:	4a5e      	ldr	r2, [pc, #376]	@ (8004884 <HAL_RCC_OscConfig+0x470>)
 800470c:	f043 0304 	orr.w	r3, r3, #4
 8004710:	6713      	str	r3, [r2, #112]	@ 0x70
 8004712:	4b5c      	ldr	r3, [pc, #368]	@ (8004884 <HAL_RCC_OscConfig+0x470>)
 8004714:	6f1b      	ldr	r3, [r3, #112]	@ 0x70
 8004716:	4a5b      	ldr	r2, [pc, #364]	@ (8004884 <HAL_RCC_OscConfig+0x470>)
 8004718:	f043 0301 	orr.w	r3, r3, #1
 800471c:	6713      	str	r3, [r2, #112]	@ 0x70
 800471e:	e00b      	b.n	8004738 <HAL_RCC_OscConfig+0x324>
 8004720:	4b58      	ldr	r3, [pc, #352]	@ (8004884 <HAL_RCC_OscConfig+0x470>)
 8004722:	6f1b      	ldr	r3, [r3, #112]	@ 0x70
 8004724:	4a57      	ldr	r2, [pc, #348]	@ (8004884 <HAL_RCC_OscConfig+0x470>)
 8004726:	f023 0301 	bic.w	r3, r3, #1
 800472a:	6713      	str	r3, [r2, #112]	@ 0x70
 800472c:	4b55      	ldr	r3, [pc, #340]	@ (8004884 <HAL_RCC_OscConfig+0x470>)
 800472e:	6f1b      	ldr	r3, [r3, #112]	@ 0x70
 8004730:	4a54      	ldr	r2, [pc, #336]	@ (8004884 <HAL_RCC_OscConfig+0x470>)
 8004732:	f023 0304 	bic.w	r3, r3, #4
 8004736:	6713      	str	r3, [r2, #112]	@ 0x70
    /* Check the LSE State */
    if ((RCC_OscInitStruct->LSEState) != RCC_LSE_OFF)
 8004738:	687b      	ldr	r3, [r7, #4]
 800473a:	689b      	ldr	r3, [r3, #8]
 800473c:	2b00      	cmp	r3, #0
 800473e:	d015      	beq.n	800476c <HAL_RCC_OscConfig+0x358>
    {
      /* Get Start Tick*/
      tickstart = HAL_GetTick();
 8004740:	f7fd fefa 	bl	8002538 <HAL_GetTick>
 8004744:	6138      	str	r0, [r7, #16]

      /* Wait till LSE is ready */
      while (__HAL_RCC_GET_FLAG(RCC_FLAG_LSERDY) == RESET)
 8004746:	e00a      	b.n	800475e <HAL_RCC_OscConfig+0x34a>
      {
        if ((HAL_GetTick() - tickstart) > RCC_LSE_TIMEOUT_VALUE)
 8004748:	f7fd fef6 	bl	8002538 <HAL_GetTick>
 800474c:	4602      	mov	r2, r0
 800474e:	693b      	ldr	r3, [r7, #16]
 8004750:	1ad3      	subs	r3, r2, r3
 8004752:	f241 3288 	movw	r2, #5000	@ 0x1388
 8004756:	4293      	cmp	r3, r2
 8004758:	d901      	bls.n	800475e <HAL_RCC_OscConfig+0x34a>
        {
          return HAL_TIMEOUT;
 800475a:	2303      	movs	r3, #3
 800475c:	e0cb      	b.n	80048f6 <HAL_RCC_OscConfig+0x4e2>
      while (__HAL_RCC_GET_FLAG(RCC_FLAG_LSERDY) == RESET)
 800475e:	4b49      	ldr	r3, [pc, #292]	@ (8004884 <HAL_RCC_OscConfig+0x470>)
 8004760:	6f1b      	ldr	r3, [r3, #112]	@ 0x70
 8004762:	f003 0302 	and.w	r3, r3, #2
 8004766:	2b00      	cmp	r3, #0
 8004768:	d0ee      	beq.n	8004748 <HAL_RCC_OscConfig+0x334>
 800476a:	e014      	b.n	8004796 <HAL_RCC_OscConfig+0x382>
      }
    }
    else
    {
      /* Get Start Tick */
      tickstart = HAL_GetTick();
 800476c:	f7fd fee4 	bl	8002538 <HAL_GetTick>
 8004770:	6138      	str	r0, [r7, #16]

      /* Wait till LSE is ready */
      while (__HAL_RCC_GET_FLAG(RCC_FLAG_LSERDY) != RESET)
 8004772:	e00a      	b.n	800478a <HAL_RCC_OscConfig+0x376>
      {
        if ((HAL_GetTick() - tickstart) > RCC_LSE_TIMEOUT_VALUE)
 8004774:	f7fd fee0 	bl	8002538 <HAL_GetTick>
 8004778:	4602      	mov	r2, r0
 800477a:	693b      	ldr	r3, [r7, #16]
 800477c:	1ad3      	subs	r3, r2, r3
 800477e:	f241 3288 	movw	r2, #5000	@ 0x1388
 8004782:	4293      	cmp	r3, r2
 8004784:	d901      	bls.n	800478a <HAL_RCC_OscConfig+0x376>
        {
          return HAL_TIMEOUT;
 8004786:	2303      	movs	r3, #3
 8004788:	e0b5      	b.n	80048f6 <HAL_RCC_OscConfig+0x4e2>
      while (__HAL_RCC_GET_FLAG(RCC_FLAG_LSERDY) != RESET)
 800478a:	4b3e      	ldr	r3, [pc, #248]	@ (8004884 <HAL_RCC_OscConfig+0x470>)
 800478c:	6f1b      	ldr	r3, [r3, #112]	@ 0x70
 800478e:	f003 0302 	and.w	r3, r3, #2
 8004792:	2b00      	cmp	r3, #0
 8004794:	d1ee      	bne.n	8004774 <HAL_RCC_OscConfig+0x360>
        }
      }
    }

    /* Restore clock configuration if changed */
    if (pwrclkchanged == SET)
 8004796:	7dfb      	ldrb	r3, [r7, #23]
 8004798:	2b01      	cmp	r3, #1
 800479a:	d105      	bne.n	80047a8 <HAL_RCC_OscConfig+0x394>
    {
      __HAL_RCC_PWR_CLK_DISABLE();
 800479c:	4b39      	ldr	r3, [pc, #228]	@ (8004884 <HAL_RCC_OscConfig+0x470>)
 800479e:	6c1b      	ldr	r3, [r3, #64]	@ 0x40
 80047a0:	4a38      	ldr	r2, [pc, #224]	@ (8004884 <HAL_RCC_OscConfig+0x470>)
 80047a2:	f023 5380 	bic.w	r3, r3, #268435456	@ 0x10000000
 80047a6:	6413      	str	r3, [r2, #64]	@ 0x40
    }
  }
  /*-------------------------------- PLL Configuration -----------------------*/
  /* Check the parameters */
  assert_param(IS_RCC_PLL(RCC_OscInitStruct->PLL.PLLState));
  if ((RCC_OscInitStruct->PLL.PLLState) != RCC_PLL_NONE)
 80047a8:	687b      	ldr	r3, [r7, #4]
 80047aa:	699b      	ldr	r3, [r3, #24]
 80047ac:	2b00      	cmp	r3, #0
 80047ae:	f000 80a1 	beq.w	80048f4 <HAL_RCC_OscConfig+0x4e0>
  {
    /* Check if the PLL is used as system clock or not */
    if (__HAL_RCC_GET_SYSCLK_SOURCE() != RCC_CFGR_SWS_PLL)
 80047b2:	4b34      	ldr	r3, [pc, #208]	@ (8004884 <HAL_RCC_OscConfig+0x470>)
 80047b4:	689b      	ldr	r3, [r3, #8]
 80047b6:	f003 030c 	and.w	r3, r3, #12
 80047ba:	2b08      	cmp	r3, #8
 80047bc:	d05c      	beq.n	8004878 <HAL_RCC_OscConfig+0x464>
    {
      if ((RCC_OscInitStruct->PLL.PLLState) == RCC_PLL_ON)
 80047be:	687b      	ldr	r3, [r7, #4]
 80047c0:	699b      	ldr	r3, [r3, #24]
 80047c2:	2b02      	cmp	r3, #2
 80047c4:	d141      	bne.n	800484a <HAL_RCC_OscConfig+0x436>
        assert_param(IS_RCC_PLLN_VALUE(RCC_OscInitStruct->PLL.PLLN));
        assert_param(IS_RCC_PLLP_VALUE(RCC_OscInitStruct->PLL.PLLP));
        assert_param(IS_RCC_PLLQ_VALUE(RCC_OscInitStruct->PLL.PLLQ));

        /* Disable the main PLL. */
        __HAL_RCC_PLL_DISABLE();
 80047c6:	4b31      	ldr	r3, [pc, #196]	@ (800488c <HAL_RCC_OscConfig+0x478>)
 80047c8:	2200      	movs	r2, #0
 80047ca:	601a      	str	r2, [r3, #0]

        /* Get Start Tick */
        tickstart = HAL_GetTick();
 80047cc:	f7fd feb4 	bl	8002538 <HAL_GetTick>
 80047d0:	6138      	str	r0, [r7, #16]

        /* Wait till PLL is disabled */
        while (__HAL_RCC_GET_FLAG(RCC_FLAG_PLLRDY) != RESET)
 80047d2:	e008      	b.n	80047e6 <HAL_RCC_OscConfig+0x3d2>
        {
          if ((HAL_GetTick() - tickstart) > PLL_TIMEOUT_VALUE)
 80047d4:	f7fd feb0 	bl	8002538 <HAL_GetTick>
 80047d8:	4602      	mov	r2, r0
 80047da:	693b      	ldr	r3, [r7, #16]
 80047dc:	1ad3      	subs	r3, r2, r3
 80047de:	2b02      	cmp	r3, #2
 80047e0:	d901      	bls.n	80047e6 <HAL_RCC_OscConfig+0x3d2>
          {
            return HAL_TIMEOUT;
 80047e2:	2303      	movs	r3, #3
 80047e4:	e087      	b.n	80048f6 <HAL_RCC_OscConfig+0x4e2>
        while (__HAL_RCC_GET_FLAG(RCC_FLAG_PLLRDY) != RESET)
 80047e6:	4b27      	ldr	r3, [pc, #156]	@ (8004884 <HAL_RCC_OscConfig+0x470>)
 80047e8:	681b      	ldr	r3, [r3, #0]
 80047ea:	f003 7300 	and.w	r3, r3, #33554432	@ 0x2000000
 80047ee:	2b00      	cmp	r3, #0
 80047f0:	d1f0      	bne.n	80047d4 <HAL_RCC_OscConfig+0x3c0>
          }
        }

        /* Configure the main PLL clock source, multiplication and division factors. */
        WRITE_REG(RCC->PLLCFGR, (RCC_OscInitStruct->PLL.PLLSource                                            | \
 80047f2:	687b      	ldr	r3, [r7, #4]
 80047f4:	69da      	ldr	r2, [r3, #28]
 80047f6:	687b      	ldr	r3, [r7, #4]
 80047f8:	6a1b      	ldr	r3, [r3, #32]
 80047fa:	431a      	orrs	r2, r3
 80047fc:	687b      	ldr	r3, [r7, #4]
 80047fe:	6a5b      	ldr	r3, [r3, #36]	@ 0x24
 8004800:	019b      	lsls	r3, r3, #6
 8004802:	431a      	orrs	r2, r3
 8004804:	687b      	ldr	r3, [r7, #4]
 8004806:	6a9b      	ldr	r3, [r3, #40]	@ 0x28
 8004808:	085b      	lsrs	r3, r3, #1
 800480a:	3b01      	subs	r3, #1
 800480c:	041b      	lsls	r3, r3, #16
 800480e:	431a      	orrs	r2, r3
 8004810:	687b      	ldr	r3, [r7, #4]
 8004812:	6adb      	ldr	r3, [r3, #44]	@ 0x2c
 8004814:	061b      	lsls	r3, r3, #24
 8004816:	491b      	ldr	r1, [pc, #108]	@ (8004884 <HAL_RCC_OscConfig+0x470>)
 8004818:	4313      	orrs	r3, r2
 800481a:	604b      	str	r3, [r1, #4]
                                 RCC_OscInitStruct->PLL.PLLM                                                 | \
                                 (RCC_OscInitStruct->PLL.PLLN << RCC_PLLCFGR_PLLN_Pos)             | \
                                 (((RCC_OscInitStruct->PLL.PLLP >> 1U) - 1U) << RCC_PLLCFGR_PLLP_Pos) | \
                                 (RCC_OscInitStruct->PLL.PLLQ << RCC_PLLCFGR_PLLQ_Pos)));
        /* Enable the main PLL. */
        __HAL_RCC_PLL_ENABLE();
 800481c:	4b1b      	ldr	r3, [pc, #108]	@ (800488c <HAL_RCC_OscConfig+0x478>)
 800481e:	2201      	movs	r2, #1
 8004820:	601a      	str	r2, [r3, #0]

        /* Get Start Tick */
        tickstart = HAL_GetTick();
 8004822:	f7fd fe89 	bl	8002538 <HAL_GetTick>
 8004826:	6138      	str	r0, [r7, #16]

        /* Wait till PLL is ready */
        while (__HAL_RCC_GET_FLAG(RCC_FLAG_PLLRDY) == RESET)
 8004828:	e008      	b.n	800483c <HAL_RCC_OscConfig+0x428>
        {
          if ((HAL_GetTick() - tickstart) > PLL_TIMEOUT_VALUE)
 800482a:	f7fd fe85 	bl	8002538 <HAL_GetTick>
 800482e:	4602      	mov	r2, r0
 8004830:	693b      	ldr	r3, [r7, #16]
 8004832:	1ad3      	subs	r3, r2, r3
 8004834:	2b02      	cmp	r3, #2
 8004836:	d901      	bls.n	800483c <HAL_RCC_OscConfig+0x428>
          {
            return HAL_TIMEOUT;
 8004838:	2303      	movs	r3, #3
 800483a:	e05c      	b.n	80048f6 <HAL_RCC_OscConfig+0x4e2>
        while (__HAL_RCC_GET_FLAG(RCC_FLAG_PLLRDY) == RESET)
 800483c:	4b11      	ldr	r3, [pc, #68]	@ (8004884 <HAL_RCC_OscConfig+0x470>)
 800483e:	681b      	ldr	r3, [r3, #0]
 8004840:	f003 7300 	and.w	r3, r3, #33554432	@ 0x2000000
 8004844:	2b00      	cmp	r3, #0
 8004846:	d0f0      	beq.n	800482a <HAL_RCC_OscConfig+0x416>
 8004848:	e054      	b.n	80048f4 <HAL_RCC_OscConfig+0x4e0>
        }
      }
      else
      {
        /* Disable the main PLL. */
        __HAL_RCC_PLL_DISABLE();
 800484a:	4b10      	ldr	r3, [pc, #64]	@ (800488c <HAL_RCC_OscConfig+0x478>)
 800484c:	2200      	movs	r2, #0
 800484e:	601a      	str	r2, [r3, #0]

        /* Get Start Tick */
        tickstart = HAL_GetTick();
 8004850:	f7fd fe72 	bl	8002538 <HAL_GetTick>
 8004854:	6138      	str	r0, [r7, #16]

        /* Wait till PLL is disabled */
        while (__HAL_RCC_GET_FLAG(RCC_FLAG_PLLRDY) != RESET)
 8004856:	e008      	b.n	800486a <HAL_RCC_OscConfig+0x456>
        {
          if ((HAL_GetTick() - tickstart) > PLL_TIMEOUT_VALUE)
 8004858:	f7fd fe6e 	bl	8002538 <HAL_GetTick>
 800485c:	4602      	mov	r2, r0
 800485e:	693b      	ldr	r3, [r7, #16]
 8004860:	1ad3      	subs	r3, r2, r3
 8004862:	2b02      	cmp	r3, #2
 8004864:	d901      	bls.n	800486a <HAL_RCC_OscConfig+0x456>
          {
            return HAL_TIMEOUT;
 8004866:	2303      	movs	r3, #3
 8004868:	e045      	b.n	80048f6 <HAL_RCC_OscConfig+0x4e2>
        while (__HAL_RCC_GET_FLAG(RCC_FLAG_PLLRDY) != RESET)
 800486a:	4b06      	ldr	r3, [pc, #24]	@ (8004884 <HAL_RCC_OscConfig+0x470>)
 800486c:	681b      	ldr	r3, [r3, #0]
 800486e:	f003 7300 	and.w	r3, r3, #33554432	@ 0x2000000
 8004872:	2b00      	cmp	r3, #0
 8004874:	d1f0      	bne.n	8004858 <HAL_RCC_OscConfig+0x444>
 8004876:	e03d      	b.n	80048f4 <HAL_RCC_OscConfig+0x4e0>
      }
    }
    else
    {
      /* Check if there is a request to disable the PLL used as System clock source */
      if ((RCC_OscInitStruct->PLL.PLLState) == RCC_PLL_OFF)
 8004878:	687b      	ldr	r3, [r7, #4]
 800487a:	699b      	ldr	r3, [r3, #24]
 800487c:	2b01      	cmp	r3, #1
 800487e:	d107      	bne.n	8004890 <HAL_RCC_OscConfig+0x47c>
      {
        return HAL_ERROR;
 8004880:	2301      	movs	r3, #1
 8004882:	e038      	b.n	80048f6 <HAL_RCC_OscConfig+0x4e2>
 8004884:	40023800 	.word	0x40023800
 8004888:	40007000 	.word	0x40007000
 800488c:	42470060 	.word	0x42470060
      }
      else
      {
        /* Do not return HAL_ERROR if request repeats the current configuration */
        pll_config = RCC->PLLCFGR;
 8004890:	4b1b      	ldr	r3, [pc, #108]	@ (8004900 <HAL_RCC_OscConfig+0x4ec>)
 8004892:	685b      	ldr	r3, [r3, #4]
 8004894:	60fb      	str	r3, [r7, #12]
            (READ_BIT(pll_config, RCC_PLLCFGR_PLLN) != (RCC_OscInitStruct->PLL.PLLN) << RCC_PLLCFGR_PLLN_Pos) ||
            (READ_BIT(pll_config, RCC_PLLCFGR_PLLP) != (((RCC_OscInitStruct->PLL.PLLP >> 1U) - 1U)) << RCC_PLLCFGR_PLLP_Pos) ||
            (READ_BIT(pll_config, RCC_PLLCFGR_PLLQ) != (RCC_OscInitStruct->PLL.PLLQ << RCC_PLLCFGR_PLLQ_Pos)) ||
            (READ_BIT(pll_config, RCC_PLLCFGR_PLLR) != (RCC_OscInitStruct->PLL.PLLR << RCC_PLLCFGR_PLLR_Pos)))
#else
        if (((RCC_OscInitStruct->PLL.PLLState) == RCC_PLL_OFF) ||
 8004896:	687b      	ldr	r3, [r7, #4]
 8004898:	699b      	ldr	r3, [r3, #24]
 800489a:	2b01      	cmp	r3, #1
 800489c:	d028      	beq.n	80048f0 <HAL_RCC_OscConfig+0x4dc>
            (READ_BIT(pll_config, RCC_PLLCFGR_PLLSRC) != RCC_OscInitStruct->PLL.PLLSource) ||
 800489e:	68fb      	ldr	r3, [r7, #12]
 80048a0:	f403 0280 	and.w	r2, r3, #4194304	@ 0x400000
 80048a4:	687b      	ldr	r3, [r7, #4]
 80048a6:	69db      	ldr	r3, [r3, #28]
        if (((RCC_OscInitStruct->PLL.PLLState) == RCC_PLL_OFF) ||
 80048a8:	429a      	cmp	r2, r3
 80048aa:	d121      	bne.n	80048f0 <HAL_RCC_OscConfig+0x4dc>
            (READ_BIT(pll_config, RCC_PLLCFGR_PLLM) != (RCC_OscInitStruct->PLL.PLLM) << RCC_PLLCFGR_PLLM_Pos) ||
 80048ac:	68fb      	ldr	r3, [r7, #12]
 80048ae:	f003 023f 	and.w	r2, r3, #63	@ 0x3f
 80048b2:	687b      	ldr	r3, [r7, #4]
 80048b4:	6a1b      	ldr	r3, [r3, #32]
            (READ_BIT(pll_config, RCC_PLLCFGR_PLLSRC) != RCC_OscInitStruct->PLL.PLLSource) ||
 80048b6:	429a      	cmp	r2, r3
 80048b8:	d11a      	bne.n	80048f0 <HAL_RCC_OscConfig+0x4dc>
            (READ_BIT(pll_config, RCC_PLLCFGR_PLLN) != (RCC_OscInitStruct->PLL.PLLN) << RCC_PLLCFGR_PLLN_Pos) ||
 80048ba:	68fa      	ldr	r2, [r7, #12]
 80048bc:	f647 73c0 	movw	r3, #32704	@ 0x7fc0
 80048c0:	4013      	ands	r3, r2
 80048c2:	687a      	ldr	r2, [r7, #4]
 80048c4:	6a52      	ldr	r2, [r2, #36]	@ 0x24
 80048c6:	0192      	lsls	r2, r2, #6
            (READ_BIT(pll_config, RCC_PLLCFGR_PLLM) != (RCC_OscInitStruct->PLL.PLLM) << RCC_PLLCFGR_PLLM_Pos) ||
 80048c8:	4293      	cmp	r3, r2
 80048ca:	d111      	bne.n	80048f0 <HAL_RCC_OscConfig+0x4dc>
            (READ_BIT(pll_config, RCC_PLLCFGR_PLLP) != (((RCC_OscInitStruct->PLL.PLLP >> 1U) - 1U)) << RCC_PLLCFGR_PLLP_Pos) ||
 80048cc:	68fb      	ldr	r3, [r7, #12]
 80048ce:	f403 3240 	and.w	r2, r3, #196608	@ 0x30000
 80048d2:	687b      	ldr	r3, [r7, #4]
 80048d4:	6a9b      	ldr	r3, [r3, #40]	@ 0x28
 80048d6:	085b      	lsrs	r3, r3, #1
 80048d8:	3b01      	subs	r3, #1
 80048da:	041b      	lsls	r3, r3, #16
            (READ_BIT(pll_config, RCC_PLLCFGR_PLLN) != (RCC_OscInitStruct->PLL.PLLN) << RCC_PLLCFGR_PLLN_Pos) ||
 80048dc:	429a      	cmp	r2, r3
 80048de:	d107      	bne.n	80048f0 <HAL_RCC_OscConfig+0x4dc>
            (READ_BIT(pll_config, RCC_PLLCFGR_PLLQ) != (RCC_OscInitStruct->PLL.PLLQ << RCC_PLLCFGR_PLLQ_Pos)))
 80048e0:	68fb      	ldr	r3, [r7, #12]
 80048e2:	f003 6270 	and.w	r2, r3, #251658240	@ 0xf000000
 80048e6:	687b      	ldr	r3, [r7, #4]
 80048e8:	6adb      	ldr	r3, [r3, #44]	@ 0x2c
 80048ea:	061b      	lsls	r3, r3, #24
            (READ_BIT(pll_config, RCC_PLLCFGR_PLLP) != (((RCC_OscInitStruct->PLL.PLLP >> 1U) - 1U)) << RCC_PLLCFGR_PLLP_Pos) ||
 80048ec:	429a      	cmp	r2, r3
 80048ee:	d001      	beq.n	80048f4 <HAL_RCC_OscConfig+0x4e0>
#endif /* RCC_PLLCFGR_PLLR */
        {
          return HAL_ERROR;
 80048f0:	2301      	movs	r3, #1
 80048f2:	e000      	b.n	80048f6 <HAL_RCC_OscConfig+0x4e2>
        }
      }
    }
  }
  return HAL_OK;
 80048f4:	2300      	movs	r3, #0
}
 80048f6:	4618      	mov	r0, r3
 80048f8:	3718      	adds	r7, #24
 80048fa:	46bd      	mov	sp, r7
 80048fc:	bd80      	pop	{r7, pc}
 80048fe:	bf00      	nop
 8004900:	40023800 	.word	0x40023800

08004904 <HAL_RCC_ClockConfig>:
  *         HPRE[3:0] bits to ensure that HCLK not exceed the maximum allowed frequency
  *         (for more details refer to section above "Initialization/de-initialization functions")
  * @retval None
  */
HAL_StatusTypeDef HAL_RCC_ClockConfig(RCC_ClkInitTypeDef  *RCC_ClkInitStruct, uint32_t FLatency)
{
 8004904:	b580      	push	{r7, lr}
 8004906:	b084      	sub	sp, #16
 8004908:	af00      	add	r7, sp, #0
 800490a:	6078      	str	r0, [r7, #4]
 800490c:	6039      	str	r1, [r7, #0]
  uint32_t tickstart;

  /* Check Null pointer */
  if (RCC_ClkInitStruct == NULL)
 800490e:	687b      	ldr	r3, [r7, #4]
 8004910:	2b00      	cmp	r3, #0
 8004912:	d101      	bne.n	8004918 <HAL_RCC_ClockConfig+0x14>
  {
    return HAL_ERROR;
 8004914:	2301      	movs	r3, #1
 8004916:	e0cc      	b.n	8004ab2 <HAL_RCC_ClockConfig+0x1ae>
  /* To correctly read data from FLASH memory, the number of wait states (LATENCY)
    must be correctly programmed according to the frequency of the CPU clock
    (HCLK) and the supply voltage of the device. */

  /* Increasing the number of wait states because of higher CPU frequency */
  if (FLatency > __HAL_FLASH_GET_LATENCY())
 8004918:	4b68      	ldr	r3, [pc, #416]	@ (8004abc <HAL_RCC_ClockConfig+0x1b8>)
 800491a:	681b      	ldr	r3, [r3, #0]
 800491c:	f003 0307 	and.w	r3, r3, #7
 8004920:	683a      	ldr	r2, [r7, #0]
 8004922:	429a      	cmp	r2, r3
 8004924:	d90c      	bls.n	8004940 <HAL_RCC_ClockConfig+0x3c>
  {
    /* Program the new number of wait states to the LATENCY bits in the FLASH_ACR register */
    __HAL_FLASH_SET_LATENCY(FLatency);
 8004926:	4b65      	ldr	r3, [pc, #404]	@ (8004abc <HAL_RCC_ClockConfig+0x1b8>)
 8004928:	683a      	ldr	r2, [r7, #0]
 800492a:	b2d2      	uxtb	r2, r2
 800492c:	701a      	strb	r2, [r3, #0]

    /* Check that the new number of wait states is taken into account to access the Flash
    memory by reading the FLASH_ACR register */
    if (__HAL_FLASH_GET_LATENCY() != FLatency)
 800492e:	4b63      	ldr	r3, [pc, #396]	@ (8004abc <HAL_RCC_ClockConfig+0x1b8>)
 8004930:	681b      	ldr	r3, [r3, #0]
 8004932:	f003 0307 	and.w	r3, r3, #7
 8004936:	683a      	ldr	r2, [r7, #0]
 8004938:	429a      	cmp	r2, r3
 800493a:	d001      	beq.n	8004940 <HAL_RCC_ClockConfig+0x3c>
    {
      return HAL_ERROR;
 800493c:	2301      	movs	r3, #1
 800493e:	e0b8      	b.n	8004ab2 <HAL_RCC_ClockConfig+0x1ae>
    }
  }

  /*-------------------------- HCLK Configuration --------------------------*/
  if (((RCC_ClkInitStruct->ClockType) & RCC_CLOCKTYPE_HCLK) == RCC_CLOCKTYPE_HCLK)
 8004940:	687b      	ldr	r3, [r7, #4]
 8004942:	681b      	ldr	r3, [r3, #0]
 8004944:	f003 0302 	and.w	r3, r3, #2
 8004948:	2b00      	cmp	r3, #0
 800494a:	d020      	beq.n	800498e <HAL_RCC_ClockConfig+0x8a>
  {
    /* Set the highest APBx dividers in order to ensure that we do not go through
       a non-spec phase whatever we decrease or increase HCLK. */
    if (((RCC_ClkInitStruct->ClockType) & RCC_CLOCKTYPE_PCLK1) == RCC_CLOCKTYPE_PCLK1)
 800494c:	687b      	ldr	r3, [r7, #4]
 800494e:	681b      	ldr	r3, [r3, #0]
 8004950:	f003 0304 	and.w	r3, r3, #4
 8004954:	2b00      	cmp	r3, #0
 8004956:	d005      	beq.n	8004964 <HAL_RCC_ClockConfig+0x60>
    {
      MODIFY_REG(RCC->CFGR, RCC_CFGR_PPRE1, RCC_HCLK_DIV16);
 8004958:	4b59      	ldr	r3, [pc, #356]	@ (8004ac0 <HAL_RCC_ClockConfig+0x1bc>)
 800495a:	689b      	ldr	r3, [r3, #8]
 800495c:	4a58      	ldr	r2, [pc, #352]	@ (8004ac0 <HAL_RCC_ClockConfig+0x1bc>)
 800495e:	f443 53e0 	orr.w	r3, r3, #7168	@ 0x1c00
 8004962:	6093      	str	r3, [r2, #8]
    }

    if (((RCC_ClkInitStruct->ClockType) & RCC_CLOCKTYPE_PCLK2) == RCC_CLOCKTYPE_PCLK2)
 8004964:	687b      	ldr	r3, [r7, #4]
 8004966:	681b      	ldr	r3, [r3, #0]
 8004968:	f003 0308 	and.w	r3, r3, #8
 800496c:	2b00      	cmp	r3, #0
 800496e:	d005      	beq.n	800497c <HAL_RCC_ClockConfig+0x78>
    {
      MODIFY_REG(RCC->CFGR, RCC_CFGR_PPRE2, (RCC_HCLK_DIV16 << 3));
 8004970:	4b53      	ldr	r3, [pc, #332]	@ (8004ac0 <HAL_RCC_ClockConfig+0x1bc>)
 8004972:	689b      	ldr	r3, [r3, #8]
 8004974:	4a52      	ldr	r2, [pc, #328]	@ (8004ac0 <HAL_RCC_ClockConfig+0x1bc>)
 8004976:	f443 4360 	orr.w	r3, r3, #57344	@ 0xe000
 800497a:	6093      	str	r3, [r2, #8]
    }

    assert_param(IS_RCC_HCLK(RCC_ClkInitStruct->AHBCLKDivider));
    MODIFY_REG(RCC->CFGR, RCC_CFGR_HPRE, RCC_ClkInitStruct->AHBCLKDivider);
 800497c:	4b50      	ldr	r3, [pc, #320]	@ (8004ac0 <HAL_RCC_ClockConfig+0x1bc>)
 800497e:	689b      	ldr	r3, [r3, #8]
 8004980:	f023 02f0 	bic.w	r2, r3, #240	@ 0xf0
 8004984:	687b      	ldr	r3, [r7, #4]
 8004986:	689b      	ldr	r3, [r3, #8]
 8004988:	494d      	ldr	r1, [pc, #308]	@ (8004ac0 <HAL_RCC_ClockConfig+0x1bc>)
 800498a:	4313      	orrs	r3, r2
 800498c:	608b      	str	r3, [r1, #8]
  }

  /*------------------------- SYSCLK Configuration ---------------------------*/
  if (((RCC_ClkInitStruct->ClockType) & RCC_CLOCKTYPE_SYSCLK) == RCC_CLOCKTYPE_SYSCLK)
 800498e:	687b      	ldr	r3, [r7, #4]
 8004990:	681b      	ldr	r3, [r3, #0]
 8004992:	f003 0301 	and.w	r3, r3, #1
 8004996:	2b00      	cmp	r3, #0
 8004998:	d044      	beq.n	8004a24 <HAL_RCC_ClockConfig+0x120>
  {
    assert_param(IS_RCC_SYSCLKSOURCE(RCC_ClkInitStruct->SYSCLKSource));

    /* HSE is selected as System Clock Source */
    if (RCC_ClkInitStruct->SYSCLKSource == RCC_SYSCLKSOURCE_HSE)
 800499a:	687b      	ldr	r3, [r7, #4]
 800499c:	685b      	ldr	r3, [r3, #4]
 800499e:	2b01      	cmp	r3, #1
 80049a0:	d107      	bne.n	80049b2 <HAL_RCC_ClockConfig+0xae>
    {
      /* Check the HSE ready flag */
      if (__HAL_RCC_GET_FLAG(RCC_FLAG_HSERDY) == RESET)
 80049a2:	4b47      	ldr	r3, [pc, #284]	@ (8004ac0 <HAL_RCC_ClockConfig+0x1bc>)
 80049a4:	681b      	ldr	r3, [r3, #0]
 80049a6:	f403 3300 	and.w	r3, r3, #131072	@ 0x20000
 80049aa:	2b00      	cmp	r3, #0
 80049ac:	d119      	bne.n	80049e2 <HAL_RCC_ClockConfig+0xde>
      {
        return HAL_ERROR;
 80049ae:	2301      	movs	r3, #1
 80049b0:	e07f      	b.n	8004ab2 <HAL_RCC_ClockConfig+0x1ae>
      }
    }
    /* PLL is selected as System Clock Source */
    else if ((RCC_ClkInitStruct->SYSCLKSource == RCC_SYSCLKSOURCE_PLLCLK)   ||
 80049b2:	687b      	ldr	r3, [r7, #4]
 80049b4:	685b      	ldr	r3, [r3, #4]
 80049b6:	2b02      	cmp	r3, #2
 80049b8:	d003      	beq.n	80049c2 <HAL_RCC_ClockConfig+0xbe>
             (RCC_ClkInitStruct->SYSCLKSource == RCC_SYSCLKSOURCE_PLLRCLK))
 80049ba:	687b      	ldr	r3, [r7, #4]
 80049bc:	685b      	ldr	r3, [r3, #4]
    else if ((RCC_ClkInitStruct->SYSCLKSource == RCC_SYSCLKSOURCE_PLLCLK)   ||
 80049be:	2b03      	cmp	r3, #3
 80049c0:	d107      	bne.n	80049d2 <HAL_RCC_ClockConfig+0xce>
    {
      /* Check the PLL ready flag */
      if (__HAL_RCC_GET_FLAG(RCC_FLAG_PLLRDY) == RESET)
 80049c2:	4b3f      	ldr	r3, [pc, #252]	@ (8004ac0 <HAL_RCC_ClockConfig+0x1bc>)
 80049c4:	681b      	ldr	r3, [r3, #0]
 80049c6:	f003 7300 	and.w	r3, r3, #33554432	@ 0x2000000
 80049ca:	2b00      	cmp	r3, #0
 80049cc:	d109      	bne.n	80049e2 <HAL_RCC_ClockConfig+0xde>
      {
        return HAL_ERROR;
 80049ce:	2301      	movs	r3, #1
 80049d0:	e06f      	b.n	8004ab2 <HAL_RCC_ClockConfig+0x1ae>
    }
    /* HSI is selected as System Clock Source */
    else
    {
      /* Check the HSI ready flag */
      if (__HAL_RCC_GET_FLAG(RCC_FLAG_HSIRDY) == RESET)
 80049d2:	4b3b      	ldr	r3, [pc, #236]	@ (8004ac0 <HAL_RCC_ClockConfig+0x1bc>)
 80049d4:	681b      	ldr	r3, [r3, #0]
 80049d6:	f003 0302 	and.w	r3, r3, #2
 80049da:	2b00      	cmp	r3, #0
 80049dc:	d101      	bne.n	80049e2 <HAL_RCC_ClockConfig+0xde>
      {
        return HAL_ERROR;
 80049de:	2301      	movs	r3, #1
 80049e0:	e067      	b.n	8004ab2 <HAL_RCC_ClockConfig+0x1ae>
      }
    }

    __HAL_RCC_SYSCLK_CONFIG(RCC_ClkInitStruct->SYSCLKSource);
 80049e2:	4b37      	ldr	r3, [pc, #220]	@ (8004ac0 <HAL_RCC_ClockConfig+0x1bc>)
 80049e4:	689b      	ldr	r3, [r3, #8]
 80049e6:	f023 0203 	bic.w	r2, r3, #3
 80049ea:	687b      	ldr	r3, [r7, #4]
 80049ec:	685b      	ldr	r3, [r3, #4]
 80049ee:	4934      	ldr	r1, [pc, #208]	@ (8004ac0 <HAL_RCC_ClockConfig+0x1bc>)
 80049f0:	4313      	orrs	r3, r2
 80049f2:	608b      	str	r3, [r1, #8]

    /* Get Start Tick */
    tickstart = HAL_GetTick();
 80049f4:	f7fd fda0 	bl	8002538 <HAL_GetTick>
 80049f8:	60f8      	str	r0, [r7, #12]

    while (__HAL_RCC_GET_SYSCLK_SOURCE() != (RCC_ClkInitStruct->SYSCLKSource << RCC_CFGR_SWS_Pos))
 80049fa:	e00a      	b.n	8004a12 <HAL_RCC_ClockConfig+0x10e>
    {
      if ((HAL_GetTick() - tickstart) > CLOCKSWITCH_TIMEOUT_VALUE)
 80049fc:	f7fd fd9c 	bl	8002538 <HAL_GetTick>
 8004a00:	4602      	mov	r2, r0
 8004a02:	68fb      	ldr	r3, [r7, #12]
 8004a04:	1ad3      	subs	r3, r2, r3
 8004a06:	f241 3288 	movw	r2, #5000	@ 0x1388
 8004a0a:	4293      	cmp	r3, r2
 8004a0c:	d901      	bls.n	8004a12 <HAL_RCC_ClockConfig+0x10e>
      {
        return HAL_TIMEOUT;
 8004a0e:	2303      	movs	r3, #3
 8004a10:	e04f      	b.n	8004ab2 <HAL_RCC_ClockConfig+0x1ae>
    while (__HAL_RCC_GET_SYSCLK_SOURCE() != (RCC_ClkInitStruct->SYSCLKSource << RCC_CFGR_SWS_Pos))
 8004a12:	4b2b      	ldr	r3, [pc, #172]	@ (8004ac0 <HAL_RCC_ClockConfig+0x1bc>)
 8004a14:	689b      	ldr	r3, [r3, #8]
 8004a16:	f003 020c 	and.w	r2, r3, #12
 8004a1a:	687b      	ldr	r3, [r7, #4]
 8004a1c:	685b      	ldr	r3, [r3, #4]
 8004a1e:	009b      	lsls	r3, r3, #2
 8004a20:	429a      	cmp	r2, r3
 8004a22:	d1eb      	bne.n	80049fc <HAL_RCC_ClockConfig+0xf8>
      }
    }
  }

  /* Decreasing the number of wait states because of lower CPU frequency */
  if (FLatency < __HAL_FLASH_GET_LATENCY())
 8004a24:	4b25      	ldr	r3, [pc, #148]	@ (8004abc <HAL_RCC_ClockConfig+0x1b8>)
 8004a26:	681b      	ldr	r3, [r3, #0]
 8004a28:	f003 0307 	and.w	r3, r3, #7
 8004a2c:	683a      	ldr	r2, [r7, #0]
 8004a2e:	429a      	cmp	r2, r3
 8004a30:	d20c      	bcs.n	8004a4c <HAL_RCC_ClockConfig+0x148>
  {
    /* Program the new number of wait states to the LATENCY bits in the FLASH_ACR register */
    __HAL_FLASH_SET_LATENCY(FLatency);
 8004a32:	4b22      	ldr	r3, [pc, #136]	@ (8004abc <HAL_RCC_ClockConfig+0x1b8>)
 8004a34:	683a      	ldr	r2, [r7, #0]
 8004a36:	b2d2      	uxtb	r2, r2
 8004a38:	701a      	strb	r2, [r3, #0]

    /* Check that the new number of wait states is taken into account to access the Flash
    memory by reading the FLASH_ACR register */
    if (__HAL_FLASH_GET_LATENCY() != FLatency)
 8004a3a:	4b20      	ldr	r3, [pc, #128]	@ (8004abc <HAL_RCC_ClockConfig+0x1b8>)
 8004a3c:	681b      	ldr	r3, [r3, #0]
 8004a3e:	f003 0307 	and.w	r3, r3, #7
 8004a42:	683a      	ldr	r2, [r7, #0]
 8004a44:	429a      	cmp	r2, r3
 8004a46:	d001      	beq.n	8004a4c <HAL_RCC_ClockConfig+0x148>
    {
      return HAL_ERROR;
 8004a48:	2301      	movs	r3, #1
 8004a4a:	e032      	b.n	8004ab2 <HAL_RCC_ClockConfig+0x1ae>
    }
  }

  /*-------------------------- PCLK1 Configuration ---------------------------*/
  if (((RCC_ClkInitStruct->ClockType) & RCC_CLOCKTYPE_PCLK1) == RCC_CLOCKTYPE_PCLK1)
 8004a4c:	687b      	ldr	r3, [r7, #4]
 8004a4e:	681b      	ldr	r3, [r3, #0]
 8004a50:	f003 0304 	and.w	r3, r3, #4
 8004a54:	2b00      	cmp	r3, #0
 8004a56:	d008      	beq.n	8004a6a <HAL_RCC_ClockConfig+0x166>
  {
    assert_param(IS_RCC_PCLK(RCC_ClkInitStruct->APB1CLKDivider));
    MODIFY_REG(RCC->CFGR, RCC_CFGR_PPRE1, RCC_ClkInitStruct->APB1CLKDivider);
 8004a58:	4b19      	ldr	r3, [pc, #100]	@ (8004ac0 <HAL_RCC_ClockConfig+0x1bc>)
 8004a5a:	689b      	ldr	r3, [r3, #8]
 8004a5c:	f423 52e0 	bic.w	r2, r3, #7168	@ 0x1c00
 8004a60:	687b      	ldr	r3, [r7, #4]
 8004a62:	68db      	ldr	r3, [r3, #12]
 8004a64:	4916      	ldr	r1, [pc, #88]	@ (8004ac0 <HAL_RCC_ClockConfig+0x1bc>)
 8004a66:	4313      	orrs	r3, r2
 8004a68:	608b      	str	r3, [r1, #8]
  }

  /*-------------------------- PCLK2 Configuration ---------------------------*/
  if (((RCC_ClkInitStruct->ClockType) & RCC_CLOCKTYPE_PCLK2) == RCC_CLOCKTYPE_PCLK2)
 8004a6a:	687b      	ldr	r3, [r7, #4]
 8004a6c:	681b      	ldr	r3, [r3, #0]
 8004a6e:	f003 0308 	and.w	r3, r3, #8
 8004a72:	2b00      	cmp	r3, #0
 8004a74:	d009      	beq.n	8004a8a <HAL_RCC_ClockConfig+0x186>
  {
    assert_param(IS_RCC_PCLK(RCC_ClkInitStruct->APB2CLKDivider));
    MODIFY_REG(RCC->CFGR, RCC_CFGR_PPRE2, ((RCC_ClkInitStruct->APB2CLKDivider) << 3U));
 8004a76:	4b12      	ldr	r3, [pc, #72]	@ (8004ac0 <HAL_RCC_ClockConfig+0x1bc>)
 8004a78:	689b      	ldr	r3, [r3, #8]
 8004a7a:	f423 4260 	bic.w	r2, r3, #57344	@ 0xe000
 8004a7e:	687b      	ldr	r3, [r7, #4]
 8004a80:	691b      	ldr	r3, [r3, #16]
 8004a82:	00db      	lsls	r3, r3, #3
 8004a84:	490e      	ldr	r1, [pc, #56]	@ (8004ac0 <HAL_RCC_ClockConfig+0x1bc>)
 8004a86:	4313      	orrs	r3, r2
 8004a88:	608b      	str	r3, [r1, #8]
  }

  /* Update the SystemCoreClock global variable */
  SystemCoreClock = HAL_RCC_GetSysClockFreq() >> AHBPrescTable[(RCC->CFGR & RCC_CFGR_HPRE) >> RCC_CFGR_HPRE_Pos];
 8004a8a:	f000 f821 	bl	8004ad0 <HAL_RCC_GetSysClockFreq>
 8004a8e:	4602      	mov	r2, r0
 8004a90:	4b0b      	ldr	r3, [pc, #44]	@ (8004ac0 <HAL_RCC_ClockConfig+0x1bc>)
 8004a92:	689b      	ldr	r3, [r3, #8]
 8004a94:	091b      	lsrs	r3, r3, #4
 8004a96:	f003 030f 	and.w	r3, r3, #15
 8004a9a:	490a      	ldr	r1, [pc, #40]	@ (8004ac4 <HAL_RCC_ClockConfig+0x1c0>)
 8004a9c:	5ccb      	ldrb	r3, [r1, r3]
 8004a9e:	fa22 f303 	lsr.w	r3, r2, r3
 8004aa2:	4a09      	ldr	r2, [pc, #36]	@ (8004ac8 <HAL_RCC_ClockConfig+0x1c4>)
 8004aa4:	6013      	str	r3, [r2, #0]

  /* Configure the source of time base considering new system clocks settings */
  HAL_InitTick(uwTickPrio);
 8004aa6:	4b09      	ldr	r3, [pc, #36]	@ (8004acc <HAL_RCC_ClockConfig+0x1c8>)
 8004aa8:	681b      	ldr	r3, [r3, #0]
 8004aaa:	4618      	mov	r0, r3
 8004aac:	f7fd fd00 	bl	80024b0 <HAL_InitTick>

  return HAL_OK;
 8004ab0:	2300      	movs	r3, #0
}
 8004ab2:	4618      	mov	r0, r3
 8004ab4:	3710      	adds	r7, #16
 8004ab6:	46bd      	mov	sp, r7
 8004ab8:	bd80      	pop	{r7, pc}
 8004aba:	bf00      	nop
 8004abc:	40023c00 	.word	0x40023c00
 8004ac0:	40023800 	.word	0x40023800
 8004ac4:	08008a40 	.word	0x08008a40
 8004ac8:	2000000c 	.word	0x2000000c
 8004acc:	20000010 	.word	0x20000010

08004ad0 <HAL_RCC_GetSysClockFreq>:
  *
  *
  * @retval SYSCLK frequency
  */
__weak uint32_t HAL_RCC_GetSysClockFreq(void)
{
 8004ad0:	e92d 4fb0 	stmdb	sp!, {r4, r5, r7, r8, r9, sl, fp, lr}
 8004ad4:	b090      	sub	sp, #64	@ 0x40
 8004ad6:	af00      	add	r7, sp, #0
  uint32_t pllm = 0U;
 8004ad8:	2300      	movs	r3, #0
 8004ada:	637b      	str	r3, [r7, #52]	@ 0x34
  uint32_t pllvco = 0U;
 8004adc:	2300      	movs	r3, #0
 8004ade:	63fb      	str	r3, [r7, #60]	@ 0x3c
  uint32_t pllp = 0U;
 8004ae0:	2300      	movs	r3, #0
 8004ae2:	633b      	str	r3, [r7, #48]	@ 0x30
  uint32_t sysclockfreq = 0U;
 8004ae4:	2300      	movs	r3, #0
 8004ae6:	63bb      	str	r3, [r7, #56]	@ 0x38

  /* Get SYSCLK source -------------------------------------------------------*/
  switch (RCC->CFGR & RCC_CFGR_SWS)
 8004ae8:	4b59      	ldr	r3, [pc, #356]	@ (8004c50 <HAL_RCC_GetSysClockFreq+0x180>)
 8004aea:	689b      	ldr	r3, [r3, #8]
 8004aec:	f003 030c 	and.w	r3, r3, #12
 8004af0:	2b08      	cmp	r3, #8
 8004af2:	d00d      	beq.n	8004b10 <HAL_RCC_GetSysClockFreq+0x40>
 8004af4:	2b08      	cmp	r3, #8
 8004af6:	f200 80a1 	bhi.w	8004c3c <HAL_RCC_GetSysClockFreq+0x16c>
 8004afa:	2b00      	cmp	r3, #0
 8004afc:	d002      	beq.n	8004b04 <HAL_RCC_GetSysClockFreq+0x34>
 8004afe:	2b04      	cmp	r3, #4
 8004b00:	d003      	beq.n	8004b0a <HAL_RCC_GetSysClockFreq+0x3a>
 8004b02:	e09b      	b.n	8004c3c <HAL_RCC_GetSysClockFreq+0x16c>
  {
    case RCC_CFGR_SWS_HSI:  /* HSI used as system clock source */
    {
      sysclockfreq = HSI_VALUE;
 8004b04:	4b53      	ldr	r3, [pc, #332]	@ (8004c54 <HAL_RCC_GetSysClockFreq+0x184>)
 8004b06:	63bb      	str	r3, [r7, #56]	@ 0x38
      break;
 8004b08:	e09b      	b.n	8004c42 <HAL_RCC_GetSysClockFreq+0x172>
    }
    case RCC_CFGR_SWS_HSE:  /* HSE used as system clock  source */
    {
      sysclockfreq = HSE_VALUE;
 8004b0a:	4b53      	ldr	r3, [pc, #332]	@ (8004c58 <HAL_RCC_GetSysClockFreq+0x188>)
 8004b0c:	63bb      	str	r3, [r7, #56]	@ 0x38
      break;
 8004b0e:	e098      	b.n	8004c42 <HAL_RCC_GetSysClockFreq+0x172>
    }
    case RCC_CFGR_SWS_PLL:  /* PLL used as system clock  source */
    {
      /* PLL_VCO = (HSE_VALUE or HSI_VALUE / PLLM) * PLLN
      SYSCLK = PLL_VCO / PLLP */
      pllm = RCC->PLLCFGR & RCC_PLLCFGR_PLLM;
 8004b10:	4b4f      	ldr	r3, [pc, #316]	@ (8004c50 <HAL_RCC_GetSysClockFreq+0x180>)
 8004b12:	685b      	ldr	r3, [r3, #4]
 8004b14:	f003 033f 	and.w	r3, r3, #63	@ 0x3f
 8004b18:	637b      	str	r3, [r7, #52]	@ 0x34
      if (__HAL_RCC_GET_PLL_OSCSOURCE() != RCC_PLLSOURCE_HSI)
 8004b1a:	4b4d      	ldr	r3, [pc, #308]	@ (8004c50 <HAL_RCC_GetSysClockFreq+0x180>)
 8004b1c:	685b      	ldr	r3, [r3, #4]
 8004b1e:	f403 0380 	and.w	r3, r3, #4194304	@ 0x400000
 8004b22:	2b00      	cmp	r3, #0
 8004b24:	d028      	beq.n	8004b78 <HAL_RCC_GetSysClockFreq+0xa8>
      {
        /* HSE used as PLL clock source */
        pllvco = (uint32_t)((((uint64_t) HSE_VALUE * ((uint64_t)((RCC->PLLCFGR & RCC_PLLCFGR_PLLN) >> RCC_PLLCFGR_PLLN_Pos)))) / (uint64_t)pllm);
 8004b26:	4b4a      	ldr	r3, [pc, #296]	@ (8004c50 <HAL_RCC_GetSysClockFreq+0x180>)
 8004b28:	685b      	ldr	r3, [r3, #4]
 8004b2a:	099b      	lsrs	r3, r3, #6
 8004b2c:	2200      	movs	r2, #0
 8004b2e:	623b      	str	r3, [r7, #32]
 8004b30:	627a      	str	r2, [r7, #36]	@ 0x24
 8004b32:	6a3b      	ldr	r3, [r7, #32]
 8004b34:	f3c3 0008 	ubfx	r0, r3, #0, #9
 8004b38:	2100      	movs	r1, #0
 8004b3a:	4b47      	ldr	r3, [pc, #284]	@ (8004c58 <HAL_RCC_GetSysClockFreq+0x188>)
 8004b3c:	fb03 f201 	mul.w	r2, r3, r1
 8004b40:	2300      	movs	r3, #0
 8004b42:	fb00 f303 	mul.w	r3, r0, r3
 8004b46:	4413      	add	r3, r2
 8004b48:	4a43      	ldr	r2, [pc, #268]	@ (8004c58 <HAL_RCC_GetSysClockFreq+0x188>)
 8004b4a:	fba0 1202 	umull	r1, r2, r0, r2
 8004b4e:	62fa      	str	r2, [r7, #44]	@ 0x2c
 8004b50:	460a      	mov	r2, r1
 8004b52:	62ba      	str	r2, [r7, #40]	@ 0x28
 8004b54:	6afa      	ldr	r2, [r7, #44]	@ 0x2c
 8004b56:	4413      	add	r3, r2
 8004b58:	62fb      	str	r3, [r7, #44]	@ 0x2c
 8004b5a:	6b7b      	ldr	r3, [r7, #52]	@ 0x34
 8004b5c:	2200      	movs	r2, #0
 8004b5e:	61bb      	str	r3, [r7, #24]
 8004b60:	61fa      	str	r2, [r7, #28]
 8004b62:	e9d7 2306 	ldrd	r2, r3, [r7, #24]
 8004b66:	e9d7 010a 	ldrd	r0, r1, [r7, #40]	@ 0x28
 8004b6a:	f7fc f86d 	bl	8000c48 <__aeabi_uldivmod>
 8004b6e:	4602      	mov	r2, r0
 8004b70:	460b      	mov	r3, r1
 8004b72:	4613      	mov	r3, r2
 8004b74:	63fb      	str	r3, [r7, #60]	@ 0x3c
 8004b76:	e053      	b.n	8004c20 <HAL_RCC_GetSysClockFreq+0x150>
      }
      else
      {
        /* HSI used as PLL clock source */
        pllvco = (uint32_t)((((uint64_t) HSI_VALUE * ((uint64_t)((RCC->PLLCFGR & RCC_PLLCFGR_PLLN) >> RCC_PLLCFGR_PLLN_Pos)))) / (uint64_t)pllm);
 8004b78:	4b35      	ldr	r3, [pc, #212]	@ (8004c50 <HAL_RCC_GetSysClockFreq+0x180>)
 8004b7a:	685b      	ldr	r3, [r3, #4]
 8004b7c:	099b      	lsrs	r3, r3, #6
 8004b7e:	2200      	movs	r2, #0
 8004b80:	613b      	str	r3, [r7, #16]
 8004b82:	617a      	str	r2, [r7, #20]
 8004b84:	693b      	ldr	r3, [r7, #16]
 8004b86:	f3c3 0a08 	ubfx	sl, r3, #0, #9
 8004b8a:	f04f 0b00 	mov.w	fp, #0
 8004b8e:	4652      	mov	r2, sl
 8004b90:	465b      	mov	r3, fp
 8004b92:	f04f 0000 	mov.w	r0, #0
 8004b96:	f04f 0100 	mov.w	r1, #0
 8004b9a:	0159      	lsls	r1, r3, #5
 8004b9c:	ea41 61d2 	orr.w	r1, r1, r2, lsr #27
 8004ba0:	0150      	lsls	r0, r2, #5
 8004ba2:	4602      	mov	r2, r0
 8004ba4:	460b      	mov	r3, r1
 8004ba6:	ebb2 080a 	subs.w	r8, r2, sl
 8004baa:	eb63 090b 	sbc.w	r9, r3, fp
 8004bae:	f04f 0200 	mov.w	r2, #0
 8004bb2:	f04f 0300 	mov.w	r3, #0
 8004bb6:	ea4f 1389 	mov.w	r3, r9, lsl #6
 8004bba:	ea43 6398 	orr.w	r3, r3, r8, lsr #26
 8004bbe:	ea4f 1288 	mov.w	r2, r8, lsl #6
 8004bc2:	ebb2 0408 	subs.w	r4, r2, r8
 8004bc6:	eb63 0509 	sbc.w	r5, r3, r9
 8004bca:	f04f 0200 	mov.w	r2, #0
 8004bce:	f04f 0300 	mov.w	r3, #0
 8004bd2:	00eb      	lsls	r3, r5, #3
 8004bd4:	ea43 7354 	orr.w	r3, r3, r4, lsr #29
 8004bd8:	00e2      	lsls	r2, r4, #3
 8004bda:	4614      	mov	r4, r2
 8004bdc:	461d      	mov	r5, r3
 8004bde:	eb14 030a 	adds.w	r3, r4, sl
 8004be2:	603b      	str	r3, [r7, #0]
 8004be4:	eb45 030b 	adc.w	r3, r5, fp
 8004be8:	607b      	str	r3, [r7, #4]
 8004bea:	f04f 0200 	mov.w	r2, #0
 8004bee:	f04f 0300 	mov.w	r3, #0
 8004bf2:	e9d7 4500 	ldrd	r4, r5, [r7]
 8004bf6:	4629      	mov	r1, r5
 8004bf8:	028b      	lsls	r3, r1, #10
 8004bfa:	4621      	mov	r1, r4
 8004bfc:	ea43 5391 	orr.w	r3, r3, r1, lsr #22
 8004c00:	4621      	mov	r1, r4
 8004c02:	028a      	lsls	r2, r1, #10
 8004c04:	4610      	mov	r0, r2
 8004c06:	4619      	mov	r1, r3
 8004c08:	6b7b      	ldr	r3, [r7, #52]	@ 0x34
 8004c0a:	2200      	movs	r2, #0
 8004c0c:	60bb      	str	r3, [r7, #8]
 8004c0e:	60fa      	str	r2, [r7, #12]
 8004c10:	e9d7 2302 	ldrd	r2, r3, [r7, #8]
 8004c14:	f7fc f818 	bl	8000c48 <__aeabi_uldivmod>
 8004c18:	4602      	mov	r2, r0
 8004c1a:	460b      	mov	r3, r1
 8004c1c:	4613      	mov	r3, r2
 8004c1e:	63fb      	str	r3, [r7, #60]	@ 0x3c
      }
      pllp = ((((RCC->PLLCFGR & RCC_PLLCFGR_PLLP) >> RCC_PLLCFGR_PLLP_Pos) + 1U) * 2U);
 8004c20:	4b0b      	ldr	r3, [pc, #44]	@ (8004c50 <HAL_RCC_GetSysClockFreq+0x180>)
 8004c22:	685b      	ldr	r3, [r3, #4]
 8004c24:	0c1b      	lsrs	r3, r3, #16
 8004c26:	f003 0303 	and.w	r3, r3, #3
 8004c2a:	3301      	adds	r3, #1
 8004c2c:	005b      	lsls	r3, r3, #1
 8004c2e:	633b      	str	r3, [r7, #48]	@ 0x30

      sysclockfreq = pllvco / pllp;
 8004c30:	6bfa      	ldr	r2, [r7, #60]	@ 0x3c
 8004c32:	6b3b      	ldr	r3, [r7, #48]	@ 0x30
 8004c34:	fbb2 f3f3 	udiv	r3, r2, r3
 8004c38:	63bb      	str	r3, [r7, #56]	@ 0x38
      break;
 8004c3a:	e002      	b.n	8004c42 <HAL_RCC_GetSysClockFreq+0x172>
    }
    default:
    {
      sysclockfreq = HSI_VALUE;
 8004c3c:	4b05      	ldr	r3, [pc, #20]	@ (8004c54 <HAL_RCC_GetSysClockFreq+0x184>)
 8004c3e:	63bb      	str	r3, [r7, #56]	@ 0x38
      break;
 8004c40:	bf00      	nop
    }
  }
  return sysclockfreq;
 8004c42:	6bbb      	ldr	r3, [r7, #56]	@ 0x38
}
 8004c44:	4618      	mov	r0, r3
 8004c46:	3740      	adds	r7, #64	@ 0x40
 8004c48:	46bd      	mov	sp, r7
 8004c4a:	e8bd 8fb0 	ldmia.w	sp!, {r4, r5, r7, r8, r9, sl, fp, pc}
 8004c4e:	bf00      	nop
 8004c50:	40023800 	.word	0x40023800
 8004c54:	00f42400 	.word	0x00f42400
 8004c58:	017d7840 	.word	0x017d7840

08004c5c <HAL_RCC_GetHCLKFreq>:
  * @note   The SystemCoreClock CMSIS variable is used to store System Clock Frequency
  *         and updated within this function
  * @retval HCLK frequency
  */
uint32_t HAL_RCC_GetHCLKFreq(void)
{
 8004c5c:	b480      	push	{r7}
 8004c5e:	af00      	add	r7, sp, #0
  return SystemCoreClock;
 8004c60:	4b03      	ldr	r3, [pc, #12]	@ (8004c70 <HAL_RCC_GetHCLKFreq+0x14>)
 8004c62:	681b      	ldr	r3, [r3, #0]
}
 8004c64:	4618      	mov	r0, r3
 8004c66:	46bd      	mov	sp, r7
 8004c68:	f85d 7b04 	ldr.w	r7, [sp], #4
 8004c6c:	4770      	bx	lr
 8004c6e:	bf00      	nop
 8004c70:	2000000c 	.word	0x2000000c

08004c74 <HAL_RCC_GetPCLK1Freq>:
  * @note   Each time PCLK1 changes, this function must be called to update the
  *         right PCLK1 value. Otherwise, any configuration based on this function will be incorrect.
  * @retval PCLK1 frequency
  */
uint32_t HAL_RCC_GetPCLK1Freq(void)
{
 8004c74:	b580      	push	{r7, lr}
 8004c76:	af00      	add	r7, sp, #0
  /* Get HCLK source and Compute PCLK1 frequency ---------------------------*/
  return (HAL_RCC_GetHCLKFreq() >> APBPrescTable[(RCC->CFGR & RCC_CFGR_PPRE1) >> RCC_CFGR_PPRE1_Pos]);
 8004c78:	f7ff fff0 	bl	8004c5c <HAL_RCC_GetHCLKFreq>
 8004c7c:	4602      	mov	r2, r0
 8004c7e:	4b05      	ldr	r3, [pc, #20]	@ (8004c94 <HAL_RCC_GetPCLK1Freq+0x20>)
 8004c80:	689b      	ldr	r3, [r3, #8]
 8004c82:	0a9b      	lsrs	r3, r3, #10
 8004c84:	f003 0307 	and.w	r3, r3, #7
 8004c88:	4903      	ldr	r1, [pc, #12]	@ (8004c98 <HAL_RCC_GetPCLK1Freq+0x24>)
 8004c8a:	5ccb      	ldrb	r3, [r1, r3]
 8004c8c:	fa22 f303 	lsr.w	r3, r2, r3
}
 8004c90:	4618      	mov	r0, r3
 8004c92:	bd80      	pop	{r7, pc}
 8004c94:	40023800 	.word	0x40023800
 8004c98:	08008a50 	.word	0x08008a50

08004c9c <HAL_TIM_Base_Init>:
  *         Ex: call @ref HAL_TIM_Base_DeInit() before HAL_TIM_Base_Init()
  * @param  htim TIM Base handle
  * @retval HAL status
  */
HAL_StatusTypeDef HAL_TIM_Base_Init(TIM_HandleTypeDef *htim)
{
 8004c9c:	b580      	push	{r7, lr}
 8004c9e:	b082      	sub	sp, #8
 8004ca0:	af00      	add	r7, sp, #0
 8004ca2:	6078      	str	r0, [r7, #4]
  /* Check the TIM handle allocation */
  if (htim == NULL)
 8004ca4:	687b      	ldr	r3, [r7, #4]
 8004ca6:	2b00      	cmp	r3, #0
 8004ca8:	d101      	bne.n	8004cae <HAL_TIM_Base_Init+0x12>
  {
    return HAL_ERROR;
 8004caa:	2301      	movs	r3, #1
 8004cac:	e041      	b.n	8004d32 <HAL_TIM_Base_Init+0x96>
  assert_param(IS_TIM_COUNTER_MODE(htim->Init.CounterMode));
  assert_param(IS_TIM_CLOCKDIVISION_DIV(htim->Init.ClockDivision));
  assert_param(IS_TIM_PERIOD(htim, htim->Init.Period));
  assert_param(IS_TIM_AUTORELOAD_PRELOAD(htim->Init.AutoReloadPreload));

  if (htim->State == HAL_TIM_STATE_RESET)
 8004cae:	687b      	ldr	r3, [r7, #4]
 8004cb0:	f893 303d 	ldrb.w	r3, [r3, #61]	@ 0x3d
 8004cb4:	b2db      	uxtb	r3, r3
 8004cb6:	2b00      	cmp	r3, #0
 8004cb8:	d106      	bne.n	8004cc8 <HAL_TIM_Base_Init+0x2c>
  {
    /* Allocate lock resource and initialize it */
    htim->Lock = HAL_UNLOCKED;
 8004cba:	687b      	ldr	r3, [r7, #4]
 8004cbc:	2200      	movs	r2, #0
 8004cbe:	f883 203c 	strb.w	r2, [r3, #60]	@ 0x3c
    }
    /* Init the low level hardware : GPIO, CLOCK, NVIC */
    htim->Base_MspInitCallback(htim);
#else
    /* Init the low level hardware : GPIO, CLOCK, NVIC */
    HAL_TIM_Base_MspInit(htim);
 8004cc2:	6878      	ldr	r0, [r7, #4]
 8004cc4:	f7fd f9da 	bl	800207c <HAL_TIM_Base_MspInit>
#endif /* USE_HAL_TIM_REGISTER_CALLBACKS */
  }

  /* Set the TIM state */
  htim->State = HAL_TIM_STATE_BUSY;
 8004cc8:	687b      	ldr	r3, [r7, #4]
 8004cca:	2202      	movs	r2, #2
 8004ccc:	f883 203d 	strb.w	r2, [r3, #61]	@ 0x3d

  /* Set the Time Base configuration */
  TIM_Base_SetConfig(htim->Instance, &htim->Init);
 8004cd0:	687b      	ldr	r3, [r7, #4]
 8004cd2:	681a      	ldr	r2, [r3, #0]
 8004cd4:	687b      	ldr	r3, [r7, #4]
 8004cd6:	3304      	adds	r3, #4
 8004cd8:	4619      	mov	r1, r3
 8004cda:	4610      	mov	r0, r2
 8004cdc:	f000 fd2e 	bl	800573c <TIM_Base_SetConfig>

  /* Initialize the DMA burst operation state */
  htim->DMABurstState = HAL_DMA_BURST_STATE_READY;
 8004ce0:	687b      	ldr	r3, [r7, #4]
 8004ce2:	2201      	movs	r2, #1
 8004ce4:	f883 2046 	strb.w	r2, [r3, #70]	@ 0x46

  /* Initialize the TIM channels state */
  TIM_CHANNEL_STATE_SET_ALL(htim, HAL_TIM_CHANNEL_STATE_READY);
 8004ce8:	687b      	ldr	r3, [r7, #4]
 8004cea:	2201      	movs	r2, #1
 8004cec:	f883 203e 	strb.w	r2, [r3, #62]	@ 0x3e
 8004cf0:	687b      	ldr	r3, [r7, #4]
 8004cf2:	2201      	movs	r2, #1
 8004cf4:	f883 203f 	strb.w	r2, [r3, #63]	@ 0x3f
 8004cf8:	687b      	ldr	r3, [r7, #4]
 8004cfa:	2201      	movs	r2, #1
 8004cfc:	f883 2040 	strb.w	r2, [r3, #64]	@ 0x40
 8004d00:	687b      	ldr	r3, [r7, #4]
 8004d02:	2201      	movs	r2, #1
 8004d04:	f883 2041 	strb.w	r2, [r3, #65]	@ 0x41
  TIM_CHANNEL_N_STATE_SET_ALL(htim, HAL_TIM_CHANNEL_STATE_READY);
 8004d08:	687b      	ldr	r3, [r7, #4]
 8004d0a:	2201      	movs	r2, #1
 8004d0c:	f883 2042 	strb.w	r2, [r3, #66]	@ 0x42
 8004d10:	687b      	ldr	r3, [r7, #4]
 8004d12:	2201      	movs	r2, #1
 8004d14:	f883 2043 	strb.w	r2, [r3, #67]	@ 0x43
 8004d18:	687b      	ldr	r3, [r7, #4]
 8004d1a:	2201      	movs	r2, #1
 8004d1c:	f883 2044 	strb.w	r2, [r3, #68]	@ 0x44
 8004d20:	687b      	ldr	r3, [r7, #4]
 8004d22:	2201      	movs	r2, #1
 8004d24:	f883 2045 	strb.w	r2, [r3, #69]	@ 0x45

  /* Initialize the TIM state*/
  htim->State = HAL_TIM_STATE_READY;
 8004d28:	687b      	ldr	r3, [r7, #4]
 8004d2a:	2201      	movs	r2, #1
 8004d2c:	f883 203d 	strb.w	r2, [r3, #61]	@ 0x3d

  return HAL_OK;
 8004d30:	2300      	movs	r3, #0
}
 8004d32:	4618      	mov	r0, r3
 8004d34:	3708      	adds	r7, #8
 8004d36:	46bd      	mov	sp, r7
 8004d38:	bd80      	pop	{r7, pc}
	...

08004d3c <HAL_TIM_PWM_Start>:
  *            @arg TIM_CHANNEL_3: TIM Channel 3 selected
  *            @arg TIM_CHANNEL_4: TIM Channel 4 selected
  * @retval HAL status
  */
HAL_StatusTypeDef HAL_TIM_PWM_Start(TIM_HandleTypeDef *htim, uint32_t Channel)
{
 8004d3c:	b580      	push	{r7, lr}
 8004d3e:	b084      	sub	sp, #16
 8004d40:	af00      	add	r7, sp, #0
 8004d42:	6078      	str	r0, [r7, #4]
 8004d44:	6039      	str	r1, [r7, #0]

  /* Check the parameters */
  assert_param(IS_TIM_CCX_INSTANCE(htim->Instance, Channel));

  /* Check the TIM channel state */
  if (TIM_CHANNEL_STATE_GET(htim, Channel) != HAL_TIM_CHANNEL_STATE_READY)
 8004d46:	683b      	ldr	r3, [r7, #0]
 8004d48:	2b00      	cmp	r3, #0
 8004d4a:	d109      	bne.n	8004d60 <HAL_TIM_PWM_Start+0x24>
 8004d4c:	687b      	ldr	r3, [r7, #4]
 8004d4e:	f893 303e 	ldrb.w	r3, [r3, #62]	@ 0x3e
 8004d52:	b2db      	uxtb	r3, r3
 8004d54:	2b01      	cmp	r3, #1
 8004d56:	bf14      	ite	ne
 8004d58:	2301      	movne	r3, #1
 8004d5a:	2300      	moveq	r3, #0
 8004d5c:	b2db      	uxtb	r3, r3
 8004d5e:	e022      	b.n	8004da6 <HAL_TIM_PWM_Start+0x6a>
 8004d60:	683b      	ldr	r3, [r7, #0]
 8004d62:	2b04      	cmp	r3, #4
 8004d64:	d109      	bne.n	8004d7a <HAL_TIM_PWM_Start+0x3e>
 8004d66:	687b      	ldr	r3, [r7, #4]
 8004d68:	f893 303f 	ldrb.w	r3, [r3, #63]	@ 0x3f
 8004d6c:	b2db      	uxtb	r3, r3
 8004d6e:	2b01      	cmp	r3, #1
 8004d70:	bf14      	ite	ne
 8004d72:	2301      	movne	r3, #1
 8004d74:	2300      	moveq	r3, #0
 8004d76:	b2db      	uxtb	r3, r3
 8004d78:	e015      	b.n	8004da6 <HAL_TIM_PWM_Start+0x6a>
 8004d7a:	683b      	ldr	r3, [r7, #0]
 8004d7c:	2b08      	cmp	r3, #8
 8004d7e:	d109      	bne.n	8004d94 <HAL_TIM_PWM_Start+0x58>
 8004d80:	687b      	ldr	r3, [r7, #4]
 8004d82:	f893 3040 	ldrb.w	r3, [r3, #64]	@ 0x40
 8004d86:	b2db      	uxtb	r3, r3
 8004d88:	2b01      	cmp	r3, #1
 8004d8a:	bf14      	ite	ne
 8004d8c:	2301      	movne	r3, #1
 8004d8e:	2300      	moveq	r3, #0
 8004d90:	b2db      	uxtb	r3, r3
 8004d92:	e008      	b.n	8004da6 <HAL_TIM_PWM_Start+0x6a>
 8004d94:	687b      	ldr	r3, [r7, #4]
 8004d96:	f893 3041 	ldrb.w	r3, [r3, #65]	@ 0x41
 8004d9a:	b2db      	uxtb	r3, r3
 8004d9c:	2b01      	cmp	r3, #1
 8004d9e:	bf14      	ite	ne
 8004da0:	2301      	movne	r3, #1
 8004da2:	2300      	moveq	r3, #0
 8004da4:	b2db      	uxtb	r3, r3
 8004da6:	2b00      	cmp	r3, #0
 8004da8:	d001      	beq.n	8004dae <HAL_TIM_PWM_Start+0x72>
  {
    return HAL_ERROR;
 8004daa:	2301      	movs	r3, #1
 8004dac:	e07c      	b.n	8004ea8 <HAL_TIM_PWM_Start+0x16c>
  }

  /* Set the TIM channel state */
  TIM_CHANNEL_STATE_SET(htim, Channel, HAL_TIM_CHANNEL_STATE_BUSY);
 8004dae:	683b      	ldr	r3, [r7, #0]
 8004db0:	2b00      	cmp	r3, #0
 8004db2:	d104      	bne.n	8004dbe <HAL_TIM_PWM_Start+0x82>
 8004db4:	687b      	ldr	r3, [r7, #4]
 8004db6:	2202      	movs	r2, #2
 8004db8:	f883 203e 	strb.w	r2, [r3, #62]	@ 0x3e
 8004dbc:	e013      	b.n	8004de6 <HAL_TIM_PWM_Start+0xaa>
 8004dbe:	683b      	ldr	r3, [r7, #0]
 8004dc0:	2b04      	cmp	r3, #4
 8004dc2:	d104      	bne.n	8004dce <HAL_TIM_PWM_Start+0x92>
 8004dc4:	687b      	ldr	r3, [r7, #4]
 8004dc6:	2202      	movs	r2, #2
 8004dc8:	f883 203f 	strb.w	r2, [r3, #63]	@ 0x3f
 8004dcc:	e00b      	b.n	8004de6 <HAL_TIM_PWM_Start+0xaa>
 8004dce:	683b      	ldr	r3, [r7, #0]
 8004dd0:	2b08      	cmp	r3, #8
 8004dd2:	d104      	bne.n	8004dde <HAL_TIM_PWM_Start+0xa2>
 8004dd4:	687b      	ldr	r3, [r7, #4]
 8004dd6:	2202      	movs	r2, #2
 8004dd8:	f883 2040 	strb.w	r2, [r3, #64]	@ 0x40
 8004ddc:	e003      	b.n	8004de6 <HAL_TIM_PWM_Start+0xaa>
 8004dde:	687b      	ldr	r3, [r7, #4]
 8004de0:	2202      	movs	r2, #2
 8004de2:	f883 2041 	strb.w	r2, [r3, #65]	@ 0x41

  /* Enable the Capture compare channel */
  TIM_CCxChannelCmd(htim->Instance, Channel, TIM_CCx_ENABLE);
 8004de6:	687b      	ldr	r3, [r7, #4]
 8004de8:	681b      	ldr	r3, [r3, #0]
 8004dea:	2201      	movs	r2, #1
 8004dec:	6839      	ldr	r1, [r7, #0]
 8004dee:	4618      	mov	r0, r3
 8004df0:	f000 ff14 	bl	8005c1c <TIM_CCxChannelCmd>

  if (IS_TIM_BREAK_INSTANCE(htim->Instance) != RESET)
 8004df4:	687b      	ldr	r3, [r7, #4]
 8004df6:	681b      	ldr	r3, [r3, #0]
 8004df8:	4a2d      	ldr	r2, [pc, #180]	@ (8004eb0 <HAL_TIM_PWM_Start+0x174>)
 8004dfa:	4293      	cmp	r3, r2
 8004dfc:	d004      	beq.n	8004e08 <HAL_TIM_PWM_Start+0xcc>
 8004dfe:	687b      	ldr	r3, [r7, #4]
 8004e00:	681b      	ldr	r3, [r3, #0]
 8004e02:	4a2c      	ldr	r2, [pc, #176]	@ (8004eb4 <HAL_TIM_PWM_Start+0x178>)
 8004e04:	4293      	cmp	r3, r2
 8004e06:	d101      	bne.n	8004e0c <HAL_TIM_PWM_Start+0xd0>
 8004e08:	2301      	movs	r3, #1
 8004e0a:	e000      	b.n	8004e0e <HAL_TIM_PWM_Start+0xd2>
 8004e0c:	2300      	movs	r3, #0
 8004e0e:	2b00      	cmp	r3, #0
 8004e10:	d007      	beq.n	8004e22 <HAL_TIM_PWM_Start+0xe6>
  {
    /* Enable the main output */
    __HAL_TIM_MOE_ENABLE(htim);
 8004e12:	687b      	ldr	r3, [r7, #4]
 8004e14:	681b      	ldr	r3, [r3, #0]
 8004e16:	6c5a      	ldr	r2, [r3, #68]	@ 0x44
 8004e18:	687b      	ldr	r3, [r7, #4]
 8004e1a:	681b      	ldr	r3, [r3, #0]
 8004e1c:	f442 4200 	orr.w	r2, r2, #32768	@ 0x8000
 8004e20:	645a      	str	r2, [r3, #68]	@ 0x44
  }

  /* Enable the Peripheral, except in trigger mode where enable is automatically done with trigger */
  if (IS_TIM_SLAVE_INSTANCE(htim->Instance))
 8004e22:	687b      	ldr	r3, [r7, #4]
 8004e24:	681b      	ldr	r3, [r3, #0]
 8004e26:	4a22      	ldr	r2, [pc, #136]	@ (8004eb0 <HAL_TIM_PWM_Start+0x174>)
 8004e28:	4293      	cmp	r3, r2
 8004e2a:	d022      	beq.n	8004e72 <HAL_TIM_PWM_Start+0x136>
 8004e2c:	687b      	ldr	r3, [r7, #4]
 8004e2e:	681b      	ldr	r3, [r3, #0]
 8004e30:	f1b3 4f80 	cmp.w	r3, #1073741824	@ 0x40000000
 8004e34:	d01d      	beq.n	8004e72 <HAL_TIM_PWM_Start+0x136>
 8004e36:	687b      	ldr	r3, [r7, #4]
 8004e38:	681b      	ldr	r3, [r3, #0]
 8004e3a:	4a1f      	ldr	r2, [pc, #124]	@ (8004eb8 <HAL_TIM_PWM_Start+0x17c>)
 8004e3c:	4293      	cmp	r3, r2
 8004e3e:	d018      	beq.n	8004e72 <HAL_TIM_PWM_Start+0x136>
 8004e40:	687b      	ldr	r3, [r7, #4]
 8004e42:	681b      	ldr	r3, [r3, #0]
 8004e44:	4a1d      	ldr	r2, [pc, #116]	@ (8004ebc <HAL_TIM_PWM_Start+0x180>)
 8004e46:	4293      	cmp	r3, r2
 8004e48:	d013      	beq.n	8004e72 <HAL_TIM_PWM_Start+0x136>
 8004e4a:	687b      	ldr	r3, [r7, #4]
 8004e4c:	681b      	ldr	r3, [r3, #0]
 8004e4e:	4a1c      	ldr	r2, [pc, #112]	@ (8004ec0 <HAL_TIM_PWM_Start+0x184>)
 8004e50:	4293      	cmp	r3, r2
 8004e52:	d00e      	beq.n	8004e72 <HAL_TIM_PWM_Start+0x136>
 8004e54:	687b      	ldr	r3, [r7, #4]
 8004e56:	681b      	ldr	r3, [r3, #0]
 8004e58:	4a16      	ldr	r2, [pc, #88]	@ (8004eb4 <HAL_TIM_PWM_Start+0x178>)
 8004e5a:	4293      	cmp	r3, r2
 8004e5c:	d009      	beq.n	8004e72 <HAL_TIM_PWM_Start+0x136>
 8004e5e:	687b      	ldr	r3, [r7, #4]
 8004e60:	681b      	ldr	r3, [r3, #0]
 8004e62:	4a18      	ldr	r2, [pc, #96]	@ (8004ec4 <HAL_TIM_PWM_Start+0x188>)
 8004e64:	4293      	cmp	r3, r2
 8004e66:	d004      	beq.n	8004e72 <HAL_TIM_PWM_Start+0x136>
 8004e68:	687b      	ldr	r3, [r7, #4]
 8004e6a:	681b      	ldr	r3, [r3, #0]
 8004e6c:	4a16      	ldr	r2, [pc, #88]	@ (8004ec8 <HAL_TIM_PWM_Start+0x18c>)
 8004e6e:	4293      	cmp	r3, r2
 8004e70:	d111      	bne.n	8004e96 <HAL_TIM_PWM_Start+0x15a>
  {
    tmpsmcr = htim->Instance->SMCR & TIM_SMCR_SMS;
 8004e72:	687b      	ldr	r3, [r7, #4]
 8004e74:	681b      	ldr	r3, [r3, #0]
 8004e76:	689b      	ldr	r3, [r3, #8]
 8004e78:	f003 0307 	and.w	r3, r3, #7
 8004e7c:	60fb      	str	r3, [r7, #12]
    if (!IS_TIM_SLAVEMODE_TRIGGER_ENABLED(tmpsmcr))
 8004e7e:	68fb      	ldr	r3, [r7, #12]
 8004e80:	2b06      	cmp	r3, #6
 8004e82:	d010      	beq.n	8004ea6 <HAL_TIM_PWM_Start+0x16a>
    {
      __HAL_TIM_ENABLE(htim);
 8004e84:	687b      	ldr	r3, [r7, #4]
 8004e86:	681b      	ldr	r3, [r3, #0]
 8004e88:	681a      	ldr	r2, [r3, #0]
 8004e8a:	687b      	ldr	r3, [r7, #4]
 8004e8c:	681b      	ldr	r3, [r3, #0]
 8004e8e:	f042 0201 	orr.w	r2, r2, #1
 8004e92:	601a      	str	r2, [r3, #0]
    if (!IS_TIM_SLAVEMODE_TRIGGER_ENABLED(tmpsmcr))
 8004e94:	e007      	b.n	8004ea6 <HAL_TIM_PWM_Start+0x16a>
    }
  }
  else
  {
    __HAL_TIM_ENABLE(htim);
 8004e96:	687b      	ldr	r3, [r7, #4]
 8004e98:	681b      	ldr	r3, [r3, #0]
 8004e9a:	681a      	ldr	r2, [r3, #0]
 8004e9c:	687b      	ldr	r3, [r7, #4]
 8004e9e:	681b      	ldr	r3, [r3, #0]
 8004ea0:	f042 0201 	orr.w	r2, r2, #1
 8004ea4:	601a      	str	r2, [r3, #0]
  }

  /* Return function status */
  return HAL_OK;
 8004ea6:	2300      	movs	r3, #0
}
 8004ea8:	4618      	mov	r0, r3
 8004eaa:	3710      	adds	r7, #16
 8004eac:	46bd      	mov	sp, r7
 8004eae:	bd80      	pop	{r7, pc}
 8004eb0:	40010000 	.word	0x40010000
 8004eb4:	40010400 	.word	0x40010400
 8004eb8:	40000400 	.word	0x40000400
 8004ebc:	40000800 	.word	0x40000800
 8004ec0:	40000c00 	.word	0x40000c00
 8004ec4:	40014000 	.word	0x40014000
 8004ec8:	40001800 	.word	0x40001800

08004ecc <HAL_TIM_IC_Init>:
  *         Ex: call @ref HAL_TIM_IC_DeInit() before HAL_TIM_IC_Init()
  * @param  htim TIM Input Capture handle
  * @retval HAL status
  */
HAL_StatusTypeDef HAL_TIM_IC_Init(TIM_HandleTypeDef *htim)
{
 8004ecc:	b580      	push	{r7, lr}
 8004ece:	b082      	sub	sp, #8
 8004ed0:	af00      	add	r7, sp, #0
 8004ed2:	6078      	str	r0, [r7, #4]
  /* Check the TIM handle allocation */
  if (htim == NULL)
 8004ed4:	687b      	ldr	r3, [r7, #4]
 8004ed6:	2b00      	cmp	r3, #0
 8004ed8:	d101      	bne.n	8004ede <HAL_TIM_IC_Init+0x12>
  {
    return HAL_ERROR;
 8004eda:	2301      	movs	r3, #1
 8004edc:	e041      	b.n	8004f62 <HAL_TIM_IC_Init+0x96>
  assert_param(IS_TIM_COUNTER_MODE(htim->Init.CounterMode));
  assert_param(IS_TIM_CLOCKDIVISION_DIV(htim->Init.ClockDivision));
  assert_param(IS_TIM_PERIOD(htim, htim->Init.Period));
  assert_param(IS_TIM_AUTORELOAD_PRELOAD(htim->Init.AutoReloadPreload));

  if (htim->State == HAL_TIM_STATE_RESET)
 8004ede:	687b      	ldr	r3, [r7, #4]
 8004ee0:	f893 303d 	ldrb.w	r3, [r3, #61]	@ 0x3d
 8004ee4:	b2db      	uxtb	r3, r3
 8004ee6:	2b00      	cmp	r3, #0
 8004ee8:	d106      	bne.n	8004ef8 <HAL_TIM_IC_Init+0x2c>
  {
    /* Allocate lock resource and initialize it */
    htim->Lock = HAL_UNLOCKED;
 8004eea:	687b      	ldr	r3, [r7, #4]
 8004eec:	2200      	movs	r2, #0
 8004eee:	f883 203c 	strb.w	r2, [r3, #60]	@ 0x3c
    }
    /* Init the low level hardware : GPIO, CLOCK, NVIC */
    htim->IC_MspInitCallback(htim);
#else
    /* Init the low level hardware : GPIO, CLOCK, NVIC and DMA */
    HAL_TIM_IC_MspInit(htim);
 8004ef2:	6878      	ldr	r0, [r7, #4]
 8004ef4:	f7fd f872 	bl	8001fdc <HAL_TIM_IC_MspInit>
#endif /* USE_HAL_TIM_REGISTER_CALLBACKS */
  }

  /* Set the TIM state */
  htim->State = HAL_TIM_STATE_BUSY;
 8004ef8:	687b      	ldr	r3, [r7, #4]
 8004efa:	2202      	movs	r2, #2
 8004efc:	f883 203d 	strb.w	r2, [r3, #61]	@ 0x3d

  /* Init the base time for the input capture */
  TIM_Base_SetConfig(htim->Instance, &htim->Init);
 8004f00:	687b      	ldr	r3, [r7, #4]
 8004f02:	681a      	ldr	r2, [r3, #0]
 8004f04:	687b      	ldr	r3, [r7, #4]
 8004f06:	3304      	adds	r3, #4
 8004f08:	4619      	mov	r1, r3
 8004f0a:	4610      	mov	r0, r2
 8004f0c:	f000 fc16 	bl	800573c <TIM_Base_SetConfig>

  /* Initialize the DMA burst operation state */
  htim->DMABurstState = HAL_DMA_BURST_STATE_READY;
 8004f10:	687b      	ldr	r3, [r7, #4]
 8004f12:	2201      	movs	r2, #1
 8004f14:	f883 2046 	strb.w	r2, [r3, #70]	@ 0x46

  /* Initialize the TIM channels state */
  TIM_CHANNEL_STATE_SET_ALL(htim, HAL_TIM_CHANNEL_STATE_READY);
 8004f18:	687b      	ldr	r3, [r7, #4]
 8004f1a:	2201      	movs	r2, #1
 8004f1c:	f883 203e 	strb.w	r2, [r3, #62]	@ 0x3e
 8004f20:	687b      	ldr	r3, [r7, #4]
 8004f22:	2201      	movs	r2, #1
 8004f24:	f883 203f 	strb.w	r2, [r3, #63]	@ 0x3f
 8004f28:	687b      	ldr	r3, [r7, #4]
 8004f2a:	2201      	movs	r2, #1
 8004f2c:	f883 2040 	strb.w	r2, [r3, #64]	@ 0x40
 8004f30:	687b      	ldr	r3, [r7, #4]
 8004f32:	2201      	movs	r2, #1
 8004f34:	f883 2041 	strb.w	r2, [r3, #65]	@ 0x41
  TIM_CHANNEL_N_STATE_SET_ALL(htim, HAL_TIM_CHANNEL_STATE_READY);
 8004f38:	687b      	ldr	r3, [r7, #4]
 8004f3a:	2201      	movs	r2, #1
 8004f3c:	f883 2042 	strb.w	r2, [r3, #66]	@ 0x42
 8004f40:	687b      	ldr	r3, [r7, #4]
 8004f42:	2201      	movs	r2, #1
 8004f44:	f883 2043 	strb.w	r2, [r3, #67]	@ 0x43
 8004f48:	687b      	ldr	r3, [r7, #4]
 8004f4a:	2201      	movs	r2, #1
 8004f4c:	f883 2044 	strb.w	r2, [r3, #68]	@ 0x44
 8004f50:	687b      	ldr	r3, [r7, #4]
 8004f52:	2201      	movs	r2, #1
 8004f54:	f883 2045 	strb.w	r2, [r3, #69]	@ 0x45

  /* Initialize the TIM state*/
  htim->State = HAL_TIM_STATE_READY;
 8004f58:	687b      	ldr	r3, [r7, #4]
 8004f5a:	2201      	movs	r2, #1
 8004f5c:	f883 203d 	strb.w	r2, [r3, #61]	@ 0x3d

  return HAL_OK;
 8004f60:	2300      	movs	r3, #0
}
 8004f62:	4618      	mov	r0, r3
 8004f64:	3708      	adds	r7, #8
 8004f66:	46bd      	mov	sp, r7
 8004f68:	bd80      	pop	{r7, pc}
	...

08004f6c <HAL_TIM_IC_Start_IT>:
  *            @arg TIM_CHANNEL_3: TIM Channel 3 selected
  *            @arg TIM_CHANNEL_4: TIM Channel 4 selected
  * @retval HAL status
  */
HAL_StatusTypeDef HAL_TIM_IC_Start_IT(TIM_HandleTypeDef *htim, uint32_t Channel)
{
 8004f6c:	b580      	push	{r7, lr}
 8004f6e:	b084      	sub	sp, #16
 8004f70:	af00      	add	r7, sp, #0
 8004f72:	6078      	str	r0, [r7, #4]
 8004f74:	6039      	str	r1, [r7, #0]
  HAL_StatusTypeDef status = HAL_OK;
 8004f76:	2300      	movs	r3, #0
 8004f78:	73fb      	strb	r3, [r7, #15]
  uint32_t tmpsmcr;

  HAL_TIM_ChannelStateTypeDef channel_state = TIM_CHANNEL_STATE_GET(htim, Channel);
 8004f7a:	683b      	ldr	r3, [r7, #0]
 8004f7c:	2b00      	cmp	r3, #0
 8004f7e:	d104      	bne.n	8004f8a <HAL_TIM_IC_Start_IT+0x1e>
 8004f80:	687b      	ldr	r3, [r7, #4]
 8004f82:	f893 303e 	ldrb.w	r3, [r3, #62]	@ 0x3e
 8004f86:	b2db      	uxtb	r3, r3
 8004f88:	e013      	b.n	8004fb2 <HAL_TIM_IC_Start_IT+0x46>
 8004f8a:	683b      	ldr	r3, [r7, #0]
 8004f8c:	2b04      	cmp	r3, #4
 8004f8e:	d104      	bne.n	8004f9a <HAL_TIM_IC_Start_IT+0x2e>
 8004f90:	687b      	ldr	r3, [r7, #4]
 8004f92:	f893 303f 	ldrb.w	r3, [r3, #63]	@ 0x3f
 8004f96:	b2db      	uxtb	r3, r3
 8004f98:	e00b      	b.n	8004fb2 <HAL_TIM_IC_Start_IT+0x46>
 8004f9a:	683b      	ldr	r3, [r7, #0]
 8004f9c:	2b08      	cmp	r3, #8
 8004f9e:	d104      	bne.n	8004faa <HAL_TIM_IC_Start_IT+0x3e>
 8004fa0:	687b      	ldr	r3, [r7, #4]
 8004fa2:	f893 3040 	ldrb.w	r3, [r3, #64]	@ 0x40
 8004fa6:	b2db      	uxtb	r3, r3
 8004fa8:	e003      	b.n	8004fb2 <HAL_TIM_IC_Start_IT+0x46>
 8004faa:	687b      	ldr	r3, [r7, #4]
 8004fac:	f893 3041 	ldrb.w	r3, [r3, #65]	@ 0x41
 8004fb0:	b2db      	uxtb	r3, r3
 8004fb2:	73bb      	strb	r3, [r7, #14]
  HAL_TIM_ChannelStateTypeDef complementary_channel_state = TIM_CHANNEL_N_STATE_GET(htim, Channel);
 8004fb4:	683b      	ldr	r3, [r7, #0]
 8004fb6:	2b00      	cmp	r3, #0
 8004fb8:	d104      	bne.n	8004fc4 <HAL_TIM_IC_Start_IT+0x58>
 8004fba:	687b      	ldr	r3, [r7, #4]
 8004fbc:	f893 3042 	ldrb.w	r3, [r3, #66]	@ 0x42
 8004fc0:	b2db      	uxtb	r3, r3
 8004fc2:	e013      	b.n	8004fec <HAL_TIM_IC_Start_IT+0x80>
 8004fc4:	683b      	ldr	r3, [r7, #0]
 8004fc6:	2b04      	cmp	r3, #4
 8004fc8:	d104      	bne.n	8004fd4 <HAL_TIM_IC_Start_IT+0x68>
 8004fca:	687b      	ldr	r3, [r7, #4]
 8004fcc:	f893 3043 	ldrb.w	r3, [r3, #67]	@ 0x43
 8004fd0:	b2db      	uxtb	r3, r3
 8004fd2:	e00b      	b.n	8004fec <HAL_TIM_IC_Start_IT+0x80>
 8004fd4:	683b      	ldr	r3, [r7, #0]
 8004fd6:	2b08      	cmp	r3, #8
 8004fd8:	d104      	bne.n	8004fe4 <HAL_TIM_IC_Start_IT+0x78>
 8004fda:	687b      	ldr	r3, [r7, #4]
 8004fdc:	f893 3044 	ldrb.w	r3, [r3, #68]	@ 0x44
 8004fe0:	b2db      	uxtb	r3, r3
 8004fe2:	e003      	b.n	8004fec <HAL_TIM_IC_Start_IT+0x80>
 8004fe4:	687b      	ldr	r3, [r7, #4]
 8004fe6:	f893 3045 	ldrb.w	r3, [r3, #69]	@ 0x45
 8004fea:	b2db      	uxtb	r3, r3
 8004fec:	737b      	strb	r3, [r7, #13]

  /* Check the parameters */
  assert_param(IS_TIM_CCX_INSTANCE(htim->Instance, Channel));

  /* Check the TIM channel state */
  if ((channel_state != HAL_TIM_CHANNEL_STATE_READY)
 8004fee:	7bbb      	ldrb	r3, [r7, #14]
 8004ff0:	2b01      	cmp	r3, #1
 8004ff2:	d102      	bne.n	8004ffa <HAL_TIM_IC_Start_IT+0x8e>
      || (complementary_channel_state != HAL_TIM_CHANNEL_STATE_READY))
 8004ff4:	7b7b      	ldrb	r3, [r7, #13]
 8004ff6:	2b01      	cmp	r3, #1
 8004ff8:	d001      	beq.n	8004ffe <HAL_TIM_IC_Start_IT+0x92>
  {
    return HAL_ERROR;
 8004ffa:	2301      	movs	r3, #1
 8004ffc:	e0cc      	b.n	8005198 <HAL_TIM_IC_Start_IT+0x22c>
  }

  /* Set the TIM channel state */
  TIM_CHANNEL_STATE_SET(htim, Channel, HAL_TIM_CHANNEL_STATE_BUSY);
 8004ffe:	683b      	ldr	r3, [r7, #0]
 8005000:	2b00      	cmp	r3, #0
 8005002:	d104      	bne.n	800500e <HAL_TIM_IC_Start_IT+0xa2>
 8005004:	687b      	ldr	r3, [r7, #4]
 8005006:	2202      	movs	r2, #2
 8005008:	f883 203e 	strb.w	r2, [r3, #62]	@ 0x3e
 800500c:	e013      	b.n	8005036 <HAL_TIM_IC_Start_IT+0xca>
 800500e:	683b      	ldr	r3, [r7, #0]
 8005010:	2b04      	cmp	r3, #4
 8005012:	d104      	bne.n	800501e <HAL_TIM_IC_Start_IT+0xb2>
 8005014:	687b      	ldr	r3, [r7, #4]
 8005016:	2202      	movs	r2, #2
 8005018:	f883 203f 	strb.w	r2, [r3, #63]	@ 0x3f
 800501c:	e00b      	b.n	8005036 <HAL_TIM_IC_Start_IT+0xca>
 800501e:	683b      	ldr	r3, [r7, #0]
 8005020:	2b08      	cmp	r3, #8
 8005022:	d104      	bne.n	800502e <HAL_TIM_IC_Start_IT+0xc2>
 8005024:	687b      	ldr	r3, [r7, #4]
 8005026:	2202      	movs	r2, #2
 8005028:	f883 2040 	strb.w	r2, [r3, #64]	@ 0x40
 800502c:	e003      	b.n	8005036 <HAL_TIM_IC_Start_IT+0xca>
 800502e:	687b      	ldr	r3, [r7, #4]
 8005030:	2202      	movs	r2, #2
 8005032:	f883 2041 	strb.w	r2, [r3, #65]	@ 0x41
  TIM_CHANNEL_N_STATE_SET(htim, Channel, HAL_TIM_CHANNEL_STATE_BUSY);
 8005036:	683b      	ldr	r3, [r7, #0]
 8005038:	2b00      	cmp	r3, #0
 800503a:	d104      	bne.n	8005046 <HAL_TIM_IC_Start_IT+0xda>
 800503c:	687b      	ldr	r3, [r7, #4]
 800503e:	2202      	movs	r2, #2
 8005040:	f883 2042 	strb.w	r2, [r3, #66]	@ 0x42
 8005044:	e013      	b.n	800506e <HAL_TIM_IC_Start_IT+0x102>
 8005046:	683b      	ldr	r3, [r7, #0]
 8005048:	2b04      	cmp	r3, #4
 800504a:	d104      	bne.n	8005056 <HAL_TIM_IC_Start_IT+0xea>
 800504c:	687b      	ldr	r3, [r7, #4]
 800504e:	2202      	movs	r2, #2
 8005050:	f883 2043 	strb.w	r2, [r3, #67]	@ 0x43
 8005054:	e00b      	b.n	800506e <HAL_TIM_IC_Start_IT+0x102>
 8005056:	683b      	ldr	r3, [r7, #0]
 8005058:	2b08      	cmp	r3, #8
 800505a:	d104      	bne.n	8005066 <HAL_TIM_IC_Start_IT+0xfa>
 800505c:	687b      	ldr	r3, [r7, #4]
 800505e:	2202      	movs	r2, #2
 8005060:	f883 2044 	strb.w	r2, [r3, #68]	@ 0x44
 8005064:	e003      	b.n	800506e <HAL_TIM_IC_Start_IT+0x102>
 8005066:	687b      	ldr	r3, [r7, #4]
 8005068:	2202      	movs	r2, #2
 800506a:	f883 2045 	strb.w	r2, [r3, #69]	@ 0x45

  switch (Channel)
 800506e:	683b      	ldr	r3, [r7, #0]
 8005070:	2b0c      	cmp	r3, #12
 8005072:	d841      	bhi.n	80050f8 <HAL_TIM_IC_Start_IT+0x18c>
 8005074:	a201      	add	r2, pc, #4	@ (adr r2, 800507c <HAL_TIM_IC_Start_IT+0x110>)
 8005076:	f852 f023 	ldr.w	pc, [r2, r3, lsl #2]
 800507a:	bf00      	nop
 800507c:	080050b1 	.word	0x080050b1
 8005080:	080050f9 	.word	0x080050f9
 8005084:	080050f9 	.word	0x080050f9
 8005088:	080050f9 	.word	0x080050f9
 800508c:	080050c3 	.word	0x080050c3
 8005090:	080050f9 	.word	0x080050f9
 8005094:	080050f9 	.word	0x080050f9
 8005098:	080050f9 	.word	0x080050f9
 800509c:	080050d5 	.word	0x080050d5
 80050a0:	080050f9 	.word	0x080050f9
 80050a4:	080050f9 	.word	0x080050f9
 80050a8:	080050f9 	.word	0x080050f9
 80050ac:	080050e7 	.word	0x080050e7
  {
    case TIM_CHANNEL_1:
    {
      /* Enable the TIM Capture/Compare 1 interrupt */
      __HAL_TIM_ENABLE_IT(htim, TIM_IT_CC1);
 80050b0:	687b      	ldr	r3, [r7, #4]
 80050b2:	681b      	ldr	r3, [r3, #0]
 80050b4:	68da      	ldr	r2, [r3, #12]
 80050b6:	687b      	ldr	r3, [r7, #4]
 80050b8:	681b      	ldr	r3, [r3, #0]
 80050ba:	f042 0202 	orr.w	r2, r2, #2
 80050be:	60da      	str	r2, [r3, #12]
      break;
 80050c0:	e01d      	b.n	80050fe <HAL_TIM_IC_Start_IT+0x192>
    }

    case TIM_CHANNEL_2:
    {
      /* Enable the TIM Capture/Compare 2 interrupt */
      __HAL_TIM_ENABLE_IT(htim, TIM_IT_CC2);
 80050c2:	687b      	ldr	r3, [r7, #4]
 80050c4:	681b      	ldr	r3, [r3, #0]
 80050c6:	68da      	ldr	r2, [r3, #12]
 80050c8:	687b      	ldr	r3, [r7, #4]
 80050ca:	681b      	ldr	r3, [r3, #0]
 80050cc:	f042 0204 	orr.w	r2, r2, #4
 80050d0:	60da      	str	r2, [r3, #12]
      break;
 80050d2:	e014      	b.n	80050fe <HAL_TIM_IC_Start_IT+0x192>
    }

    case TIM_CHANNEL_3:
    {
      /* Enable the TIM Capture/Compare 3 interrupt */
      __HAL_TIM_ENABLE_IT(htim, TIM_IT_CC3);
 80050d4:	687b      	ldr	r3, [r7, #4]
 80050d6:	681b      	ldr	r3, [r3, #0]
 80050d8:	68da      	ldr	r2, [r3, #12]
 80050da:	687b      	ldr	r3, [r7, #4]
 80050dc:	681b      	ldr	r3, [r3, #0]
 80050de:	f042 0208 	orr.w	r2, r2, #8
 80050e2:	60da      	str	r2, [r3, #12]
      break;
 80050e4:	e00b      	b.n	80050fe <HAL_TIM_IC_Start_IT+0x192>
    }

    case TIM_CHANNEL_4:
    {
      /* Enable the TIM Capture/Compare 4 interrupt */
      __HAL_TIM_ENABLE_IT(htim, TIM_IT_CC4);
 80050e6:	687b      	ldr	r3, [r7, #4]
 80050e8:	681b      	ldr	r3, [r3, #0]
 80050ea:	68da      	ldr	r2, [r3, #12]
 80050ec:	687b      	ldr	r3, [r7, #4]
 80050ee:	681b      	ldr	r3, [r3, #0]
 80050f0:	f042 0210 	orr.w	r2, r2, #16
 80050f4:	60da      	str	r2, [r3, #12]
      break;
 80050f6:	e002      	b.n	80050fe <HAL_TIM_IC_Start_IT+0x192>
    }

    default:
      status = HAL_ERROR;
 80050f8:	2301      	movs	r3, #1
 80050fa:	73fb      	strb	r3, [r7, #15]
      break;
 80050fc:	bf00      	nop
  }

  if (status == HAL_OK)
 80050fe:	7bfb      	ldrb	r3, [r7, #15]
 8005100:	2b00      	cmp	r3, #0
 8005102:	d148      	bne.n	8005196 <HAL_TIM_IC_Start_IT+0x22a>
  {
    /* Enable the Input Capture channel */
    TIM_CCxChannelCmd(htim->Instance, Channel, TIM_CCx_ENABLE);
 8005104:	687b      	ldr	r3, [r7, #4]
 8005106:	681b      	ldr	r3, [r3, #0]
 8005108:	2201      	movs	r2, #1
 800510a:	6839      	ldr	r1, [r7, #0]
 800510c:	4618      	mov	r0, r3
 800510e:	f000 fd85 	bl	8005c1c <TIM_CCxChannelCmd>

    /* Enable the Peripheral, except in trigger mode where enable is automatically done with trigger */
    if (IS_TIM_SLAVE_INSTANCE(htim->Instance))
 8005112:	687b      	ldr	r3, [r7, #4]
 8005114:	681b      	ldr	r3, [r3, #0]
 8005116:	4a22      	ldr	r2, [pc, #136]	@ (80051a0 <HAL_TIM_IC_Start_IT+0x234>)
 8005118:	4293      	cmp	r3, r2
 800511a:	d022      	beq.n	8005162 <HAL_TIM_IC_Start_IT+0x1f6>
 800511c:	687b      	ldr	r3, [r7, #4]
 800511e:	681b      	ldr	r3, [r3, #0]
 8005120:	f1b3 4f80 	cmp.w	r3, #1073741824	@ 0x40000000
 8005124:	d01d      	beq.n	8005162 <HAL_TIM_IC_Start_IT+0x1f6>
 8005126:	687b      	ldr	r3, [r7, #4]
 8005128:	681b      	ldr	r3, [r3, #0]
 800512a:	4a1e      	ldr	r2, [pc, #120]	@ (80051a4 <HAL_TIM_IC_Start_IT+0x238>)
 800512c:	4293      	cmp	r3, r2
 800512e:	d018      	beq.n	8005162 <HAL_TIM_IC_Start_IT+0x1f6>
 8005130:	687b      	ldr	r3, [r7, #4]
 8005132:	681b      	ldr	r3, [r3, #0]
 8005134:	4a1c      	ldr	r2, [pc, #112]	@ (80051a8 <HAL_TIM_IC_Start_IT+0x23c>)
 8005136:	4293      	cmp	r3, r2
 8005138:	d013      	beq.n	8005162 <HAL_TIM_IC_Start_IT+0x1f6>
 800513a:	687b      	ldr	r3, [r7, #4]
 800513c:	681b      	ldr	r3, [r3, #0]
 800513e:	4a1b      	ldr	r2, [pc, #108]	@ (80051ac <HAL_TIM_IC_Start_IT+0x240>)
 8005140:	4293      	cmp	r3, r2
 8005142:	d00e      	beq.n	8005162 <HAL_TIM_IC_Start_IT+0x1f6>
 8005144:	687b      	ldr	r3, [r7, #4]
 8005146:	681b      	ldr	r3, [r3, #0]
 8005148:	4a19      	ldr	r2, [pc, #100]	@ (80051b0 <HAL_TIM_IC_Start_IT+0x244>)
 800514a:	4293      	cmp	r3, r2
 800514c:	d009      	beq.n	8005162 <HAL_TIM_IC_Start_IT+0x1f6>
 800514e:	687b      	ldr	r3, [r7, #4]
 8005150:	681b      	ldr	r3, [r3, #0]
 8005152:	4a18      	ldr	r2, [pc, #96]	@ (80051b4 <HAL_TIM_IC_Start_IT+0x248>)
 8005154:	4293      	cmp	r3, r2
 8005156:	d004      	beq.n	8005162 <HAL_TIM_IC_Start_IT+0x1f6>
 8005158:	687b      	ldr	r3, [r7, #4]
 800515a:	681b      	ldr	r3, [r3, #0]
 800515c:	4a16      	ldr	r2, [pc, #88]	@ (80051b8 <HAL_TIM_IC_Start_IT+0x24c>)
 800515e:	4293      	cmp	r3, r2
 8005160:	d111      	bne.n	8005186 <HAL_TIM_IC_Start_IT+0x21a>
    {
      tmpsmcr = htim->Instance->SMCR & TIM_SMCR_SMS;
 8005162:	687b      	ldr	r3, [r7, #4]
 8005164:	681b      	ldr	r3, [r3, #0]
 8005166:	689b      	ldr	r3, [r3, #8]
 8005168:	f003 0307 	and.w	r3, r3, #7
 800516c:	60bb      	str	r3, [r7, #8]
      if (!IS_TIM_SLAVEMODE_TRIGGER_ENABLED(tmpsmcr))
 800516e:	68bb      	ldr	r3, [r7, #8]
 8005170:	2b06      	cmp	r3, #6
 8005172:	d010      	beq.n	8005196 <HAL_TIM_IC_Start_IT+0x22a>
      {
        __HAL_TIM_ENABLE(htim);
 8005174:	687b      	ldr	r3, [r7, #4]
 8005176:	681b      	ldr	r3, [r3, #0]
 8005178:	681a      	ldr	r2, [r3, #0]
 800517a:	687b      	ldr	r3, [r7, #4]
 800517c:	681b      	ldr	r3, [r3, #0]
 800517e:	f042 0201 	orr.w	r2, r2, #1
 8005182:	601a      	str	r2, [r3, #0]
      if (!IS_TIM_SLAVEMODE_TRIGGER_ENABLED(tmpsmcr))
 8005184:	e007      	b.n	8005196 <HAL_TIM_IC_Start_IT+0x22a>
      }
    }
    else
    {
      __HAL_TIM_ENABLE(htim);
 8005186:	687b      	ldr	r3, [r7, #4]
 8005188:	681b      	ldr	r3, [r3, #0]
 800518a:	681a      	ldr	r2, [r3, #0]
 800518c:	687b      	ldr	r3, [r7, #4]
 800518e:	681b      	ldr	r3, [r3, #0]
 8005190:	f042 0201 	orr.w	r2, r2, #1
 8005194:	601a      	str	r2, [r3, #0]
    }
  }

  /* Return function status */
  return status;
 8005196:	7bfb      	ldrb	r3, [r7, #15]
}
 8005198:	4618      	mov	r0, r3
 800519a:	3710      	adds	r7, #16
 800519c:	46bd      	mov	sp, r7
 800519e:	bd80      	pop	{r7, pc}
 80051a0:	40010000 	.word	0x40010000
 80051a4:	40000400 	.word	0x40000400
 80051a8:	40000800 	.word	0x40000800
 80051ac:	40000c00 	.word	0x40000c00
 80051b0:	40010400 	.word	0x40010400
 80051b4:	40014000 	.word	0x40014000
 80051b8:	40001800 	.word	0x40001800

080051bc <HAL_TIM_IRQHandler>:
  * @brief  This function handles TIM interrupts requests.
  * @param  htim TIM  handle
  * @retval None
  */
void HAL_TIM_IRQHandler(TIM_HandleTypeDef *htim)
{
 80051bc:	b580      	push	{r7, lr}
 80051be:	b084      	sub	sp, #16
 80051c0:	af00      	add	r7, sp, #0
 80051c2:	6078      	str	r0, [r7, #4]
  uint32_t itsource = htim->Instance->DIER;
 80051c4:	687b      	ldr	r3, [r7, #4]
 80051c6:	681b      	ldr	r3, [r3, #0]
 80051c8:	68db      	ldr	r3, [r3, #12]
 80051ca:	60fb      	str	r3, [r7, #12]
  uint32_t itflag   = htim->Instance->SR;
 80051cc:	687b      	ldr	r3, [r7, #4]
 80051ce:	681b      	ldr	r3, [r3, #0]
 80051d0:	691b      	ldr	r3, [r3, #16]
 80051d2:	60bb      	str	r3, [r7, #8]

  /* Capture compare 1 event */
  if ((itflag & (TIM_FLAG_CC1)) == (TIM_FLAG_CC1))
 80051d4:	68bb      	ldr	r3, [r7, #8]
 80051d6:	f003 0302 	and.w	r3, r3, #2
 80051da:	2b00      	cmp	r3, #0
 80051dc:	d020      	beq.n	8005220 <HAL_TIM_IRQHandler+0x64>
  {
    if ((itsource & (TIM_IT_CC1)) == (TIM_IT_CC1))
 80051de:	68fb      	ldr	r3, [r7, #12]
 80051e0:	f003 0302 	and.w	r3, r3, #2
 80051e4:	2b00      	cmp	r3, #0
 80051e6:	d01b      	beq.n	8005220 <HAL_TIM_IRQHandler+0x64>
    {
      {
        __HAL_TIM_CLEAR_FLAG(htim, TIM_FLAG_CC1);
 80051e8:	687b      	ldr	r3, [r7, #4]
 80051ea:	681b      	ldr	r3, [r3, #0]
 80051ec:	f06f 0202 	mvn.w	r2, #2
 80051f0:	611a      	str	r2, [r3, #16]
        htim->Channel = HAL_TIM_ACTIVE_CHANNEL_1;
 80051f2:	687b      	ldr	r3, [r7, #4]
 80051f4:	2201      	movs	r2, #1
 80051f6:	771a      	strb	r2, [r3, #28]

        /* Input capture event */
        if ((htim->Instance->CCMR1 & TIM_CCMR1_CC1S) != 0x00U)
 80051f8:	687b      	ldr	r3, [r7, #4]
 80051fa:	681b      	ldr	r3, [r3, #0]
 80051fc:	699b      	ldr	r3, [r3, #24]
 80051fe:	f003 0303 	and.w	r3, r3, #3
 8005202:	2b00      	cmp	r3, #0
 8005204:	d003      	beq.n	800520e <HAL_TIM_IRQHandler+0x52>
        {
#if (USE_HAL_TIM_REGISTER_CALLBACKS == 1)
          htim->IC_CaptureCallback(htim);
#else
          HAL_TIM_IC_CaptureCallback(htim);
 8005206:	6878      	ldr	r0, [r7, #4]
 8005208:	f7fc ffa2 	bl	8002150 <HAL_TIM_IC_CaptureCallback>
 800520c:	e005      	b.n	800521a <HAL_TIM_IRQHandler+0x5e>
        {
#if (USE_HAL_TIM_REGISTER_CALLBACKS == 1)
          htim->OC_DelayElapsedCallback(htim);
          htim->PWM_PulseFinishedCallback(htim);
#else
          HAL_TIM_OC_DelayElapsedCallback(htim);
 800520e:	6878      	ldr	r0, [r7, #4]
 8005210:	f000 fa76 	bl	8005700 <HAL_TIM_OC_DelayElapsedCallback>
          HAL_TIM_PWM_PulseFinishedCallback(htim);
 8005214:	6878      	ldr	r0, [r7, #4]
 8005216:	f000 fa7d 	bl	8005714 <HAL_TIM_PWM_PulseFinishedCallback>
#endif /* USE_HAL_TIM_REGISTER_CALLBACKS */
        }
        htim->Channel = HAL_TIM_ACTIVE_CHANNEL_CLEARED;
 800521a:	687b      	ldr	r3, [r7, #4]
 800521c:	2200      	movs	r2, #0
 800521e:	771a      	strb	r2, [r3, #28]
      }
    }
  }
  /* Capture compare 2 event */
  if ((itflag & (TIM_FLAG_CC2)) == (TIM_FLAG_CC2))
 8005220:	68bb      	ldr	r3, [r7, #8]
 8005222:	f003 0304 	and.w	r3, r3, #4
 8005226:	2b00      	cmp	r3, #0
 8005228:	d020      	beq.n	800526c <HAL_TIM_IRQHandler+0xb0>
  {
    if ((itsource & (TIM_IT_CC2)) == (TIM_IT_CC2))
 800522a:	68fb      	ldr	r3, [r7, #12]
 800522c:	f003 0304 	and.w	r3, r3, #4
 8005230:	2b00      	cmp	r3, #0
 8005232:	d01b      	beq.n	800526c <HAL_TIM_IRQHandler+0xb0>
    {
      __HAL_TIM_CLEAR_FLAG(htim, TIM_FLAG_CC2);
 8005234:	687b      	ldr	r3, [r7, #4]
 8005236:	681b      	ldr	r3, [r3, #0]
 8005238:	f06f 0204 	mvn.w	r2, #4
 800523c:	611a      	str	r2, [r3, #16]
      htim->Channel = HAL_TIM_ACTIVE_CHANNEL_2;
 800523e:	687b      	ldr	r3, [r7, #4]
 8005240:	2202      	movs	r2, #2
 8005242:	771a      	strb	r2, [r3, #28]
      /* Input capture event */
      if ((htim->Instance->CCMR1 & TIM_CCMR1_CC2S) != 0x00U)
 8005244:	687b      	ldr	r3, [r7, #4]
 8005246:	681b      	ldr	r3, [r3, #0]
 8005248:	699b      	ldr	r3, [r3, #24]
 800524a:	f403 7340 	and.w	r3, r3, #768	@ 0x300
 800524e:	2b00      	cmp	r3, #0
 8005250:	d003      	beq.n	800525a <HAL_TIM_IRQHandler+0x9e>
      {
#if (USE_HAL_TIM_REGISTER_CALLBACKS == 1)
        htim->IC_CaptureCallback(htim);
#else
        HAL_TIM_IC_CaptureCallback(htim);
 8005252:	6878      	ldr	r0, [r7, #4]
 8005254:	f7fc ff7c 	bl	8002150 <HAL_TIM_IC_CaptureCallback>
 8005258:	e005      	b.n	8005266 <HAL_TIM_IRQHandler+0xaa>
      {
#if (USE_HAL_TIM_REGISTER_CALLBACKS == 1)
        htim->OC_DelayElapsedCallback(htim);
        htim->PWM_PulseFinishedCallback(htim);
#else
        HAL_TIM_OC_DelayElapsedCallback(htim);
 800525a:	6878      	ldr	r0, [r7, #4]
 800525c:	f000 fa50 	bl	8005700 <HAL_TIM_OC_DelayElapsedCallback>
        HAL_TIM_PWM_PulseFinishedCallback(htim);
 8005260:	6878      	ldr	r0, [r7, #4]
 8005262:	f000 fa57 	bl	8005714 <HAL_TIM_PWM_PulseFinishedCallback>
#endif /* USE_HAL_TIM_REGISTER_CALLBACKS */
      }
      htim->Channel = HAL_TIM_ACTIVE_CHANNEL_CLEARED;
 8005266:	687b      	ldr	r3, [r7, #4]
 8005268:	2200      	movs	r2, #0
 800526a:	771a      	strb	r2, [r3, #28]
    }
  }
  /* Capture compare 3 event */
  if ((itflag & (TIM_FLAG_CC3)) == (TIM_FLAG_CC3))
 800526c:	68bb      	ldr	r3, [r7, #8]
 800526e:	f003 0308 	and.w	r3, r3, #8
 8005272:	2b00      	cmp	r3, #0
 8005274:	d020      	beq.n	80052b8 <HAL_TIM_IRQHandler+0xfc>
  {
    if ((itsource & (TIM_IT_CC3)) == (TIM_IT_CC3))
 8005276:	68fb      	ldr	r3, [r7, #12]
 8005278:	f003 0308 	and.w	r3, r3, #8
 800527c:	2b00      	cmp	r3, #0
 800527e:	d01b      	beq.n	80052b8 <HAL_TIM_IRQHandler+0xfc>
    {
      __HAL_TIM_CLEAR_FLAG(htim, TIM_FLAG_CC3);
 8005280:	687b      	ldr	r3, [r7, #4]
 8005282:	681b      	ldr	r3, [r3, #0]
 8005284:	f06f 0208 	mvn.w	r2, #8
 8005288:	611a      	str	r2, [r3, #16]
      htim->Channel = HAL_TIM_ACTIVE_CHANNEL_3;
 800528a:	687b      	ldr	r3, [r7, #4]
 800528c:	2204      	movs	r2, #4
 800528e:	771a      	strb	r2, [r3, #28]
      /* Input capture event */
      if ((htim->Instance->CCMR2 & TIM_CCMR2_CC3S) != 0x00U)
 8005290:	687b      	ldr	r3, [r7, #4]
 8005292:	681b      	ldr	r3, [r3, #0]
 8005294:	69db      	ldr	r3, [r3, #28]
 8005296:	f003 0303 	and.w	r3, r3, #3
 800529a:	2b00      	cmp	r3, #0
 800529c:	d003      	beq.n	80052a6 <HAL_TIM_IRQHandler+0xea>
      {
#if (USE_HAL_TIM_REGISTER_CALLBACKS == 1)
        htim->IC_CaptureCallback(htim);
#else
        HAL_TIM_IC_CaptureCallback(htim);
 800529e:	6878      	ldr	r0, [r7, #4]
 80052a0:	f7fc ff56 	bl	8002150 <HAL_TIM_IC_CaptureCallback>
 80052a4:	e005      	b.n	80052b2 <HAL_TIM_IRQHandler+0xf6>
      {
#if (USE_HAL_TIM_REGISTER_CALLBACKS == 1)
        htim->OC_DelayElapsedCallback(htim);
        htim->PWM_PulseFinishedCallback(htim);
#else
        HAL_TIM_OC_DelayElapsedCallback(htim);
 80052a6:	6878      	ldr	r0, [r7, #4]
 80052a8:	f000 fa2a 	bl	8005700 <HAL_TIM_OC_DelayElapsedCallback>
        HAL_TIM_PWM_PulseFinishedCallback(htim);
 80052ac:	6878      	ldr	r0, [r7, #4]
 80052ae:	f000 fa31 	bl	8005714 <HAL_TIM_PWM_PulseFinishedCallback>
#endif /* USE_HAL_TIM_REGISTER_CALLBACKS */
      }
      htim->Channel = HAL_TIM_ACTIVE_CHANNEL_CLEARED;
 80052b2:	687b      	ldr	r3, [r7, #4]
 80052b4:	2200      	movs	r2, #0
 80052b6:	771a      	strb	r2, [r3, #28]
    }
  }
  /* Capture compare 4 event */
  if ((itflag & (TIM_FLAG_CC4)) == (TIM_FLAG_CC4))
 80052b8:	68bb      	ldr	r3, [r7, #8]
 80052ba:	f003 0310 	and.w	r3, r3, #16
 80052be:	2b00      	cmp	r3, #0
 80052c0:	d020      	beq.n	8005304 <HAL_TIM_IRQHandler+0x148>
  {
    if ((itsource & (TIM_IT_CC4)) == (TIM_IT_CC4))
 80052c2:	68fb      	ldr	r3, [r7, #12]
 80052c4:	f003 0310 	and.w	r3, r3, #16
 80052c8:	2b00      	cmp	r3, #0
 80052ca:	d01b      	beq.n	8005304 <HAL_TIM_IRQHandler+0x148>
    {
      __HAL_TIM_CLEAR_FLAG(htim, TIM_FLAG_CC4);
 80052cc:	687b      	ldr	r3, [r7, #4]
 80052ce:	681b      	ldr	r3, [r3, #0]
 80052d0:	f06f 0210 	mvn.w	r2, #16
 80052d4:	611a      	str	r2, [r3, #16]
      htim->Channel = HAL_TIM_ACTIVE_CHANNEL_4;
 80052d6:	687b      	ldr	r3, [r7, #4]
 80052d8:	2208      	movs	r2, #8
 80052da:	771a      	strb	r2, [r3, #28]
      /* Input capture event */
      if ((htim->Instance->CCMR2 & TIM_CCMR2_CC4S) != 0x00U)
 80052dc:	687b      	ldr	r3, [r7, #4]
 80052de:	681b      	ldr	r3, [r3, #0]
 80052e0:	69db      	ldr	r3, [r3, #28]
 80052e2:	f403 7340 	and.w	r3, r3, #768	@ 0x300
 80052e6:	2b00      	cmp	r3, #0
 80052e8:	d003      	beq.n	80052f2 <HAL_TIM_IRQHandler+0x136>
      {
#if (USE_HAL_TIM_REGISTER_CALLBACKS == 1)
        htim->IC_CaptureCallback(htim);
#else
        HAL_TIM_IC_CaptureCallback(htim);
 80052ea:	6878      	ldr	r0, [r7, #4]
 80052ec:	f7fc ff30 	bl	8002150 <HAL_TIM_IC_CaptureCallback>
 80052f0:	e005      	b.n	80052fe <HAL_TIM_IRQHandler+0x142>
      {
#if (USE_HAL_TIM_REGISTER_CALLBACKS == 1)
        htim->OC_DelayElapsedCallback(htim);
        htim->PWM_PulseFinishedCallback(htim);
#else
        HAL_TIM_OC_DelayElapsedCallback(htim);
 80052f2:	6878      	ldr	r0, [r7, #4]
 80052f4:	f000 fa04 	bl	8005700 <HAL_TIM_OC_DelayElapsedCallback>
        HAL_TIM_PWM_PulseFinishedCallback(htim);
 80052f8:	6878      	ldr	r0, [r7, #4]
 80052fa:	f000 fa0b 	bl	8005714 <HAL_TIM_PWM_PulseFinishedCallback>
#endif /* USE_HAL_TIM_REGISTER_CALLBACKS */
      }
      htim->Channel = HAL_TIM_ACTIVE_CHANNEL_CLEARED;
 80052fe:	687b      	ldr	r3, [r7, #4]
 8005300:	2200      	movs	r2, #0
 8005302:	771a      	strb	r2, [r3, #28]
    }
  }
  /* TIM Update event */
  if ((itflag & (TIM_FLAG_UPDATE)) == (TIM_FLAG_UPDATE))
 8005304:	68bb      	ldr	r3, [r7, #8]
 8005306:	f003 0301 	and.w	r3, r3, #1
 800530a:	2b00      	cmp	r3, #0
 800530c:	d00c      	beq.n	8005328 <HAL_TIM_IRQHandler+0x16c>
  {
    if ((itsource & (TIM_IT_UPDATE)) == (TIM_IT_UPDATE))
 800530e:	68fb      	ldr	r3, [r7, #12]
 8005310:	f003 0301 	and.w	r3, r3, #1
 8005314:	2b00      	cmp	r3, #0
 8005316:	d007      	beq.n	8005328 <HAL_TIM_IRQHandler+0x16c>
    {
      __HAL_TIM_CLEAR_FLAG(htim, TIM_FLAG_UPDATE);
 8005318:	687b      	ldr	r3, [r7, #4]
 800531a:	681b      	ldr	r3, [r3, #0]
 800531c:	f06f 0201 	mvn.w	r2, #1
 8005320:	611a      	str	r2, [r3, #16]
#if (USE_HAL_TIM_REGISTER_CALLBACKS == 1)
      htim->PeriodElapsedCallback(htim);
#else
      HAL_TIM_PeriodElapsedCallback(htim);
 8005322:	6878      	ldr	r0, [r7, #4]
 8005324:	f000 f9e2 	bl	80056ec <HAL_TIM_PeriodElapsedCallback>
#endif /* USE_HAL_TIM_REGISTER_CALLBACKS */
    }
  }
  /* TIM Break input event */
  if ((itflag & (TIM_FLAG_BREAK)) == (TIM_FLAG_BREAK))
 8005328:	68bb      	ldr	r3, [r7, #8]
 800532a:	f003 0380 	and.w	r3, r3, #128	@ 0x80
 800532e:	2b00      	cmp	r3, #0
 8005330:	d00c      	beq.n	800534c <HAL_TIM_IRQHandler+0x190>
  {
    if ((itsource & (TIM_IT_BREAK)) == (TIM_IT_BREAK))
 8005332:	68fb      	ldr	r3, [r7, #12]
 8005334:	f003 0380 	and.w	r3, r3, #128	@ 0x80
 8005338:	2b00      	cmp	r3, #0
 800533a:	d007      	beq.n	800534c <HAL_TIM_IRQHandler+0x190>
    {
      __HAL_TIM_CLEAR_FLAG(htim, TIM_FLAG_BREAK);
 800533c:	687b      	ldr	r3, [r7, #4]
 800533e:	681b      	ldr	r3, [r3, #0]
 8005340:	f06f 0280 	mvn.w	r2, #128	@ 0x80
 8005344:	611a      	str	r2, [r3, #16]
#if (USE_HAL_TIM_REGISTER_CALLBACKS == 1)
      htim->BreakCallback(htim);
#else
      HAL_TIMEx_BreakCallback(htim);
 8005346:	6878      	ldr	r0, [r7, #4]
 8005348:	f000 fd14 	bl	8005d74 <HAL_TIMEx_BreakCallback>
#endif /* USE_HAL_TIM_REGISTER_CALLBACKS */
    }
  }
  /* TIM Trigger detection event */
  if ((itflag & (TIM_FLAG_TRIGGER)) == (TIM_FLAG_TRIGGER))
 800534c:	68bb      	ldr	r3, [r7, #8]
 800534e:	f003 0340 	and.w	r3, r3, #64	@ 0x40
 8005352:	2b00      	cmp	r3, #0
 8005354:	d00c      	beq.n	8005370 <HAL_TIM_IRQHandler+0x1b4>
  {
    if ((itsource & (TIM_IT_TRIGGER)) == (TIM_IT_TRIGGER))
 8005356:	68fb      	ldr	r3, [r7, #12]
 8005358:	f003 0340 	and.w	r3, r3, #64	@ 0x40
 800535c:	2b00      	cmp	r3, #0
 800535e:	d007      	beq.n	8005370 <HAL_TIM_IRQHandler+0x1b4>
    {
      __HAL_TIM_CLEAR_FLAG(htim, TIM_FLAG_TRIGGER);
 8005360:	687b      	ldr	r3, [r7, #4]
 8005362:	681b      	ldr	r3, [r3, #0]
 8005364:	f06f 0240 	mvn.w	r2, #64	@ 0x40
 8005368:	611a      	str	r2, [r3, #16]
#if (USE_HAL_TIM_REGISTER_CALLBACKS == 1)
      htim->TriggerCallback(htim);
#else
      HAL_TIM_TriggerCallback(htim);
 800536a:	6878      	ldr	r0, [r7, #4]
 800536c:	f000 f9dc 	bl	8005728 <HAL_TIM_TriggerCallback>
#endif /* USE_HAL_TIM_REGISTER_CALLBACKS */
    }
  }
  /* TIM commutation event */
  if ((itflag & (TIM_FLAG_COM)) == (TIM_FLAG_COM))
 8005370:	68bb      	ldr	r3, [r7, #8]
 8005372:	f003 0320 	and.w	r3, r3, #32
 8005376:	2b00      	cmp	r3, #0
 8005378:	d00c      	beq.n	8005394 <HAL_TIM_IRQHandler+0x1d8>
  {
    if ((itsource & (TIM_IT_COM)) == (TIM_IT_COM))
 800537a:	68fb      	ldr	r3, [r7, #12]
 800537c:	f003 0320 	and.w	r3, r3, #32
 8005380:	2b00      	cmp	r3, #0
 8005382:	d007      	beq.n	8005394 <HAL_TIM_IRQHandler+0x1d8>
    {
      __HAL_TIM_CLEAR_FLAG(htim, TIM_FLAG_COM);
 8005384:	687b      	ldr	r3, [r7, #4]
 8005386:	681b      	ldr	r3, [r3, #0]
 8005388:	f06f 0220 	mvn.w	r2, #32
 800538c:	611a      	str	r2, [r3, #16]
#if (USE_HAL_TIM_REGISTER_CALLBACKS == 1)
      htim->CommutationCallback(htim);
#else
      HAL_TIMEx_CommutCallback(htim);
 800538e:	6878      	ldr	r0, [r7, #4]
 8005390:	f000 fce6 	bl	8005d60 <HAL_TIMEx_CommutCallback>
#endif /* USE_HAL_TIM_REGISTER_CALLBACKS */
    }
  }
}
 8005394:	bf00      	nop
 8005396:	3710      	adds	r7, #16
 8005398:	46bd      	mov	sp, r7
 800539a:	bd80      	pop	{r7, pc}

0800539c <HAL_TIM_IC_ConfigChannel>:
  *            @arg TIM_CHANNEL_3: TIM Channel 3 selected
  *            @arg TIM_CHANNEL_4: TIM Channel 4 selected
  * @retval HAL status
  */
HAL_StatusTypeDef HAL_TIM_IC_ConfigChannel(TIM_HandleTypeDef *htim, const TIM_IC_InitTypeDef *sConfig, uint32_t Channel)
{
 800539c:	b580      	push	{r7, lr}
 800539e:	b086      	sub	sp, #24
 80053a0:	af00      	add	r7, sp, #0
 80053a2:	60f8      	str	r0, [r7, #12]
 80053a4:	60b9      	str	r1, [r7, #8]
 80053a6:	607a      	str	r2, [r7, #4]
  HAL_StatusTypeDef status = HAL_OK;
 80053a8:	2300      	movs	r3, #0
 80053aa:	75fb      	strb	r3, [r7, #23]
  assert_param(IS_TIM_IC_SELECTION(sConfig->ICSelection));
  assert_param(IS_TIM_IC_PRESCALER(sConfig->ICPrescaler));
  assert_param(IS_TIM_IC_FILTER(sConfig->ICFilter));

  /* Process Locked */
  __HAL_LOCK(htim);
 80053ac:	68fb      	ldr	r3, [r7, #12]
 80053ae:	f893 303c 	ldrb.w	r3, [r3, #60]	@ 0x3c
 80053b2:	2b01      	cmp	r3, #1
 80053b4:	d101      	bne.n	80053ba <HAL_TIM_IC_ConfigChannel+0x1e>
 80053b6:	2302      	movs	r3, #2
 80053b8:	e088      	b.n	80054cc <HAL_TIM_IC_ConfigChannel+0x130>
 80053ba:	68fb      	ldr	r3, [r7, #12]
 80053bc:	2201      	movs	r2, #1
 80053be:	f883 203c 	strb.w	r2, [r3, #60]	@ 0x3c

  if (Channel == TIM_CHANNEL_1)
 80053c2:	687b      	ldr	r3, [r7, #4]
 80053c4:	2b00      	cmp	r3, #0
 80053c6:	d11b      	bne.n	8005400 <HAL_TIM_IC_ConfigChannel+0x64>
  {
    /* TI1 Configuration */
    TIM_TI1_SetConfig(htim->Instance,
 80053c8:	68fb      	ldr	r3, [r7, #12]
 80053ca:	6818      	ldr	r0, [r3, #0]
                      sConfig->ICPolarity,
 80053cc:	68bb      	ldr	r3, [r7, #8]
 80053ce:	6819      	ldr	r1, [r3, #0]
                      sConfig->ICSelection,
 80053d0:	68bb      	ldr	r3, [r7, #8]
 80053d2:	685a      	ldr	r2, [r3, #4]
                      sConfig->ICFilter);
 80053d4:	68bb      	ldr	r3, [r7, #8]
 80053d6:	68db      	ldr	r3, [r3, #12]
    TIM_TI1_SetConfig(htim->Instance,
 80053d8:	f000 fa5c 	bl	8005894 <TIM_TI1_SetConfig>

    /* Reset the IC1PSC Bits */
    htim->Instance->CCMR1 &= ~TIM_CCMR1_IC1PSC;
 80053dc:	68fb      	ldr	r3, [r7, #12]
 80053de:	681b      	ldr	r3, [r3, #0]
 80053e0:	699a      	ldr	r2, [r3, #24]
 80053e2:	68fb      	ldr	r3, [r7, #12]
 80053e4:	681b      	ldr	r3, [r3, #0]
 80053e6:	f022 020c 	bic.w	r2, r2, #12
 80053ea:	619a      	str	r2, [r3, #24]

    /* Set the IC1PSC value */
    htim->Instance->CCMR1 |= sConfig->ICPrescaler;
 80053ec:	68fb      	ldr	r3, [r7, #12]
 80053ee:	681b      	ldr	r3, [r3, #0]
 80053f0:	6999      	ldr	r1, [r3, #24]
 80053f2:	68bb      	ldr	r3, [r7, #8]
 80053f4:	689a      	ldr	r2, [r3, #8]
 80053f6:	68fb      	ldr	r3, [r7, #12]
 80053f8:	681b      	ldr	r3, [r3, #0]
 80053fa:	430a      	orrs	r2, r1
 80053fc:	619a      	str	r2, [r3, #24]
 80053fe:	e060      	b.n	80054c2 <HAL_TIM_IC_ConfigChannel+0x126>
  }
  else if (Channel == TIM_CHANNEL_2)
 8005400:	687b      	ldr	r3, [r7, #4]
 8005402:	2b04      	cmp	r3, #4
 8005404:	d11c      	bne.n	8005440 <HAL_TIM_IC_ConfigChannel+0xa4>
  {
    /* TI2 Configuration */
    assert_param(IS_TIM_CC2_INSTANCE(htim->Instance));

    TIM_TI2_SetConfig(htim->Instance,
 8005406:	68fb      	ldr	r3, [r7, #12]
 8005408:	6818      	ldr	r0, [r3, #0]
                      sConfig->ICPolarity,
 800540a:	68bb      	ldr	r3, [r7, #8]
 800540c:	6819      	ldr	r1, [r3, #0]
                      sConfig->ICSelection,
 800540e:	68bb      	ldr	r3, [r7, #8]
 8005410:	685a      	ldr	r2, [r3, #4]
                      sConfig->ICFilter);
 8005412:	68bb      	ldr	r3, [r7, #8]
 8005414:	68db      	ldr	r3, [r3, #12]
    TIM_TI2_SetConfig(htim->Instance,
 8005416:	f000 fae0 	bl	80059da <TIM_TI2_SetConfig>

    /* Reset the IC2PSC Bits */
    htim->Instance->CCMR1 &= ~TIM_CCMR1_IC2PSC;
 800541a:	68fb      	ldr	r3, [r7, #12]
 800541c:	681b      	ldr	r3, [r3, #0]
 800541e:	699a      	ldr	r2, [r3, #24]
 8005420:	68fb      	ldr	r3, [r7, #12]
 8005422:	681b      	ldr	r3, [r3, #0]
 8005424:	f422 6240 	bic.w	r2, r2, #3072	@ 0xc00
 8005428:	619a      	str	r2, [r3, #24]

    /* Set the IC2PSC value */
    htim->Instance->CCMR1 |= (sConfig->ICPrescaler << 8U);
 800542a:	68fb      	ldr	r3, [r7, #12]
 800542c:	681b      	ldr	r3, [r3, #0]
 800542e:	6999      	ldr	r1, [r3, #24]
 8005430:	68bb      	ldr	r3, [r7, #8]
 8005432:	689b      	ldr	r3, [r3, #8]
 8005434:	021a      	lsls	r2, r3, #8
 8005436:	68fb      	ldr	r3, [r7, #12]
 8005438:	681b      	ldr	r3, [r3, #0]
 800543a:	430a      	orrs	r2, r1
 800543c:	619a      	str	r2, [r3, #24]
 800543e:	e040      	b.n	80054c2 <HAL_TIM_IC_ConfigChannel+0x126>
  }
  else if (Channel == TIM_CHANNEL_3)
 8005440:	687b      	ldr	r3, [r7, #4]
 8005442:	2b08      	cmp	r3, #8
 8005444:	d11b      	bne.n	800547e <HAL_TIM_IC_ConfigChannel+0xe2>
  {
    /* TI3 Configuration */
    assert_param(IS_TIM_CC3_INSTANCE(htim->Instance));

    TIM_TI3_SetConfig(htim->Instance,
 8005446:	68fb      	ldr	r3, [r7, #12]
 8005448:	6818      	ldr	r0, [r3, #0]
                      sConfig->ICPolarity,
 800544a:	68bb      	ldr	r3, [r7, #8]
 800544c:	6819      	ldr	r1, [r3, #0]
                      sConfig->ICSelection,
 800544e:	68bb      	ldr	r3, [r7, #8]
 8005450:	685a      	ldr	r2, [r3, #4]
                      sConfig->ICFilter);
 8005452:	68bb      	ldr	r3, [r7, #8]
 8005454:	68db      	ldr	r3, [r3, #12]
    TIM_TI3_SetConfig(htim->Instance,
 8005456:	f000 fb2d 	bl	8005ab4 <TIM_TI3_SetConfig>

    /* Reset the IC3PSC Bits */
    htim->Instance->CCMR2 &= ~TIM_CCMR2_IC3PSC;
 800545a:	68fb      	ldr	r3, [r7, #12]
 800545c:	681b      	ldr	r3, [r3, #0]
 800545e:	69da      	ldr	r2, [r3, #28]
 8005460:	68fb      	ldr	r3, [r7, #12]
 8005462:	681b      	ldr	r3, [r3, #0]
 8005464:	f022 020c 	bic.w	r2, r2, #12
 8005468:	61da      	str	r2, [r3, #28]

    /* Set the IC3PSC value */
    htim->Instance->CCMR2 |= sConfig->ICPrescaler;
 800546a:	68fb      	ldr	r3, [r7, #12]
 800546c:	681b      	ldr	r3, [r3, #0]
 800546e:	69d9      	ldr	r1, [r3, #28]
 8005470:	68bb      	ldr	r3, [r7, #8]
 8005472:	689a      	ldr	r2, [r3, #8]
 8005474:	68fb      	ldr	r3, [r7, #12]
 8005476:	681b      	ldr	r3, [r3, #0]
 8005478:	430a      	orrs	r2, r1
 800547a:	61da      	str	r2, [r3, #28]
 800547c:	e021      	b.n	80054c2 <HAL_TIM_IC_ConfigChannel+0x126>
  }
  else if (Channel == TIM_CHANNEL_4)
 800547e:	687b      	ldr	r3, [r7, #4]
 8005480:	2b0c      	cmp	r3, #12
 8005482:	d11c      	bne.n	80054be <HAL_TIM_IC_ConfigChannel+0x122>
  {
    /* TI4 Configuration */
    assert_param(IS_TIM_CC4_INSTANCE(htim->Instance));

    TIM_TI4_SetConfig(htim->Instance,
 8005484:	68fb      	ldr	r3, [r7, #12]
 8005486:	6818      	ldr	r0, [r3, #0]
                      sConfig->ICPolarity,
 8005488:	68bb      	ldr	r3, [r7, #8]
 800548a:	6819      	ldr	r1, [r3, #0]
                      sConfig->ICSelection,
 800548c:	68bb      	ldr	r3, [r7, #8]
 800548e:	685a      	ldr	r2, [r3, #4]
                      sConfig->ICFilter);
 8005490:	68bb      	ldr	r3, [r7, #8]
 8005492:	68db      	ldr	r3, [r3, #12]
    TIM_TI4_SetConfig(htim->Instance,
 8005494:	f000 fb4a 	bl	8005b2c <TIM_TI4_SetConfig>

    /* Reset the IC4PSC Bits */
    htim->Instance->CCMR2 &= ~TIM_CCMR2_IC4PSC;
 8005498:	68fb      	ldr	r3, [r7, #12]
 800549a:	681b      	ldr	r3, [r3, #0]
 800549c:	69da      	ldr	r2, [r3, #28]
 800549e:	68fb      	ldr	r3, [r7, #12]
 80054a0:	681b      	ldr	r3, [r3, #0]
 80054a2:	f422 6240 	bic.w	r2, r2, #3072	@ 0xc00
 80054a6:	61da      	str	r2, [r3, #28]

    /* Set the IC4PSC value */
    htim->Instance->CCMR2 |= (sConfig->ICPrescaler << 8U);
 80054a8:	68fb      	ldr	r3, [r7, #12]
 80054aa:	681b      	ldr	r3, [r3, #0]
 80054ac:	69d9      	ldr	r1, [r3, #28]
 80054ae:	68bb      	ldr	r3, [r7, #8]
 80054b0:	689b      	ldr	r3, [r3, #8]
 80054b2:	021a      	lsls	r2, r3, #8
 80054b4:	68fb      	ldr	r3, [r7, #12]
 80054b6:	681b      	ldr	r3, [r3, #0]
 80054b8:	430a      	orrs	r2, r1
 80054ba:	61da      	str	r2, [r3, #28]
 80054bc:	e001      	b.n	80054c2 <HAL_TIM_IC_ConfigChannel+0x126>
  }
  else
  {
    status = HAL_ERROR;
 80054be:	2301      	movs	r3, #1
 80054c0:	75fb      	strb	r3, [r7, #23]
  }

  __HAL_UNLOCK(htim);
 80054c2:	68fb      	ldr	r3, [r7, #12]
 80054c4:	2200      	movs	r2, #0
 80054c6:	f883 203c 	strb.w	r2, [r3, #60]	@ 0x3c

  return status;
 80054ca:	7dfb      	ldrb	r3, [r7, #23]
}
 80054cc:	4618      	mov	r0, r3
 80054ce:	3718      	adds	r7, #24
 80054d0:	46bd      	mov	sp, r7
 80054d2:	bd80      	pop	{r7, pc}

080054d4 <HAL_TIM_ConfigClockSource>:
  * @param  sClockSourceConfig pointer to a TIM_ClockConfigTypeDef structure that
  *         contains the clock source information for the TIM peripheral.
  * @retval HAL status
  */
HAL_StatusTypeDef HAL_TIM_ConfigClockSource(TIM_HandleTypeDef *htim, const TIM_ClockConfigTypeDef *sClockSourceConfig)
{
 80054d4:	b580      	push	{r7, lr}
 80054d6:	b084      	sub	sp, #16
 80054d8:	af00      	add	r7, sp, #0
 80054da:	6078      	str	r0, [r7, #4]
 80054dc:	6039      	str	r1, [r7, #0]
  HAL_StatusTypeDef status = HAL_OK;
 80054de:	2300      	movs	r3, #0
 80054e0:	73fb      	strb	r3, [r7, #15]
  uint32_t tmpsmcr;

  /* Process Locked */
  __HAL_LOCK(htim);
 80054e2:	687b      	ldr	r3, [r7, #4]
 80054e4:	f893 303c 	ldrb.w	r3, [r3, #60]	@ 0x3c
 80054e8:	2b01      	cmp	r3, #1
 80054ea:	d101      	bne.n	80054f0 <HAL_TIM_ConfigClockSource+0x1c>
 80054ec:	2302      	movs	r3, #2
 80054ee:	e0b4      	b.n	800565a <HAL_TIM_ConfigClockSource+0x186>
 80054f0:	687b      	ldr	r3, [r7, #4]
 80054f2:	2201      	movs	r2, #1
 80054f4:	f883 203c 	strb.w	r2, [r3, #60]	@ 0x3c

  htim->State = HAL_TIM_STATE_BUSY;
 80054f8:	687b      	ldr	r3, [r7, #4]
 80054fa:	2202      	movs	r2, #2
 80054fc:	f883 203d 	strb.w	r2, [r3, #61]	@ 0x3d

  /* Check the parameters */
  assert_param(IS_TIM_CLOCKSOURCE(sClockSourceConfig->ClockSource));

  /* Reset the SMS, TS, ECE, ETPS and ETRF bits */
  tmpsmcr = htim->Instance->SMCR;
 8005500:	687b      	ldr	r3, [r7, #4]
 8005502:	681b      	ldr	r3, [r3, #0]
 8005504:	689b      	ldr	r3, [r3, #8]
 8005506:	60bb      	str	r3, [r7, #8]
  tmpsmcr &= ~(TIM_SMCR_SMS | TIM_SMCR_TS);
 8005508:	68bb      	ldr	r3, [r7, #8]
 800550a:	f023 0377 	bic.w	r3, r3, #119	@ 0x77
 800550e:	60bb      	str	r3, [r7, #8]
  tmpsmcr &= ~(TIM_SMCR_ETF | TIM_SMCR_ETPS | TIM_SMCR_ECE | TIM_SMCR_ETP);
 8005510:	68bb      	ldr	r3, [r7, #8]
 8005512:	f423 437f 	bic.w	r3, r3, #65280	@ 0xff00
 8005516:	60bb      	str	r3, [r7, #8]
  htim->Instance->SMCR = tmpsmcr;
 8005518:	687b      	ldr	r3, [r7, #4]
 800551a:	681b      	ldr	r3, [r3, #0]
 800551c:	68ba      	ldr	r2, [r7, #8]
 800551e:	609a      	str	r2, [r3, #8]

  switch (sClockSourceConfig->ClockSource)
 8005520:	683b      	ldr	r3, [r7, #0]
 8005522:	681b      	ldr	r3, [r3, #0]
 8005524:	f5b3 5f00 	cmp.w	r3, #8192	@ 0x2000
 8005528:	d03e      	beq.n	80055a8 <HAL_TIM_ConfigClockSource+0xd4>
 800552a:	f5b3 5f00 	cmp.w	r3, #8192	@ 0x2000
 800552e:	f200 8087 	bhi.w	8005640 <HAL_TIM_ConfigClockSource+0x16c>
 8005532:	f5b3 5f80 	cmp.w	r3, #4096	@ 0x1000
 8005536:	f000 8086 	beq.w	8005646 <HAL_TIM_ConfigClockSource+0x172>
 800553a:	f5b3 5f80 	cmp.w	r3, #4096	@ 0x1000
 800553e:	d87f      	bhi.n	8005640 <HAL_TIM_ConfigClockSource+0x16c>
 8005540:	2b70      	cmp	r3, #112	@ 0x70
 8005542:	d01a      	beq.n	800557a <HAL_TIM_ConfigClockSource+0xa6>
 8005544:	2b70      	cmp	r3, #112	@ 0x70
 8005546:	d87b      	bhi.n	8005640 <HAL_TIM_ConfigClockSource+0x16c>
 8005548:	2b60      	cmp	r3, #96	@ 0x60
 800554a:	d050      	beq.n	80055ee <HAL_TIM_ConfigClockSource+0x11a>
 800554c:	2b60      	cmp	r3, #96	@ 0x60
 800554e:	d877      	bhi.n	8005640 <HAL_TIM_ConfigClockSource+0x16c>
 8005550:	2b50      	cmp	r3, #80	@ 0x50
 8005552:	d03c      	beq.n	80055ce <HAL_TIM_ConfigClockSource+0xfa>
 8005554:	2b50      	cmp	r3, #80	@ 0x50
 8005556:	d873      	bhi.n	8005640 <HAL_TIM_ConfigClockSource+0x16c>
 8005558:	2b40      	cmp	r3, #64	@ 0x40
 800555a:	d058      	beq.n	800560e <HAL_TIM_ConfigClockSource+0x13a>
 800555c:	2b40      	cmp	r3, #64	@ 0x40
 800555e:	d86f      	bhi.n	8005640 <HAL_TIM_ConfigClockSource+0x16c>
 8005560:	2b30      	cmp	r3, #48	@ 0x30
 8005562:	d064      	beq.n	800562e <HAL_TIM_ConfigClockSource+0x15a>
 8005564:	2b30      	cmp	r3, #48	@ 0x30
 8005566:	d86b      	bhi.n	8005640 <HAL_TIM_ConfigClockSource+0x16c>
 8005568:	2b20      	cmp	r3, #32
 800556a:	d060      	beq.n	800562e <HAL_TIM_ConfigClockSource+0x15a>
 800556c:	2b20      	cmp	r3, #32
 800556e:	d867      	bhi.n	8005640 <HAL_TIM_ConfigClockSource+0x16c>
 8005570:	2b00      	cmp	r3, #0
 8005572:	d05c      	beq.n	800562e <HAL_TIM_ConfigClockSource+0x15a>
 8005574:	2b10      	cmp	r3, #16
 8005576:	d05a      	beq.n	800562e <HAL_TIM_ConfigClockSource+0x15a>
 8005578:	e062      	b.n	8005640 <HAL_TIM_ConfigClockSource+0x16c>
      assert_param(IS_TIM_CLOCKPRESCALER(sClockSourceConfig->ClockPrescaler));
      assert_param(IS_TIM_CLOCKPOLARITY(sClockSourceConfig->ClockPolarity));
      assert_param(IS_TIM_CLOCKFILTER(sClockSourceConfig->ClockFilter));

      /* Configure the ETR Clock source */
      TIM_ETR_SetConfig(htim->Instance,
 800557a:	687b      	ldr	r3, [r7, #4]
 800557c:	6818      	ldr	r0, [r3, #0]
                        sClockSourceConfig->ClockPrescaler,
 800557e:	683b      	ldr	r3, [r7, #0]
 8005580:	6899      	ldr	r1, [r3, #8]
                        sClockSourceConfig->ClockPolarity,
 8005582:	683b      	ldr	r3, [r7, #0]
 8005584:	685a      	ldr	r2, [r3, #4]
                        sClockSourceConfig->ClockFilter);
 8005586:	683b      	ldr	r3, [r7, #0]
 8005588:	68db      	ldr	r3, [r3, #12]
      TIM_ETR_SetConfig(htim->Instance,
 800558a:	f000 fb27 	bl	8005bdc <TIM_ETR_SetConfig>

      /* Select the External clock mode1 and the ETRF trigger */
      tmpsmcr = htim->Instance->SMCR;
 800558e:	687b      	ldr	r3, [r7, #4]
 8005590:	681b      	ldr	r3, [r3, #0]
 8005592:	689b      	ldr	r3, [r3, #8]
 8005594:	60bb      	str	r3, [r7, #8]
      tmpsmcr |= (TIM_SLAVEMODE_EXTERNAL1 | TIM_CLOCKSOURCE_ETRMODE1);
 8005596:	68bb      	ldr	r3, [r7, #8]
 8005598:	f043 0377 	orr.w	r3, r3, #119	@ 0x77
 800559c:	60bb      	str	r3, [r7, #8]
      /* Write to TIMx SMCR */
      htim->Instance->SMCR = tmpsmcr;
 800559e:	687b      	ldr	r3, [r7, #4]
 80055a0:	681b      	ldr	r3, [r3, #0]
 80055a2:	68ba      	ldr	r2, [r7, #8]
 80055a4:	609a      	str	r2, [r3, #8]
      break;
 80055a6:	e04f      	b.n	8005648 <HAL_TIM_ConfigClockSource+0x174>
      assert_param(IS_TIM_CLOCKPRESCALER(sClockSourceConfig->ClockPrescaler));
      assert_param(IS_TIM_CLOCKPOLARITY(sClockSourceConfig->ClockPolarity));
      assert_param(IS_TIM_CLOCKFILTER(sClockSourceConfig->ClockFilter));

      /* Configure the ETR Clock source */
      TIM_ETR_SetConfig(htim->Instance,
 80055a8:	687b      	ldr	r3, [r7, #4]
 80055aa:	6818      	ldr	r0, [r3, #0]
                        sClockSourceConfig->ClockPrescaler,
 80055ac:	683b      	ldr	r3, [r7, #0]
 80055ae:	6899      	ldr	r1, [r3, #8]
                        sClockSourceConfig->ClockPolarity,
 80055b0:	683b      	ldr	r3, [r7, #0]
 80055b2:	685a      	ldr	r2, [r3, #4]
                        sClockSourceConfig->ClockFilter);
 80055b4:	683b      	ldr	r3, [r7, #0]
 80055b6:	68db      	ldr	r3, [r3, #12]
      TIM_ETR_SetConfig(htim->Instance,
 80055b8:	f000 fb10 	bl	8005bdc <TIM_ETR_SetConfig>
      /* Enable the External clock mode2 */
      htim->Instance->SMCR |= TIM_SMCR_ECE;
 80055bc:	687b      	ldr	r3, [r7, #4]
 80055be:	681b      	ldr	r3, [r3, #0]
 80055c0:	689a      	ldr	r2, [r3, #8]
 80055c2:	687b      	ldr	r3, [r7, #4]
 80055c4:	681b      	ldr	r3, [r3, #0]
 80055c6:	f442 4280 	orr.w	r2, r2, #16384	@ 0x4000
 80055ca:	609a      	str	r2, [r3, #8]
      break;
 80055cc:	e03c      	b.n	8005648 <HAL_TIM_ConfigClockSource+0x174>

      /* Check TI1 input conditioning related parameters */
      assert_param(IS_TIM_CLOCKPOLARITY(sClockSourceConfig->ClockPolarity));
      assert_param(IS_TIM_CLOCKFILTER(sClockSourceConfig->ClockFilter));

      TIM_TI1_ConfigInputStage(htim->Instance,
 80055ce:	687b      	ldr	r3, [r7, #4]
 80055d0:	6818      	ldr	r0, [r3, #0]
                               sClockSourceConfig->ClockPolarity,
 80055d2:	683b      	ldr	r3, [r7, #0]
 80055d4:	6859      	ldr	r1, [r3, #4]
                               sClockSourceConfig->ClockFilter);
 80055d6:	683b      	ldr	r3, [r7, #0]
 80055d8:	68db      	ldr	r3, [r3, #12]
      TIM_TI1_ConfigInputStage(htim->Instance,
 80055da:	461a      	mov	r2, r3
 80055dc:	f000 f9ce 	bl	800597c <TIM_TI1_ConfigInputStage>
      TIM_ITRx_SetConfig(htim->Instance, TIM_CLOCKSOURCE_TI1);
 80055e0:	687b      	ldr	r3, [r7, #4]
 80055e2:	681b      	ldr	r3, [r3, #0]
 80055e4:	2150      	movs	r1, #80	@ 0x50
 80055e6:	4618      	mov	r0, r3
 80055e8:	f000 fadd 	bl	8005ba6 <TIM_ITRx_SetConfig>
      break;
 80055ec:	e02c      	b.n	8005648 <HAL_TIM_ConfigClockSource+0x174>

      /* Check TI2 input conditioning related parameters */
      assert_param(IS_TIM_CLOCKPOLARITY(sClockSourceConfig->ClockPolarity));
      assert_param(IS_TIM_CLOCKFILTER(sClockSourceConfig->ClockFilter));

      TIM_TI2_ConfigInputStage(htim->Instance,
 80055ee:	687b      	ldr	r3, [r7, #4]
 80055f0:	6818      	ldr	r0, [r3, #0]
                               sClockSourceConfig->ClockPolarity,
 80055f2:	683b      	ldr	r3, [r7, #0]
 80055f4:	6859      	ldr	r1, [r3, #4]
                               sClockSourceConfig->ClockFilter);
 80055f6:	683b      	ldr	r3, [r7, #0]
 80055f8:	68db      	ldr	r3, [r3, #12]
      TIM_TI2_ConfigInputStage(htim->Instance,
 80055fa:	461a      	mov	r2, r3
 80055fc:	f000 fa2a 	bl	8005a54 <TIM_TI2_ConfigInputStage>
      TIM_ITRx_SetConfig(htim->Instance, TIM_CLOCKSOURCE_TI2);
 8005600:	687b      	ldr	r3, [r7, #4]
 8005602:	681b      	ldr	r3, [r3, #0]
 8005604:	2160      	movs	r1, #96	@ 0x60
 8005606:	4618      	mov	r0, r3
 8005608:	f000 facd 	bl	8005ba6 <TIM_ITRx_SetConfig>
      break;
 800560c:	e01c      	b.n	8005648 <HAL_TIM_ConfigClockSource+0x174>

      /* Check TI1 input conditioning related parameters */
      assert_param(IS_TIM_CLOCKPOLARITY(sClockSourceConfig->ClockPolarity));
      assert_param(IS_TIM_CLOCKFILTER(sClockSourceConfig->ClockFilter));

      TIM_TI1_ConfigInputStage(htim->Instance,
 800560e:	687b      	ldr	r3, [r7, #4]
 8005610:	6818      	ldr	r0, [r3, #0]
                               sClockSourceConfig->ClockPolarity,
 8005612:	683b      	ldr	r3, [r7, #0]
 8005614:	6859      	ldr	r1, [r3, #4]
                               sClockSourceConfig->ClockFilter);
 8005616:	683b      	ldr	r3, [r7, #0]
 8005618:	68db      	ldr	r3, [r3, #12]
      TIM_TI1_ConfigInputStage(htim->Instance,
 800561a:	461a      	mov	r2, r3
 800561c:	f000 f9ae 	bl	800597c <TIM_TI1_ConfigInputStage>
      TIM_ITRx_SetConfig(htim->Instance, TIM_CLOCKSOURCE_TI1ED);
 8005620:	687b      	ldr	r3, [r7, #4]
 8005622:	681b      	ldr	r3, [r3, #0]
 8005624:	2140      	movs	r1, #64	@ 0x40
 8005626:	4618      	mov	r0, r3
 8005628:	f000 fabd 	bl	8005ba6 <TIM_ITRx_SetConfig>
      break;
 800562c:	e00c      	b.n	8005648 <HAL_TIM_ConfigClockSource+0x174>
    case TIM_CLOCKSOURCE_ITR3:
    {
      /* Check whether or not the timer instance supports internal trigger input */
      assert_param(IS_TIM_CLOCKSOURCE_ITRX_INSTANCE(htim->Instance));

      TIM_ITRx_SetConfig(htim->Instance, sClockSourceConfig->ClockSource);
 800562e:	687b      	ldr	r3, [r7, #4]
 8005630:	681a      	ldr	r2, [r3, #0]
 8005632:	683b      	ldr	r3, [r7, #0]
 8005634:	681b      	ldr	r3, [r3, #0]
 8005636:	4619      	mov	r1, r3
 8005638:	4610      	mov	r0, r2
 800563a:	f000 fab4 	bl	8005ba6 <TIM_ITRx_SetConfig>
      break;
 800563e:	e003      	b.n	8005648 <HAL_TIM_ConfigClockSource+0x174>
    }

    default:
      status = HAL_ERROR;
 8005640:	2301      	movs	r3, #1
 8005642:	73fb      	strb	r3, [r7, #15]
      break;
 8005644:	e000      	b.n	8005648 <HAL_TIM_ConfigClockSource+0x174>
      break;
 8005646:	bf00      	nop
  }
  htim->State = HAL_TIM_STATE_READY;
 8005648:	687b      	ldr	r3, [r7, #4]
 800564a:	2201      	movs	r2, #1
 800564c:	f883 203d 	strb.w	r2, [r3, #61]	@ 0x3d

  __HAL_UNLOCK(htim);
 8005650:	687b      	ldr	r3, [r7, #4]
 8005652:	2200      	movs	r2, #0
 8005654:	f883 203c 	strb.w	r2, [r3, #60]	@ 0x3c

  return status;
 8005658:	7bfb      	ldrb	r3, [r7, #15]
}
 800565a:	4618      	mov	r0, r3
 800565c:	3710      	adds	r7, #16
 800565e:	46bd      	mov	sp, r7
 8005660:	bd80      	pop	{r7, pc}
	...

08005664 <HAL_TIM_ReadCapturedValue>:
  *            @arg TIM_CHANNEL_3: TIM Channel 3 selected
  *            @arg TIM_CHANNEL_4: TIM Channel 4 selected
  * @retval Captured value
  */
uint32_t HAL_TIM_ReadCapturedValue(const TIM_HandleTypeDef *htim, uint32_t Channel)
{
 8005664:	b480      	push	{r7}
 8005666:	b085      	sub	sp, #20
 8005668:	af00      	add	r7, sp, #0
 800566a:	6078      	str	r0, [r7, #4]
 800566c:	6039      	str	r1, [r7, #0]
  uint32_t tmpreg = 0U;
 800566e:	2300      	movs	r3, #0
 8005670:	60fb      	str	r3, [r7, #12]

  switch (Channel)
 8005672:	683b      	ldr	r3, [r7, #0]
 8005674:	2b0c      	cmp	r3, #12
 8005676:	d831      	bhi.n	80056dc <HAL_TIM_ReadCapturedValue+0x78>
 8005678:	a201      	add	r2, pc, #4	@ (adr r2, 8005680 <HAL_TIM_ReadCapturedValue+0x1c>)
 800567a:	f852 f023 	ldr.w	pc, [r2, r3, lsl #2]
 800567e:	bf00      	nop
 8005680:	080056b5 	.word	0x080056b5
 8005684:	080056dd 	.word	0x080056dd
 8005688:	080056dd 	.word	0x080056dd
 800568c:	080056dd 	.word	0x080056dd
 8005690:	080056bf 	.word	0x080056bf
 8005694:	080056dd 	.word	0x080056dd
 8005698:	080056dd 	.word	0x080056dd
 800569c:	080056dd 	.word	0x080056dd
 80056a0:	080056c9 	.word	0x080056c9
 80056a4:	080056dd 	.word	0x080056dd
 80056a8:	080056dd 	.word	0x080056dd
 80056ac:	080056dd 	.word	0x080056dd
 80056b0:	080056d3 	.word	0x080056d3
    {
      /* Check the parameters */
      assert_param(IS_TIM_CC1_INSTANCE(htim->Instance));

      /* Return the capture 1 value */
      tmpreg =  htim->Instance->CCR1;
 80056b4:	687b      	ldr	r3, [r7, #4]
 80056b6:	681b      	ldr	r3, [r3, #0]
 80056b8:	6b5b      	ldr	r3, [r3, #52]	@ 0x34
 80056ba:	60fb      	str	r3, [r7, #12]

      break;
 80056bc:	e00f      	b.n	80056de <HAL_TIM_ReadCapturedValue+0x7a>
    {
      /* Check the parameters */
      assert_param(IS_TIM_CC2_INSTANCE(htim->Instance));

      /* Return the capture 2 value */
      tmpreg =   htim->Instance->CCR2;
 80056be:	687b      	ldr	r3, [r7, #4]
 80056c0:	681b      	ldr	r3, [r3, #0]
 80056c2:	6b9b      	ldr	r3, [r3, #56]	@ 0x38
 80056c4:	60fb      	str	r3, [r7, #12]

      break;
 80056c6:	e00a      	b.n	80056de <HAL_TIM_ReadCapturedValue+0x7a>
    {
      /* Check the parameters */
      assert_param(IS_TIM_CC3_INSTANCE(htim->Instance));

      /* Return the capture 3 value */
      tmpreg =   htim->Instance->CCR3;
 80056c8:	687b      	ldr	r3, [r7, #4]
 80056ca:	681b      	ldr	r3, [r3, #0]
 80056cc:	6bdb      	ldr	r3, [r3, #60]	@ 0x3c
 80056ce:	60fb      	str	r3, [r7, #12]

      break;
 80056d0:	e005      	b.n	80056de <HAL_TIM_ReadCapturedValue+0x7a>
    {
      /* Check the parameters */
      assert_param(IS_TIM_CC4_INSTANCE(htim->Instance));

      /* Return the capture 4 value */
      tmpreg =   htim->Instance->CCR4;
 80056d2:	687b      	ldr	r3, [r7, #4]
 80056d4:	681b      	ldr	r3, [r3, #0]
 80056d6:	6c1b      	ldr	r3, [r3, #64]	@ 0x40
 80056d8:	60fb      	str	r3, [r7, #12]

      break;
 80056da:	e000      	b.n	80056de <HAL_TIM_ReadCapturedValue+0x7a>
    }

    default:
      break;
 80056dc:	bf00      	nop
  }

  return tmpreg;
 80056de:	68fb      	ldr	r3, [r7, #12]
}
 80056e0:	4618      	mov	r0, r3
 80056e2:	3714      	adds	r7, #20
 80056e4:	46bd      	mov	sp, r7
 80056e6:	f85d 7b04 	ldr.w	r7, [sp], #4
 80056ea:	4770      	bx	lr

080056ec <HAL_TIM_PeriodElapsedCallback>:
  * @brief  Period elapsed callback in non-blocking mode
  * @param  htim TIM handle
  * @retval None
  */
__weak void HAL_TIM_PeriodElapsedCallback(TIM_HandleTypeDef *htim)
{
 80056ec:	b480      	push	{r7}
 80056ee:	b083      	sub	sp, #12
 80056f0:	af00      	add	r7, sp, #0
 80056f2:	6078      	str	r0, [r7, #4]
  UNUSED(htim);

  /* NOTE : This function should not be modified, when the callback is needed,
            the HAL_TIM_PeriodElapsedCallback could be implemented in the user file
   */
}
 80056f4:	bf00      	nop
 80056f6:	370c      	adds	r7, #12
 80056f8:	46bd      	mov	sp, r7
 80056fa:	f85d 7b04 	ldr.w	r7, [sp], #4
 80056fe:	4770      	bx	lr

08005700 <HAL_TIM_OC_DelayElapsedCallback>:
  * @brief  Output Compare callback in non-blocking mode
  * @param  htim TIM OC handle
  * @retval None
  */
__weak void HAL_TIM_OC_DelayElapsedCallback(TIM_HandleTypeDef *htim)
{
 8005700:	b480      	push	{r7}
 8005702:	b083      	sub	sp, #12
 8005704:	af00      	add	r7, sp, #0
 8005706:	6078      	str	r0, [r7, #4]
  UNUSED(htim);

  /* NOTE : This function should not be modified, when the callback is needed,
            the HAL_TIM_OC_DelayElapsedCallback could be implemented in the user file
   */
}
 8005708:	bf00      	nop
 800570a:	370c      	adds	r7, #12
 800570c:	46bd      	mov	sp, r7
 800570e:	f85d 7b04 	ldr.w	r7, [sp], #4
 8005712:	4770      	bx	lr

08005714 <HAL_TIM_PWM_PulseFinishedCallback>:
  * @brief  PWM Pulse finished callback in non-blocking mode
  * @param  htim TIM handle
  * @retval None
  */
__weak void HAL_TIM_PWM_PulseFinishedCallback(TIM_HandleTypeDef *htim)
{
 8005714:	b480      	push	{r7}
 8005716:	b083      	sub	sp, #12
 8005718:	af00      	add	r7, sp, #0
 800571a:	6078      	str	r0, [r7, #4]
  UNUSED(htim);

  /* NOTE : This function should not be modified, when the callback is needed,
            the HAL_TIM_PWM_PulseFinishedCallback could be implemented in the user file
   */
}
 800571c:	bf00      	nop
 800571e:	370c      	adds	r7, #12
 8005720:	46bd      	mov	sp, r7
 8005722:	f85d 7b04 	ldr.w	r7, [sp], #4
 8005726:	4770      	bx	lr

08005728 <HAL_TIM_TriggerCallback>:
  * @brief  Hall Trigger detection callback in non-blocking mode
  * @param  htim TIM handle
  * @retval None
  */
__weak void HAL_TIM_TriggerCallback(TIM_HandleTypeDef *htim)
{
 8005728:	b480      	push	{r7}
 800572a:	b083      	sub	sp, #12
 800572c:	af00      	add	r7, sp, #0
 800572e:	6078      	str	r0, [r7, #4]
  UNUSED(htim);

  /* NOTE : This function should not be modified, when the callback is needed,
            the HAL_TIM_TriggerCallback could be implemented in the user file
   */
}
 8005730:	bf00      	nop
 8005732:	370c      	adds	r7, #12
 8005734:	46bd      	mov	sp, r7
 8005736:	f85d 7b04 	ldr.w	r7, [sp], #4
 800573a:	4770      	bx	lr

0800573c <TIM_Base_SetConfig>:
  * @param  TIMx TIM peripheral
  * @param  Structure TIM Base configuration structure
  * @retval None
  */
void TIM_Base_SetConfig(TIM_TypeDef *TIMx, const TIM_Base_InitTypeDef *Structure)
{
 800573c:	b480      	push	{r7}
 800573e:	b085      	sub	sp, #20
 8005740:	af00      	add	r7, sp, #0
 8005742:	6078      	str	r0, [r7, #4]
 8005744:	6039      	str	r1, [r7, #0]
  uint32_t tmpcr1;
  tmpcr1 = TIMx->CR1;
 8005746:	687b      	ldr	r3, [r7, #4]
 8005748:	681b      	ldr	r3, [r3, #0]
 800574a:	60fb      	str	r3, [r7, #12]

  /* Set TIM Time Base Unit parameters ---------------------------------------*/
  if (IS_TIM_COUNTER_MODE_SELECT_INSTANCE(TIMx))
 800574c:	687b      	ldr	r3, [r7, #4]
 800574e:	4a46      	ldr	r2, [pc, #280]	@ (8005868 <TIM_Base_SetConfig+0x12c>)
 8005750:	4293      	cmp	r3, r2
 8005752:	d013      	beq.n	800577c <TIM_Base_SetConfig+0x40>
 8005754:	687b      	ldr	r3, [r7, #4]
 8005756:	f1b3 4f80 	cmp.w	r3, #1073741824	@ 0x40000000
 800575a:	d00f      	beq.n	800577c <TIM_Base_SetConfig+0x40>
 800575c:	687b      	ldr	r3, [r7, #4]
 800575e:	4a43      	ldr	r2, [pc, #268]	@ (800586c <TIM_Base_SetConfig+0x130>)
 8005760:	4293      	cmp	r3, r2
 8005762:	d00b      	beq.n	800577c <TIM_Base_SetConfig+0x40>
 8005764:	687b      	ldr	r3, [r7, #4]
 8005766:	4a42      	ldr	r2, [pc, #264]	@ (8005870 <TIM_Base_SetConfig+0x134>)
 8005768:	4293      	cmp	r3, r2
 800576a:	d007      	beq.n	800577c <TIM_Base_SetConfig+0x40>
 800576c:	687b      	ldr	r3, [r7, #4]
 800576e:	4a41      	ldr	r2, [pc, #260]	@ (8005874 <TIM_Base_SetConfig+0x138>)
 8005770:	4293      	cmp	r3, r2
 8005772:	d003      	beq.n	800577c <TIM_Base_SetConfig+0x40>
 8005774:	687b      	ldr	r3, [r7, #4]
 8005776:	4a40      	ldr	r2, [pc, #256]	@ (8005878 <TIM_Base_SetConfig+0x13c>)
 8005778:	4293      	cmp	r3, r2
 800577a:	d108      	bne.n	800578e <TIM_Base_SetConfig+0x52>
  {
    /* Select the Counter Mode */
    tmpcr1 &= ~(TIM_CR1_DIR | TIM_CR1_CMS);
 800577c:	68fb      	ldr	r3, [r7, #12]
 800577e:	f023 0370 	bic.w	r3, r3, #112	@ 0x70
 8005782:	60fb      	str	r3, [r7, #12]
    tmpcr1 |= Structure->CounterMode;
 8005784:	683b      	ldr	r3, [r7, #0]
 8005786:	685b      	ldr	r3, [r3, #4]
 8005788:	68fa      	ldr	r2, [r7, #12]
 800578a:	4313      	orrs	r3, r2
 800578c:	60fb      	str	r3, [r7, #12]
  }

  if (IS_TIM_CLOCK_DIVISION_INSTANCE(TIMx))
 800578e:	687b      	ldr	r3, [r7, #4]
 8005790:	4a35      	ldr	r2, [pc, #212]	@ (8005868 <TIM_Base_SetConfig+0x12c>)
 8005792:	4293      	cmp	r3, r2
 8005794:	d02b      	beq.n	80057ee <TIM_Base_SetConfig+0xb2>
 8005796:	687b      	ldr	r3, [r7, #4]
 8005798:	f1b3 4f80 	cmp.w	r3, #1073741824	@ 0x40000000
 800579c:	d027      	beq.n	80057ee <TIM_Base_SetConfig+0xb2>
 800579e:	687b      	ldr	r3, [r7, #4]
 80057a0:	4a32      	ldr	r2, [pc, #200]	@ (800586c <TIM_Base_SetConfig+0x130>)
 80057a2:	4293      	cmp	r3, r2
 80057a4:	d023      	beq.n	80057ee <TIM_Base_SetConfig+0xb2>
 80057a6:	687b      	ldr	r3, [r7, #4]
 80057a8:	4a31      	ldr	r2, [pc, #196]	@ (8005870 <TIM_Base_SetConfig+0x134>)
 80057aa:	4293      	cmp	r3, r2
 80057ac:	d01f      	beq.n	80057ee <TIM_Base_SetConfig+0xb2>
 80057ae:	687b      	ldr	r3, [r7, #4]
 80057b0:	4a30      	ldr	r2, [pc, #192]	@ (8005874 <TIM_Base_SetConfig+0x138>)
 80057b2:	4293      	cmp	r3, r2
 80057b4:	d01b      	beq.n	80057ee <TIM_Base_SetConfig+0xb2>
 80057b6:	687b      	ldr	r3, [r7, #4]
 80057b8:	4a2f      	ldr	r2, [pc, #188]	@ (8005878 <TIM_Base_SetConfig+0x13c>)
 80057ba:	4293      	cmp	r3, r2
 80057bc:	d017      	beq.n	80057ee <TIM_Base_SetConfig+0xb2>
 80057be:	687b      	ldr	r3, [r7, #4]
 80057c0:	4a2e      	ldr	r2, [pc, #184]	@ (800587c <TIM_Base_SetConfig+0x140>)
 80057c2:	4293      	cmp	r3, r2
 80057c4:	d013      	beq.n	80057ee <TIM_Base_SetConfig+0xb2>
 80057c6:	687b      	ldr	r3, [r7, #4]
 80057c8:	4a2d      	ldr	r2, [pc, #180]	@ (8005880 <TIM_Base_SetConfig+0x144>)
 80057ca:	4293      	cmp	r3, r2
 80057cc:	d00f      	beq.n	80057ee <TIM_Base_SetConfig+0xb2>
 80057ce:	687b      	ldr	r3, [r7, #4]
 80057d0:	4a2c      	ldr	r2, [pc, #176]	@ (8005884 <TIM_Base_SetConfig+0x148>)
 80057d2:	4293      	cmp	r3, r2
 80057d4:	d00b      	beq.n	80057ee <TIM_Base_SetConfig+0xb2>
 80057d6:	687b      	ldr	r3, [r7, #4]
 80057d8:	4a2b      	ldr	r2, [pc, #172]	@ (8005888 <TIM_Base_SetConfig+0x14c>)
 80057da:	4293      	cmp	r3, r2
 80057dc:	d007      	beq.n	80057ee <TIM_Base_SetConfig+0xb2>
 80057de:	687b      	ldr	r3, [r7, #4]
 80057e0:	4a2a      	ldr	r2, [pc, #168]	@ (800588c <TIM_Base_SetConfig+0x150>)
 80057e2:	4293      	cmp	r3, r2
 80057e4:	d003      	beq.n	80057ee <TIM_Base_SetConfig+0xb2>
 80057e6:	687b      	ldr	r3, [r7, #4]
 80057e8:	4a29      	ldr	r2, [pc, #164]	@ (8005890 <TIM_Base_SetConfig+0x154>)
 80057ea:	4293      	cmp	r3, r2
 80057ec:	d108      	bne.n	8005800 <TIM_Base_SetConfig+0xc4>
  {
    /* Set the clock division */
    tmpcr1 &= ~TIM_CR1_CKD;
 80057ee:	68fb      	ldr	r3, [r7, #12]
 80057f0:	f423 7340 	bic.w	r3, r3, #768	@ 0x300
 80057f4:	60fb      	str	r3, [r7, #12]
    tmpcr1 |= (uint32_t)Structure->ClockDivision;
 80057f6:	683b      	ldr	r3, [r7, #0]
 80057f8:	68db      	ldr	r3, [r3, #12]
 80057fa:	68fa      	ldr	r2, [r7, #12]
 80057fc:	4313      	orrs	r3, r2
 80057fe:	60fb      	str	r3, [r7, #12]
  }

  /* Set the auto-reload preload */
  MODIFY_REG(tmpcr1, TIM_CR1_ARPE, Structure->AutoReloadPreload);
 8005800:	68fb      	ldr	r3, [r7, #12]
 8005802:	f023 0280 	bic.w	r2, r3, #128	@ 0x80
 8005806:	683b      	ldr	r3, [r7, #0]
 8005808:	695b      	ldr	r3, [r3, #20]
 800580a:	4313      	orrs	r3, r2
 800580c:	60fb      	str	r3, [r7, #12]

  TIMx->CR1 = tmpcr1;
 800580e:	687b      	ldr	r3, [r7, #4]
 8005810:	68fa      	ldr	r2, [r7, #12]
 8005812:	601a      	str	r2, [r3, #0]

  /* Set the Autoreload value */
  TIMx->ARR = (uint32_t)Structure->Period ;
 8005814:	683b      	ldr	r3, [r7, #0]
 8005816:	689a      	ldr	r2, [r3, #8]
 8005818:	687b      	ldr	r3, [r7, #4]
 800581a:	62da      	str	r2, [r3, #44]	@ 0x2c

  /* Set the Prescaler value */
  TIMx->PSC = Structure->Prescaler;
 800581c:	683b      	ldr	r3, [r7, #0]
 800581e:	681a      	ldr	r2, [r3, #0]
 8005820:	687b      	ldr	r3, [r7, #4]
 8005822:	629a      	str	r2, [r3, #40]	@ 0x28

  if (IS_TIM_REPETITION_COUNTER_INSTANCE(TIMx))
 8005824:	687b      	ldr	r3, [r7, #4]
 8005826:	4a10      	ldr	r2, [pc, #64]	@ (8005868 <TIM_Base_SetConfig+0x12c>)
 8005828:	4293      	cmp	r3, r2
 800582a:	d003      	beq.n	8005834 <TIM_Base_SetConfig+0xf8>
 800582c:	687b      	ldr	r3, [r7, #4]
 800582e:	4a12      	ldr	r2, [pc, #72]	@ (8005878 <TIM_Base_SetConfig+0x13c>)
 8005830:	4293      	cmp	r3, r2
 8005832:	d103      	bne.n	800583c <TIM_Base_SetConfig+0x100>
  {
    /* Set the Repetition Counter value */
    TIMx->RCR = Structure->RepetitionCounter;
 8005834:	683b      	ldr	r3, [r7, #0]
 8005836:	691a      	ldr	r2, [r3, #16]
 8005838:	687b      	ldr	r3, [r7, #4]
 800583a:	631a      	str	r2, [r3, #48]	@ 0x30
  }

  /* Generate an update event to reload the Prescaler
     and the repetition counter (only for advanced timer) value immediately */
  TIMx->EGR = TIM_EGR_UG;
 800583c:	687b      	ldr	r3, [r7, #4]
 800583e:	2201      	movs	r2, #1
 8005840:	615a      	str	r2, [r3, #20]

  /* Check if the update flag is set after the Update Generation, if so clear the UIF flag */
  if (HAL_IS_BIT_SET(TIMx->SR, TIM_FLAG_UPDATE))
 8005842:	687b      	ldr	r3, [r7, #4]
 8005844:	691b      	ldr	r3, [r3, #16]
 8005846:	f003 0301 	and.w	r3, r3, #1
 800584a:	2b01      	cmp	r3, #1
 800584c:	d105      	bne.n	800585a <TIM_Base_SetConfig+0x11e>
  {
    /* Clear the update flag */
    CLEAR_BIT(TIMx->SR, TIM_FLAG_UPDATE);
 800584e:	687b      	ldr	r3, [r7, #4]
 8005850:	691b      	ldr	r3, [r3, #16]
 8005852:	f023 0201 	bic.w	r2, r3, #1
 8005856:	687b      	ldr	r3, [r7, #4]
 8005858:	611a      	str	r2, [r3, #16]
  }
}
 800585a:	bf00      	nop
 800585c:	3714      	adds	r7, #20
 800585e:	46bd      	mov	sp, r7
 8005860:	f85d 7b04 	ldr.w	r7, [sp], #4
 8005864:	4770      	bx	lr
 8005866:	bf00      	nop
 8005868:	40010000 	.word	0x40010000
 800586c:	40000400 	.word	0x40000400
 8005870:	40000800 	.word	0x40000800
 8005874:	40000c00 	.word	0x40000c00
 8005878:	40010400 	.word	0x40010400
 800587c:	40014000 	.word	0x40014000
 8005880:	40014400 	.word	0x40014400
 8005884:	40014800 	.word	0x40014800
 8005888:	40001800 	.word	0x40001800
 800588c:	40001c00 	.word	0x40001c00
 8005890:	40002000 	.word	0x40002000

08005894 <TIM_TI1_SetConfig>:
  *       (on channel2 path) is used as the input signal. Therefore CCMR1 must be
  *        protected against un-initialized filter and polarity values.
  */
void TIM_TI1_SetConfig(TIM_TypeDef *TIMx, uint32_t TIM_ICPolarity, uint32_t TIM_ICSelection,
                       uint32_t TIM_ICFilter)
{
 8005894:	b480      	push	{r7}
 8005896:	b087      	sub	sp, #28
 8005898:	af00      	add	r7, sp, #0
 800589a:	60f8      	str	r0, [r7, #12]
 800589c:	60b9      	str	r1, [r7, #8]
 800589e:	607a      	str	r2, [r7, #4]
 80058a0:	603b      	str	r3, [r7, #0]
  uint32_t tmpccmr1;
  uint32_t tmpccer;

  /* Disable the Channel 1: Reset the CC1E Bit */
  tmpccer = TIMx->CCER;
 80058a2:	68fb      	ldr	r3, [r7, #12]
 80058a4:	6a1b      	ldr	r3, [r3, #32]
 80058a6:	613b      	str	r3, [r7, #16]
  TIMx->CCER &= ~TIM_CCER_CC1E;
 80058a8:	68fb      	ldr	r3, [r7, #12]
 80058aa:	6a1b      	ldr	r3, [r3, #32]
 80058ac:	f023 0201 	bic.w	r2, r3, #1
 80058b0:	68fb      	ldr	r3, [r7, #12]
 80058b2:	621a      	str	r2, [r3, #32]
  tmpccmr1 = TIMx->CCMR1;
 80058b4:	68fb      	ldr	r3, [r7, #12]
 80058b6:	699b      	ldr	r3, [r3, #24]
 80058b8:	617b      	str	r3, [r7, #20]

  /* Select the Input */
  if (IS_TIM_CC2_INSTANCE(TIMx) != RESET)
 80058ba:	68fb      	ldr	r3, [r7, #12]
 80058bc:	4a28      	ldr	r2, [pc, #160]	@ (8005960 <TIM_TI1_SetConfig+0xcc>)
 80058be:	4293      	cmp	r3, r2
 80058c0:	d01b      	beq.n	80058fa <TIM_TI1_SetConfig+0x66>
 80058c2:	68fb      	ldr	r3, [r7, #12]
 80058c4:	f1b3 4f80 	cmp.w	r3, #1073741824	@ 0x40000000
 80058c8:	d017      	beq.n	80058fa <TIM_TI1_SetConfig+0x66>
 80058ca:	68fb      	ldr	r3, [r7, #12]
 80058cc:	4a25      	ldr	r2, [pc, #148]	@ (8005964 <TIM_TI1_SetConfig+0xd0>)
 80058ce:	4293      	cmp	r3, r2
 80058d0:	d013      	beq.n	80058fa <TIM_TI1_SetConfig+0x66>
 80058d2:	68fb      	ldr	r3, [r7, #12]
 80058d4:	4a24      	ldr	r2, [pc, #144]	@ (8005968 <TIM_TI1_SetConfig+0xd4>)
 80058d6:	4293      	cmp	r3, r2
 80058d8:	d00f      	beq.n	80058fa <TIM_TI1_SetConfig+0x66>
 80058da:	68fb      	ldr	r3, [r7, #12]
 80058dc:	4a23      	ldr	r2, [pc, #140]	@ (800596c <TIM_TI1_SetConfig+0xd8>)
 80058de:	4293      	cmp	r3, r2
 80058e0:	d00b      	beq.n	80058fa <TIM_TI1_SetConfig+0x66>
 80058e2:	68fb      	ldr	r3, [r7, #12]
 80058e4:	4a22      	ldr	r2, [pc, #136]	@ (8005970 <TIM_TI1_SetConfig+0xdc>)
 80058e6:	4293      	cmp	r3, r2
 80058e8:	d007      	beq.n	80058fa <TIM_TI1_SetConfig+0x66>
 80058ea:	68fb      	ldr	r3, [r7, #12]
 80058ec:	4a21      	ldr	r2, [pc, #132]	@ (8005974 <TIM_TI1_SetConfig+0xe0>)
 80058ee:	4293      	cmp	r3, r2
 80058f0:	d003      	beq.n	80058fa <TIM_TI1_SetConfig+0x66>
 80058f2:	68fb      	ldr	r3, [r7, #12]
 80058f4:	4a20      	ldr	r2, [pc, #128]	@ (8005978 <TIM_TI1_SetConfig+0xe4>)
 80058f6:	4293      	cmp	r3, r2
 80058f8:	d101      	bne.n	80058fe <TIM_TI1_SetConfig+0x6a>
 80058fa:	2301      	movs	r3, #1
 80058fc:	e000      	b.n	8005900 <TIM_TI1_SetConfig+0x6c>
 80058fe:	2300      	movs	r3, #0
 8005900:	2b00      	cmp	r3, #0
 8005902:	d008      	beq.n	8005916 <TIM_TI1_SetConfig+0x82>
  {
    tmpccmr1 &= ~TIM_CCMR1_CC1S;
 8005904:	697b      	ldr	r3, [r7, #20]
 8005906:	f023 0303 	bic.w	r3, r3, #3
 800590a:	617b      	str	r3, [r7, #20]
    tmpccmr1 |= TIM_ICSelection;
 800590c:	697a      	ldr	r2, [r7, #20]
 800590e:	687b      	ldr	r3, [r7, #4]
 8005910:	4313      	orrs	r3, r2
 8005912:	617b      	str	r3, [r7, #20]
 8005914:	e003      	b.n	800591e <TIM_TI1_SetConfig+0x8a>
  }
  else
  {
    tmpccmr1 |= TIM_CCMR1_CC1S_0;
 8005916:	697b      	ldr	r3, [r7, #20]
 8005918:	f043 0301 	orr.w	r3, r3, #1
 800591c:	617b      	str	r3, [r7, #20]
  }

  /* Set the filter */
  tmpccmr1 &= ~TIM_CCMR1_IC1F;
 800591e:	697b      	ldr	r3, [r7, #20]
 8005920:	f023 03f0 	bic.w	r3, r3, #240	@ 0xf0
 8005924:	617b      	str	r3, [r7, #20]
  tmpccmr1 |= ((TIM_ICFilter << 4U) & TIM_CCMR1_IC1F);
 8005926:	683b      	ldr	r3, [r7, #0]
 8005928:	011b      	lsls	r3, r3, #4
 800592a:	b2db      	uxtb	r3, r3
 800592c:	697a      	ldr	r2, [r7, #20]
 800592e:	4313      	orrs	r3, r2
 8005930:	617b      	str	r3, [r7, #20]

  /* Select the Polarity and set the CC1E Bit */
  tmpccer &= ~(TIM_CCER_CC1P | TIM_CCER_CC1NP);
 8005932:	693b      	ldr	r3, [r7, #16]
 8005934:	f023 030a 	bic.w	r3, r3, #10
 8005938:	613b      	str	r3, [r7, #16]
  tmpccer |= (TIM_ICPolarity & (TIM_CCER_CC1P | TIM_CCER_CC1NP));
 800593a:	68bb      	ldr	r3, [r7, #8]
 800593c:	f003 030a 	and.w	r3, r3, #10
 8005940:	693a      	ldr	r2, [r7, #16]
 8005942:	4313      	orrs	r3, r2
 8005944:	613b      	str	r3, [r7, #16]

  /* Write to TIMx CCMR1 and CCER registers */
  TIMx->CCMR1 = tmpccmr1;
 8005946:	68fb      	ldr	r3, [r7, #12]
 8005948:	697a      	ldr	r2, [r7, #20]
 800594a:	619a      	str	r2, [r3, #24]
  TIMx->CCER = tmpccer;
 800594c:	68fb      	ldr	r3, [r7, #12]
 800594e:	693a      	ldr	r2, [r7, #16]
 8005950:	621a      	str	r2, [r3, #32]
}
 8005952:	bf00      	nop
 8005954:	371c      	adds	r7, #28
 8005956:	46bd      	mov	sp, r7
 8005958:	f85d 7b04 	ldr.w	r7, [sp], #4
 800595c:	4770      	bx	lr
 800595e:	bf00      	nop
 8005960:	40010000 	.word	0x40010000
 8005964:	40000400 	.word	0x40000400
 8005968:	40000800 	.word	0x40000800
 800596c:	40000c00 	.word	0x40000c00
 8005970:	40010400 	.word	0x40010400
 8005974:	40014000 	.word	0x40014000
 8005978:	40001800 	.word	0x40001800

0800597c <TIM_TI1_ConfigInputStage>:
  * @param  TIM_ICFilter Specifies the Input Capture Filter.
  *          This parameter must be a value between 0x00 and 0x0F.
  * @retval None
  */
static void TIM_TI1_ConfigInputStage(TIM_TypeDef *TIMx, uint32_t TIM_ICPolarity, uint32_t TIM_ICFilter)
{
 800597c:	b480      	push	{r7}
 800597e:	b087      	sub	sp, #28
 8005980:	af00      	add	r7, sp, #0
 8005982:	60f8      	str	r0, [r7, #12]
 8005984:	60b9      	str	r1, [r7, #8]
 8005986:	607a      	str	r2, [r7, #4]
  uint32_t tmpccmr1;
  uint32_t tmpccer;

  /* Disable the Channel 1: Reset the CC1E Bit */
  tmpccer = TIMx->CCER;
 8005988:	68fb      	ldr	r3, [r7, #12]
 800598a:	6a1b      	ldr	r3, [r3, #32]
 800598c:	617b      	str	r3, [r7, #20]
  TIMx->CCER &= ~TIM_CCER_CC1E;
 800598e:	68fb      	ldr	r3, [r7, #12]
 8005990:	6a1b      	ldr	r3, [r3, #32]
 8005992:	f023 0201 	bic.w	r2, r3, #1
 8005996:	68fb      	ldr	r3, [r7, #12]
 8005998:	621a      	str	r2, [r3, #32]
  tmpccmr1 = TIMx->CCMR1;
 800599a:	68fb      	ldr	r3, [r7, #12]
 800599c:	699b      	ldr	r3, [r3, #24]
 800599e:	613b      	str	r3, [r7, #16]

  /* Set the filter */
  tmpccmr1 &= ~TIM_CCMR1_IC1F;
 80059a0:	693b      	ldr	r3, [r7, #16]
 80059a2:	f023 03f0 	bic.w	r3, r3, #240	@ 0xf0
 80059a6:	613b      	str	r3, [r7, #16]
  tmpccmr1 |= (TIM_ICFilter << 4U);
 80059a8:	687b      	ldr	r3, [r7, #4]
 80059aa:	011b      	lsls	r3, r3, #4
 80059ac:	693a      	ldr	r2, [r7, #16]
 80059ae:	4313      	orrs	r3, r2
 80059b0:	613b      	str	r3, [r7, #16]

  /* Select the Polarity and set the CC1E Bit */
  tmpccer &= ~(TIM_CCER_CC1P | TIM_CCER_CC1NP);
 80059b2:	697b      	ldr	r3, [r7, #20]
 80059b4:	f023 030a 	bic.w	r3, r3, #10
 80059b8:	617b      	str	r3, [r7, #20]
  tmpccer |= TIM_ICPolarity;
 80059ba:	697a      	ldr	r2, [r7, #20]
 80059bc:	68bb      	ldr	r3, [r7, #8]
 80059be:	4313      	orrs	r3, r2
 80059c0:	617b      	str	r3, [r7, #20]

  /* Write to TIMx CCMR1 and CCER registers */
  TIMx->CCMR1 = tmpccmr1;
 80059c2:	68fb      	ldr	r3, [r7, #12]
 80059c4:	693a      	ldr	r2, [r7, #16]
 80059c6:	619a      	str	r2, [r3, #24]
  TIMx->CCER = tmpccer;
 80059c8:	68fb      	ldr	r3, [r7, #12]
 80059ca:	697a      	ldr	r2, [r7, #20]
 80059cc:	621a      	str	r2, [r3, #32]
}
 80059ce:	bf00      	nop
 80059d0:	371c      	adds	r7, #28
 80059d2:	46bd      	mov	sp, r7
 80059d4:	f85d 7b04 	ldr.w	r7, [sp], #4
 80059d8:	4770      	bx	lr

080059da <TIM_TI2_SetConfig>:
  *       (on channel1 path) is used as the input signal. Therefore CCMR1 must be
  *        protected against un-initialized filter and polarity values.
  */
static void TIM_TI2_SetConfig(TIM_TypeDef *TIMx, uint32_t TIM_ICPolarity, uint32_t TIM_ICSelection,
                              uint32_t TIM_ICFilter)
{
 80059da:	b480      	push	{r7}
 80059dc:	b087      	sub	sp, #28
 80059de:	af00      	add	r7, sp, #0
 80059e0:	60f8      	str	r0, [r7, #12]
 80059e2:	60b9      	str	r1, [r7, #8]
 80059e4:	607a      	str	r2, [r7, #4]
 80059e6:	603b      	str	r3, [r7, #0]
  uint32_t tmpccmr1;
  uint32_t tmpccer;

  /* Disable the Channel 2: Reset the CC2E Bit */
  tmpccer = TIMx->CCER;
 80059e8:	68fb      	ldr	r3, [r7, #12]
 80059ea:	6a1b      	ldr	r3, [r3, #32]
 80059ec:	617b      	str	r3, [r7, #20]
  TIMx->CCER &= ~TIM_CCER_CC2E;
 80059ee:	68fb      	ldr	r3, [r7, #12]
 80059f0:	6a1b      	ldr	r3, [r3, #32]
 80059f2:	f023 0210 	bic.w	r2, r3, #16
 80059f6:	68fb      	ldr	r3, [r7, #12]
 80059f8:	621a      	str	r2, [r3, #32]
  tmpccmr1 = TIMx->CCMR1;
 80059fa:	68fb      	ldr	r3, [r7, #12]
 80059fc:	699b      	ldr	r3, [r3, #24]
 80059fe:	613b      	str	r3, [r7, #16]

  /* Select the Input */
  tmpccmr1 &= ~TIM_CCMR1_CC2S;
 8005a00:	693b      	ldr	r3, [r7, #16]
 8005a02:	f423 7340 	bic.w	r3, r3, #768	@ 0x300
 8005a06:	613b      	str	r3, [r7, #16]
  tmpccmr1 |= (TIM_ICSelection << 8U);
 8005a08:	687b      	ldr	r3, [r7, #4]
 8005a0a:	021b      	lsls	r3, r3, #8
 8005a0c:	693a      	ldr	r2, [r7, #16]
 8005a0e:	4313      	orrs	r3, r2
 8005a10:	613b      	str	r3, [r7, #16]

  /* Set the filter */
  tmpccmr1 &= ~TIM_CCMR1_IC2F;
 8005a12:	693b      	ldr	r3, [r7, #16]
 8005a14:	f423 4370 	bic.w	r3, r3, #61440	@ 0xf000
 8005a18:	613b      	str	r3, [r7, #16]
  tmpccmr1 |= ((TIM_ICFilter << 12U) & TIM_CCMR1_IC2F);
 8005a1a:	683b      	ldr	r3, [r7, #0]
 8005a1c:	031b      	lsls	r3, r3, #12
 8005a1e:	b29b      	uxth	r3, r3
 8005a20:	693a      	ldr	r2, [r7, #16]
 8005a22:	4313      	orrs	r3, r2
 8005a24:	613b      	str	r3, [r7, #16]

  /* Select the Polarity and set the CC2E Bit */
  tmpccer &= ~(TIM_CCER_CC2P | TIM_CCER_CC2NP);
 8005a26:	697b      	ldr	r3, [r7, #20]
 8005a28:	f023 03a0 	bic.w	r3, r3, #160	@ 0xa0
 8005a2c:	617b      	str	r3, [r7, #20]
  tmpccer |= ((TIM_ICPolarity << 4U) & (TIM_CCER_CC2P | TIM_CCER_CC2NP));
 8005a2e:	68bb      	ldr	r3, [r7, #8]
 8005a30:	011b      	lsls	r3, r3, #4
 8005a32:	f003 03a0 	and.w	r3, r3, #160	@ 0xa0
 8005a36:	697a      	ldr	r2, [r7, #20]
 8005a38:	4313      	orrs	r3, r2
 8005a3a:	617b      	str	r3, [r7, #20]

  /* Write to TIMx CCMR1 and CCER registers */
  TIMx->CCMR1 = tmpccmr1 ;
 8005a3c:	68fb      	ldr	r3, [r7, #12]
 8005a3e:	693a      	ldr	r2, [r7, #16]
 8005a40:	619a      	str	r2, [r3, #24]
  TIMx->CCER = tmpccer;
 8005a42:	68fb      	ldr	r3, [r7, #12]
 8005a44:	697a      	ldr	r2, [r7, #20]
 8005a46:	621a      	str	r2, [r3, #32]
}
 8005a48:	bf00      	nop
 8005a4a:	371c      	adds	r7, #28
 8005a4c:	46bd      	mov	sp, r7
 8005a4e:	f85d 7b04 	ldr.w	r7, [sp], #4
 8005a52:	4770      	bx	lr

08005a54 <TIM_TI2_ConfigInputStage>:
  * @param  TIM_ICFilter Specifies the Input Capture Filter.
  *          This parameter must be a value between 0x00 and 0x0F.
  * @retval None
  */
static void TIM_TI2_ConfigInputStage(TIM_TypeDef *TIMx, uint32_t TIM_ICPolarity, uint32_t TIM_ICFilter)
{
 8005a54:	b480      	push	{r7}
 8005a56:	b087      	sub	sp, #28
 8005a58:	af00      	add	r7, sp, #0
 8005a5a:	60f8      	str	r0, [r7, #12]
 8005a5c:	60b9      	str	r1, [r7, #8]
 8005a5e:	607a      	str	r2, [r7, #4]
  uint32_t tmpccmr1;
  uint32_t tmpccer;

  /* Disable the Channel 2: Reset the CC2E Bit */
  tmpccer = TIMx->CCER;
 8005a60:	68fb      	ldr	r3, [r7, #12]
 8005a62:	6a1b      	ldr	r3, [r3, #32]
 8005a64:	617b      	str	r3, [r7, #20]
  TIMx->CCER &= ~TIM_CCER_CC2E;
 8005a66:	68fb      	ldr	r3, [r7, #12]
 8005a68:	6a1b      	ldr	r3, [r3, #32]
 8005a6a:	f023 0210 	bic.w	r2, r3, #16
 8005a6e:	68fb      	ldr	r3, [r7, #12]
 8005a70:	621a      	str	r2, [r3, #32]
  tmpccmr1 = TIMx->CCMR1;
 8005a72:	68fb      	ldr	r3, [r7, #12]
 8005a74:	699b      	ldr	r3, [r3, #24]
 8005a76:	613b      	str	r3, [r7, #16]

  /* Set the filter */
  tmpccmr1 &= ~TIM_CCMR1_IC2F;
 8005a78:	693b      	ldr	r3, [r7, #16]
 8005a7a:	f423 4370 	bic.w	r3, r3, #61440	@ 0xf000
 8005a7e:	613b      	str	r3, [r7, #16]
  tmpccmr1 |= (TIM_ICFilter << 12U);
 8005a80:	687b      	ldr	r3, [r7, #4]
 8005a82:	031b      	lsls	r3, r3, #12
 8005a84:	693a      	ldr	r2, [r7, #16]
 8005a86:	4313      	orrs	r3, r2
 8005a88:	613b      	str	r3, [r7, #16]

  /* Select the Polarity and set the CC2E Bit */
  tmpccer &= ~(TIM_CCER_CC2P | TIM_CCER_CC2NP);
 8005a8a:	697b      	ldr	r3, [r7, #20]
 8005a8c:	f023 03a0 	bic.w	r3, r3, #160	@ 0xa0
 8005a90:	617b      	str	r3, [r7, #20]
  tmpccer |= (TIM_ICPolarity << 4U);
 8005a92:	68bb      	ldr	r3, [r7, #8]
 8005a94:	011b      	lsls	r3, r3, #4
 8005a96:	697a      	ldr	r2, [r7, #20]
 8005a98:	4313      	orrs	r3, r2
 8005a9a:	617b      	str	r3, [r7, #20]

  /* Write to TIMx CCMR1 and CCER registers */
  TIMx->CCMR1 = tmpccmr1 ;
 8005a9c:	68fb      	ldr	r3, [r7, #12]
 8005a9e:	693a      	ldr	r2, [r7, #16]
 8005aa0:	619a      	str	r2, [r3, #24]
  TIMx->CCER = tmpccer;
 8005aa2:	68fb      	ldr	r3, [r7, #12]
 8005aa4:	697a      	ldr	r2, [r7, #20]
 8005aa6:	621a      	str	r2, [r3, #32]
}
 8005aa8:	bf00      	nop
 8005aaa:	371c      	adds	r7, #28
 8005aac:	46bd      	mov	sp, r7
 8005aae:	f85d 7b04 	ldr.w	r7, [sp], #4
 8005ab2:	4770      	bx	lr

08005ab4 <TIM_TI3_SetConfig>:
  *       (on channel1 path) is used as the input signal. Therefore CCMR2 must be
  *        protected against un-initialized filter and polarity values.
  */
static void TIM_TI3_SetConfig(TIM_TypeDef *TIMx, uint32_t TIM_ICPolarity, uint32_t TIM_ICSelection,
                              uint32_t TIM_ICFilter)
{
 8005ab4:	b480      	push	{r7}
 8005ab6:	b087      	sub	sp, #28
 8005ab8:	af00      	add	r7, sp, #0
 8005aba:	60f8      	str	r0, [r7, #12]
 8005abc:	60b9      	str	r1, [r7, #8]
 8005abe:	607a      	str	r2, [r7, #4]
 8005ac0:	603b      	str	r3, [r7, #0]
  uint32_t tmpccmr2;
  uint32_t tmpccer;

  /* Disable the Channel 3: Reset the CC3E Bit */
  tmpccer = TIMx->CCER;
 8005ac2:	68fb      	ldr	r3, [r7, #12]
 8005ac4:	6a1b      	ldr	r3, [r3, #32]
 8005ac6:	617b      	str	r3, [r7, #20]
  TIMx->CCER &= ~TIM_CCER_CC3E;
 8005ac8:	68fb      	ldr	r3, [r7, #12]
 8005aca:	6a1b      	ldr	r3, [r3, #32]
 8005acc:	f423 7280 	bic.w	r2, r3, #256	@ 0x100
 8005ad0:	68fb      	ldr	r3, [r7, #12]
 8005ad2:	621a      	str	r2, [r3, #32]
  tmpccmr2 = TIMx->CCMR2;
 8005ad4:	68fb      	ldr	r3, [r7, #12]
 8005ad6:	69db      	ldr	r3, [r3, #28]
 8005ad8:	613b      	str	r3, [r7, #16]

  /* Select the Input */
  tmpccmr2 &= ~TIM_CCMR2_CC3S;
 8005ada:	693b      	ldr	r3, [r7, #16]
 8005adc:	f023 0303 	bic.w	r3, r3, #3
 8005ae0:	613b      	str	r3, [r7, #16]
  tmpccmr2 |= TIM_ICSelection;
 8005ae2:	693a      	ldr	r2, [r7, #16]
 8005ae4:	687b      	ldr	r3, [r7, #4]
 8005ae6:	4313      	orrs	r3, r2
 8005ae8:	613b      	str	r3, [r7, #16]

  /* Set the filter */
  tmpccmr2 &= ~TIM_CCMR2_IC3F;
 8005aea:	693b      	ldr	r3, [r7, #16]
 8005aec:	f023 03f0 	bic.w	r3, r3, #240	@ 0xf0
 8005af0:	613b      	str	r3, [r7, #16]
  tmpccmr2 |= ((TIM_ICFilter << 4U) & TIM_CCMR2_IC3F);
 8005af2:	683b      	ldr	r3, [r7, #0]
 8005af4:	011b      	lsls	r3, r3, #4
 8005af6:	b2db      	uxtb	r3, r3
 8005af8:	693a      	ldr	r2, [r7, #16]
 8005afa:	4313      	orrs	r3, r2
 8005afc:	613b      	str	r3, [r7, #16]

  /* Select the Polarity and set the CC3E Bit */
  tmpccer &= ~(TIM_CCER_CC3P | TIM_CCER_CC3NP);
 8005afe:	697b      	ldr	r3, [r7, #20]
 8005b00:	f423 6320 	bic.w	r3, r3, #2560	@ 0xa00
 8005b04:	617b      	str	r3, [r7, #20]
  tmpccer |= ((TIM_ICPolarity << 8U) & (TIM_CCER_CC3P | TIM_CCER_CC3NP));
 8005b06:	68bb      	ldr	r3, [r7, #8]
 8005b08:	021b      	lsls	r3, r3, #8
 8005b0a:	f403 6320 	and.w	r3, r3, #2560	@ 0xa00
 8005b0e:	697a      	ldr	r2, [r7, #20]
 8005b10:	4313      	orrs	r3, r2
 8005b12:	617b      	str	r3, [r7, #20]

  /* Write to TIMx CCMR2 and CCER registers */
  TIMx->CCMR2 = tmpccmr2;
 8005b14:	68fb      	ldr	r3, [r7, #12]
 8005b16:	693a      	ldr	r2, [r7, #16]
 8005b18:	61da      	str	r2, [r3, #28]
  TIMx->CCER = tmpccer;
 8005b1a:	68fb      	ldr	r3, [r7, #12]
 8005b1c:	697a      	ldr	r2, [r7, #20]
 8005b1e:	621a      	str	r2, [r3, #32]
}
 8005b20:	bf00      	nop
 8005b22:	371c      	adds	r7, #28
 8005b24:	46bd      	mov	sp, r7
 8005b26:	f85d 7b04 	ldr.w	r7, [sp], #4
 8005b2a:	4770      	bx	lr

08005b2c <TIM_TI4_SetConfig>:
  *        protected against un-initialized filter and polarity values.
  * @retval None
  */
static void TIM_TI4_SetConfig(TIM_TypeDef *TIMx, uint32_t TIM_ICPolarity, uint32_t TIM_ICSelection,
                              uint32_t TIM_ICFilter)
{
 8005b2c:	b480      	push	{r7}
 8005b2e:	b087      	sub	sp, #28
 8005b30:	af00      	add	r7, sp, #0
 8005b32:	60f8      	str	r0, [r7, #12]
 8005b34:	60b9      	str	r1, [r7, #8]
 8005b36:	607a      	str	r2, [r7, #4]
 8005b38:	603b      	str	r3, [r7, #0]
  uint32_t tmpccmr2;
  uint32_t tmpccer;

  /* Disable the Channel 4: Reset the CC4E Bit */
  tmpccer = TIMx->CCER;
 8005b3a:	68fb      	ldr	r3, [r7, #12]
 8005b3c:	6a1b      	ldr	r3, [r3, #32]
 8005b3e:	617b      	str	r3, [r7, #20]
  TIMx->CCER &= ~TIM_CCER_CC4E;
 8005b40:	68fb      	ldr	r3, [r7, #12]
 8005b42:	6a1b      	ldr	r3, [r3, #32]
 8005b44:	f423 5280 	bic.w	r2, r3, #4096	@ 0x1000
 8005b48:	68fb      	ldr	r3, [r7, #12]
 8005b4a:	621a      	str	r2, [r3, #32]
  tmpccmr2 = TIMx->CCMR2;
 8005b4c:	68fb      	ldr	r3, [r7, #12]
 8005b4e:	69db      	ldr	r3, [r3, #28]
 8005b50:	613b      	str	r3, [r7, #16]

  /* Select the Input */
  tmpccmr2 &= ~TIM_CCMR2_CC4S;
 8005b52:	693b      	ldr	r3, [r7, #16]
 8005b54:	f423 7340 	bic.w	r3, r3, #768	@ 0x300
 8005b58:	613b      	str	r3, [r7, #16]
  tmpccmr2 |= (TIM_ICSelection << 8U);
 8005b5a:	687b      	ldr	r3, [r7, #4]
 8005b5c:	021b      	lsls	r3, r3, #8
 8005b5e:	693a      	ldr	r2, [r7, #16]
 8005b60:	4313      	orrs	r3, r2
 8005b62:	613b      	str	r3, [r7, #16]

  /* Set the filter */
  tmpccmr2 &= ~TIM_CCMR2_IC4F;
 8005b64:	693b      	ldr	r3, [r7, #16]
 8005b66:	f423 4370 	bic.w	r3, r3, #61440	@ 0xf000
 8005b6a:	613b      	str	r3, [r7, #16]
  tmpccmr2 |= ((TIM_ICFilter << 12U) & TIM_CCMR2_IC4F);
 8005b6c:	683b      	ldr	r3, [r7, #0]
 8005b6e:	031b      	lsls	r3, r3, #12
 8005b70:	b29b      	uxth	r3, r3
 8005b72:	693a      	ldr	r2, [r7, #16]
 8005b74:	4313      	orrs	r3, r2
 8005b76:	613b      	str	r3, [r7, #16]

  /* Select the Polarity and set the CC4E Bit */
  tmpccer &= ~(TIM_CCER_CC4P | TIM_CCER_CC4NP);
 8005b78:	697b      	ldr	r3, [r7, #20]
 8005b7a:	f423 4320 	bic.w	r3, r3, #40960	@ 0xa000
 8005b7e:	617b      	str	r3, [r7, #20]
  tmpccer |= ((TIM_ICPolarity << 12U) & (TIM_CCER_CC4P | TIM_CCER_CC4NP));
 8005b80:	68bb      	ldr	r3, [r7, #8]
 8005b82:	031b      	lsls	r3, r3, #12
 8005b84:	f403 4320 	and.w	r3, r3, #40960	@ 0xa000
 8005b88:	697a      	ldr	r2, [r7, #20]
 8005b8a:	4313      	orrs	r3, r2
 8005b8c:	617b      	str	r3, [r7, #20]

  /* Write to TIMx CCMR2 and CCER registers */
  TIMx->CCMR2 = tmpccmr2;
 8005b8e:	68fb      	ldr	r3, [r7, #12]
 8005b90:	693a      	ldr	r2, [r7, #16]
 8005b92:	61da      	str	r2, [r3, #28]
  TIMx->CCER = tmpccer ;
 8005b94:	68fb      	ldr	r3, [r7, #12]
 8005b96:	697a      	ldr	r2, [r7, #20]
 8005b98:	621a      	str	r2, [r3, #32]
}
 8005b9a:	bf00      	nop
 8005b9c:	371c      	adds	r7, #28
 8005b9e:	46bd      	mov	sp, r7
 8005ba0:	f85d 7b04 	ldr.w	r7, [sp], #4
 8005ba4:	4770      	bx	lr

08005ba6 <TIM_ITRx_SetConfig>:
  *            @arg TIM_TS_TI2FP2: Filtered Timer Input 2
  *            @arg TIM_TS_ETRF: External Trigger input
  * @retval None
  */
static void TIM_ITRx_SetConfig(TIM_TypeDef *TIMx, uint32_t InputTriggerSource)
{
 8005ba6:	b480      	push	{r7}
 8005ba8:	b085      	sub	sp, #20
 8005baa:	af00      	add	r7, sp, #0
 8005bac:	6078      	str	r0, [r7, #4]
 8005bae:	6039      	str	r1, [r7, #0]
  uint32_t tmpsmcr;

  /* Get the TIMx SMCR register value */
  tmpsmcr = TIMx->SMCR;
 8005bb0:	687b      	ldr	r3, [r7, #4]
 8005bb2:	689b      	ldr	r3, [r3, #8]
 8005bb4:	60fb      	str	r3, [r7, #12]
  /* Reset the TS Bits */
  tmpsmcr &= ~TIM_SMCR_TS;
 8005bb6:	68fb      	ldr	r3, [r7, #12]
 8005bb8:	f023 0370 	bic.w	r3, r3, #112	@ 0x70
 8005bbc:	60fb      	str	r3, [r7, #12]
  /* Set the Input Trigger source and the slave mode*/
  tmpsmcr |= (InputTriggerSource | TIM_SLAVEMODE_EXTERNAL1);
 8005bbe:	683a      	ldr	r2, [r7, #0]
 8005bc0:	68fb      	ldr	r3, [r7, #12]
 8005bc2:	4313      	orrs	r3, r2
 8005bc4:	f043 0307 	orr.w	r3, r3, #7
 8005bc8:	60fb      	str	r3, [r7, #12]
  /* Write to TIMx SMCR */
  TIMx->SMCR = tmpsmcr;
 8005bca:	687b      	ldr	r3, [r7, #4]
 8005bcc:	68fa      	ldr	r2, [r7, #12]
 8005bce:	609a      	str	r2, [r3, #8]
}
 8005bd0:	bf00      	nop
 8005bd2:	3714      	adds	r7, #20
 8005bd4:	46bd      	mov	sp, r7
 8005bd6:	f85d 7b04 	ldr.w	r7, [sp], #4
 8005bda:	4770      	bx	lr

08005bdc <TIM_ETR_SetConfig>:
  *          This parameter must be a value between 0x00 and 0x0F
  * @retval None
  */
void TIM_ETR_SetConfig(TIM_TypeDef *TIMx, uint32_t TIM_ExtTRGPrescaler,
                       uint32_t TIM_ExtTRGPolarity, uint32_t ExtTRGFilter)
{
 8005bdc:	b480      	push	{r7}
 8005bde:	b087      	sub	sp, #28
 8005be0:	af00      	add	r7, sp, #0
 8005be2:	60f8      	str	r0, [r7, #12]
 8005be4:	60b9      	str	r1, [r7, #8]
 8005be6:	607a      	str	r2, [r7, #4]
 8005be8:	603b      	str	r3, [r7, #0]
  uint32_t tmpsmcr;

  tmpsmcr = TIMx->SMCR;
 8005bea:	68fb      	ldr	r3, [r7, #12]
 8005bec:	689b      	ldr	r3, [r3, #8]
 8005bee:	617b      	str	r3, [r7, #20]

  /* Reset the ETR Bits */
  tmpsmcr &= ~(TIM_SMCR_ETF | TIM_SMCR_ETPS | TIM_SMCR_ECE | TIM_SMCR_ETP);
 8005bf0:	697b      	ldr	r3, [r7, #20]
 8005bf2:	f423 437f 	bic.w	r3, r3, #65280	@ 0xff00
 8005bf6:	617b      	str	r3, [r7, #20]

  /* Set the Prescaler, the Filter value and the Polarity */
  tmpsmcr |= (uint32_t)(TIM_ExtTRGPrescaler | (TIM_ExtTRGPolarity | (ExtTRGFilter << 8U)));
 8005bf8:	683b      	ldr	r3, [r7, #0]
 8005bfa:	021a      	lsls	r2, r3, #8
 8005bfc:	687b      	ldr	r3, [r7, #4]
 8005bfe:	431a      	orrs	r2, r3
 8005c00:	68bb      	ldr	r3, [r7, #8]
 8005c02:	4313      	orrs	r3, r2
 8005c04:	697a      	ldr	r2, [r7, #20]
 8005c06:	4313      	orrs	r3, r2
 8005c08:	617b      	str	r3, [r7, #20]

  /* Write to TIMx SMCR */
  TIMx->SMCR = tmpsmcr;
 8005c0a:	68fb      	ldr	r3, [r7, #12]
 8005c0c:	697a      	ldr	r2, [r7, #20]
 8005c0e:	609a      	str	r2, [r3, #8]
}
 8005c10:	bf00      	nop
 8005c12:	371c      	adds	r7, #28
 8005c14:	46bd      	mov	sp, r7
 8005c16:	f85d 7b04 	ldr.w	r7, [sp], #4
 8005c1a:	4770      	bx	lr

08005c1c <TIM_CCxChannelCmd>:
  * @param  ChannelState specifies the TIM Channel CCxE bit new state.
  *          This parameter can be: TIM_CCx_ENABLE or TIM_CCx_DISABLE.
  * @retval None
  */
void TIM_CCxChannelCmd(TIM_TypeDef *TIMx, uint32_t Channel, uint32_t ChannelState)
{
 8005c1c:	b480      	push	{r7}
 8005c1e:	b087      	sub	sp, #28
 8005c20:	af00      	add	r7, sp, #0
 8005c22:	60f8      	str	r0, [r7, #12]
 8005c24:	60b9      	str	r1, [r7, #8]
 8005c26:	607a      	str	r2, [r7, #4]

  /* Check the parameters */
  assert_param(IS_TIM_CC1_INSTANCE(TIMx));
  assert_param(IS_TIM_CHANNELS(Channel));

  tmp = TIM_CCER_CC1E << (Channel & 0x1FU); /* 0x1FU = 31 bits max shift */
 8005c28:	68bb      	ldr	r3, [r7, #8]
 8005c2a:	f003 031f 	and.w	r3, r3, #31
 8005c2e:	2201      	movs	r2, #1
 8005c30:	fa02 f303 	lsl.w	r3, r2, r3
 8005c34:	617b      	str	r3, [r7, #20]

  /* Reset the CCxE Bit */
  TIMx->CCER &= ~tmp;
 8005c36:	68fb      	ldr	r3, [r7, #12]
 8005c38:	6a1a      	ldr	r2, [r3, #32]
 8005c3a:	697b      	ldr	r3, [r7, #20]
 8005c3c:	43db      	mvns	r3, r3
 8005c3e:	401a      	ands	r2, r3
 8005c40:	68fb      	ldr	r3, [r7, #12]
 8005c42:	621a      	str	r2, [r3, #32]

  /* Set or reset the CCxE Bit */
  TIMx->CCER |= (uint32_t)(ChannelState << (Channel & 0x1FU)); /* 0x1FU = 31 bits max shift */
 8005c44:	68fb      	ldr	r3, [r7, #12]
 8005c46:	6a1a      	ldr	r2, [r3, #32]
 8005c48:	68bb      	ldr	r3, [r7, #8]
 8005c4a:	f003 031f 	and.w	r3, r3, #31
 8005c4e:	6879      	ldr	r1, [r7, #4]
 8005c50:	fa01 f303 	lsl.w	r3, r1, r3
 8005c54:	431a      	orrs	r2, r3
 8005c56:	68fb      	ldr	r3, [r7, #12]
 8005c58:	621a      	str	r2, [r3, #32]
}
 8005c5a:	bf00      	nop
 8005c5c:	371c      	adds	r7, #28
 8005c5e:	46bd      	mov	sp, r7
 8005c60:	f85d 7b04 	ldr.w	r7, [sp], #4
 8005c64:	4770      	bx	lr
	...

08005c68 <HAL_TIMEx_MasterConfigSynchronization>:
  *         mode.
  * @retval HAL status
  */
HAL_StatusTypeDef HAL_TIMEx_MasterConfigSynchronization(TIM_HandleTypeDef *htim,
                                                        const TIM_MasterConfigTypeDef *sMasterConfig)
{
 8005c68:	b480      	push	{r7}
 8005c6a:	b085      	sub	sp, #20
 8005c6c:	af00      	add	r7, sp, #0
 8005c6e:	6078      	str	r0, [r7, #4]
 8005c70:	6039      	str	r1, [r7, #0]
  assert_param(IS_TIM_MASTER_INSTANCE(htim->Instance));
  assert_param(IS_TIM_TRGO_SOURCE(sMasterConfig->MasterOutputTrigger));
  assert_param(IS_TIM_MSM_STATE(sMasterConfig->MasterSlaveMode));

  /* Check input state */
  __HAL_LOCK(htim);
 8005c72:	687b      	ldr	r3, [r7, #4]
 8005c74:	f893 303c 	ldrb.w	r3, [r3, #60]	@ 0x3c
 8005c78:	2b01      	cmp	r3, #1
 8005c7a:	d101      	bne.n	8005c80 <HAL_TIMEx_MasterConfigSynchronization+0x18>
 8005c7c:	2302      	movs	r3, #2
 8005c7e:	e05a      	b.n	8005d36 <HAL_TIMEx_MasterConfigSynchronization+0xce>
 8005c80:	687b      	ldr	r3, [r7, #4]
 8005c82:	2201      	movs	r2, #1
 8005c84:	f883 203c 	strb.w	r2, [r3, #60]	@ 0x3c

  /* Change the handler state */
  htim->State = HAL_TIM_STATE_BUSY;
 8005c88:	687b      	ldr	r3, [r7, #4]
 8005c8a:	2202      	movs	r2, #2
 8005c8c:	f883 203d 	strb.w	r2, [r3, #61]	@ 0x3d

  /* Get the TIMx CR2 register value */
  tmpcr2 = htim->Instance->CR2;
 8005c90:	687b      	ldr	r3, [r7, #4]
 8005c92:	681b      	ldr	r3, [r3, #0]
 8005c94:	685b      	ldr	r3, [r3, #4]
 8005c96:	60fb      	str	r3, [r7, #12]

  /* Get the TIMx SMCR register value */
  tmpsmcr = htim->Instance->SMCR;
 8005c98:	687b      	ldr	r3, [r7, #4]
 8005c9a:	681b      	ldr	r3, [r3, #0]
 8005c9c:	689b      	ldr	r3, [r3, #8]
 8005c9e:	60bb      	str	r3, [r7, #8]

  /* Reset the MMS Bits */
  tmpcr2 &= ~TIM_CR2_MMS;
 8005ca0:	68fb      	ldr	r3, [r7, #12]
 8005ca2:	f023 0370 	bic.w	r3, r3, #112	@ 0x70
 8005ca6:	60fb      	str	r3, [r7, #12]
  /* Select the TRGO source */
  tmpcr2 |=  sMasterConfig->MasterOutputTrigger;
 8005ca8:	683b      	ldr	r3, [r7, #0]
 8005caa:	681b      	ldr	r3, [r3, #0]
 8005cac:	68fa      	ldr	r2, [r7, #12]
 8005cae:	4313      	orrs	r3, r2
 8005cb0:	60fb      	str	r3, [r7, #12]

  /* Update TIMx CR2 */
  htim->Instance->CR2 = tmpcr2;
 8005cb2:	687b      	ldr	r3, [r7, #4]
 8005cb4:	681b      	ldr	r3, [r3, #0]
 8005cb6:	68fa      	ldr	r2, [r7, #12]
 8005cb8:	605a      	str	r2, [r3, #4]

  if (IS_TIM_SLAVE_INSTANCE(htim->Instance))
 8005cba:	687b      	ldr	r3, [r7, #4]
 8005cbc:	681b      	ldr	r3, [r3, #0]
 8005cbe:	4a21      	ldr	r2, [pc, #132]	@ (8005d44 <HAL_TIMEx_MasterConfigSynchronization+0xdc>)
 8005cc0:	4293      	cmp	r3, r2
 8005cc2:	d022      	beq.n	8005d0a <HAL_TIMEx_MasterConfigSynchronization+0xa2>
 8005cc4:	687b      	ldr	r3, [r7, #4]
 8005cc6:	681b      	ldr	r3, [r3, #0]
 8005cc8:	f1b3 4f80 	cmp.w	r3, #1073741824	@ 0x40000000
 8005ccc:	d01d      	beq.n	8005d0a <HAL_TIMEx_MasterConfigSynchronization+0xa2>
 8005cce:	687b      	ldr	r3, [r7, #4]
 8005cd0:	681b      	ldr	r3, [r3, #0]
 8005cd2:	4a1d      	ldr	r2, [pc, #116]	@ (8005d48 <HAL_TIMEx_MasterConfigSynchronization+0xe0>)
 8005cd4:	4293      	cmp	r3, r2
 8005cd6:	d018      	beq.n	8005d0a <HAL_TIMEx_MasterConfigSynchronization+0xa2>
 8005cd8:	687b      	ldr	r3, [r7, #4]
 8005cda:	681b      	ldr	r3, [r3, #0]
 8005cdc:	4a1b      	ldr	r2, [pc, #108]	@ (8005d4c <HAL_TIMEx_MasterConfigSynchronization+0xe4>)
 8005cde:	4293      	cmp	r3, r2
 8005ce0:	d013      	beq.n	8005d0a <HAL_TIMEx_MasterConfigSynchronization+0xa2>
 8005ce2:	687b      	ldr	r3, [r7, #4]
 8005ce4:	681b      	ldr	r3, [r3, #0]
 8005ce6:	4a1a      	ldr	r2, [pc, #104]	@ (8005d50 <HAL_TIMEx_MasterConfigSynchronization+0xe8>)
 8005ce8:	4293      	cmp	r3, r2
 8005cea:	d00e      	beq.n	8005d0a <HAL_TIMEx_MasterConfigSynchronization+0xa2>
 8005cec:	687b      	ldr	r3, [r7, #4]
 8005cee:	681b      	ldr	r3, [r3, #0]
 8005cf0:	4a18      	ldr	r2, [pc, #96]	@ (8005d54 <HAL_TIMEx_MasterConfigSynchronization+0xec>)
 8005cf2:	4293      	cmp	r3, r2
 8005cf4:	d009      	beq.n	8005d0a <HAL_TIMEx_MasterConfigSynchronization+0xa2>
 8005cf6:	687b      	ldr	r3, [r7, #4]
 8005cf8:	681b      	ldr	r3, [r3, #0]
 8005cfa:	4a17      	ldr	r2, [pc, #92]	@ (8005d58 <HAL_TIMEx_MasterConfigSynchronization+0xf0>)
 8005cfc:	4293      	cmp	r3, r2
 8005cfe:	d004      	beq.n	8005d0a <HAL_TIMEx_MasterConfigSynchronization+0xa2>
 8005d00:	687b      	ldr	r3, [r7, #4]
 8005d02:	681b      	ldr	r3, [r3, #0]
 8005d04:	4a15      	ldr	r2, [pc, #84]	@ (8005d5c <HAL_TIMEx_MasterConfigSynchronization+0xf4>)
 8005d06:	4293      	cmp	r3, r2
 8005d08:	d10c      	bne.n	8005d24 <HAL_TIMEx_MasterConfigSynchronization+0xbc>
  {
    /* Reset the MSM Bit */
    tmpsmcr &= ~TIM_SMCR_MSM;
 8005d0a:	68bb      	ldr	r3, [r7, #8]
 8005d0c:	f023 0380 	bic.w	r3, r3, #128	@ 0x80
 8005d10:	60bb      	str	r3, [r7, #8]
    /* Set master mode */
    tmpsmcr |= sMasterConfig->MasterSlaveMode;
 8005d12:	683b      	ldr	r3, [r7, #0]
 8005d14:	685b      	ldr	r3, [r3, #4]
 8005d16:	68ba      	ldr	r2, [r7, #8]
 8005d18:	4313      	orrs	r3, r2
 8005d1a:	60bb      	str	r3, [r7, #8]

    /* Update TIMx SMCR */
    htim->Instance->SMCR = tmpsmcr;
 8005d1c:	687b      	ldr	r3, [r7, #4]
 8005d1e:	681b      	ldr	r3, [r3, #0]
 8005d20:	68ba      	ldr	r2, [r7, #8]
 8005d22:	609a      	str	r2, [r3, #8]
  }

  /* Change the htim state */
  htim->State = HAL_TIM_STATE_READY;
 8005d24:	687b      	ldr	r3, [r7, #4]
 8005d26:	2201      	movs	r2, #1
 8005d28:	f883 203d 	strb.w	r2, [r3, #61]	@ 0x3d

  __HAL_UNLOCK(htim);
 8005d2c:	687b      	ldr	r3, [r7, #4]
 8005d2e:	2200      	movs	r2, #0
 8005d30:	f883 203c 	strb.w	r2, [r3, #60]	@ 0x3c

  return HAL_OK;
 8005d34:	2300      	movs	r3, #0
}
 8005d36:	4618      	mov	r0, r3
 8005d38:	3714      	adds	r7, #20
 8005d3a:	46bd      	mov	sp, r7
 8005d3c:	f85d 7b04 	ldr.w	r7, [sp], #4
 8005d40:	4770      	bx	lr
 8005d42:	bf00      	nop
 8005d44:	40010000 	.word	0x40010000
 8005d48:	40000400 	.word	0x40000400
 8005d4c:	40000800 	.word	0x40000800
 8005d50:	40000c00 	.word	0x40000c00
 8005d54:	40010400 	.word	0x40010400
 8005d58:	40014000 	.word	0x40014000
 8005d5c:	40001800 	.word	0x40001800

08005d60 <HAL_TIMEx_CommutCallback>:
  * @brief  Commutation callback in non-blocking mode
  * @param  htim TIM handle
  * @retval None
  */
__weak void HAL_TIMEx_CommutCallback(TIM_HandleTypeDef *htim)
{
 8005d60:	b480      	push	{r7}
 8005d62:	b083      	sub	sp, #12
 8005d64:	af00      	add	r7, sp, #0
 8005d66:	6078      	str	r0, [r7, #4]
  UNUSED(htim);

  /* NOTE : This function should not be modified, when the callback is needed,
            the HAL_TIMEx_CommutCallback could be implemented in the user file
   */
}
 8005d68:	bf00      	nop
 8005d6a:	370c      	adds	r7, #12
 8005d6c:	46bd      	mov	sp, r7
 8005d6e:	f85d 7b04 	ldr.w	r7, [sp], #4
 8005d72:	4770      	bx	lr

08005d74 <HAL_TIMEx_BreakCallback>:
  * @brief  Break detection callback in non-blocking mode
  * @param  htim TIM handle
  * @retval None
  */
__weak void HAL_TIMEx_BreakCallback(TIM_HandleTypeDef *htim)
{
 8005d74:	b480      	push	{r7}
 8005d76:	b083      	sub	sp, #12
 8005d78:	af00      	add	r7, sp, #0
 8005d7a:	6078      	str	r0, [r7, #4]
  UNUSED(htim);

  /* NOTE : This function should not be modified, when the callback is needed,
            the HAL_TIMEx_BreakCallback could be implemented in the user file
   */
}
 8005d7c:	bf00      	nop
 8005d7e:	370c      	adds	r7, #12
 8005d80:	46bd      	mov	sp, r7
 8005d82:	f85d 7b04 	ldr.w	r7, [sp], #4
 8005d86:	4770      	bx	lr

08005d88 <__cvt>:
 8005d88:	e92d 47ff 	stmdb	sp!, {r0, r1, r2, r3, r4, r5, r6, r7, r8, r9, sl, lr}
 8005d8c:	ec57 6b10 	vmov	r6, r7, d0
 8005d90:	2f00      	cmp	r7, #0
 8005d92:	460c      	mov	r4, r1
 8005d94:	4619      	mov	r1, r3
 8005d96:	463b      	mov	r3, r7
 8005d98:	bfbb      	ittet	lt
 8005d9a:	f107 4300 	addlt.w	r3, r7, #2147483648	@ 0x80000000
 8005d9e:	461f      	movlt	r7, r3
 8005da0:	2300      	movge	r3, #0
 8005da2:	232d      	movlt	r3, #45	@ 0x2d
 8005da4:	700b      	strb	r3, [r1, #0]
 8005da6:	9b0d      	ldr	r3, [sp, #52]	@ 0x34
 8005da8:	f8dd a030 	ldr.w	sl, [sp, #48]	@ 0x30
 8005dac:	4691      	mov	r9, r2
 8005dae:	f023 0820 	bic.w	r8, r3, #32
 8005db2:	bfbc      	itt	lt
 8005db4:	4632      	movlt	r2, r6
 8005db6:	4616      	movlt	r6, r2
 8005db8:	f1b8 0f46 	cmp.w	r8, #70	@ 0x46
 8005dbc:	d005      	beq.n	8005dca <__cvt+0x42>
 8005dbe:	f1b8 0f45 	cmp.w	r8, #69	@ 0x45
 8005dc2:	d100      	bne.n	8005dc6 <__cvt+0x3e>
 8005dc4:	3401      	adds	r4, #1
 8005dc6:	2102      	movs	r1, #2
 8005dc8:	e000      	b.n	8005dcc <__cvt+0x44>
 8005dca:	2103      	movs	r1, #3
 8005dcc:	ab03      	add	r3, sp, #12
 8005dce:	9301      	str	r3, [sp, #4]
 8005dd0:	ab02      	add	r3, sp, #8
 8005dd2:	9300      	str	r3, [sp, #0]
 8005dd4:	ec47 6b10 	vmov	d0, r6, r7
 8005dd8:	4653      	mov	r3, sl
 8005dda:	4622      	mov	r2, r4
 8005ddc:	f000 fe5c 	bl	8006a98 <_dtoa_r>
 8005de0:	f1b8 0f47 	cmp.w	r8, #71	@ 0x47
 8005de4:	4605      	mov	r5, r0
 8005de6:	d119      	bne.n	8005e1c <__cvt+0x94>
 8005de8:	f019 0f01 	tst.w	r9, #1
 8005dec:	d00e      	beq.n	8005e0c <__cvt+0x84>
 8005dee:	eb00 0904 	add.w	r9, r0, r4
 8005df2:	2200      	movs	r2, #0
 8005df4:	2300      	movs	r3, #0
 8005df6:	4630      	mov	r0, r6
 8005df8:	4639      	mov	r1, r7
 8005dfa:	f7fa fe65 	bl	8000ac8 <__aeabi_dcmpeq>
 8005dfe:	b108      	cbz	r0, 8005e04 <__cvt+0x7c>
 8005e00:	f8cd 900c 	str.w	r9, [sp, #12]
 8005e04:	2230      	movs	r2, #48	@ 0x30
 8005e06:	9b03      	ldr	r3, [sp, #12]
 8005e08:	454b      	cmp	r3, r9
 8005e0a:	d31e      	bcc.n	8005e4a <__cvt+0xc2>
 8005e0c:	9b03      	ldr	r3, [sp, #12]
 8005e0e:	9a0e      	ldr	r2, [sp, #56]	@ 0x38
 8005e10:	1b5b      	subs	r3, r3, r5
 8005e12:	4628      	mov	r0, r5
 8005e14:	6013      	str	r3, [r2, #0]
 8005e16:	b004      	add	sp, #16
 8005e18:	e8bd 87f0 	ldmia.w	sp!, {r4, r5, r6, r7, r8, r9, sl, pc}
 8005e1c:	f1b8 0f46 	cmp.w	r8, #70	@ 0x46
 8005e20:	eb00 0904 	add.w	r9, r0, r4
 8005e24:	d1e5      	bne.n	8005df2 <__cvt+0x6a>
 8005e26:	7803      	ldrb	r3, [r0, #0]
 8005e28:	2b30      	cmp	r3, #48	@ 0x30
 8005e2a:	d10a      	bne.n	8005e42 <__cvt+0xba>
 8005e2c:	2200      	movs	r2, #0
 8005e2e:	2300      	movs	r3, #0
 8005e30:	4630      	mov	r0, r6
 8005e32:	4639      	mov	r1, r7
 8005e34:	f7fa fe48 	bl	8000ac8 <__aeabi_dcmpeq>
 8005e38:	b918      	cbnz	r0, 8005e42 <__cvt+0xba>
 8005e3a:	f1c4 0401 	rsb	r4, r4, #1
 8005e3e:	f8ca 4000 	str.w	r4, [sl]
 8005e42:	f8da 3000 	ldr.w	r3, [sl]
 8005e46:	4499      	add	r9, r3
 8005e48:	e7d3      	b.n	8005df2 <__cvt+0x6a>
 8005e4a:	1c59      	adds	r1, r3, #1
 8005e4c:	9103      	str	r1, [sp, #12]
 8005e4e:	701a      	strb	r2, [r3, #0]
 8005e50:	e7d9      	b.n	8005e06 <__cvt+0x7e>

08005e52 <__exponent>:
 8005e52:	b5f7      	push	{r0, r1, r2, r4, r5, r6, r7, lr}
 8005e54:	2900      	cmp	r1, #0
 8005e56:	bfba      	itte	lt
 8005e58:	4249      	neglt	r1, r1
 8005e5a:	232d      	movlt	r3, #45	@ 0x2d
 8005e5c:	232b      	movge	r3, #43	@ 0x2b
 8005e5e:	2909      	cmp	r1, #9
 8005e60:	7002      	strb	r2, [r0, #0]
 8005e62:	7043      	strb	r3, [r0, #1]
 8005e64:	dd29      	ble.n	8005eba <__exponent+0x68>
 8005e66:	f10d 0307 	add.w	r3, sp, #7
 8005e6a:	461d      	mov	r5, r3
 8005e6c:	270a      	movs	r7, #10
 8005e6e:	461a      	mov	r2, r3
 8005e70:	fbb1 f6f7 	udiv	r6, r1, r7
 8005e74:	fb07 1416 	mls	r4, r7, r6, r1
 8005e78:	3430      	adds	r4, #48	@ 0x30
 8005e7a:	f802 4c01 	strb.w	r4, [r2, #-1]
 8005e7e:	460c      	mov	r4, r1
 8005e80:	2c63      	cmp	r4, #99	@ 0x63
 8005e82:	f103 33ff 	add.w	r3, r3, #4294967295
 8005e86:	4631      	mov	r1, r6
 8005e88:	dcf1      	bgt.n	8005e6e <__exponent+0x1c>
 8005e8a:	3130      	adds	r1, #48	@ 0x30
 8005e8c:	1e94      	subs	r4, r2, #2
 8005e8e:	f803 1c01 	strb.w	r1, [r3, #-1]
 8005e92:	1c41      	adds	r1, r0, #1
 8005e94:	4623      	mov	r3, r4
 8005e96:	42ab      	cmp	r3, r5
 8005e98:	d30a      	bcc.n	8005eb0 <__exponent+0x5e>
 8005e9a:	f10d 0309 	add.w	r3, sp, #9
 8005e9e:	1a9b      	subs	r3, r3, r2
 8005ea0:	42ac      	cmp	r4, r5
 8005ea2:	bf88      	it	hi
 8005ea4:	2300      	movhi	r3, #0
 8005ea6:	3302      	adds	r3, #2
 8005ea8:	4403      	add	r3, r0
 8005eaa:	1a18      	subs	r0, r3, r0
 8005eac:	b003      	add	sp, #12
 8005eae:	bdf0      	pop	{r4, r5, r6, r7, pc}
 8005eb0:	f813 6b01 	ldrb.w	r6, [r3], #1
 8005eb4:	f801 6f01 	strb.w	r6, [r1, #1]!
 8005eb8:	e7ed      	b.n	8005e96 <__exponent+0x44>
 8005eba:	2330      	movs	r3, #48	@ 0x30
 8005ebc:	3130      	adds	r1, #48	@ 0x30
 8005ebe:	7083      	strb	r3, [r0, #2]
 8005ec0:	70c1      	strb	r1, [r0, #3]
 8005ec2:	1d03      	adds	r3, r0, #4
 8005ec4:	e7f1      	b.n	8005eaa <__exponent+0x58>
	...

08005ec8 <_printf_float>:
 8005ec8:	e92d 4ff0 	stmdb	sp!, {r4, r5, r6, r7, r8, r9, sl, fp, lr}
 8005ecc:	b08d      	sub	sp, #52	@ 0x34
 8005ece:	460c      	mov	r4, r1
 8005ed0:	f8dd 8058 	ldr.w	r8, [sp, #88]	@ 0x58
 8005ed4:	4616      	mov	r6, r2
 8005ed6:	461f      	mov	r7, r3
 8005ed8:	4605      	mov	r5, r0
 8005eda:	f000 fcdb 	bl	8006894 <_localeconv_r>
 8005ede:	6803      	ldr	r3, [r0, #0]
 8005ee0:	9304      	str	r3, [sp, #16]
 8005ee2:	4618      	mov	r0, r3
 8005ee4:	f7fa f9c4 	bl	8000270 <strlen>
 8005ee8:	2300      	movs	r3, #0
 8005eea:	930a      	str	r3, [sp, #40]	@ 0x28
 8005eec:	f8d8 3000 	ldr.w	r3, [r8]
 8005ef0:	9005      	str	r0, [sp, #20]
 8005ef2:	3307      	adds	r3, #7
 8005ef4:	f023 0307 	bic.w	r3, r3, #7
 8005ef8:	f103 0208 	add.w	r2, r3, #8
 8005efc:	f894 a018 	ldrb.w	sl, [r4, #24]
 8005f00:	f8d4 b000 	ldr.w	fp, [r4]
 8005f04:	f8c8 2000 	str.w	r2, [r8]
 8005f08:	e9d3 8900 	ldrd	r8, r9, [r3]
 8005f0c:	f029 4300 	bic.w	r3, r9, #2147483648	@ 0x80000000
 8005f10:	9307      	str	r3, [sp, #28]
 8005f12:	f8cd 8018 	str.w	r8, [sp, #24]
 8005f16:	e9c4 8912 	strd	r8, r9, [r4, #72]	@ 0x48
 8005f1a:	e9dd 0106 	ldrd	r0, r1, [sp, #24]
 8005f1e:	4b9c      	ldr	r3, [pc, #624]	@ (8006190 <_printf_float+0x2c8>)
 8005f20:	f04f 32ff 	mov.w	r2, #4294967295
 8005f24:	f7fa fe02 	bl	8000b2c <__aeabi_dcmpun>
 8005f28:	bb70      	cbnz	r0, 8005f88 <_printf_float+0xc0>
 8005f2a:	e9dd 0106 	ldrd	r0, r1, [sp, #24]
 8005f2e:	4b98      	ldr	r3, [pc, #608]	@ (8006190 <_printf_float+0x2c8>)
 8005f30:	f04f 32ff 	mov.w	r2, #4294967295
 8005f34:	f7fa fddc 	bl	8000af0 <__aeabi_dcmple>
 8005f38:	bb30      	cbnz	r0, 8005f88 <_printf_float+0xc0>
 8005f3a:	2200      	movs	r2, #0
 8005f3c:	2300      	movs	r3, #0
 8005f3e:	4640      	mov	r0, r8
 8005f40:	4649      	mov	r1, r9
 8005f42:	f7fa fdcb 	bl	8000adc <__aeabi_dcmplt>
 8005f46:	b110      	cbz	r0, 8005f4e <_printf_float+0x86>
 8005f48:	232d      	movs	r3, #45	@ 0x2d
 8005f4a:	f884 3043 	strb.w	r3, [r4, #67]	@ 0x43
 8005f4e:	4a91      	ldr	r2, [pc, #580]	@ (8006194 <_printf_float+0x2cc>)
 8005f50:	4b91      	ldr	r3, [pc, #580]	@ (8006198 <_printf_float+0x2d0>)
 8005f52:	f1ba 0f47 	cmp.w	sl, #71	@ 0x47
 8005f56:	bf94      	ite	ls
 8005f58:	4690      	movls	r8, r2
 8005f5a:	4698      	movhi	r8, r3
 8005f5c:	2303      	movs	r3, #3
 8005f5e:	6123      	str	r3, [r4, #16]
 8005f60:	f02b 0304 	bic.w	r3, fp, #4
 8005f64:	6023      	str	r3, [r4, #0]
 8005f66:	f04f 0900 	mov.w	r9, #0
 8005f6a:	9700      	str	r7, [sp, #0]
 8005f6c:	4633      	mov	r3, r6
 8005f6e:	aa0b      	add	r2, sp, #44	@ 0x2c
 8005f70:	4621      	mov	r1, r4
 8005f72:	4628      	mov	r0, r5
 8005f74:	f000 f9d2 	bl	800631c <_printf_common>
 8005f78:	3001      	adds	r0, #1
 8005f7a:	f040 808d 	bne.w	8006098 <_printf_float+0x1d0>
 8005f7e:	f04f 30ff 	mov.w	r0, #4294967295
 8005f82:	b00d      	add	sp, #52	@ 0x34
 8005f84:	e8bd 8ff0 	ldmia.w	sp!, {r4, r5, r6, r7, r8, r9, sl, fp, pc}
 8005f88:	4642      	mov	r2, r8
 8005f8a:	464b      	mov	r3, r9
 8005f8c:	4640      	mov	r0, r8
 8005f8e:	4649      	mov	r1, r9
 8005f90:	f7fa fdcc 	bl	8000b2c <__aeabi_dcmpun>
 8005f94:	b140      	cbz	r0, 8005fa8 <_printf_float+0xe0>
 8005f96:	464b      	mov	r3, r9
 8005f98:	2b00      	cmp	r3, #0
 8005f9a:	bfbc      	itt	lt
 8005f9c:	232d      	movlt	r3, #45	@ 0x2d
 8005f9e:	f884 3043 	strblt.w	r3, [r4, #67]	@ 0x43
 8005fa2:	4a7e      	ldr	r2, [pc, #504]	@ (800619c <_printf_float+0x2d4>)
 8005fa4:	4b7e      	ldr	r3, [pc, #504]	@ (80061a0 <_printf_float+0x2d8>)
 8005fa6:	e7d4      	b.n	8005f52 <_printf_float+0x8a>
 8005fa8:	6863      	ldr	r3, [r4, #4]
 8005faa:	f00a 02df 	and.w	r2, sl, #223	@ 0xdf
 8005fae:	9206      	str	r2, [sp, #24]
 8005fb0:	1c5a      	adds	r2, r3, #1
 8005fb2:	d13b      	bne.n	800602c <_printf_float+0x164>
 8005fb4:	2306      	movs	r3, #6
 8005fb6:	6063      	str	r3, [r4, #4]
 8005fb8:	f44b 6280 	orr.w	r2, fp, #1024	@ 0x400
 8005fbc:	2300      	movs	r3, #0
 8005fbe:	6022      	str	r2, [r4, #0]
 8005fc0:	9303      	str	r3, [sp, #12]
 8005fc2:	ab0a      	add	r3, sp, #40	@ 0x28
 8005fc4:	e9cd a301 	strd	sl, r3, [sp, #4]
 8005fc8:	ab09      	add	r3, sp, #36	@ 0x24
 8005fca:	9300      	str	r3, [sp, #0]
 8005fcc:	6861      	ldr	r1, [r4, #4]
 8005fce:	ec49 8b10 	vmov	d0, r8, r9
 8005fd2:	f10d 0323 	add.w	r3, sp, #35	@ 0x23
 8005fd6:	4628      	mov	r0, r5
 8005fd8:	f7ff fed6 	bl	8005d88 <__cvt>
 8005fdc:	9b06      	ldr	r3, [sp, #24]
 8005fde:	9909      	ldr	r1, [sp, #36]	@ 0x24
 8005fe0:	2b47      	cmp	r3, #71	@ 0x47
 8005fe2:	4680      	mov	r8, r0
 8005fe4:	d129      	bne.n	800603a <_printf_float+0x172>
 8005fe6:	1cc8      	adds	r0, r1, #3
 8005fe8:	db02      	blt.n	8005ff0 <_printf_float+0x128>
 8005fea:	6863      	ldr	r3, [r4, #4]
 8005fec:	4299      	cmp	r1, r3
 8005fee:	dd41      	ble.n	8006074 <_printf_float+0x1ac>
 8005ff0:	f1aa 0a02 	sub.w	sl, sl, #2
 8005ff4:	fa5f fa8a 	uxtb.w	sl, sl
 8005ff8:	3901      	subs	r1, #1
 8005ffa:	4652      	mov	r2, sl
 8005ffc:	f104 0050 	add.w	r0, r4, #80	@ 0x50
 8006000:	9109      	str	r1, [sp, #36]	@ 0x24
 8006002:	f7ff ff26 	bl	8005e52 <__exponent>
 8006006:	9a0a      	ldr	r2, [sp, #40]	@ 0x28
 8006008:	1813      	adds	r3, r2, r0
 800600a:	2a01      	cmp	r2, #1
 800600c:	4681      	mov	r9, r0
 800600e:	6123      	str	r3, [r4, #16]
 8006010:	dc02      	bgt.n	8006018 <_printf_float+0x150>
 8006012:	6822      	ldr	r2, [r4, #0]
 8006014:	07d2      	lsls	r2, r2, #31
 8006016:	d501      	bpl.n	800601c <_printf_float+0x154>
 8006018:	3301      	adds	r3, #1
 800601a:	6123      	str	r3, [r4, #16]
 800601c:	f89d 3023 	ldrb.w	r3, [sp, #35]	@ 0x23
 8006020:	2b00      	cmp	r3, #0
 8006022:	d0a2      	beq.n	8005f6a <_printf_float+0xa2>
 8006024:	232d      	movs	r3, #45	@ 0x2d
 8006026:	f884 3043 	strb.w	r3, [r4, #67]	@ 0x43
 800602a:	e79e      	b.n	8005f6a <_printf_float+0xa2>
 800602c:	9a06      	ldr	r2, [sp, #24]
 800602e:	2a47      	cmp	r2, #71	@ 0x47
 8006030:	d1c2      	bne.n	8005fb8 <_printf_float+0xf0>
 8006032:	2b00      	cmp	r3, #0
 8006034:	d1c0      	bne.n	8005fb8 <_printf_float+0xf0>
 8006036:	2301      	movs	r3, #1
 8006038:	e7bd      	b.n	8005fb6 <_printf_float+0xee>
 800603a:	f1ba 0f65 	cmp.w	sl, #101	@ 0x65
 800603e:	d9db      	bls.n	8005ff8 <_printf_float+0x130>
 8006040:	f1ba 0f66 	cmp.w	sl, #102	@ 0x66
 8006044:	d118      	bne.n	8006078 <_printf_float+0x1b0>
 8006046:	2900      	cmp	r1, #0
 8006048:	6863      	ldr	r3, [r4, #4]
 800604a:	dd0b      	ble.n	8006064 <_printf_float+0x19c>
 800604c:	6121      	str	r1, [r4, #16]
 800604e:	b913      	cbnz	r3, 8006056 <_printf_float+0x18e>
 8006050:	6822      	ldr	r2, [r4, #0]
 8006052:	07d0      	lsls	r0, r2, #31
 8006054:	d502      	bpl.n	800605c <_printf_float+0x194>
 8006056:	3301      	adds	r3, #1
 8006058:	440b      	add	r3, r1
 800605a:	6123      	str	r3, [r4, #16]
 800605c:	65a1      	str	r1, [r4, #88]	@ 0x58
 800605e:	f04f 0900 	mov.w	r9, #0
 8006062:	e7db      	b.n	800601c <_printf_float+0x154>
 8006064:	b913      	cbnz	r3, 800606c <_printf_float+0x1a4>
 8006066:	6822      	ldr	r2, [r4, #0]
 8006068:	07d2      	lsls	r2, r2, #31
 800606a:	d501      	bpl.n	8006070 <_printf_float+0x1a8>
 800606c:	3302      	adds	r3, #2
 800606e:	e7f4      	b.n	800605a <_printf_float+0x192>
 8006070:	2301      	movs	r3, #1
 8006072:	e7f2      	b.n	800605a <_printf_float+0x192>
 8006074:	f04f 0a67 	mov.w	sl, #103	@ 0x67
 8006078:	9b0a      	ldr	r3, [sp, #40]	@ 0x28
 800607a:	4299      	cmp	r1, r3
 800607c:	db05      	blt.n	800608a <_printf_float+0x1c2>
 800607e:	6823      	ldr	r3, [r4, #0]
 8006080:	6121      	str	r1, [r4, #16]
 8006082:	07d8      	lsls	r0, r3, #31
 8006084:	d5ea      	bpl.n	800605c <_printf_float+0x194>
 8006086:	1c4b      	adds	r3, r1, #1
 8006088:	e7e7      	b.n	800605a <_printf_float+0x192>
 800608a:	2900      	cmp	r1, #0
 800608c:	bfd4      	ite	le
 800608e:	f1c1 0202 	rsble	r2, r1, #2
 8006092:	2201      	movgt	r2, #1
 8006094:	4413      	add	r3, r2
 8006096:	e7e0      	b.n	800605a <_printf_float+0x192>
 8006098:	6823      	ldr	r3, [r4, #0]
 800609a:	055a      	lsls	r2, r3, #21
 800609c:	d407      	bmi.n	80060ae <_printf_float+0x1e6>
 800609e:	6923      	ldr	r3, [r4, #16]
 80060a0:	4642      	mov	r2, r8
 80060a2:	4631      	mov	r1, r6
 80060a4:	4628      	mov	r0, r5
 80060a6:	47b8      	blx	r7
 80060a8:	3001      	adds	r0, #1
 80060aa:	d12b      	bne.n	8006104 <_printf_float+0x23c>
 80060ac:	e767      	b.n	8005f7e <_printf_float+0xb6>
 80060ae:	f1ba 0f65 	cmp.w	sl, #101	@ 0x65
 80060b2:	f240 80dd 	bls.w	8006270 <_printf_float+0x3a8>
 80060b6:	e9d4 0112 	ldrd	r0, r1, [r4, #72]	@ 0x48
 80060ba:	2200      	movs	r2, #0
 80060bc:	2300      	movs	r3, #0
 80060be:	f7fa fd03 	bl	8000ac8 <__aeabi_dcmpeq>
 80060c2:	2800      	cmp	r0, #0
 80060c4:	d033      	beq.n	800612e <_printf_float+0x266>
 80060c6:	4a37      	ldr	r2, [pc, #220]	@ (80061a4 <_printf_float+0x2dc>)
 80060c8:	2301      	movs	r3, #1
 80060ca:	4631      	mov	r1, r6
 80060cc:	4628      	mov	r0, r5
 80060ce:	47b8      	blx	r7
 80060d0:	3001      	adds	r0, #1
 80060d2:	f43f af54 	beq.w	8005f7e <_printf_float+0xb6>
 80060d6:	e9dd 3809 	ldrd	r3, r8, [sp, #36]	@ 0x24
 80060da:	4543      	cmp	r3, r8
 80060dc:	db02      	blt.n	80060e4 <_printf_float+0x21c>
 80060de:	6823      	ldr	r3, [r4, #0]
 80060e0:	07d8      	lsls	r0, r3, #31
 80060e2:	d50f      	bpl.n	8006104 <_printf_float+0x23c>
 80060e4:	e9dd 2304 	ldrd	r2, r3, [sp, #16]
 80060e8:	4631      	mov	r1, r6
 80060ea:	4628      	mov	r0, r5
 80060ec:	47b8      	blx	r7
 80060ee:	3001      	adds	r0, #1
 80060f0:	f43f af45 	beq.w	8005f7e <_printf_float+0xb6>
 80060f4:	f04f 0900 	mov.w	r9, #0
 80060f8:	f108 38ff 	add.w	r8, r8, #4294967295
 80060fc:	f104 0a1a 	add.w	sl, r4, #26
 8006100:	45c8      	cmp	r8, r9
 8006102:	dc09      	bgt.n	8006118 <_printf_float+0x250>
 8006104:	6823      	ldr	r3, [r4, #0]
 8006106:	079b      	lsls	r3, r3, #30
 8006108:	f100 8103 	bmi.w	8006312 <_printf_float+0x44a>
 800610c:	68e0      	ldr	r0, [r4, #12]
 800610e:	9b0b      	ldr	r3, [sp, #44]	@ 0x2c
 8006110:	4298      	cmp	r0, r3
 8006112:	bfb8      	it	lt
 8006114:	4618      	movlt	r0, r3
 8006116:	e734      	b.n	8005f82 <_printf_float+0xba>
 8006118:	2301      	movs	r3, #1
 800611a:	4652      	mov	r2, sl
 800611c:	4631      	mov	r1, r6
 800611e:	4628      	mov	r0, r5
 8006120:	47b8      	blx	r7
 8006122:	3001      	adds	r0, #1
 8006124:	f43f af2b 	beq.w	8005f7e <_printf_float+0xb6>
 8006128:	f109 0901 	add.w	r9, r9, #1
 800612c:	e7e8      	b.n	8006100 <_printf_float+0x238>
 800612e:	9b09      	ldr	r3, [sp, #36]	@ 0x24
 8006130:	2b00      	cmp	r3, #0
 8006132:	dc39      	bgt.n	80061a8 <_printf_float+0x2e0>
 8006134:	4a1b      	ldr	r2, [pc, #108]	@ (80061a4 <_printf_float+0x2dc>)
 8006136:	2301      	movs	r3, #1
 8006138:	4631      	mov	r1, r6
 800613a:	4628      	mov	r0, r5
 800613c:	47b8      	blx	r7
 800613e:	3001      	adds	r0, #1
 8006140:	f43f af1d 	beq.w	8005f7e <_printf_float+0xb6>
 8006144:	e9dd 3909 	ldrd	r3, r9, [sp, #36]	@ 0x24
 8006148:	ea59 0303 	orrs.w	r3, r9, r3
 800614c:	d102      	bne.n	8006154 <_printf_float+0x28c>
 800614e:	6823      	ldr	r3, [r4, #0]
 8006150:	07d9      	lsls	r1, r3, #31
 8006152:	d5d7      	bpl.n	8006104 <_printf_float+0x23c>
 8006154:	e9dd 2304 	ldrd	r2, r3, [sp, #16]
 8006158:	4631      	mov	r1, r6
 800615a:	4628      	mov	r0, r5
 800615c:	47b8      	blx	r7
 800615e:	3001      	adds	r0, #1
 8006160:	f43f af0d 	beq.w	8005f7e <_printf_float+0xb6>
 8006164:	f04f 0a00 	mov.w	sl, #0
 8006168:	f104 0b1a 	add.w	fp, r4, #26
 800616c:	9b09      	ldr	r3, [sp, #36]	@ 0x24
 800616e:	425b      	negs	r3, r3
 8006170:	4553      	cmp	r3, sl
 8006172:	dc01      	bgt.n	8006178 <_printf_float+0x2b0>
 8006174:	464b      	mov	r3, r9
 8006176:	e793      	b.n	80060a0 <_printf_float+0x1d8>
 8006178:	2301      	movs	r3, #1
 800617a:	465a      	mov	r2, fp
 800617c:	4631      	mov	r1, r6
 800617e:	4628      	mov	r0, r5
 8006180:	47b8      	blx	r7
 8006182:	3001      	adds	r0, #1
 8006184:	f43f aefb 	beq.w	8005f7e <_printf_float+0xb6>
 8006188:	f10a 0a01 	add.w	sl, sl, #1
 800618c:	e7ee      	b.n	800616c <_printf_float+0x2a4>
 800618e:	bf00      	nop
 8006190:	7fefffff 	.word	0x7fefffff
 8006194:	08008a58 	.word	0x08008a58
 8006198:	08008a5c 	.word	0x08008a5c
 800619c:	08008a60 	.word	0x08008a60
 80061a0:	08008a64 	.word	0x08008a64
 80061a4:	08008a68 	.word	0x08008a68
 80061a8:	6da3      	ldr	r3, [r4, #88]	@ 0x58
 80061aa:	f8dd a028 	ldr.w	sl, [sp, #40]	@ 0x28
 80061ae:	4553      	cmp	r3, sl
 80061b0:	bfa8      	it	ge
 80061b2:	4653      	movge	r3, sl
 80061b4:	2b00      	cmp	r3, #0
 80061b6:	4699      	mov	r9, r3
 80061b8:	dc36      	bgt.n	8006228 <_printf_float+0x360>
 80061ba:	f04f 0b00 	mov.w	fp, #0
 80061be:	ea29 79e9 	bic.w	r9, r9, r9, asr #31
 80061c2:	f104 021a 	add.w	r2, r4, #26
 80061c6:	6da3      	ldr	r3, [r4, #88]	@ 0x58
 80061c8:	9306      	str	r3, [sp, #24]
 80061ca:	eba3 0309 	sub.w	r3, r3, r9
 80061ce:	455b      	cmp	r3, fp
 80061d0:	dc31      	bgt.n	8006236 <_printf_float+0x36e>
 80061d2:	9b09      	ldr	r3, [sp, #36]	@ 0x24
 80061d4:	459a      	cmp	sl, r3
 80061d6:	dc3a      	bgt.n	800624e <_printf_float+0x386>
 80061d8:	6823      	ldr	r3, [r4, #0]
 80061da:	07da      	lsls	r2, r3, #31
 80061dc:	d437      	bmi.n	800624e <_printf_float+0x386>
 80061de:	9b09      	ldr	r3, [sp, #36]	@ 0x24
 80061e0:	ebaa 0903 	sub.w	r9, sl, r3
 80061e4:	9b06      	ldr	r3, [sp, #24]
 80061e6:	ebaa 0303 	sub.w	r3, sl, r3
 80061ea:	4599      	cmp	r9, r3
 80061ec:	bfa8      	it	ge
 80061ee:	4699      	movge	r9, r3
 80061f0:	f1b9 0f00 	cmp.w	r9, #0
 80061f4:	dc33      	bgt.n	800625e <_printf_float+0x396>
 80061f6:	f04f 0800 	mov.w	r8, #0
 80061fa:	ea29 79e9 	bic.w	r9, r9, r9, asr #31
 80061fe:	f104 0b1a 	add.w	fp, r4, #26
 8006202:	9b09      	ldr	r3, [sp, #36]	@ 0x24
 8006204:	ebaa 0303 	sub.w	r3, sl, r3
 8006208:	eba3 0309 	sub.w	r3, r3, r9
 800620c:	4543      	cmp	r3, r8
 800620e:	f77f af79 	ble.w	8006104 <_printf_float+0x23c>
 8006212:	2301      	movs	r3, #1
 8006214:	465a      	mov	r2, fp
 8006216:	4631      	mov	r1, r6
 8006218:	4628      	mov	r0, r5
 800621a:	47b8      	blx	r7
 800621c:	3001      	adds	r0, #1
 800621e:	f43f aeae 	beq.w	8005f7e <_printf_float+0xb6>
 8006222:	f108 0801 	add.w	r8, r8, #1
 8006226:	e7ec      	b.n	8006202 <_printf_float+0x33a>
 8006228:	4642      	mov	r2, r8
 800622a:	4631      	mov	r1, r6
 800622c:	4628      	mov	r0, r5
 800622e:	47b8      	blx	r7
 8006230:	3001      	adds	r0, #1
 8006232:	d1c2      	bne.n	80061ba <_printf_float+0x2f2>
 8006234:	e6a3      	b.n	8005f7e <_printf_float+0xb6>
 8006236:	2301      	movs	r3, #1
 8006238:	4631      	mov	r1, r6
 800623a:	4628      	mov	r0, r5
 800623c:	9206      	str	r2, [sp, #24]
 800623e:	47b8      	blx	r7
 8006240:	3001      	adds	r0, #1
 8006242:	f43f ae9c 	beq.w	8005f7e <_printf_float+0xb6>
 8006246:	9a06      	ldr	r2, [sp, #24]
 8006248:	f10b 0b01 	add.w	fp, fp, #1
 800624c:	e7bb      	b.n	80061c6 <_printf_float+0x2fe>
 800624e:	e9dd 2304 	ldrd	r2, r3, [sp, #16]
 8006252:	4631      	mov	r1, r6
 8006254:	4628      	mov	r0, r5
 8006256:	47b8      	blx	r7
 8006258:	3001      	adds	r0, #1
 800625a:	d1c0      	bne.n	80061de <_printf_float+0x316>
 800625c:	e68f      	b.n	8005f7e <_printf_float+0xb6>
 800625e:	9a06      	ldr	r2, [sp, #24]
 8006260:	464b      	mov	r3, r9
 8006262:	4442      	add	r2, r8
 8006264:	4631      	mov	r1, r6
 8006266:	4628      	mov	r0, r5
 8006268:	47b8      	blx	r7
 800626a:	3001      	adds	r0, #1
 800626c:	d1c3      	bne.n	80061f6 <_printf_float+0x32e>
 800626e:	e686      	b.n	8005f7e <_printf_float+0xb6>
 8006270:	f8dd a028 	ldr.w	sl, [sp, #40]	@ 0x28
 8006274:	f1ba 0f01 	cmp.w	sl, #1
 8006278:	dc01      	bgt.n	800627e <_printf_float+0x3b6>
 800627a:	07db      	lsls	r3, r3, #31
 800627c:	d536      	bpl.n	80062ec <_printf_float+0x424>
 800627e:	2301      	movs	r3, #1
 8006280:	4642      	mov	r2, r8
 8006282:	4631      	mov	r1, r6
 8006284:	4628      	mov	r0, r5
 8006286:	47b8      	blx	r7
 8006288:	3001      	adds	r0, #1
 800628a:	f43f ae78 	beq.w	8005f7e <_printf_float+0xb6>
 800628e:	e9dd 2304 	ldrd	r2, r3, [sp, #16]
 8006292:	4631      	mov	r1, r6
 8006294:	4628      	mov	r0, r5
 8006296:	47b8      	blx	r7
 8006298:	3001      	adds	r0, #1
 800629a:	f43f ae70 	beq.w	8005f7e <_printf_float+0xb6>
 800629e:	e9d4 0112 	ldrd	r0, r1, [r4, #72]	@ 0x48
 80062a2:	2200      	movs	r2, #0
 80062a4:	2300      	movs	r3, #0
 80062a6:	f10a 3aff 	add.w	sl, sl, #4294967295
 80062aa:	f7fa fc0d 	bl	8000ac8 <__aeabi_dcmpeq>
 80062ae:	b9c0      	cbnz	r0, 80062e2 <_printf_float+0x41a>
 80062b0:	4653      	mov	r3, sl
 80062b2:	f108 0201 	add.w	r2, r8, #1
 80062b6:	4631      	mov	r1, r6
 80062b8:	4628      	mov	r0, r5
 80062ba:	47b8      	blx	r7
 80062bc:	3001      	adds	r0, #1
 80062be:	d10c      	bne.n	80062da <_printf_float+0x412>
 80062c0:	e65d      	b.n	8005f7e <_printf_float+0xb6>
 80062c2:	2301      	movs	r3, #1
 80062c4:	465a      	mov	r2, fp
 80062c6:	4631      	mov	r1, r6
 80062c8:	4628      	mov	r0, r5
 80062ca:	47b8      	blx	r7
 80062cc:	3001      	adds	r0, #1
 80062ce:	f43f ae56 	beq.w	8005f7e <_printf_float+0xb6>
 80062d2:	f108 0801 	add.w	r8, r8, #1
 80062d6:	45d0      	cmp	r8, sl
 80062d8:	dbf3      	blt.n	80062c2 <_printf_float+0x3fa>
 80062da:	464b      	mov	r3, r9
 80062dc:	f104 0250 	add.w	r2, r4, #80	@ 0x50
 80062e0:	e6df      	b.n	80060a2 <_printf_float+0x1da>
 80062e2:	f04f 0800 	mov.w	r8, #0
 80062e6:	f104 0b1a 	add.w	fp, r4, #26
 80062ea:	e7f4      	b.n	80062d6 <_printf_float+0x40e>
 80062ec:	2301      	movs	r3, #1
 80062ee:	4642      	mov	r2, r8
 80062f0:	e7e1      	b.n	80062b6 <_printf_float+0x3ee>
 80062f2:	2301      	movs	r3, #1
 80062f4:	464a      	mov	r2, r9
 80062f6:	4631      	mov	r1, r6
 80062f8:	4628      	mov	r0, r5
 80062fa:	47b8      	blx	r7
 80062fc:	3001      	adds	r0, #1
 80062fe:	f43f ae3e 	beq.w	8005f7e <_printf_float+0xb6>
 8006302:	f108 0801 	add.w	r8, r8, #1
 8006306:	68e3      	ldr	r3, [r4, #12]
 8006308:	990b      	ldr	r1, [sp, #44]	@ 0x2c
 800630a:	1a5b      	subs	r3, r3, r1
 800630c:	4543      	cmp	r3, r8
 800630e:	dcf0      	bgt.n	80062f2 <_printf_float+0x42a>
 8006310:	e6fc      	b.n	800610c <_printf_float+0x244>
 8006312:	f04f 0800 	mov.w	r8, #0
 8006316:	f104 0919 	add.w	r9, r4, #25
 800631a:	e7f4      	b.n	8006306 <_printf_float+0x43e>

0800631c <_printf_common>:
 800631c:	e92d 47f0 	stmdb	sp!, {r4, r5, r6, r7, r8, r9, sl, lr}
 8006320:	4616      	mov	r6, r2
 8006322:	4698      	mov	r8, r3
 8006324:	688a      	ldr	r2, [r1, #8]
 8006326:	690b      	ldr	r3, [r1, #16]
 8006328:	f8dd 9020 	ldr.w	r9, [sp, #32]
 800632c:	4293      	cmp	r3, r2
 800632e:	bfb8      	it	lt
 8006330:	4613      	movlt	r3, r2
 8006332:	6033      	str	r3, [r6, #0]
 8006334:	f891 2043 	ldrb.w	r2, [r1, #67]	@ 0x43
 8006338:	4607      	mov	r7, r0
 800633a:	460c      	mov	r4, r1
 800633c:	b10a      	cbz	r2, 8006342 <_printf_common+0x26>
 800633e:	3301      	adds	r3, #1
 8006340:	6033      	str	r3, [r6, #0]
 8006342:	6823      	ldr	r3, [r4, #0]
 8006344:	0699      	lsls	r1, r3, #26
 8006346:	bf42      	ittt	mi
 8006348:	6833      	ldrmi	r3, [r6, #0]
 800634a:	3302      	addmi	r3, #2
 800634c:	6033      	strmi	r3, [r6, #0]
 800634e:	6825      	ldr	r5, [r4, #0]
 8006350:	f015 0506 	ands.w	r5, r5, #6
 8006354:	d106      	bne.n	8006364 <_printf_common+0x48>
 8006356:	f104 0a19 	add.w	sl, r4, #25
 800635a:	68e3      	ldr	r3, [r4, #12]
 800635c:	6832      	ldr	r2, [r6, #0]
 800635e:	1a9b      	subs	r3, r3, r2
 8006360:	42ab      	cmp	r3, r5
 8006362:	dc26      	bgt.n	80063b2 <_printf_common+0x96>
 8006364:	f894 3043 	ldrb.w	r3, [r4, #67]	@ 0x43
 8006368:	6822      	ldr	r2, [r4, #0]
 800636a:	3b00      	subs	r3, #0
 800636c:	bf18      	it	ne
 800636e:	2301      	movne	r3, #1
 8006370:	0692      	lsls	r2, r2, #26
 8006372:	d42b      	bmi.n	80063cc <_printf_common+0xb0>
 8006374:	f104 0243 	add.w	r2, r4, #67	@ 0x43
 8006378:	4641      	mov	r1, r8
 800637a:	4638      	mov	r0, r7
 800637c:	47c8      	blx	r9
 800637e:	3001      	adds	r0, #1
 8006380:	d01e      	beq.n	80063c0 <_printf_common+0xa4>
 8006382:	6823      	ldr	r3, [r4, #0]
 8006384:	6922      	ldr	r2, [r4, #16]
 8006386:	f003 0306 	and.w	r3, r3, #6
 800638a:	2b04      	cmp	r3, #4
 800638c:	bf02      	ittt	eq
 800638e:	68e5      	ldreq	r5, [r4, #12]
 8006390:	6833      	ldreq	r3, [r6, #0]
 8006392:	1aed      	subeq	r5, r5, r3
 8006394:	68a3      	ldr	r3, [r4, #8]
 8006396:	bf0c      	ite	eq
 8006398:	ea25 75e5 	biceq.w	r5, r5, r5, asr #31
 800639c:	2500      	movne	r5, #0
 800639e:	4293      	cmp	r3, r2
 80063a0:	bfc4      	itt	gt
 80063a2:	1a9b      	subgt	r3, r3, r2
 80063a4:	18ed      	addgt	r5, r5, r3
 80063a6:	2600      	movs	r6, #0
 80063a8:	341a      	adds	r4, #26
 80063aa:	42b5      	cmp	r5, r6
 80063ac:	d11a      	bne.n	80063e4 <_printf_common+0xc8>
 80063ae:	2000      	movs	r0, #0
 80063b0:	e008      	b.n	80063c4 <_printf_common+0xa8>
 80063b2:	2301      	movs	r3, #1
 80063b4:	4652      	mov	r2, sl
 80063b6:	4641      	mov	r1, r8
 80063b8:	4638      	mov	r0, r7
 80063ba:	47c8      	blx	r9
 80063bc:	3001      	adds	r0, #1
 80063be:	d103      	bne.n	80063c8 <_printf_common+0xac>
 80063c0:	f04f 30ff 	mov.w	r0, #4294967295
 80063c4:	e8bd 87f0 	ldmia.w	sp!, {r4, r5, r6, r7, r8, r9, sl, pc}
 80063c8:	3501      	adds	r5, #1
 80063ca:	e7c6      	b.n	800635a <_printf_common+0x3e>
 80063cc:	18e1      	adds	r1, r4, r3
 80063ce:	1c5a      	adds	r2, r3, #1
 80063d0:	2030      	movs	r0, #48	@ 0x30
 80063d2:	f881 0043 	strb.w	r0, [r1, #67]	@ 0x43
 80063d6:	4422      	add	r2, r4
 80063d8:	f894 1045 	ldrb.w	r1, [r4, #69]	@ 0x45
 80063dc:	f882 1043 	strb.w	r1, [r2, #67]	@ 0x43
 80063e0:	3302      	adds	r3, #2
 80063e2:	e7c7      	b.n	8006374 <_printf_common+0x58>
 80063e4:	2301      	movs	r3, #1
 80063e6:	4622      	mov	r2, r4
 80063e8:	4641      	mov	r1, r8
 80063ea:	4638      	mov	r0, r7
 80063ec:	47c8      	blx	r9
 80063ee:	3001      	adds	r0, #1
 80063f0:	d0e6      	beq.n	80063c0 <_printf_common+0xa4>
 80063f2:	3601      	adds	r6, #1
 80063f4:	e7d9      	b.n	80063aa <_printf_common+0x8e>
	...

080063f8 <_printf_i>:
 80063f8:	e92d 47ff 	stmdb	sp!, {r0, r1, r2, r3, r4, r5, r6, r7, r8, r9, sl, lr}
 80063fc:	7e0f      	ldrb	r7, [r1, #24]
 80063fe:	9e0c      	ldr	r6, [sp, #48]	@ 0x30
 8006400:	2f78      	cmp	r7, #120	@ 0x78
 8006402:	4691      	mov	r9, r2
 8006404:	4680      	mov	r8, r0
 8006406:	460c      	mov	r4, r1
 8006408:	469a      	mov	sl, r3
 800640a:	f101 0243 	add.w	r2, r1, #67	@ 0x43
 800640e:	d807      	bhi.n	8006420 <_printf_i+0x28>
 8006410:	2f62      	cmp	r7, #98	@ 0x62
 8006412:	d80a      	bhi.n	800642a <_printf_i+0x32>
 8006414:	2f00      	cmp	r7, #0
 8006416:	f000 80d2 	beq.w	80065be <_printf_i+0x1c6>
 800641a:	2f58      	cmp	r7, #88	@ 0x58
 800641c:	f000 80b9 	beq.w	8006592 <_printf_i+0x19a>
 8006420:	f104 0642 	add.w	r6, r4, #66	@ 0x42
 8006424:	f884 7042 	strb.w	r7, [r4, #66]	@ 0x42
 8006428:	e03a      	b.n	80064a0 <_printf_i+0xa8>
 800642a:	f1a7 0363 	sub.w	r3, r7, #99	@ 0x63
 800642e:	2b15      	cmp	r3, #21
 8006430:	d8f6      	bhi.n	8006420 <_printf_i+0x28>
 8006432:	a101      	add	r1, pc, #4	@ (adr r1, 8006438 <_printf_i+0x40>)
 8006434:	f851 f023 	ldr.w	pc, [r1, r3, lsl #2]
 8006438:	08006491 	.word	0x08006491
 800643c:	080064a5 	.word	0x080064a5
 8006440:	08006421 	.word	0x08006421
 8006444:	08006421 	.word	0x08006421
 8006448:	08006421 	.word	0x08006421
 800644c:	08006421 	.word	0x08006421
 8006450:	080064a5 	.word	0x080064a5
 8006454:	08006421 	.word	0x08006421
 8006458:	08006421 	.word	0x08006421
 800645c:	08006421 	.word	0x08006421
 8006460:	08006421 	.word	0x08006421
 8006464:	080065a5 	.word	0x080065a5
 8006468:	080064cf 	.word	0x080064cf
 800646c:	0800655f 	.word	0x0800655f
 8006470:	08006421 	.word	0x08006421
 8006474:	08006421 	.word	0x08006421
 8006478:	080065c7 	.word	0x080065c7
 800647c:	08006421 	.word	0x08006421
 8006480:	080064cf 	.word	0x080064cf
 8006484:	08006421 	.word	0x08006421
 8006488:	08006421 	.word	0x08006421
 800648c:	08006567 	.word	0x08006567
 8006490:	6833      	ldr	r3, [r6, #0]
 8006492:	1d1a      	adds	r2, r3, #4
 8006494:	681b      	ldr	r3, [r3, #0]
 8006496:	6032      	str	r2, [r6, #0]
 8006498:	f104 0642 	add.w	r6, r4, #66	@ 0x42
 800649c:	f884 3042 	strb.w	r3, [r4, #66]	@ 0x42
 80064a0:	2301      	movs	r3, #1
 80064a2:	e09d      	b.n	80065e0 <_printf_i+0x1e8>
 80064a4:	6833      	ldr	r3, [r6, #0]
 80064a6:	6820      	ldr	r0, [r4, #0]
 80064a8:	1d19      	adds	r1, r3, #4
 80064aa:	6031      	str	r1, [r6, #0]
 80064ac:	0606      	lsls	r6, r0, #24
 80064ae:	d501      	bpl.n	80064b4 <_printf_i+0xbc>
 80064b0:	681d      	ldr	r5, [r3, #0]
 80064b2:	e003      	b.n	80064bc <_printf_i+0xc4>
 80064b4:	0645      	lsls	r5, r0, #25
 80064b6:	d5fb      	bpl.n	80064b0 <_printf_i+0xb8>
 80064b8:	f9b3 5000 	ldrsh.w	r5, [r3]
 80064bc:	2d00      	cmp	r5, #0
 80064be:	da03      	bge.n	80064c8 <_printf_i+0xd0>
 80064c0:	232d      	movs	r3, #45	@ 0x2d
 80064c2:	426d      	negs	r5, r5
 80064c4:	f884 3043 	strb.w	r3, [r4, #67]	@ 0x43
 80064c8:	4859      	ldr	r0, [pc, #356]	@ (8006630 <_printf_i+0x238>)
 80064ca:	230a      	movs	r3, #10
 80064cc:	e011      	b.n	80064f2 <_printf_i+0xfa>
 80064ce:	6821      	ldr	r1, [r4, #0]
 80064d0:	6833      	ldr	r3, [r6, #0]
 80064d2:	0608      	lsls	r0, r1, #24
 80064d4:	f853 5b04 	ldr.w	r5, [r3], #4
 80064d8:	d402      	bmi.n	80064e0 <_printf_i+0xe8>
 80064da:	0649      	lsls	r1, r1, #25
 80064dc:	bf48      	it	mi
 80064de:	b2ad      	uxthmi	r5, r5
 80064e0:	2f6f      	cmp	r7, #111	@ 0x6f
 80064e2:	4853      	ldr	r0, [pc, #332]	@ (8006630 <_printf_i+0x238>)
 80064e4:	6033      	str	r3, [r6, #0]
 80064e6:	bf14      	ite	ne
 80064e8:	230a      	movne	r3, #10
 80064ea:	2308      	moveq	r3, #8
 80064ec:	2100      	movs	r1, #0
 80064ee:	f884 1043 	strb.w	r1, [r4, #67]	@ 0x43
 80064f2:	6866      	ldr	r6, [r4, #4]
 80064f4:	60a6      	str	r6, [r4, #8]
 80064f6:	2e00      	cmp	r6, #0
 80064f8:	bfa2      	ittt	ge
 80064fa:	6821      	ldrge	r1, [r4, #0]
 80064fc:	f021 0104 	bicge.w	r1, r1, #4
 8006500:	6021      	strge	r1, [r4, #0]
 8006502:	b90d      	cbnz	r5, 8006508 <_printf_i+0x110>
 8006504:	2e00      	cmp	r6, #0
 8006506:	d04b      	beq.n	80065a0 <_printf_i+0x1a8>
 8006508:	4616      	mov	r6, r2
 800650a:	fbb5 f1f3 	udiv	r1, r5, r3
 800650e:	fb03 5711 	mls	r7, r3, r1, r5
 8006512:	5dc7      	ldrb	r7, [r0, r7]
 8006514:	f806 7d01 	strb.w	r7, [r6, #-1]!
 8006518:	462f      	mov	r7, r5
 800651a:	42bb      	cmp	r3, r7
 800651c:	460d      	mov	r5, r1
 800651e:	d9f4      	bls.n	800650a <_printf_i+0x112>
 8006520:	2b08      	cmp	r3, #8
 8006522:	d10b      	bne.n	800653c <_printf_i+0x144>
 8006524:	6823      	ldr	r3, [r4, #0]
 8006526:	07df      	lsls	r7, r3, #31
 8006528:	d508      	bpl.n	800653c <_printf_i+0x144>
 800652a:	6923      	ldr	r3, [r4, #16]
 800652c:	6861      	ldr	r1, [r4, #4]
 800652e:	4299      	cmp	r1, r3
 8006530:	bfde      	ittt	le
 8006532:	2330      	movle	r3, #48	@ 0x30
 8006534:	f806 3c01 	strble.w	r3, [r6, #-1]
 8006538:	f106 36ff 	addle.w	r6, r6, #4294967295
 800653c:	1b92      	subs	r2, r2, r6
 800653e:	6122      	str	r2, [r4, #16]
 8006540:	f8cd a000 	str.w	sl, [sp]
 8006544:	464b      	mov	r3, r9
 8006546:	aa03      	add	r2, sp, #12
 8006548:	4621      	mov	r1, r4
 800654a:	4640      	mov	r0, r8
 800654c:	f7ff fee6 	bl	800631c <_printf_common>
 8006550:	3001      	adds	r0, #1
 8006552:	d14a      	bne.n	80065ea <_printf_i+0x1f2>
 8006554:	f04f 30ff 	mov.w	r0, #4294967295
 8006558:	b004      	add	sp, #16
 800655a:	e8bd 87f0 	ldmia.w	sp!, {r4, r5, r6, r7, r8, r9, sl, pc}
 800655e:	6823      	ldr	r3, [r4, #0]
 8006560:	f043 0320 	orr.w	r3, r3, #32
 8006564:	6023      	str	r3, [r4, #0]
 8006566:	4833      	ldr	r0, [pc, #204]	@ (8006634 <_printf_i+0x23c>)
 8006568:	2778      	movs	r7, #120	@ 0x78
 800656a:	f884 7045 	strb.w	r7, [r4, #69]	@ 0x45
 800656e:	6823      	ldr	r3, [r4, #0]
 8006570:	6831      	ldr	r1, [r6, #0]
 8006572:	061f      	lsls	r7, r3, #24
 8006574:	f851 5b04 	ldr.w	r5, [r1], #4
 8006578:	d402      	bmi.n	8006580 <_printf_i+0x188>
 800657a:	065f      	lsls	r7, r3, #25
 800657c:	bf48      	it	mi
 800657e:	b2ad      	uxthmi	r5, r5
 8006580:	6031      	str	r1, [r6, #0]
 8006582:	07d9      	lsls	r1, r3, #31
 8006584:	bf44      	itt	mi
 8006586:	f043 0320 	orrmi.w	r3, r3, #32
 800658a:	6023      	strmi	r3, [r4, #0]
 800658c:	b11d      	cbz	r5, 8006596 <_printf_i+0x19e>
 800658e:	2310      	movs	r3, #16
 8006590:	e7ac      	b.n	80064ec <_printf_i+0xf4>
 8006592:	4827      	ldr	r0, [pc, #156]	@ (8006630 <_printf_i+0x238>)
 8006594:	e7e9      	b.n	800656a <_printf_i+0x172>
 8006596:	6823      	ldr	r3, [r4, #0]
 8006598:	f023 0320 	bic.w	r3, r3, #32
 800659c:	6023      	str	r3, [r4, #0]
 800659e:	e7f6      	b.n	800658e <_printf_i+0x196>
 80065a0:	4616      	mov	r6, r2
 80065a2:	e7bd      	b.n	8006520 <_printf_i+0x128>
 80065a4:	6833      	ldr	r3, [r6, #0]
 80065a6:	6825      	ldr	r5, [r4, #0]
 80065a8:	6961      	ldr	r1, [r4, #20]
 80065aa:	1d18      	adds	r0, r3, #4
 80065ac:	6030      	str	r0, [r6, #0]
 80065ae:	062e      	lsls	r6, r5, #24
 80065b0:	681b      	ldr	r3, [r3, #0]
 80065b2:	d501      	bpl.n	80065b8 <_printf_i+0x1c0>
 80065b4:	6019      	str	r1, [r3, #0]
 80065b6:	e002      	b.n	80065be <_printf_i+0x1c6>
 80065b8:	0668      	lsls	r0, r5, #25
 80065ba:	d5fb      	bpl.n	80065b4 <_printf_i+0x1bc>
 80065bc:	8019      	strh	r1, [r3, #0]
 80065be:	2300      	movs	r3, #0
 80065c0:	6123      	str	r3, [r4, #16]
 80065c2:	4616      	mov	r6, r2
 80065c4:	e7bc      	b.n	8006540 <_printf_i+0x148>
 80065c6:	6833      	ldr	r3, [r6, #0]
 80065c8:	1d1a      	adds	r2, r3, #4
 80065ca:	6032      	str	r2, [r6, #0]
 80065cc:	681e      	ldr	r6, [r3, #0]
 80065ce:	6862      	ldr	r2, [r4, #4]
 80065d0:	2100      	movs	r1, #0
 80065d2:	4630      	mov	r0, r6
 80065d4:	f7f9 fdfc 	bl	80001d0 <memchr>
 80065d8:	b108      	cbz	r0, 80065de <_printf_i+0x1e6>
 80065da:	1b80      	subs	r0, r0, r6
 80065dc:	6060      	str	r0, [r4, #4]
 80065de:	6863      	ldr	r3, [r4, #4]
 80065e0:	6123      	str	r3, [r4, #16]
 80065e2:	2300      	movs	r3, #0
 80065e4:	f884 3043 	strb.w	r3, [r4, #67]	@ 0x43
 80065e8:	e7aa      	b.n	8006540 <_printf_i+0x148>
 80065ea:	6923      	ldr	r3, [r4, #16]
 80065ec:	4632      	mov	r2, r6
 80065ee:	4649      	mov	r1, r9
 80065f0:	4640      	mov	r0, r8
 80065f2:	47d0      	blx	sl
 80065f4:	3001      	adds	r0, #1
 80065f6:	d0ad      	beq.n	8006554 <_printf_i+0x15c>
 80065f8:	6823      	ldr	r3, [r4, #0]
 80065fa:	079b      	lsls	r3, r3, #30
 80065fc:	d413      	bmi.n	8006626 <_printf_i+0x22e>
 80065fe:	68e0      	ldr	r0, [r4, #12]
 8006600:	9b03      	ldr	r3, [sp, #12]
 8006602:	4298      	cmp	r0, r3
 8006604:	bfb8      	it	lt
 8006606:	4618      	movlt	r0, r3
 8006608:	e7a6      	b.n	8006558 <_printf_i+0x160>
 800660a:	2301      	movs	r3, #1
 800660c:	4632      	mov	r2, r6
 800660e:	4649      	mov	r1, r9
 8006610:	4640      	mov	r0, r8
 8006612:	47d0      	blx	sl
 8006614:	3001      	adds	r0, #1
 8006616:	d09d      	beq.n	8006554 <_printf_i+0x15c>
 8006618:	3501      	adds	r5, #1
 800661a:	68e3      	ldr	r3, [r4, #12]
 800661c:	9903      	ldr	r1, [sp, #12]
 800661e:	1a5b      	subs	r3, r3, r1
 8006620:	42ab      	cmp	r3, r5
 8006622:	dcf2      	bgt.n	800660a <_printf_i+0x212>
 8006624:	e7eb      	b.n	80065fe <_printf_i+0x206>
 8006626:	2500      	movs	r5, #0
 8006628:	f104 0619 	add.w	r6, r4, #25
 800662c:	e7f5      	b.n	800661a <_printf_i+0x222>
 800662e:	bf00      	nop
 8006630:	08008a6a 	.word	0x08008a6a
 8006634:	08008a7b 	.word	0x08008a7b

08006638 <std>:
 8006638:	2300      	movs	r3, #0
 800663a:	b510      	push	{r4, lr}
 800663c:	4604      	mov	r4, r0
 800663e:	e9c0 3300 	strd	r3, r3, [r0]
 8006642:	e9c0 3304 	strd	r3, r3, [r0, #16]
 8006646:	6083      	str	r3, [r0, #8]
 8006648:	8181      	strh	r1, [r0, #12]
 800664a:	6643      	str	r3, [r0, #100]	@ 0x64
 800664c:	81c2      	strh	r2, [r0, #14]
 800664e:	6183      	str	r3, [r0, #24]
 8006650:	4619      	mov	r1, r3
 8006652:	2208      	movs	r2, #8
 8006654:	305c      	adds	r0, #92	@ 0x5c
 8006656:	f000 f914 	bl	8006882 <memset>
 800665a:	4b0d      	ldr	r3, [pc, #52]	@ (8006690 <std+0x58>)
 800665c:	6263      	str	r3, [r4, #36]	@ 0x24
 800665e:	4b0d      	ldr	r3, [pc, #52]	@ (8006694 <std+0x5c>)
 8006660:	62a3      	str	r3, [r4, #40]	@ 0x28
 8006662:	4b0d      	ldr	r3, [pc, #52]	@ (8006698 <std+0x60>)
 8006664:	62e3      	str	r3, [r4, #44]	@ 0x2c
 8006666:	4b0d      	ldr	r3, [pc, #52]	@ (800669c <std+0x64>)
 8006668:	6323      	str	r3, [r4, #48]	@ 0x30
 800666a:	4b0d      	ldr	r3, [pc, #52]	@ (80066a0 <std+0x68>)
 800666c:	6224      	str	r4, [r4, #32]
 800666e:	429c      	cmp	r4, r3
 8006670:	d006      	beq.n	8006680 <std+0x48>
 8006672:	f103 0268 	add.w	r2, r3, #104	@ 0x68
 8006676:	4294      	cmp	r4, r2
 8006678:	d002      	beq.n	8006680 <std+0x48>
 800667a:	33d0      	adds	r3, #208	@ 0xd0
 800667c:	429c      	cmp	r4, r3
 800667e:	d105      	bne.n	800668c <std+0x54>
 8006680:	f104 0058 	add.w	r0, r4, #88	@ 0x58
 8006684:	e8bd 4010 	ldmia.w	sp!, {r4, lr}
 8006688:	f000 b978 	b.w	800697c <__retarget_lock_init_recursive>
 800668c:	bd10      	pop	{r4, pc}
 800668e:	bf00      	nop
 8006690:	080067fd 	.word	0x080067fd
 8006694:	0800681f 	.word	0x0800681f
 8006698:	08006857 	.word	0x08006857
 800669c:	0800687b 	.word	0x0800687b
 80066a0:	20000390 	.word	0x20000390

080066a4 <stdio_exit_handler>:
 80066a4:	4a02      	ldr	r2, [pc, #8]	@ (80066b0 <stdio_exit_handler+0xc>)
 80066a6:	4903      	ldr	r1, [pc, #12]	@ (80066b4 <stdio_exit_handler+0x10>)
 80066a8:	4803      	ldr	r0, [pc, #12]	@ (80066b8 <stdio_exit_handler+0x14>)
 80066aa:	f000 b869 	b.w	8006780 <_fwalk_sglue>
 80066ae:	bf00      	nop
 80066b0:	20000018 	.word	0x20000018
 80066b4:	080082dd 	.word	0x080082dd
 80066b8:	20000028 	.word	0x20000028

080066bc <cleanup_stdio>:
 80066bc:	6841      	ldr	r1, [r0, #4]
 80066be:	4b0c      	ldr	r3, [pc, #48]	@ (80066f0 <cleanup_stdio+0x34>)
 80066c0:	4299      	cmp	r1, r3
 80066c2:	b510      	push	{r4, lr}
 80066c4:	4604      	mov	r4, r0
 80066c6:	d001      	beq.n	80066cc <cleanup_stdio+0x10>
 80066c8:	f001 fe08 	bl	80082dc <_fflush_r>
 80066cc:	68a1      	ldr	r1, [r4, #8]
 80066ce:	4b09      	ldr	r3, [pc, #36]	@ (80066f4 <cleanup_stdio+0x38>)
 80066d0:	4299      	cmp	r1, r3
 80066d2:	d002      	beq.n	80066da <cleanup_stdio+0x1e>
 80066d4:	4620      	mov	r0, r4
 80066d6:	f001 fe01 	bl	80082dc <_fflush_r>
 80066da:	68e1      	ldr	r1, [r4, #12]
 80066dc:	4b06      	ldr	r3, [pc, #24]	@ (80066f8 <cleanup_stdio+0x3c>)
 80066de:	4299      	cmp	r1, r3
 80066e0:	d004      	beq.n	80066ec <cleanup_stdio+0x30>
 80066e2:	4620      	mov	r0, r4
 80066e4:	e8bd 4010 	ldmia.w	sp!, {r4, lr}
 80066e8:	f001 bdf8 	b.w	80082dc <_fflush_r>
 80066ec:	bd10      	pop	{r4, pc}
 80066ee:	bf00      	nop
 80066f0:	20000390 	.word	0x20000390
 80066f4:	200003f8 	.word	0x200003f8
 80066f8:	20000460 	.word	0x20000460

080066fc <global_stdio_init.part.0>:
 80066fc:	b510      	push	{r4, lr}
 80066fe:	4b0b      	ldr	r3, [pc, #44]	@ (800672c <global_stdio_init.part.0+0x30>)
 8006700:	4c0b      	ldr	r4, [pc, #44]	@ (8006730 <global_stdio_init.part.0+0x34>)
 8006702:	4a0c      	ldr	r2, [pc, #48]	@ (8006734 <global_stdio_init.part.0+0x38>)
 8006704:	601a      	str	r2, [r3, #0]
 8006706:	4620      	mov	r0, r4
 8006708:	2200      	movs	r2, #0
 800670a:	2104      	movs	r1, #4
 800670c:	f7ff ff94 	bl	8006638 <std>
 8006710:	f104 0068 	add.w	r0, r4, #104	@ 0x68
 8006714:	2201      	movs	r2, #1
 8006716:	2109      	movs	r1, #9
 8006718:	f7ff ff8e 	bl	8006638 <std>
 800671c:	f104 00d0 	add.w	r0, r4, #208	@ 0xd0
 8006720:	2202      	movs	r2, #2
 8006722:	e8bd 4010 	ldmia.w	sp!, {r4, lr}
 8006726:	2112      	movs	r1, #18
 8006728:	f7ff bf86 	b.w	8006638 <std>
 800672c:	200004c8 	.word	0x200004c8
 8006730:	20000390 	.word	0x20000390
 8006734:	080066a5 	.word	0x080066a5

08006738 <__sfp_lock_acquire>:
 8006738:	4801      	ldr	r0, [pc, #4]	@ (8006740 <__sfp_lock_acquire+0x8>)
 800673a:	f000 b920 	b.w	800697e <__retarget_lock_acquire_recursive>
 800673e:	bf00      	nop
 8006740:	200004d1 	.word	0x200004d1

08006744 <__sfp_lock_release>:
 8006744:	4801      	ldr	r0, [pc, #4]	@ (800674c <__sfp_lock_release+0x8>)
 8006746:	f000 b91b 	b.w	8006980 <__retarget_lock_release_recursive>
 800674a:	bf00      	nop
 800674c:	200004d1 	.word	0x200004d1

08006750 <__sinit>:
 8006750:	b510      	push	{r4, lr}
 8006752:	4604      	mov	r4, r0
 8006754:	f7ff fff0 	bl	8006738 <__sfp_lock_acquire>
 8006758:	6a23      	ldr	r3, [r4, #32]
 800675a:	b11b      	cbz	r3, 8006764 <__sinit+0x14>
 800675c:	e8bd 4010 	ldmia.w	sp!, {r4, lr}
 8006760:	f7ff bff0 	b.w	8006744 <__sfp_lock_release>
 8006764:	4b04      	ldr	r3, [pc, #16]	@ (8006778 <__sinit+0x28>)
 8006766:	6223      	str	r3, [r4, #32]
 8006768:	4b04      	ldr	r3, [pc, #16]	@ (800677c <__sinit+0x2c>)
 800676a:	681b      	ldr	r3, [r3, #0]
 800676c:	2b00      	cmp	r3, #0
 800676e:	d1f5      	bne.n	800675c <__sinit+0xc>
 8006770:	f7ff ffc4 	bl	80066fc <global_stdio_init.part.0>
 8006774:	e7f2      	b.n	800675c <__sinit+0xc>
 8006776:	bf00      	nop
 8006778:	080066bd 	.word	0x080066bd
 800677c:	200004c8 	.word	0x200004c8

08006780 <_fwalk_sglue>:
 8006780:	e92d 43f8 	stmdb	sp!, {r3, r4, r5, r6, r7, r8, r9, lr}
 8006784:	4607      	mov	r7, r0
 8006786:	4688      	mov	r8, r1
 8006788:	4614      	mov	r4, r2
 800678a:	2600      	movs	r6, #0
 800678c:	e9d4 9501 	ldrd	r9, r5, [r4, #4]
 8006790:	f1b9 0901 	subs.w	r9, r9, #1
 8006794:	d505      	bpl.n	80067a2 <_fwalk_sglue+0x22>
 8006796:	6824      	ldr	r4, [r4, #0]
 8006798:	2c00      	cmp	r4, #0
 800679a:	d1f7      	bne.n	800678c <_fwalk_sglue+0xc>
 800679c:	4630      	mov	r0, r6
 800679e:	e8bd 83f8 	ldmia.w	sp!, {r3, r4, r5, r6, r7, r8, r9, pc}
 80067a2:	89ab      	ldrh	r3, [r5, #12]
 80067a4:	2b01      	cmp	r3, #1
 80067a6:	d907      	bls.n	80067b8 <_fwalk_sglue+0x38>
 80067a8:	f9b5 300e 	ldrsh.w	r3, [r5, #14]
 80067ac:	3301      	adds	r3, #1
 80067ae:	d003      	beq.n	80067b8 <_fwalk_sglue+0x38>
 80067b0:	4629      	mov	r1, r5
 80067b2:	4638      	mov	r0, r7
 80067b4:	47c0      	blx	r8
 80067b6:	4306      	orrs	r6, r0
 80067b8:	3568      	adds	r5, #104	@ 0x68
 80067ba:	e7e9      	b.n	8006790 <_fwalk_sglue+0x10>

080067bc <siprintf>:
 80067bc:	b40e      	push	{r1, r2, r3}
 80067be:	b500      	push	{lr}
 80067c0:	b09c      	sub	sp, #112	@ 0x70
 80067c2:	ab1d      	add	r3, sp, #116	@ 0x74
 80067c4:	9002      	str	r0, [sp, #8]
 80067c6:	9006      	str	r0, [sp, #24]
 80067c8:	f06f 4100 	mvn.w	r1, #2147483648	@ 0x80000000
 80067cc:	4809      	ldr	r0, [pc, #36]	@ (80067f4 <siprintf+0x38>)
 80067ce:	9107      	str	r1, [sp, #28]
 80067d0:	9104      	str	r1, [sp, #16]
 80067d2:	4909      	ldr	r1, [pc, #36]	@ (80067f8 <siprintf+0x3c>)
 80067d4:	f853 2b04 	ldr.w	r2, [r3], #4
 80067d8:	9105      	str	r1, [sp, #20]
 80067da:	6800      	ldr	r0, [r0, #0]
 80067dc:	9301      	str	r3, [sp, #4]
 80067de:	a902      	add	r1, sp, #8
 80067e0:	f001 fbfc 	bl	8007fdc <_svfiprintf_r>
 80067e4:	9b02      	ldr	r3, [sp, #8]
 80067e6:	2200      	movs	r2, #0
 80067e8:	701a      	strb	r2, [r3, #0]
 80067ea:	b01c      	add	sp, #112	@ 0x70
 80067ec:	f85d eb04 	ldr.w	lr, [sp], #4
 80067f0:	b003      	add	sp, #12
 80067f2:	4770      	bx	lr
 80067f4:	20000024 	.word	0x20000024
 80067f8:	ffff0208 	.word	0xffff0208

080067fc <__sread>:
 80067fc:	b510      	push	{r4, lr}
 80067fe:	460c      	mov	r4, r1
 8006800:	f9b1 100e 	ldrsh.w	r1, [r1, #14]
 8006804:	f000 f86c 	bl	80068e0 <_read_r>
 8006808:	2800      	cmp	r0, #0
 800680a:	bfab      	itete	ge
 800680c:	6d63      	ldrge	r3, [r4, #84]	@ 0x54
 800680e:	89a3      	ldrhlt	r3, [r4, #12]
 8006810:	181b      	addge	r3, r3, r0
 8006812:	f423 5380 	biclt.w	r3, r3, #4096	@ 0x1000
 8006816:	bfac      	ite	ge
 8006818:	6563      	strge	r3, [r4, #84]	@ 0x54
 800681a:	81a3      	strhlt	r3, [r4, #12]
 800681c:	bd10      	pop	{r4, pc}

0800681e <__swrite>:
 800681e:	e92d 41f0 	stmdb	sp!, {r4, r5, r6, r7, r8, lr}
 8006822:	461f      	mov	r7, r3
 8006824:	898b      	ldrh	r3, [r1, #12]
 8006826:	05db      	lsls	r3, r3, #23
 8006828:	4605      	mov	r5, r0
 800682a:	460c      	mov	r4, r1
 800682c:	4616      	mov	r6, r2
 800682e:	d505      	bpl.n	800683c <__swrite+0x1e>
 8006830:	f9b1 100e 	ldrsh.w	r1, [r1, #14]
 8006834:	2302      	movs	r3, #2
 8006836:	2200      	movs	r2, #0
 8006838:	f000 f840 	bl	80068bc <_lseek_r>
 800683c:	89a3      	ldrh	r3, [r4, #12]
 800683e:	f9b4 100e 	ldrsh.w	r1, [r4, #14]
 8006842:	f423 5380 	bic.w	r3, r3, #4096	@ 0x1000
 8006846:	81a3      	strh	r3, [r4, #12]
 8006848:	4632      	mov	r2, r6
 800684a:	463b      	mov	r3, r7
 800684c:	4628      	mov	r0, r5
 800684e:	e8bd 41f0 	ldmia.w	sp!, {r4, r5, r6, r7, r8, lr}
 8006852:	f000 b857 	b.w	8006904 <_write_r>

08006856 <__sseek>:
 8006856:	b510      	push	{r4, lr}
 8006858:	460c      	mov	r4, r1
 800685a:	f9b1 100e 	ldrsh.w	r1, [r1, #14]
 800685e:	f000 f82d 	bl	80068bc <_lseek_r>
 8006862:	1c43      	adds	r3, r0, #1
 8006864:	89a3      	ldrh	r3, [r4, #12]
 8006866:	bf15      	itete	ne
 8006868:	6560      	strne	r0, [r4, #84]	@ 0x54
 800686a:	f423 5380 	biceq.w	r3, r3, #4096	@ 0x1000
 800686e:	f443 5380 	orrne.w	r3, r3, #4096	@ 0x1000
 8006872:	81a3      	strheq	r3, [r4, #12]
 8006874:	bf18      	it	ne
 8006876:	81a3      	strhne	r3, [r4, #12]
 8006878:	bd10      	pop	{r4, pc}

0800687a <__sclose>:
 800687a:	f9b1 100e 	ldrsh.w	r1, [r1, #14]
 800687e:	f000 b80d 	b.w	800689c <_close_r>

08006882 <memset>:
 8006882:	4402      	add	r2, r0
 8006884:	4603      	mov	r3, r0
 8006886:	4293      	cmp	r3, r2
 8006888:	d100      	bne.n	800688c <memset+0xa>
 800688a:	4770      	bx	lr
 800688c:	f803 1b01 	strb.w	r1, [r3], #1
 8006890:	e7f9      	b.n	8006886 <memset+0x4>
	...

08006894 <_localeconv_r>:
 8006894:	4800      	ldr	r0, [pc, #0]	@ (8006898 <_localeconv_r+0x4>)
 8006896:	4770      	bx	lr
 8006898:	20000164 	.word	0x20000164

0800689c <_close_r>:
 800689c:	b538      	push	{r3, r4, r5, lr}
 800689e:	4d06      	ldr	r5, [pc, #24]	@ (80068b8 <_close_r+0x1c>)
 80068a0:	2300      	movs	r3, #0
 80068a2:	4604      	mov	r4, r0
 80068a4:	4608      	mov	r0, r1
 80068a6:	602b      	str	r3, [r5, #0]
 80068a8:	f7fb fd3a 	bl	8002320 <_close>
 80068ac:	1c43      	adds	r3, r0, #1
 80068ae:	d102      	bne.n	80068b6 <_close_r+0x1a>
 80068b0:	682b      	ldr	r3, [r5, #0]
 80068b2:	b103      	cbz	r3, 80068b6 <_close_r+0x1a>
 80068b4:	6023      	str	r3, [r4, #0]
 80068b6:	bd38      	pop	{r3, r4, r5, pc}
 80068b8:	200004cc 	.word	0x200004cc

080068bc <_lseek_r>:
 80068bc:	b538      	push	{r3, r4, r5, lr}
 80068be:	4d07      	ldr	r5, [pc, #28]	@ (80068dc <_lseek_r+0x20>)
 80068c0:	4604      	mov	r4, r0
 80068c2:	4608      	mov	r0, r1
 80068c4:	4611      	mov	r1, r2
 80068c6:	2200      	movs	r2, #0
 80068c8:	602a      	str	r2, [r5, #0]
 80068ca:	461a      	mov	r2, r3
 80068cc:	f7fb fd4f 	bl	800236e <_lseek>
 80068d0:	1c43      	adds	r3, r0, #1
 80068d2:	d102      	bne.n	80068da <_lseek_r+0x1e>
 80068d4:	682b      	ldr	r3, [r5, #0]
 80068d6:	b103      	cbz	r3, 80068da <_lseek_r+0x1e>
 80068d8:	6023      	str	r3, [r4, #0]
 80068da:	bd38      	pop	{r3, r4, r5, pc}
 80068dc:	200004cc 	.word	0x200004cc

080068e0 <_read_r>:
 80068e0:	b538      	push	{r3, r4, r5, lr}
 80068e2:	4d07      	ldr	r5, [pc, #28]	@ (8006900 <_read_r+0x20>)
 80068e4:	4604      	mov	r4, r0
 80068e6:	4608      	mov	r0, r1
 80068e8:	4611      	mov	r1, r2
 80068ea:	2200      	movs	r2, #0
 80068ec:	602a      	str	r2, [r5, #0]
 80068ee:	461a      	mov	r2, r3
 80068f0:	f7fb fcdd 	bl	80022ae <_read>
 80068f4:	1c43      	adds	r3, r0, #1
 80068f6:	d102      	bne.n	80068fe <_read_r+0x1e>
 80068f8:	682b      	ldr	r3, [r5, #0]
 80068fa:	b103      	cbz	r3, 80068fe <_read_r+0x1e>
 80068fc:	6023      	str	r3, [r4, #0]
 80068fe:	bd38      	pop	{r3, r4, r5, pc}
 8006900:	200004cc 	.word	0x200004cc

08006904 <_write_r>:
 8006904:	b538      	push	{r3, r4, r5, lr}
 8006906:	4d07      	ldr	r5, [pc, #28]	@ (8006924 <_write_r+0x20>)
 8006908:	4604      	mov	r4, r0
 800690a:	4608      	mov	r0, r1
 800690c:	4611      	mov	r1, r2
 800690e:	2200      	movs	r2, #0
 8006910:	602a      	str	r2, [r5, #0]
 8006912:	461a      	mov	r2, r3
 8006914:	f7fb fce8 	bl	80022e8 <_write>
 8006918:	1c43      	adds	r3, r0, #1
 800691a:	d102      	bne.n	8006922 <_write_r+0x1e>
 800691c:	682b      	ldr	r3, [r5, #0]
 800691e:	b103      	cbz	r3, 8006922 <_write_r+0x1e>
 8006920:	6023      	str	r3, [r4, #0]
 8006922:	bd38      	pop	{r3, r4, r5, pc}
 8006924:	200004cc 	.word	0x200004cc

08006928 <__errno>:
 8006928:	4b01      	ldr	r3, [pc, #4]	@ (8006930 <__errno+0x8>)
 800692a:	6818      	ldr	r0, [r3, #0]
 800692c:	4770      	bx	lr
 800692e:	bf00      	nop
 8006930:	20000024 	.word	0x20000024

08006934 <__libc_init_array>:
 8006934:	b570      	push	{r4, r5, r6, lr}
 8006936:	4d0d      	ldr	r5, [pc, #52]	@ (800696c <__libc_init_array+0x38>)
 8006938:	4c0d      	ldr	r4, [pc, #52]	@ (8006970 <__libc_init_array+0x3c>)
 800693a:	1b64      	subs	r4, r4, r5
 800693c:	10a4      	asrs	r4, r4, #2
 800693e:	2600      	movs	r6, #0
 8006940:	42a6      	cmp	r6, r4
 8006942:	d109      	bne.n	8006958 <__libc_init_array+0x24>
 8006944:	4d0b      	ldr	r5, [pc, #44]	@ (8006974 <__libc_init_array+0x40>)
 8006946:	4c0c      	ldr	r4, [pc, #48]	@ (8006978 <__libc_init_array+0x44>)
 8006948:	f002 f866 	bl	8008a18 <_init>
 800694c:	1b64      	subs	r4, r4, r5
 800694e:	10a4      	asrs	r4, r4, #2
 8006950:	2600      	movs	r6, #0
 8006952:	42a6      	cmp	r6, r4
 8006954:	d105      	bne.n	8006962 <__libc_init_array+0x2e>
 8006956:	bd70      	pop	{r4, r5, r6, pc}
 8006958:	f855 3b04 	ldr.w	r3, [r5], #4
 800695c:	4798      	blx	r3
 800695e:	3601      	adds	r6, #1
 8006960:	e7ee      	b.n	8006940 <__libc_init_array+0xc>
 8006962:	f855 3b04 	ldr.w	r3, [r5], #4
 8006966:	4798      	blx	r3
 8006968:	3601      	adds	r6, #1
 800696a:	e7f2      	b.n	8006952 <__libc_init_array+0x1e>
 800696c:	08008dd0 	.word	0x08008dd0
 8006970:	08008dd0 	.word	0x08008dd0
 8006974:	08008dd0 	.word	0x08008dd0
 8006978:	08008dd4 	.word	0x08008dd4

0800697c <__retarget_lock_init_recursive>:
 800697c:	4770      	bx	lr

0800697e <__retarget_lock_acquire_recursive>:
 800697e:	4770      	bx	lr

08006980 <__retarget_lock_release_recursive>:
 8006980:	4770      	bx	lr

08006982 <quorem>:
 8006982:	e92d 4ff7 	stmdb	sp!, {r0, r1, r2, r4, r5, r6, r7, r8, r9, sl, fp, lr}
 8006986:	6903      	ldr	r3, [r0, #16]
 8006988:	690c      	ldr	r4, [r1, #16]
 800698a:	42a3      	cmp	r3, r4
 800698c:	4607      	mov	r7, r0
 800698e:	db7e      	blt.n	8006a8e <quorem+0x10c>
 8006990:	3c01      	subs	r4, #1
 8006992:	f101 0814 	add.w	r8, r1, #20
 8006996:	00a3      	lsls	r3, r4, #2
 8006998:	f100 0514 	add.w	r5, r0, #20
 800699c:	9300      	str	r3, [sp, #0]
 800699e:	eb05 0384 	add.w	r3, r5, r4, lsl #2
 80069a2:	9301      	str	r3, [sp, #4]
 80069a4:	f858 3024 	ldr.w	r3, [r8, r4, lsl #2]
 80069a8:	f855 2024 	ldr.w	r2, [r5, r4, lsl #2]
 80069ac:	3301      	adds	r3, #1
 80069ae:	429a      	cmp	r2, r3
 80069b0:	eb08 0984 	add.w	r9, r8, r4, lsl #2
 80069b4:	fbb2 f6f3 	udiv	r6, r2, r3
 80069b8:	d32e      	bcc.n	8006a18 <quorem+0x96>
 80069ba:	f04f 0a00 	mov.w	sl, #0
 80069be:	46c4      	mov	ip, r8
 80069c0:	46ae      	mov	lr, r5
 80069c2:	46d3      	mov	fp, sl
 80069c4:	f85c 3b04 	ldr.w	r3, [ip], #4
 80069c8:	b298      	uxth	r0, r3
 80069ca:	fb06 a000 	mla	r0, r6, r0, sl
 80069ce:	0c02      	lsrs	r2, r0, #16
 80069d0:	0c1b      	lsrs	r3, r3, #16
 80069d2:	fb06 2303 	mla	r3, r6, r3, r2
 80069d6:	f8de 2000 	ldr.w	r2, [lr]
 80069da:	b280      	uxth	r0, r0
 80069dc:	b292      	uxth	r2, r2
 80069de:	1a12      	subs	r2, r2, r0
 80069e0:	445a      	add	r2, fp
 80069e2:	f8de 0000 	ldr.w	r0, [lr]
 80069e6:	ea4f 4a13 	mov.w	sl, r3, lsr #16
 80069ea:	b29b      	uxth	r3, r3
 80069ec:	ebc3 4322 	rsb	r3, r3, r2, asr #16
 80069f0:	eb03 4310 	add.w	r3, r3, r0, lsr #16
 80069f4:	b292      	uxth	r2, r2
 80069f6:	ea42 4203 	orr.w	r2, r2, r3, lsl #16
 80069fa:	45e1      	cmp	r9, ip
 80069fc:	f84e 2b04 	str.w	r2, [lr], #4
 8006a00:	ea4f 4b23 	mov.w	fp, r3, asr #16
 8006a04:	d2de      	bcs.n	80069c4 <quorem+0x42>
 8006a06:	9b00      	ldr	r3, [sp, #0]
 8006a08:	58eb      	ldr	r3, [r5, r3]
 8006a0a:	b92b      	cbnz	r3, 8006a18 <quorem+0x96>
 8006a0c:	9b01      	ldr	r3, [sp, #4]
 8006a0e:	3b04      	subs	r3, #4
 8006a10:	429d      	cmp	r5, r3
 8006a12:	461a      	mov	r2, r3
 8006a14:	d32f      	bcc.n	8006a76 <quorem+0xf4>
 8006a16:	613c      	str	r4, [r7, #16]
 8006a18:	4638      	mov	r0, r7
 8006a1a:	f001 f97b 	bl	8007d14 <__mcmp>
 8006a1e:	2800      	cmp	r0, #0
 8006a20:	db25      	blt.n	8006a6e <quorem+0xec>
 8006a22:	4629      	mov	r1, r5
 8006a24:	2000      	movs	r0, #0
 8006a26:	f858 2b04 	ldr.w	r2, [r8], #4
 8006a2a:	f8d1 c000 	ldr.w	ip, [r1]
 8006a2e:	fa1f fe82 	uxth.w	lr, r2
 8006a32:	fa1f f38c 	uxth.w	r3, ip
 8006a36:	eba3 030e 	sub.w	r3, r3, lr
 8006a3a:	4403      	add	r3, r0
 8006a3c:	0c12      	lsrs	r2, r2, #16
 8006a3e:	ebc2 4223 	rsb	r2, r2, r3, asr #16
 8006a42:	eb02 421c 	add.w	r2, r2, ip, lsr #16
 8006a46:	b29b      	uxth	r3, r3
 8006a48:	ea43 4302 	orr.w	r3, r3, r2, lsl #16
 8006a4c:	45c1      	cmp	r9, r8
 8006a4e:	f841 3b04 	str.w	r3, [r1], #4
 8006a52:	ea4f 4022 	mov.w	r0, r2, asr #16
 8006a56:	d2e6      	bcs.n	8006a26 <quorem+0xa4>
 8006a58:	f855 2024 	ldr.w	r2, [r5, r4, lsl #2]
 8006a5c:	eb05 0384 	add.w	r3, r5, r4, lsl #2
 8006a60:	b922      	cbnz	r2, 8006a6c <quorem+0xea>
 8006a62:	3b04      	subs	r3, #4
 8006a64:	429d      	cmp	r5, r3
 8006a66:	461a      	mov	r2, r3
 8006a68:	d30b      	bcc.n	8006a82 <quorem+0x100>
 8006a6a:	613c      	str	r4, [r7, #16]
 8006a6c:	3601      	adds	r6, #1
 8006a6e:	4630      	mov	r0, r6
 8006a70:	b003      	add	sp, #12
 8006a72:	e8bd 8ff0 	ldmia.w	sp!, {r4, r5, r6, r7, r8, r9, sl, fp, pc}
 8006a76:	6812      	ldr	r2, [r2, #0]
 8006a78:	3b04      	subs	r3, #4
 8006a7a:	2a00      	cmp	r2, #0
 8006a7c:	d1cb      	bne.n	8006a16 <quorem+0x94>
 8006a7e:	3c01      	subs	r4, #1
 8006a80:	e7c6      	b.n	8006a10 <quorem+0x8e>
 8006a82:	6812      	ldr	r2, [r2, #0]
 8006a84:	3b04      	subs	r3, #4
 8006a86:	2a00      	cmp	r2, #0
 8006a88:	d1ef      	bne.n	8006a6a <quorem+0xe8>
 8006a8a:	3c01      	subs	r4, #1
 8006a8c:	e7ea      	b.n	8006a64 <quorem+0xe2>
 8006a8e:	2000      	movs	r0, #0
 8006a90:	e7ee      	b.n	8006a70 <quorem+0xee>
 8006a92:	0000      	movs	r0, r0
 8006a94:	0000      	movs	r0, r0
	...

08006a98 <_dtoa_r>:
 8006a98:	e92d 4ff0 	stmdb	sp!, {r4, r5, r6, r7, r8, r9, sl, fp, lr}
 8006a9c:	69c7      	ldr	r7, [r0, #28]
 8006a9e:	b099      	sub	sp, #100	@ 0x64
 8006aa0:	ed8d 0b02 	vstr	d0, [sp, #8]
 8006aa4:	ec55 4b10 	vmov	r4, r5, d0
 8006aa8:	9e22      	ldr	r6, [sp, #136]	@ 0x88
 8006aaa:	9109      	str	r1, [sp, #36]	@ 0x24
 8006aac:	4683      	mov	fp, r0
 8006aae:	920e      	str	r2, [sp, #56]	@ 0x38
 8006ab0:	9313      	str	r3, [sp, #76]	@ 0x4c
 8006ab2:	b97f      	cbnz	r7, 8006ad4 <_dtoa_r+0x3c>
 8006ab4:	2010      	movs	r0, #16
 8006ab6:	f000 fdfd 	bl	80076b4 <malloc>
 8006aba:	4602      	mov	r2, r0
 8006abc:	f8cb 001c 	str.w	r0, [fp, #28]
 8006ac0:	b920      	cbnz	r0, 8006acc <_dtoa_r+0x34>
 8006ac2:	4ba7      	ldr	r3, [pc, #668]	@ (8006d60 <_dtoa_r+0x2c8>)
 8006ac4:	21ef      	movs	r1, #239	@ 0xef
 8006ac6:	48a7      	ldr	r0, [pc, #668]	@ (8006d64 <_dtoa_r+0x2cc>)
 8006ac8:	f001 fc68 	bl	800839c <__assert_func>
 8006acc:	e9c0 7701 	strd	r7, r7, [r0, #4]
 8006ad0:	6007      	str	r7, [r0, #0]
 8006ad2:	60c7      	str	r7, [r0, #12]
 8006ad4:	f8db 301c 	ldr.w	r3, [fp, #28]
 8006ad8:	6819      	ldr	r1, [r3, #0]
 8006ada:	b159      	cbz	r1, 8006af4 <_dtoa_r+0x5c>
 8006adc:	685a      	ldr	r2, [r3, #4]
 8006ade:	604a      	str	r2, [r1, #4]
 8006ae0:	2301      	movs	r3, #1
 8006ae2:	4093      	lsls	r3, r2
 8006ae4:	608b      	str	r3, [r1, #8]
 8006ae6:	4658      	mov	r0, fp
 8006ae8:	f000 feda 	bl	80078a0 <_Bfree>
 8006aec:	f8db 301c 	ldr.w	r3, [fp, #28]
 8006af0:	2200      	movs	r2, #0
 8006af2:	601a      	str	r2, [r3, #0]
 8006af4:	1e2b      	subs	r3, r5, #0
 8006af6:	bfb9      	ittee	lt
 8006af8:	f023 4300 	biclt.w	r3, r3, #2147483648	@ 0x80000000
 8006afc:	9303      	strlt	r3, [sp, #12]
 8006afe:	2300      	movge	r3, #0
 8006b00:	6033      	strge	r3, [r6, #0]
 8006b02:	9f03      	ldr	r7, [sp, #12]
 8006b04:	4b98      	ldr	r3, [pc, #608]	@ (8006d68 <_dtoa_r+0x2d0>)
 8006b06:	bfbc      	itt	lt
 8006b08:	2201      	movlt	r2, #1
 8006b0a:	6032      	strlt	r2, [r6, #0]
 8006b0c:	43bb      	bics	r3, r7
 8006b0e:	d112      	bne.n	8006b36 <_dtoa_r+0x9e>
 8006b10:	9a13      	ldr	r2, [sp, #76]	@ 0x4c
 8006b12:	f242 730f 	movw	r3, #9999	@ 0x270f
 8006b16:	6013      	str	r3, [r2, #0]
 8006b18:	f3c7 0313 	ubfx	r3, r7, #0, #20
 8006b1c:	4323      	orrs	r3, r4
 8006b1e:	f000 854d 	beq.w	80075bc <_dtoa_r+0xb24>
 8006b22:	9b23      	ldr	r3, [sp, #140]	@ 0x8c
 8006b24:	f8df a254 	ldr.w	sl, [pc, #596]	@ 8006d7c <_dtoa_r+0x2e4>
 8006b28:	2b00      	cmp	r3, #0
 8006b2a:	f000 854f 	beq.w	80075cc <_dtoa_r+0xb34>
 8006b2e:	f10a 0303 	add.w	r3, sl, #3
 8006b32:	f000 bd49 	b.w	80075c8 <_dtoa_r+0xb30>
 8006b36:	ed9d 7b02 	vldr	d7, [sp, #8]
 8006b3a:	2200      	movs	r2, #0
 8006b3c:	ec51 0b17 	vmov	r0, r1, d7
 8006b40:	2300      	movs	r3, #0
 8006b42:	ed8d 7b0c 	vstr	d7, [sp, #48]	@ 0x30
 8006b46:	f7f9 ffbf 	bl	8000ac8 <__aeabi_dcmpeq>
 8006b4a:	4680      	mov	r8, r0
 8006b4c:	b158      	cbz	r0, 8006b66 <_dtoa_r+0xce>
 8006b4e:	9a13      	ldr	r2, [sp, #76]	@ 0x4c
 8006b50:	2301      	movs	r3, #1
 8006b52:	6013      	str	r3, [r2, #0]
 8006b54:	9b23      	ldr	r3, [sp, #140]	@ 0x8c
 8006b56:	b113      	cbz	r3, 8006b5e <_dtoa_r+0xc6>
 8006b58:	9a23      	ldr	r2, [sp, #140]	@ 0x8c
 8006b5a:	4b84      	ldr	r3, [pc, #528]	@ (8006d6c <_dtoa_r+0x2d4>)
 8006b5c:	6013      	str	r3, [r2, #0]
 8006b5e:	f8df a220 	ldr.w	sl, [pc, #544]	@ 8006d80 <_dtoa_r+0x2e8>
 8006b62:	f000 bd33 	b.w	80075cc <_dtoa_r+0xb34>
 8006b66:	ed9d 0b0c 	vldr	d0, [sp, #48]	@ 0x30
 8006b6a:	aa16      	add	r2, sp, #88	@ 0x58
 8006b6c:	a917      	add	r1, sp, #92	@ 0x5c
 8006b6e:	4658      	mov	r0, fp
 8006b70:	f001 f980 	bl	8007e74 <__d2b>
 8006b74:	f3c7 560a 	ubfx	r6, r7, #20, #11
 8006b78:	4681      	mov	r9, r0
 8006b7a:	2e00      	cmp	r6, #0
 8006b7c:	d077      	beq.n	8006c6e <_dtoa_r+0x1d6>
 8006b7e:	9b0d      	ldr	r3, [sp, #52]	@ 0x34
 8006b80:	f8cd 8050 	str.w	r8, [sp, #80]	@ 0x50
 8006b84:	f3c3 0313 	ubfx	r3, r3, #0, #20
 8006b88:	e9dd 010c 	ldrd	r0, r1, [sp, #48]	@ 0x30
 8006b8c:	f043 537f 	orr.w	r3, r3, #1069547520	@ 0x3fc00000
 8006b90:	f443 1340 	orr.w	r3, r3, #3145728	@ 0x300000
 8006b94:	f2a6 36ff 	subw	r6, r6, #1023	@ 0x3ff
 8006b98:	4619      	mov	r1, r3
 8006b9a:	2200      	movs	r2, #0
 8006b9c:	4b74      	ldr	r3, [pc, #464]	@ (8006d70 <_dtoa_r+0x2d8>)
 8006b9e:	f7f9 fb73 	bl	8000288 <__aeabi_dsub>
 8006ba2:	a369      	add	r3, pc, #420	@ (adr r3, 8006d48 <_dtoa_r+0x2b0>)
 8006ba4:	e9d3 2300 	ldrd	r2, r3, [r3]
 8006ba8:	f7f9 fd26 	bl	80005f8 <__aeabi_dmul>
 8006bac:	a368      	add	r3, pc, #416	@ (adr r3, 8006d50 <_dtoa_r+0x2b8>)
 8006bae:	e9d3 2300 	ldrd	r2, r3, [r3]
 8006bb2:	f7f9 fb6b 	bl	800028c <__adddf3>
 8006bb6:	4604      	mov	r4, r0
 8006bb8:	4630      	mov	r0, r6
 8006bba:	460d      	mov	r5, r1
 8006bbc:	f7f9 fcb2 	bl	8000524 <__aeabi_i2d>
 8006bc0:	a365      	add	r3, pc, #404	@ (adr r3, 8006d58 <_dtoa_r+0x2c0>)
 8006bc2:	e9d3 2300 	ldrd	r2, r3, [r3]
 8006bc6:	f7f9 fd17 	bl	80005f8 <__aeabi_dmul>
 8006bca:	4602      	mov	r2, r0
 8006bcc:	460b      	mov	r3, r1
 8006bce:	4620      	mov	r0, r4
 8006bd0:	4629      	mov	r1, r5
 8006bd2:	f7f9 fb5b 	bl	800028c <__adddf3>
 8006bd6:	4604      	mov	r4, r0
 8006bd8:	460d      	mov	r5, r1
 8006bda:	f7f9 ffbd 	bl	8000b58 <__aeabi_d2iz>
 8006bde:	2200      	movs	r2, #0
 8006be0:	4607      	mov	r7, r0
 8006be2:	2300      	movs	r3, #0
 8006be4:	4620      	mov	r0, r4
 8006be6:	4629      	mov	r1, r5
 8006be8:	f7f9 ff78 	bl	8000adc <__aeabi_dcmplt>
 8006bec:	b140      	cbz	r0, 8006c00 <_dtoa_r+0x168>
 8006bee:	4638      	mov	r0, r7
 8006bf0:	f7f9 fc98 	bl	8000524 <__aeabi_i2d>
 8006bf4:	4622      	mov	r2, r4
 8006bf6:	462b      	mov	r3, r5
 8006bf8:	f7f9 ff66 	bl	8000ac8 <__aeabi_dcmpeq>
 8006bfc:	b900      	cbnz	r0, 8006c00 <_dtoa_r+0x168>
 8006bfe:	3f01      	subs	r7, #1
 8006c00:	2f16      	cmp	r7, #22
 8006c02:	d851      	bhi.n	8006ca8 <_dtoa_r+0x210>
 8006c04:	4b5b      	ldr	r3, [pc, #364]	@ (8006d74 <_dtoa_r+0x2dc>)
 8006c06:	eb03 03c7 	add.w	r3, r3, r7, lsl #3
 8006c0a:	e9d3 2300 	ldrd	r2, r3, [r3]
 8006c0e:	e9dd 010c 	ldrd	r0, r1, [sp, #48]	@ 0x30
 8006c12:	f7f9 ff63 	bl	8000adc <__aeabi_dcmplt>
 8006c16:	2800      	cmp	r0, #0
 8006c18:	d048      	beq.n	8006cac <_dtoa_r+0x214>
 8006c1a:	3f01      	subs	r7, #1
 8006c1c:	2300      	movs	r3, #0
 8006c1e:	9312      	str	r3, [sp, #72]	@ 0x48
 8006c20:	9b16      	ldr	r3, [sp, #88]	@ 0x58
 8006c22:	1b9b      	subs	r3, r3, r6
 8006c24:	1e5a      	subs	r2, r3, #1
 8006c26:	bf44      	itt	mi
 8006c28:	f1c3 0801 	rsbmi	r8, r3, #1
 8006c2c:	2300      	movmi	r3, #0
 8006c2e:	9208      	str	r2, [sp, #32]
 8006c30:	bf54      	ite	pl
 8006c32:	f04f 0800 	movpl.w	r8, #0
 8006c36:	9308      	strmi	r3, [sp, #32]
 8006c38:	2f00      	cmp	r7, #0
 8006c3a:	db39      	blt.n	8006cb0 <_dtoa_r+0x218>
 8006c3c:	9b08      	ldr	r3, [sp, #32]
 8006c3e:	970f      	str	r7, [sp, #60]	@ 0x3c
 8006c40:	443b      	add	r3, r7
 8006c42:	9308      	str	r3, [sp, #32]
 8006c44:	2300      	movs	r3, #0
 8006c46:	930a      	str	r3, [sp, #40]	@ 0x28
 8006c48:	9b09      	ldr	r3, [sp, #36]	@ 0x24
 8006c4a:	2b09      	cmp	r3, #9
 8006c4c:	d864      	bhi.n	8006d18 <_dtoa_r+0x280>
 8006c4e:	2b05      	cmp	r3, #5
 8006c50:	bfc4      	itt	gt
 8006c52:	3b04      	subgt	r3, #4
 8006c54:	9309      	strgt	r3, [sp, #36]	@ 0x24
 8006c56:	9b09      	ldr	r3, [sp, #36]	@ 0x24
 8006c58:	f1a3 0302 	sub.w	r3, r3, #2
 8006c5c:	bfcc      	ite	gt
 8006c5e:	2400      	movgt	r4, #0
 8006c60:	2401      	movle	r4, #1
 8006c62:	2b03      	cmp	r3, #3
 8006c64:	d863      	bhi.n	8006d2e <_dtoa_r+0x296>
 8006c66:	e8df f003 	tbb	[pc, r3]
 8006c6a:	372a      	.short	0x372a
 8006c6c:	5535      	.short	0x5535
 8006c6e:	e9dd 6316 	ldrd	r6, r3, [sp, #88]	@ 0x58
 8006c72:	441e      	add	r6, r3
 8006c74:	f206 4332 	addw	r3, r6, #1074	@ 0x432
 8006c78:	2b20      	cmp	r3, #32
 8006c7a:	bfc1      	itttt	gt
 8006c7c:	f1c3 0340 	rsbgt	r3, r3, #64	@ 0x40
 8006c80:	409f      	lslgt	r7, r3
 8006c82:	f206 4312 	addwgt	r3, r6, #1042	@ 0x412
 8006c86:	fa24 f303 	lsrgt.w	r3, r4, r3
 8006c8a:	bfd6      	itet	le
 8006c8c:	f1c3 0320 	rsble	r3, r3, #32
 8006c90:	ea47 0003 	orrgt.w	r0, r7, r3
 8006c94:	fa04 f003 	lslle.w	r0, r4, r3
 8006c98:	f7f9 fc34 	bl	8000504 <__aeabi_ui2d>
 8006c9c:	2201      	movs	r2, #1
 8006c9e:	f1a1 73f8 	sub.w	r3, r1, #32505856	@ 0x1f00000
 8006ca2:	3e01      	subs	r6, #1
 8006ca4:	9214      	str	r2, [sp, #80]	@ 0x50
 8006ca6:	e777      	b.n	8006b98 <_dtoa_r+0x100>
 8006ca8:	2301      	movs	r3, #1
 8006caa:	e7b8      	b.n	8006c1e <_dtoa_r+0x186>
 8006cac:	9012      	str	r0, [sp, #72]	@ 0x48
 8006cae:	e7b7      	b.n	8006c20 <_dtoa_r+0x188>
 8006cb0:	427b      	negs	r3, r7
 8006cb2:	930a      	str	r3, [sp, #40]	@ 0x28
 8006cb4:	2300      	movs	r3, #0
 8006cb6:	eba8 0807 	sub.w	r8, r8, r7
 8006cba:	930f      	str	r3, [sp, #60]	@ 0x3c
 8006cbc:	e7c4      	b.n	8006c48 <_dtoa_r+0x1b0>
 8006cbe:	2300      	movs	r3, #0
 8006cc0:	930b      	str	r3, [sp, #44]	@ 0x2c
 8006cc2:	9b0e      	ldr	r3, [sp, #56]	@ 0x38
 8006cc4:	2b00      	cmp	r3, #0
 8006cc6:	dc35      	bgt.n	8006d34 <_dtoa_r+0x29c>
 8006cc8:	2301      	movs	r3, #1
 8006cca:	9300      	str	r3, [sp, #0]
 8006ccc:	9307      	str	r3, [sp, #28]
 8006cce:	461a      	mov	r2, r3
 8006cd0:	920e      	str	r2, [sp, #56]	@ 0x38
 8006cd2:	e00b      	b.n	8006cec <_dtoa_r+0x254>
 8006cd4:	2301      	movs	r3, #1
 8006cd6:	e7f3      	b.n	8006cc0 <_dtoa_r+0x228>
 8006cd8:	2300      	movs	r3, #0
 8006cda:	930b      	str	r3, [sp, #44]	@ 0x2c
 8006cdc:	9b0e      	ldr	r3, [sp, #56]	@ 0x38
 8006cde:	18fb      	adds	r3, r7, r3
 8006ce0:	9300      	str	r3, [sp, #0]
 8006ce2:	3301      	adds	r3, #1
 8006ce4:	2b01      	cmp	r3, #1
 8006ce6:	9307      	str	r3, [sp, #28]
 8006ce8:	bfb8      	it	lt
 8006cea:	2301      	movlt	r3, #1
 8006cec:	f8db 001c 	ldr.w	r0, [fp, #28]
 8006cf0:	2100      	movs	r1, #0
 8006cf2:	2204      	movs	r2, #4
 8006cf4:	f102 0514 	add.w	r5, r2, #20
 8006cf8:	429d      	cmp	r5, r3
 8006cfa:	d91f      	bls.n	8006d3c <_dtoa_r+0x2a4>
 8006cfc:	6041      	str	r1, [r0, #4]
 8006cfe:	4658      	mov	r0, fp
 8006d00:	f000 fd8e 	bl	8007820 <_Balloc>
 8006d04:	4682      	mov	sl, r0
 8006d06:	2800      	cmp	r0, #0
 8006d08:	d13c      	bne.n	8006d84 <_dtoa_r+0x2ec>
 8006d0a:	4b1b      	ldr	r3, [pc, #108]	@ (8006d78 <_dtoa_r+0x2e0>)
 8006d0c:	4602      	mov	r2, r0
 8006d0e:	f240 11af 	movw	r1, #431	@ 0x1af
 8006d12:	e6d8      	b.n	8006ac6 <_dtoa_r+0x2e>
 8006d14:	2301      	movs	r3, #1
 8006d16:	e7e0      	b.n	8006cda <_dtoa_r+0x242>
 8006d18:	2401      	movs	r4, #1
 8006d1a:	2300      	movs	r3, #0
 8006d1c:	9309      	str	r3, [sp, #36]	@ 0x24
 8006d1e:	940b      	str	r4, [sp, #44]	@ 0x2c
 8006d20:	f04f 33ff 	mov.w	r3, #4294967295
 8006d24:	9300      	str	r3, [sp, #0]
 8006d26:	9307      	str	r3, [sp, #28]
 8006d28:	2200      	movs	r2, #0
 8006d2a:	2312      	movs	r3, #18
 8006d2c:	e7d0      	b.n	8006cd0 <_dtoa_r+0x238>
 8006d2e:	2301      	movs	r3, #1
 8006d30:	930b      	str	r3, [sp, #44]	@ 0x2c
 8006d32:	e7f5      	b.n	8006d20 <_dtoa_r+0x288>
 8006d34:	9b0e      	ldr	r3, [sp, #56]	@ 0x38
 8006d36:	9300      	str	r3, [sp, #0]
 8006d38:	9307      	str	r3, [sp, #28]
 8006d3a:	e7d7      	b.n	8006cec <_dtoa_r+0x254>
 8006d3c:	3101      	adds	r1, #1
 8006d3e:	0052      	lsls	r2, r2, #1
 8006d40:	e7d8      	b.n	8006cf4 <_dtoa_r+0x25c>
 8006d42:	bf00      	nop
 8006d44:	f3af 8000 	nop.w
 8006d48:	636f4361 	.word	0x636f4361
 8006d4c:	3fd287a7 	.word	0x3fd287a7
 8006d50:	8b60c8b3 	.word	0x8b60c8b3
 8006d54:	3fc68a28 	.word	0x3fc68a28
 8006d58:	509f79fb 	.word	0x509f79fb
 8006d5c:	3fd34413 	.word	0x3fd34413
 8006d60:	08008a99 	.word	0x08008a99
 8006d64:	08008ab0 	.word	0x08008ab0
 8006d68:	7ff00000 	.word	0x7ff00000
 8006d6c:	08008a69 	.word	0x08008a69
 8006d70:	3ff80000 	.word	0x3ff80000
 8006d74:	08008ba8 	.word	0x08008ba8
 8006d78:	08008b08 	.word	0x08008b08
 8006d7c:	08008a95 	.word	0x08008a95
 8006d80:	08008a68 	.word	0x08008a68
 8006d84:	f8db 301c 	ldr.w	r3, [fp, #28]
 8006d88:	6018      	str	r0, [r3, #0]
 8006d8a:	9b07      	ldr	r3, [sp, #28]
 8006d8c:	2b0e      	cmp	r3, #14
 8006d8e:	f200 80a4 	bhi.w	8006eda <_dtoa_r+0x442>
 8006d92:	2c00      	cmp	r4, #0
 8006d94:	f000 80a1 	beq.w	8006eda <_dtoa_r+0x442>
 8006d98:	2f00      	cmp	r7, #0
 8006d9a:	dd33      	ble.n	8006e04 <_dtoa_r+0x36c>
 8006d9c:	4bad      	ldr	r3, [pc, #692]	@ (8007054 <_dtoa_r+0x5bc>)
 8006d9e:	f007 020f 	and.w	r2, r7, #15
 8006da2:	eb03 03c2 	add.w	r3, r3, r2, lsl #3
 8006da6:	ed93 7b00 	vldr	d7, [r3]
 8006daa:	05f8      	lsls	r0, r7, #23
 8006dac:	ed8d 7b04 	vstr	d7, [sp, #16]
 8006db0:	ea4f 1427 	mov.w	r4, r7, asr #4
 8006db4:	d516      	bpl.n	8006de4 <_dtoa_r+0x34c>
 8006db6:	4ba8      	ldr	r3, [pc, #672]	@ (8007058 <_dtoa_r+0x5c0>)
 8006db8:	e9dd 010c 	ldrd	r0, r1, [sp, #48]	@ 0x30
 8006dbc:	e9d3 2308 	ldrd	r2, r3, [r3, #32]
 8006dc0:	f7f9 fd44 	bl	800084c <__aeabi_ddiv>
 8006dc4:	e9cd 0102 	strd	r0, r1, [sp, #8]
 8006dc8:	f004 040f 	and.w	r4, r4, #15
 8006dcc:	2603      	movs	r6, #3
 8006dce:	4da2      	ldr	r5, [pc, #648]	@ (8007058 <_dtoa_r+0x5c0>)
 8006dd0:	b954      	cbnz	r4, 8006de8 <_dtoa_r+0x350>
 8006dd2:	e9dd 2304 	ldrd	r2, r3, [sp, #16]
 8006dd6:	e9dd 0102 	ldrd	r0, r1, [sp, #8]
 8006dda:	f7f9 fd37 	bl	800084c <__aeabi_ddiv>
 8006dde:	e9cd 0102 	strd	r0, r1, [sp, #8]
 8006de2:	e028      	b.n	8006e36 <_dtoa_r+0x39e>
 8006de4:	2602      	movs	r6, #2
 8006de6:	e7f2      	b.n	8006dce <_dtoa_r+0x336>
 8006de8:	07e1      	lsls	r1, r4, #31
 8006dea:	d508      	bpl.n	8006dfe <_dtoa_r+0x366>
 8006dec:	e9dd 0104 	ldrd	r0, r1, [sp, #16]
 8006df0:	e9d5 2300 	ldrd	r2, r3, [r5]
 8006df4:	f7f9 fc00 	bl	80005f8 <__aeabi_dmul>
 8006df8:	e9cd 0104 	strd	r0, r1, [sp, #16]
 8006dfc:	3601      	adds	r6, #1
 8006dfe:	1064      	asrs	r4, r4, #1
 8006e00:	3508      	adds	r5, #8
 8006e02:	e7e5      	b.n	8006dd0 <_dtoa_r+0x338>
 8006e04:	f000 80d2 	beq.w	8006fac <_dtoa_r+0x514>
 8006e08:	427c      	negs	r4, r7
 8006e0a:	4b92      	ldr	r3, [pc, #584]	@ (8007054 <_dtoa_r+0x5bc>)
 8006e0c:	4d92      	ldr	r5, [pc, #584]	@ (8007058 <_dtoa_r+0x5c0>)
 8006e0e:	f004 020f 	and.w	r2, r4, #15
 8006e12:	eb03 03c2 	add.w	r3, r3, r2, lsl #3
 8006e16:	e9d3 2300 	ldrd	r2, r3, [r3]
 8006e1a:	e9dd 010c 	ldrd	r0, r1, [sp, #48]	@ 0x30
 8006e1e:	f7f9 fbeb 	bl	80005f8 <__aeabi_dmul>
 8006e22:	e9cd 0102 	strd	r0, r1, [sp, #8]
 8006e26:	1124      	asrs	r4, r4, #4
 8006e28:	2300      	movs	r3, #0
 8006e2a:	2602      	movs	r6, #2
 8006e2c:	2c00      	cmp	r4, #0
 8006e2e:	f040 80b2 	bne.w	8006f96 <_dtoa_r+0x4fe>
 8006e32:	2b00      	cmp	r3, #0
 8006e34:	d1d3      	bne.n	8006dde <_dtoa_r+0x346>
 8006e36:	9b12      	ldr	r3, [sp, #72]	@ 0x48
 8006e38:	e9dd 4502 	ldrd	r4, r5, [sp, #8]
 8006e3c:	2b00      	cmp	r3, #0
 8006e3e:	f000 80b7 	beq.w	8006fb0 <_dtoa_r+0x518>
 8006e42:	4b86      	ldr	r3, [pc, #536]	@ (800705c <_dtoa_r+0x5c4>)
 8006e44:	2200      	movs	r2, #0
 8006e46:	4620      	mov	r0, r4
 8006e48:	4629      	mov	r1, r5
 8006e4a:	f7f9 fe47 	bl	8000adc <__aeabi_dcmplt>
 8006e4e:	2800      	cmp	r0, #0
 8006e50:	f000 80ae 	beq.w	8006fb0 <_dtoa_r+0x518>
 8006e54:	9b07      	ldr	r3, [sp, #28]
 8006e56:	2b00      	cmp	r3, #0
 8006e58:	f000 80aa 	beq.w	8006fb0 <_dtoa_r+0x518>
 8006e5c:	9b00      	ldr	r3, [sp, #0]
 8006e5e:	2b00      	cmp	r3, #0
 8006e60:	dd37      	ble.n	8006ed2 <_dtoa_r+0x43a>
 8006e62:	1e7b      	subs	r3, r7, #1
 8006e64:	9304      	str	r3, [sp, #16]
 8006e66:	4620      	mov	r0, r4
 8006e68:	4b7d      	ldr	r3, [pc, #500]	@ (8007060 <_dtoa_r+0x5c8>)
 8006e6a:	2200      	movs	r2, #0
 8006e6c:	4629      	mov	r1, r5
 8006e6e:	f7f9 fbc3 	bl	80005f8 <__aeabi_dmul>
 8006e72:	e9cd 0102 	strd	r0, r1, [sp, #8]
 8006e76:	9c00      	ldr	r4, [sp, #0]
 8006e78:	3601      	adds	r6, #1
 8006e7a:	4630      	mov	r0, r6
 8006e7c:	f7f9 fb52 	bl	8000524 <__aeabi_i2d>
 8006e80:	e9dd 2302 	ldrd	r2, r3, [sp, #8]
 8006e84:	f7f9 fbb8 	bl	80005f8 <__aeabi_dmul>
 8006e88:	4b76      	ldr	r3, [pc, #472]	@ (8007064 <_dtoa_r+0x5cc>)
 8006e8a:	2200      	movs	r2, #0
 8006e8c:	f7f9 f9fe 	bl	800028c <__adddf3>
 8006e90:	4605      	mov	r5, r0
 8006e92:	f1a1 7650 	sub.w	r6, r1, #54525952	@ 0x3400000
 8006e96:	2c00      	cmp	r4, #0
 8006e98:	f040 808d 	bne.w	8006fb6 <_dtoa_r+0x51e>
 8006e9c:	e9dd 0102 	ldrd	r0, r1, [sp, #8]
 8006ea0:	4b71      	ldr	r3, [pc, #452]	@ (8007068 <_dtoa_r+0x5d0>)
 8006ea2:	2200      	movs	r2, #0
 8006ea4:	f7f9 f9f0 	bl	8000288 <__aeabi_dsub>
 8006ea8:	4602      	mov	r2, r0
 8006eaa:	460b      	mov	r3, r1
 8006eac:	e9cd 2302 	strd	r2, r3, [sp, #8]
 8006eb0:	462a      	mov	r2, r5
 8006eb2:	4633      	mov	r3, r6
 8006eb4:	f7f9 fe30 	bl	8000b18 <__aeabi_dcmpgt>
 8006eb8:	2800      	cmp	r0, #0
 8006eba:	f040 828b 	bne.w	80073d4 <_dtoa_r+0x93c>
 8006ebe:	e9dd 0102 	ldrd	r0, r1, [sp, #8]
 8006ec2:	462a      	mov	r2, r5
 8006ec4:	f106 4300 	add.w	r3, r6, #2147483648	@ 0x80000000
 8006ec8:	f7f9 fe08 	bl	8000adc <__aeabi_dcmplt>
 8006ecc:	2800      	cmp	r0, #0
 8006ece:	f040 8128 	bne.w	8007122 <_dtoa_r+0x68a>
 8006ed2:	e9dd 340c 	ldrd	r3, r4, [sp, #48]	@ 0x30
 8006ed6:	e9cd 3402 	strd	r3, r4, [sp, #8]
 8006eda:	9b17      	ldr	r3, [sp, #92]	@ 0x5c
 8006edc:	2b00      	cmp	r3, #0
 8006ede:	f2c0 815a 	blt.w	8007196 <_dtoa_r+0x6fe>
 8006ee2:	2f0e      	cmp	r7, #14
 8006ee4:	f300 8157 	bgt.w	8007196 <_dtoa_r+0x6fe>
 8006ee8:	4b5a      	ldr	r3, [pc, #360]	@ (8007054 <_dtoa_r+0x5bc>)
 8006eea:	eb03 03c7 	add.w	r3, r3, r7, lsl #3
 8006eee:	ed93 7b00 	vldr	d7, [r3]
 8006ef2:	9b0e      	ldr	r3, [sp, #56]	@ 0x38
 8006ef4:	2b00      	cmp	r3, #0
 8006ef6:	ed8d 7b00 	vstr	d7, [sp]
 8006efa:	da03      	bge.n	8006f04 <_dtoa_r+0x46c>
 8006efc:	9b07      	ldr	r3, [sp, #28]
 8006efe:	2b00      	cmp	r3, #0
 8006f00:	f340 8101 	ble.w	8007106 <_dtoa_r+0x66e>
 8006f04:	e9dd 4502 	ldrd	r4, r5, [sp, #8]
 8006f08:	4656      	mov	r6, sl
 8006f0a:	e9dd 2300 	ldrd	r2, r3, [sp]
 8006f0e:	4620      	mov	r0, r4
 8006f10:	4629      	mov	r1, r5
 8006f12:	f7f9 fc9b 	bl	800084c <__aeabi_ddiv>
 8006f16:	f7f9 fe1f 	bl	8000b58 <__aeabi_d2iz>
 8006f1a:	4680      	mov	r8, r0
 8006f1c:	f7f9 fb02 	bl	8000524 <__aeabi_i2d>
 8006f20:	e9dd 2300 	ldrd	r2, r3, [sp]
 8006f24:	f7f9 fb68 	bl	80005f8 <__aeabi_dmul>
 8006f28:	4602      	mov	r2, r0
 8006f2a:	460b      	mov	r3, r1
 8006f2c:	4620      	mov	r0, r4
 8006f2e:	4629      	mov	r1, r5
 8006f30:	f108 0430 	add.w	r4, r8, #48	@ 0x30
 8006f34:	f7f9 f9a8 	bl	8000288 <__aeabi_dsub>
 8006f38:	f806 4b01 	strb.w	r4, [r6], #1
 8006f3c:	9d07      	ldr	r5, [sp, #28]
 8006f3e:	eba6 040a 	sub.w	r4, r6, sl
 8006f42:	42a5      	cmp	r5, r4
 8006f44:	4602      	mov	r2, r0
 8006f46:	460b      	mov	r3, r1
 8006f48:	f040 8117 	bne.w	800717a <_dtoa_r+0x6e2>
 8006f4c:	f7f9 f99e 	bl	800028c <__adddf3>
 8006f50:	e9dd 2300 	ldrd	r2, r3, [sp]
 8006f54:	4604      	mov	r4, r0
 8006f56:	460d      	mov	r5, r1
 8006f58:	f7f9 fdde 	bl	8000b18 <__aeabi_dcmpgt>
 8006f5c:	2800      	cmp	r0, #0
 8006f5e:	f040 80f9 	bne.w	8007154 <_dtoa_r+0x6bc>
 8006f62:	e9dd 2300 	ldrd	r2, r3, [sp]
 8006f66:	4620      	mov	r0, r4
 8006f68:	4629      	mov	r1, r5
 8006f6a:	f7f9 fdad 	bl	8000ac8 <__aeabi_dcmpeq>
 8006f6e:	b118      	cbz	r0, 8006f78 <_dtoa_r+0x4e0>
 8006f70:	f018 0f01 	tst.w	r8, #1
 8006f74:	f040 80ee 	bne.w	8007154 <_dtoa_r+0x6bc>
 8006f78:	4649      	mov	r1, r9
 8006f7a:	4658      	mov	r0, fp
 8006f7c:	f000 fc90 	bl	80078a0 <_Bfree>
 8006f80:	2300      	movs	r3, #0
 8006f82:	7033      	strb	r3, [r6, #0]
 8006f84:	9b13      	ldr	r3, [sp, #76]	@ 0x4c
 8006f86:	3701      	adds	r7, #1
 8006f88:	601f      	str	r7, [r3, #0]
 8006f8a:	9b23      	ldr	r3, [sp, #140]	@ 0x8c
 8006f8c:	2b00      	cmp	r3, #0
 8006f8e:	f000 831d 	beq.w	80075cc <_dtoa_r+0xb34>
 8006f92:	601e      	str	r6, [r3, #0]
 8006f94:	e31a      	b.n	80075cc <_dtoa_r+0xb34>
 8006f96:	07e2      	lsls	r2, r4, #31
 8006f98:	d505      	bpl.n	8006fa6 <_dtoa_r+0x50e>
 8006f9a:	e9d5 2300 	ldrd	r2, r3, [r5]
 8006f9e:	f7f9 fb2b 	bl	80005f8 <__aeabi_dmul>
 8006fa2:	3601      	adds	r6, #1
 8006fa4:	2301      	movs	r3, #1
 8006fa6:	1064      	asrs	r4, r4, #1
 8006fa8:	3508      	adds	r5, #8
 8006faa:	e73f      	b.n	8006e2c <_dtoa_r+0x394>
 8006fac:	2602      	movs	r6, #2
 8006fae:	e742      	b.n	8006e36 <_dtoa_r+0x39e>
 8006fb0:	9c07      	ldr	r4, [sp, #28]
 8006fb2:	9704      	str	r7, [sp, #16]
 8006fb4:	e761      	b.n	8006e7a <_dtoa_r+0x3e2>
 8006fb6:	4b27      	ldr	r3, [pc, #156]	@ (8007054 <_dtoa_r+0x5bc>)
 8006fb8:	990b      	ldr	r1, [sp, #44]	@ 0x2c
 8006fba:	eb03 03c4 	add.w	r3, r3, r4, lsl #3
 8006fbe:	e953 2302 	ldrd	r2, r3, [r3, #-8]
 8006fc2:	4454      	add	r4, sl
 8006fc4:	2900      	cmp	r1, #0
 8006fc6:	d053      	beq.n	8007070 <_dtoa_r+0x5d8>
 8006fc8:	4928      	ldr	r1, [pc, #160]	@ (800706c <_dtoa_r+0x5d4>)
 8006fca:	2000      	movs	r0, #0
 8006fcc:	f7f9 fc3e 	bl	800084c <__aeabi_ddiv>
 8006fd0:	4633      	mov	r3, r6
 8006fd2:	462a      	mov	r2, r5
 8006fd4:	f7f9 f958 	bl	8000288 <__aeabi_dsub>
 8006fd8:	e9cd 0110 	strd	r0, r1, [sp, #64]	@ 0x40
 8006fdc:	4656      	mov	r6, sl
 8006fde:	e9dd 0102 	ldrd	r0, r1, [sp, #8]
 8006fe2:	f7f9 fdb9 	bl	8000b58 <__aeabi_d2iz>
 8006fe6:	4605      	mov	r5, r0
 8006fe8:	f7f9 fa9c 	bl	8000524 <__aeabi_i2d>
 8006fec:	4602      	mov	r2, r0
 8006fee:	460b      	mov	r3, r1
 8006ff0:	e9dd 0102 	ldrd	r0, r1, [sp, #8]
 8006ff4:	f7f9 f948 	bl	8000288 <__aeabi_dsub>
 8006ff8:	3530      	adds	r5, #48	@ 0x30
 8006ffa:	4602      	mov	r2, r0
 8006ffc:	460b      	mov	r3, r1
 8006ffe:	e9cd 2302 	strd	r2, r3, [sp, #8]
 8007002:	f806 5b01 	strb.w	r5, [r6], #1
 8007006:	e9dd 2310 	ldrd	r2, r3, [sp, #64]	@ 0x40
 800700a:	f7f9 fd67 	bl	8000adc <__aeabi_dcmplt>
 800700e:	2800      	cmp	r0, #0
 8007010:	d171      	bne.n	80070f6 <_dtoa_r+0x65e>
 8007012:	e9dd 2302 	ldrd	r2, r3, [sp, #8]
 8007016:	4911      	ldr	r1, [pc, #68]	@ (800705c <_dtoa_r+0x5c4>)
 8007018:	2000      	movs	r0, #0
 800701a:	f7f9 f935 	bl	8000288 <__aeabi_dsub>
 800701e:	e9dd 2310 	ldrd	r2, r3, [sp, #64]	@ 0x40
 8007022:	f7f9 fd5b 	bl	8000adc <__aeabi_dcmplt>
 8007026:	2800      	cmp	r0, #0
 8007028:	f040 8095 	bne.w	8007156 <_dtoa_r+0x6be>
 800702c:	42a6      	cmp	r6, r4
 800702e:	f43f af50 	beq.w	8006ed2 <_dtoa_r+0x43a>
 8007032:	e9dd 0110 	ldrd	r0, r1, [sp, #64]	@ 0x40
 8007036:	4b0a      	ldr	r3, [pc, #40]	@ (8007060 <_dtoa_r+0x5c8>)
 8007038:	2200      	movs	r2, #0
 800703a:	f7f9 fadd 	bl	80005f8 <__aeabi_dmul>
 800703e:	4b08      	ldr	r3, [pc, #32]	@ (8007060 <_dtoa_r+0x5c8>)
 8007040:	e9cd 0110 	strd	r0, r1, [sp, #64]	@ 0x40
 8007044:	2200      	movs	r2, #0
 8007046:	e9dd 0102 	ldrd	r0, r1, [sp, #8]
 800704a:	f7f9 fad5 	bl	80005f8 <__aeabi_dmul>
 800704e:	e9cd 0102 	strd	r0, r1, [sp, #8]
 8007052:	e7c4      	b.n	8006fde <_dtoa_r+0x546>
 8007054:	08008ba8 	.word	0x08008ba8
 8007058:	08008b80 	.word	0x08008b80
 800705c:	3ff00000 	.word	0x3ff00000
 8007060:	40240000 	.word	0x40240000
 8007064:	401c0000 	.word	0x401c0000
 8007068:	40140000 	.word	0x40140000
 800706c:	3fe00000 	.word	0x3fe00000
 8007070:	4631      	mov	r1, r6
 8007072:	4628      	mov	r0, r5
 8007074:	f7f9 fac0 	bl	80005f8 <__aeabi_dmul>
 8007078:	e9cd 0110 	strd	r0, r1, [sp, #64]	@ 0x40
 800707c:	9415      	str	r4, [sp, #84]	@ 0x54
 800707e:	4656      	mov	r6, sl
 8007080:	e9dd 0102 	ldrd	r0, r1, [sp, #8]
 8007084:	f7f9 fd68 	bl	8000b58 <__aeabi_d2iz>
 8007088:	4605      	mov	r5, r0
 800708a:	f7f9 fa4b 	bl	8000524 <__aeabi_i2d>
 800708e:	4602      	mov	r2, r0
 8007090:	460b      	mov	r3, r1
 8007092:	e9dd 0102 	ldrd	r0, r1, [sp, #8]
 8007096:	f7f9 f8f7 	bl	8000288 <__aeabi_dsub>
 800709a:	3530      	adds	r5, #48	@ 0x30
 800709c:	f806 5b01 	strb.w	r5, [r6], #1
 80070a0:	4602      	mov	r2, r0
 80070a2:	460b      	mov	r3, r1
 80070a4:	42a6      	cmp	r6, r4
 80070a6:	e9cd 2302 	strd	r2, r3, [sp, #8]
 80070aa:	f04f 0200 	mov.w	r2, #0
 80070ae:	d124      	bne.n	80070fa <_dtoa_r+0x662>
 80070b0:	4bac      	ldr	r3, [pc, #688]	@ (8007364 <_dtoa_r+0x8cc>)
 80070b2:	e9dd 0110 	ldrd	r0, r1, [sp, #64]	@ 0x40
 80070b6:	f7f9 f8e9 	bl	800028c <__adddf3>
 80070ba:	4602      	mov	r2, r0
 80070bc:	460b      	mov	r3, r1
 80070be:	e9dd 0102 	ldrd	r0, r1, [sp, #8]
 80070c2:	f7f9 fd29 	bl	8000b18 <__aeabi_dcmpgt>
 80070c6:	2800      	cmp	r0, #0
 80070c8:	d145      	bne.n	8007156 <_dtoa_r+0x6be>
 80070ca:	e9dd 2310 	ldrd	r2, r3, [sp, #64]	@ 0x40
 80070ce:	49a5      	ldr	r1, [pc, #660]	@ (8007364 <_dtoa_r+0x8cc>)
 80070d0:	2000      	movs	r0, #0
 80070d2:	f7f9 f8d9 	bl	8000288 <__aeabi_dsub>
 80070d6:	4602      	mov	r2, r0
 80070d8:	460b      	mov	r3, r1
 80070da:	e9dd 0102 	ldrd	r0, r1, [sp, #8]
 80070de:	f7f9 fcfd 	bl	8000adc <__aeabi_dcmplt>
 80070e2:	2800      	cmp	r0, #0
 80070e4:	f43f aef5 	beq.w	8006ed2 <_dtoa_r+0x43a>
 80070e8:	9e15      	ldr	r6, [sp, #84]	@ 0x54
 80070ea:	1e73      	subs	r3, r6, #1
 80070ec:	9315      	str	r3, [sp, #84]	@ 0x54
 80070ee:	f816 3c01 	ldrb.w	r3, [r6, #-1]
 80070f2:	2b30      	cmp	r3, #48	@ 0x30
 80070f4:	d0f8      	beq.n	80070e8 <_dtoa_r+0x650>
 80070f6:	9f04      	ldr	r7, [sp, #16]
 80070f8:	e73e      	b.n	8006f78 <_dtoa_r+0x4e0>
 80070fa:	4b9b      	ldr	r3, [pc, #620]	@ (8007368 <_dtoa_r+0x8d0>)
 80070fc:	f7f9 fa7c 	bl	80005f8 <__aeabi_dmul>
 8007100:	e9cd 0102 	strd	r0, r1, [sp, #8]
 8007104:	e7bc      	b.n	8007080 <_dtoa_r+0x5e8>
 8007106:	d10c      	bne.n	8007122 <_dtoa_r+0x68a>
 8007108:	4b98      	ldr	r3, [pc, #608]	@ (800736c <_dtoa_r+0x8d4>)
 800710a:	2200      	movs	r2, #0
 800710c:	e9dd 0100 	ldrd	r0, r1, [sp]
 8007110:	f7f9 fa72 	bl	80005f8 <__aeabi_dmul>
 8007114:	e9dd 2302 	ldrd	r2, r3, [sp, #8]
 8007118:	f7f9 fcf4 	bl	8000b04 <__aeabi_dcmpge>
 800711c:	2800      	cmp	r0, #0
 800711e:	f000 8157 	beq.w	80073d0 <_dtoa_r+0x938>
 8007122:	2400      	movs	r4, #0
 8007124:	4625      	mov	r5, r4
 8007126:	9b0e      	ldr	r3, [sp, #56]	@ 0x38
 8007128:	43db      	mvns	r3, r3
 800712a:	9304      	str	r3, [sp, #16]
 800712c:	4656      	mov	r6, sl
 800712e:	2700      	movs	r7, #0
 8007130:	4621      	mov	r1, r4
 8007132:	4658      	mov	r0, fp
 8007134:	f000 fbb4 	bl	80078a0 <_Bfree>
 8007138:	2d00      	cmp	r5, #0
 800713a:	d0dc      	beq.n	80070f6 <_dtoa_r+0x65e>
 800713c:	b12f      	cbz	r7, 800714a <_dtoa_r+0x6b2>
 800713e:	42af      	cmp	r7, r5
 8007140:	d003      	beq.n	800714a <_dtoa_r+0x6b2>
 8007142:	4639      	mov	r1, r7
 8007144:	4658      	mov	r0, fp
 8007146:	f000 fbab 	bl	80078a0 <_Bfree>
 800714a:	4629      	mov	r1, r5
 800714c:	4658      	mov	r0, fp
 800714e:	f000 fba7 	bl	80078a0 <_Bfree>
 8007152:	e7d0      	b.n	80070f6 <_dtoa_r+0x65e>
 8007154:	9704      	str	r7, [sp, #16]
 8007156:	4633      	mov	r3, r6
 8007158:	461e      	mov	r6, r3
 800715a:	f813 2d01 	ldrb.w	r2, [r3, #-1]!
 800715e:	2a39      	cmp	r2, #57	@ 0x39
 8007160:	d107      	bne.n	8007172 <_dtoa_r+0x6da>
 8007162:	459a      	cmp	sl, r3
 8007164:	d1f8      	bne.n	8007158 <_dtoa_r+0x6c0>
 8007166:	9a04      	ldr	r2, [sp, #16]
 8007168:	3201      	adds	r2, #1
 800716a:	9204      	str	r2, [sp, #16]
 800716c:	2230      	movs	r2, #48	@ 0x30
 800716e:	f88a 2000 	strb.w	r2, [sl]
 8007172:	781a      	ldrb	r2, [r3, #0]
 8007174:	3201      	adds	r2, #1
 8007176:	701a      	strb	r2, [r3, #0]
 8007178:	e7bd      	b.n	80070f6 <_dtoa_r+0x65e>
 800717a:	4b7b      	ldr	r3, [pc, #492]	@ (8007368 <_dtoa_r+0x8d0>)
 800717c:	2200      	movs	r2, #0
 800717e:	f7f9 fa3b 	bl	80005f8 <__aeabi_dmul>
 8007182:	2200      	movs	r2, #0
 8007184:	2300      	movs	r3, #0
 8007186:	4604      	mov	r4, r0
 8007188:	460d      	mov	r5, r1
 800718a:	f7f9 fc9d 	bl	8000ac8 <__aeabi_dcmpeq>
 800718e:	2800      	cmp	r0, #0
 8007190:	f43f aebb 	beq.w	8006f0a <_dtoa_r+0x472>
 8007194:	e6f0      	b.n	8006f78 <_dtoa_r+0x4e0>
 8007196:	9a0b      	ldr	r2, [sp, #44]	@ 0x2c
 8007198:	2a00      	cmp	r2, #0
 800719a:	f000 80db 	beq.w	8007354 <_dtoa_r+0x8bc>
 800719e:	9a09      	ldr	r2, [sp, #36]	@ 0x24
 80071a0:	2a01      	cmp	r2, #1
 80071a2:	f300 80bf 	bgt.w	8007324 <_dtoa_r+0x88c>
 80071a6:	9a14      	ldr	r2, [sp, #80]	@ 0x50
 80071a8:	2a00      	cmp	r2, #0
 80071aa:	f000 80b7 	beq.w	800731c <_dtoa_r+0x884>
 80071ae:	f203 4333 	addw	r3, r3, #1075	@ 0x433
 80071b2:	9c0a      	ldr	r4, [sp, #40]	@ 0x28
 80071b4:	4646      	mov	r6, r8
 80071b6:	9a08      	ldr	r2, [sp, #32]
 80071b8:	2101      	movs	r1, #1
 80071ba:	441a      	add	r2, r3
 80071bc:	4658      	mov	r0, fp
 80071be:	4498      	add	r8, r3
 80071c0:	9208      	str	r2, [sp, #32]
 80071c2:	f000 fc21 	bl	8007a08 <__i2b>
 80071c6:	4605      	mov	r5, r0
 80071c8:	b15e      	cbz	r6, 80071e2 <_dtoa_r+0x74a>
 80071ca:	9b08      	ldr	r3, [sp, #32]
 80071cc:	2b00      	cmp	r3, #0
 80071ce:	dd08      	ble.n	80071e2 <_dtoa_r+0x74a>
 80071d0:	42b3      	cmp	r3, r6
 80071d2:	9a08      	ldr	r2, [sp, #32]
 80071d4:	bfa8      	it	ge
 80071d6:	4633      	movge	r3, r6
 80071d8:	eba8 0803 	sub.w	r8, r8, r3
 80071dc:	1af6      	subs	r6, r6, r3
 80071de:	1ad3      	subs	r3, r2, r3
 80071e0:	9308      	str	r3, [sp, #32]
 80071e2:	9b0a      	ldr	r3, [sp, #40]	@ 0x28
 80071e4:	b1f3      	cbz	r3, 8007224 <_dtoa_r+0x78c>
 80071e6:	9b0b      	ldr	r3, [sp, #44]	@ 0x2c
 80071e8:	2b00      	cmp	r3, #0
 80071ea:	f000 80b7 	beq.w	800735c <_dtoa_r+0x8c4>
 80071ee:	b18c      	cbz	r4, 8007214 <_dtoa_r+0x77c>
 80071f0:	4629      	mov	r1, r5
 80071f2:	4622      	mov	r2, r4
 80071f4:	4658      	mov	r0, fp
 80071f6:	f000 fcc7 	bl	8007b88 <__pow5mult>
 80071fa:	464a      	mov	r2, r9
 80071fc:	4601      	mov	r1, r0
 80071fe:	4605      	mov	r5, r0
 8007200:	4658      	mov	r0, fp
 8007202:	f000 fc17 	bl	8007a34 <__multiply>
 8007206:	4649      	mov	r1, r9
 8007208:	9004      	str	r0, [sp, #16]
 800720a:	4658      	mov	r0, fp
 800720c:	f000 fb48 	bl	80078a0 <_Bfree>
 8007210:	9b04      	ldr	r3, [sp, #16]
 8007212:	4699      	mov	r9, r3
 8007214:	9b0a      	ldr	r3, [sp, #40]	@ 0x28
 8007216:	1b1a      	subs	r2, r3, r4
 8007218:	d004      	beq.n	8007224 <_dtoa_r+0x78c>
 800721a:	4649      	mov	r1, r9
 800721c:	4658      	mov	r0, fp
 800721e:	f000 fcb3 	bl	8007b88 <__pow5mult>
 8007222:	4681      	mov	r9, r0
 8007224:	2101      	movs	r1, #1
 8007226:	4658      	mov	r0, fp
 8007228:	f000 fbee 	bl	8007a08 <__i2b>
 800722c:	9b0f      	ldr	r3, [sp, #60]	@ 0x3c
 800722e:	4604      	mov	r4, r0
 8007230:	2b00      	cmp	r3, #0
 8007232:	f000 81cf 	beq.w	80075d4 <_dtoa_r+0xb3c>
 8007236:	461a      	mov	r2, r3
 8007238:	4601      	mov	r1, r0
 800723a:	4658      	mov	r0, fp
 800723c:	f000 fca4 	bl	8007b88 <__pow5mult>
 8007240:	9b09      	ldr	r3, [sp, #36]	@ 0x24
 8007242:	2b01      	cmp	r3, #1
 8007244:	4604      	mov	r4, r0
 8007246:	f300 8095 	bgt.w	8007374 <_dtoa_r+0x8dc>
 800724a:	9b02      	ldr	r3, [sp, #8]
 800724c:	2b00      	cmp	r3, #0
 800724e:	f040 8087 	bne.w	8007360 <_dtoa_r+0x8c8>
 8007252:	9b03      	ldr	r3, [sp, #12]
 8007254:	f3c3 0313 	ubfx	r3, r3, #0, #20
 8007258:	2b00      	cmp	r3, #0
 800725a:	f040 8089 	bne.w	8007370 <_dtoa_r+0x8d8>
 800725e:	9b03      	ldr	r3, [sp, #12]
 8007260:	f023 4300 	bic.w	r3, r3, #2147483648	@ 0x80000000
 8007264:	0d1b      	lsrs	r3, r3, #20
 8007266:	051b      	lsls	r3, r3, #20
 8007268:	b12b      	cbz	r3, 8007276 <_dtoa_r+0x7de>
 800726a:	9b08      	ldr	r3, [sp, #32]
 800726c:	3301      	adds	r3, #1
 800726e:	9308      	str	r3, [sp, #32]
 8007270:	f108 0801 	add.w	r8, r8, #1
 8007274:	2301      	movs	r3, #1
 8007276:	930a      	str	r3, [sp, #40]	@ 0x28
 8007278:	9b0f      	ldr	r3, [sp, #60]	@ 0x3c
 800727a:	2b00      	cmp	r3, #0
 800727c:	f000 81b0 	beq.w	80075e0 <_dtoa_r+0xb48>
 8007280:	6923      	ldr	r3, [r4, #16]
 8007282:	eb04 0383 	add.w	r3, r4, r3, lsl #2
 8007286:	6918      	ldr	r0, [r3, #16]
 8007288:	f000 fb72 	bl	8007970 <__hi0bits>
 800728c:	f1c0 0020 	rsb	r0, r0, #32
 8007290:	9b08      	ldr	r3, [sp, #32]
 8007292:	4418      	add	r0, r3
 8007294:	f010 001f 	ands.w	r0, r0, #31
 8007298:	d077      	beq.n	800738a <_dtoa_r+0x8f2>
 800729a:	f1c0 0320 	rsb	r3, r0, #32
 800729e:	2b04      	cmp	r3, #4
 80072a0:	dd6b      	ble.n	800737a <_dtoa_r+0x8e2>
 80072a2:	9b08      	ldr	r3, [sp, #32]
 80072a4:	f1c0 001c 	rsb	r0, r0, #28
 80072a8:	4403      	add	r3, r0
 80072aa:	4480      	add	r8, r0
 80072ac:	4406      	add	r6, r0
 80072ae:	9308      	str	r3, [sp, #32]
 80072b0:	f1b8 0f00 	cmp.w	r8, #0
 80072b4:	dd05      	ble.n	80072c2 <_dtoa_r+0x82a>
 80072b6:	4649      	mov	r1, r9
 80072b8:	4642      	mov	r2, r8
 80072ba:	4658      	mov	r0, fp
 80072bc:	f000 fcbe 	bl	8007c3c <__lshift>
 80072c0:	4681      	mov	r9, r0
 80072c2:	9b08      	ldr	r3, [sp, #32]
 80072c4:	2b00      	cmp	r3, #0
 80072c6:	dd05      	ble.n	80072d4 <_dtoa_r+0x83c>
 80072c8:	4621      	mov	r1, r4
 80072ca:	461a      	mov	r2, r3
 80072cc:	4658      	mov	r0, fp
 80072ce:	f000 fcb5 	bl	8007c3c <__lshift>
 80072d2:	4604      	mov	r4, r0
 80072d4:	9b12      	ldr	r3, [sp, #72]	@ 0x48
 80072d6:	2b00      	cmp	r3, #0
 80072d8:	d059      	beq.n	800738e <_dtoa_r+0x8f6>
 80072da:	4621      	mov	r1, r4
 80072dc:	4648      	mov	r0, r9
 80072de:	f000 fd19 	bl	8007d14 <__mcmp>
 80072e2:	2800      	cmp	r0, #0
 80072e4:	da53      	bge.n	800738e <_dtoa_r+0x8f6>
 80072e6:	1e7b      	subs	r3, r7, #1
 80072e8:	9304      	str	r3, [sp, #16]
 80072ea:	4649      	mov	r1, r9
 80072ec:	2300      	movs	r3, #0
 80072ee:	220a      	movs	r2, #10
 80072f0:	4658      	mov	r0, fp
 80072f2:	f000 faf7 	bl	80078e4 <__multadd>
 80072f6:	9b0b      	ldr	r3, [sp, #44]	@ 0x2c
 80072f8:	4681      	mov	r9, r0
 80072fa:	2b00      	cmp	r3, #0
 80072fc:	f000 8172 	beq.w	80075e4 <_dtoa_r+0xb4c>
 8007300:	2300      	movs	r3, #0
 8007302:	4629      	mov	r1, r5
 8007304:	220a      	movs	r2, #10
 8007306:	4658      	mov	r0, fp
 8007308:	f000 faec 	bl	80078e4 <__multadd>
 800730c:	9b00      	ldr	r3, [sp, #0]
 800730e:	2b00      	cmp	r3, #0
 8007310:	4605      	mov	r5, r0
 8007312:	dc67      	bgt.n	80073e4 <_dtoa_r+0x94c>
 8007314:	9b09      	ldr	r3, [sp, #36]	@ 0x24
 8007316:	2b02      	cmp	r3, #2
 8007318:	dc41      	bgt.n	800739e <_dtoa_r+0x906>
 800731a:	e063      	b.n	80073e4 <_dtoa_r+0x94c>
 800731c:	9b16      	ldr	r3, [sp, #88]	@ 0x58
 800731e:	f1c3 0336 	rsb	r3, r3, #54	@ 0x36
 8007322:	e746      	b.n	80071b2 <_dtoa_r+0x71a>
 8007324:	9b07      	ldr	r3, [sp, #28]
 8007326:	1e5c      	subs	r4, r3, #1
 8007328:	9b0a      	ldr	r3, [sp, #40]	@ 0x28
 800732a:	42a3      	cmp	r3, r4
 800732c:	bfbf      	itttt	lt
 800732e:	9b0a      	ldrlt	r3, [sp, #40]	@ 0x28
 8007330:	9a0f      	ldrlt	r2, [sp, #60]	@ 0x3c
 8007332:	940a      	strlt	r4, [sp, #40]	@ 0x28
 8007334:	1ae3      	sublt	r3, r4, r3
 8007336:	bfb4      	ite	lt
 8007338:	18d2      	addlt	r2, r2, r3
 800733a:	1b1c      	subge	r4, r3, r4
 800733c:	9b07      	ldr	r3, [sp, #28]
 800733e:	bfbc      	itt	lt
 8007340:	920f      	strlt	r2, [sp, #60]	@ 0x3c
 8007342:	2400      	movlt	r4, #0
 8007344:	2b00      	cmp	r3, #0
 8007346:	bfb5      	itete	lt
 8007348:	eba8 0603 	sublt.w	r6, r8, r3
 800734c:	9b07      	ldrge	r3, [sp, #28]
 800734e:	2300      	movlt	r3, #0
 8007350:	4646      	movge	r6, r8
 8007352:	e730      	b.n	80071b6 <_dtoa_r+0x71e>
 8007354:	9c0a      	ldr	r4, [sp, #40]	@ 0x28
 8007356:	9d0b      	ldr	r5, [sp, #44]	@ 0x2c
 8007358:	4646      	mov	r6, r8
 800735a:	e735      	b.n	80071c8 <_dtoa_r+0x730>
 800735c:	9a0a      	ldr	r2, [sp, #40]	@ 0x28
 800735e:	e75c      	b.n	800721a <_dtoa_r+0x782>
 8007360:	2300      	movs	r3, #0
 8007362:	e788      	b.n	8007276 <_dtoa_r+0x7de>
 8007364:	3fe00000 	.word	0x3fe00000
 8007368:	40240000 	.word	0x40240000
 800736c:	40140000 	.word	0x40140000
 8007370:	9b02      	ldr	r3, [sp, #8]
 8007372:	e780      	b.n	8007276 <_dtoa_r+0x7de>
 8007374:	2300      	movs	r3, #0
 8007376:	930a      	str	r3, [sp, #40]	@ 0x28
 8007378:	e782      	b.n	8007280 <_dtoa_r+0x7e8>
 800737a:	d099      	beq.n	80072b0 <_dtoa_r+0x818>
 800737c:	9a08      	ldr	r2, [sp, #32]
 800737e:	331c      	adds	r3, #28
 8007380:	441a      	add	r2, r3
 8007382:	4498      	add	r8, r3
 8007384:	441e      	add	r6, r3
 8007386:	9208      	str	r2, [sp, #32]
 8007388:	e792      	b.n	80072b0 <_dtoa_r+0x818>
 800738a:	4603      	mov	r3, r0
 800738c:	e7f6      	b.n	800737c <_dtoa_r+0x8e4>
 800738e:	9b07      	ldr	r3, [sp, #28]
 8007390:	9704      	str	r7, [sp, #16]
 8007392:	2b00      	cmp	r3, #0
 8007394:	dc20      	bgt.n	80073d8 <_dtoa_r+0x940>
 8007396:	9300      	str	r3, [sp, #0]
 8007398:	9b09      	ldr	r3, [sp, #36]	@ 0x24
 800739a:	2b02      	cmp	r3, #2
 800739c:	dd1e      	ble.n	80073dc <_dtoa_r+0x944>
 800739e:	9b00      	ldr	r3, [sp, #0]
 80073a0:	2b00      	cmp	r3, #0
 80073a2:	f47f aec0 	bne.w	8007126 <_dtoa_r+0x68e>
 80073a6:	4621      	mov	r1, r4
 80073a8:	2205      	movs	r2, #5
 80073aa:	4658      	mov	r0, fp
 80073ac:	f000 fa9a 	bl	80078e4 <__multadd>
 80073b0:	4601      	mov	r1, r0
 80073b2:	4604      	mov	r4, r0
 80073b4:	4648      	mov	r0, r9
 80073b6:	f000 fcad 	bl	8007d14 <__mcmp>
 80073ba:	2800      	cmp	r0, #0
 80073bc:	f77f aeb3 	ble.w	8007126 <_dtoa_r+0x68e>
 80073c0:	4656      	mov	r6, sl
 80073c2:	2331      	movs	r3, #49	@ 0x31
 80073c4:	f806 3b01 	strb.w	r3, [r6], #1
 80073c8:	9b04      	ldr	r3, [sp, #16]
 80073ca:	3301      	adds	r3, #1
 80073cc:	9304      	str	r3, [sp, #16]
 80073ce:	e6ae      	b.n	800712e <_dtoa_r+0x696>
 80073d0:	9c07      	ldr	r4, [sp, #28]
 80073d2:	9704      	str	r7, [sp, #16]
 80073d4:	4625      	mov	r5, r4
 80073d6:	e7f3      	b.n	80073c0 <_dtoa_r+0x928>
 80073d8:	9b07      	ldr	r3, [sp, #28]
 80073da:	9300      	str	r3, [sp, #0]
 80073dc:	9b0b      	ldr	r3, [sp, #44]	@ 0x2c
 80073de:	2b00      	cmp	r3, #0
 80073e0:	f000 8104 	beq.w	80075ec <_dtoa_r+0xb54>
 80073e4:	2e00      	cmp	r6, #0
 80073e6:	dd05      	ble.n	80073f4 <_dtoa_r+0x95c>
 80073e8:	4629      	mov	r1, r5
 80073ea:	4632      	mov	r2, r6
 80073ec:	4658      	mov	r0, fp
 80073ee:	f000 fc25 	bl	8007c3c <__lshift>
 80073f2:	4605      	mov	r5, r0
 80073f4:	9b0a      	ldr	r3, [sp, #40]	@ 0x28
 80073f6:	2b00      	cmp	r3, #0
 80073f8:	d05a      	beq.n	80074b0 <_dtoa_r+0xa18>
 80073fa:	6869      	ldr	r1, [r5, #4]
 80073fc:	4658      	mov	r0, fp
 80073fe:	f000 fa0f 	bl	8007820 <_Balloc>
 8007402:	4606      	mov	r6, r0
 8007404:	b928      	cbnz	r0, 8007412 <_dtoa_r+0x97a>
 8007406:	4b84      	ldr	r3, [pc, #528]	@ (8007618 <_dtoa_r+0xb80>)
 8007408:	4602      	mov	r2, r0
 800740a:	f240 21ef 	movw	r1, #751	@ 0x2ef
 800740e:	f7ff bb5a 	b.w	8006ac6 <_dtoa_r+0x2e>
 8007412:	692a      	ldr	r2, [r5, #16]
 8007414:	3202      	adds	r2, #2
 8007416:	0092      	lsls	r2, r2, #2
 8007418:	f105 010c 	add.w	r1, r5, #12
 800741c:	300c      	adds	r0, #12
 800741e:	f000 ffaf 	bl	8008380 <memcpy>
 8007422:	2201      	movs	r2, #1
 8007424:	4631      	mov	r1, r6
 8007426:	4658      	mov	r0, fp
 8007428:	f000 fc08 	bl	8007c3c <__lshift>
 800742c:	f10a 0301 	add.w	r3, sl, #1
 8007430:	9307      	str	r3, [sp, #28]
 8007432:	9b00      	ldr	r3, [sp, #0]
 8007434:	4453      	add	r3, sl
 8007436:	930b      	str	r3, [sp, #44]	@ 0x2c
 8007438:	9b02      	ldr	r3, [sp, #8]
 800743a:	f003 0301 	and.w	r3, r3, #1
 800743e:	462f      	mov	r7, r5
 8007440:	930a      	str	r3, [sp, #40]	@ 0x28
 8007442:	4605      	mov	r5, r0
 8007444:	9b07      	ldr	r3, [sp, #28]
 8007446:	4621      	mov	r1, r4
 8007448:	3b01      	subs	r3, #1
 800744a:	4648      	mov	r0, r9
 800744c:	9300      	str	r3, [sp, #0]
 800744e:	f7ff fa98 	bl	8006982 <quorem>
 8007452:	4639      	mov	r1, r7
 8007454:	9002      	str	r0, [sp, #8]
 8007456:	f100 0830 	add.w	r8, r0, #48	@ 0x30
 800745a:	4648      	mov	r0, r9
 800745c:	f000 fc5a 	bl	8007d14 <__mcmp>
 8007460:	462a      	mov	r2, r5
 8007462:	9008      	str	r0, [sp, #32]
 8007464:	4621      	mov	r1, r4
 8007466:	4658      	mov	r0, fp
 8007468:	f000 fc70 	bl	8007d4c <__mdiff>
 800746c:	68c2      	ldr	r2, [r0, #12]
 800746e:	4606      	mov	r6, r0
 8007470:	bb02      	cbnz	r2, 80074b4 <_dtoa_r+0xa1c>
 8007472:	4601      	mov	r1, r0
 8007474:	4648      	mov	r0, r9
 8007476:	f000 fc4d 	bl	8007d14 <__mcmp>
 800747a:	4602      	mov	r2, r0
 800747c:	4631      	mov	r1, r6
 800747e:	4658      	mov	r0, fp
 8007480:	920e      	str	r2, [sp, #56]	@ 0x38
 8007482:	f000 fa0d 	bl	80078a0 <_Bfree>
 8007486:	9b09      	ldr	r3, [sp, #36]	@ 0x24
 8007488:	9a0e      	ldr	r2, [sp, #56]	@ 0x38
 800748a:	9e07      	ldr	r6, [sp, #28]
 800748c:	ea43 0102 	orr.w	r1, r3, r2
 8007490:	9b0a      	ldr	r3, [sp, #40]	@ 0x28
 8007492:	4319      	orrs	r1, r3
 8007494:	d110      	bne.n	80074b8 <_dtoa_r+0xa20>
 8007496:	f1b8 0f39 	cmp.w	r8, #57	@ 0x39
 800749a:	d029      	beq.n	80074f0 <_dtoa_r+0xa58>
 800749c:	9b08      	ldr	r3, [sp, #32]
 800749e:	2b00      	cmp	r3, #0
 80074a0:	dd02      	ble.n	80074a8 <_dtoa_r+0xa10>
 80074a2:	9b02      	ldr	r3, [sp, #8]
 80074a4:	f103 0831 	add.w	r8, r3, #49	@ 0x31
 80074a8:	9b00      	ldr	r3, [sp, #0]
 80074aa:	f883 8000 	strb.w	r8, [r3]
 80074ae:	e63f      	b.n	8007130 <_dtoa_r+0x698>
 80074b0:	4628      	mov	r0, r5
 80074b2:	e7bb      	b.n	800742c <_dtoa_r+0x994>
 80074b4:	2201      	movs	r2, #1
 80074b6:	e7e1      	b.n	800747c <_dtoa_r+0x9e4>
 80074b8:	9b08      	ldr	r3, [sp, #32]
 80074ba:	2b00      	cmp	r3, #0
 80074bc:	db04      	blt.n	80074c8 <_dtoa_r+0xa30>
 80074be:	9909      	ldr	r1, [sp, #36]	@ 0x24
 80074c0:	430b      	orrs	r3, r1
 80074c2:	990a      	ldr	r1, [sp, #40]	@ 0x28
 80074c4:	430b      	orrs	r3, r1
 80074c6:	d120      	bne.n	800750a <_dtoa_r+0xa72>
 80074c8:	2a00      	cmp	r2, #0
 80074ca:	dded      	ble.n	80074a8 <_dtoa_r+0xa10>
 80074cc:	4649      	mov	r1, r9
 80074ce:	2201      	movs	r2, #1
 80074d0:	4658      	mov	r0, fp
 80074d2:	f000 fbb3 	bl	8007c3c <__lshift>
 80074d6:	4621      	mov	r1, r4
 80074d8:	4681      	mov	r9, r0
 80074da:	f000 fc1b 	bl	8007d14 <__mcmp>
 80074de:	2800      	cmp	r0, #0
 80074e0:	dc03      	bgt.n	80074ea <_dtoa_r+0xa52>
 80074e2:	d1e1      	bne.n	80074a8 <_dtoa_r+0xa10>
 80074e4:	f018 0f01 	tst.w	r8, #1
 80074e8:	d0de      	beq.n	80074a8 <_dtoa_r+0xa10>
 80074ea:	f1b8 0f39 	cmp.w	r8, #57	@ 0x39
 80074ee:	d1d8      	bne.n	80074a2 <_dtoa_r+0xa0a>
 80074f0:	9a00      	ldr	r2, [sp, #0]
 80074f2:	2339      	movs	r3, #57	@ 0x39
 80074f4:	7013      	strb	r3, [r2, #0]
 80074f6:	4633      	mov	r3, r6
 80074f8:	461e      	mov	r6, r3
 80074fa:	3b01      	subs	r3, #1
 80074fc:	f816 2c01 	ldrb.w	r2, [r6, #-1]
 8007500:	2a39      	cmp	r2, #57	@ 0x39
 8007502:	d052      	beq.n	80075aa <_dtoa_r+0xb12>
 8007504:	3201      	adds	r2, #1
 8007506:	701a      	strb	r2, [r3, #0]
 8007508:	e612      	b.n	8007130 <_dtoa_r+0x698>
 800750a:	2a00      	cmp	r2, #0
 800750c:	dd07      	ble.n	800751e <_dtoa_r+0xa86>
 800750e:	f1b8 0f39 	cmp.w	r8, #57	@ 0x39
 8007512:	d0ed      	beq.n	80074f0 <_dtoa_r+0xa58>
 8007514:	9a00      	ldr	r2, [sp, #0]
 8007516:	f108 0301 	add.w	r3, r8, #1
 800751a:	7013      	strb	r3, [r2, #0]
 800751c:	e608      	b.n	8007130 <_dtoa_r+0x698>
 800751e:	9b07      	ldr	r3, [sp, #28]
 8007520:	9a07      	ldr	r2, [sp, #28]
 8007522:	f803 8c01 	strb.w	r8, [r3, #-1]
 8007526:	9b0b      	ldr	r3, [sp, #44]	@ 0x2c
 8007528:	4293      	cmp	r3, r2
 800752a:	d028      	beq.n	800757e <_dtoa_r+0xae6>
 800752c:	4649      	mov	r1, r9
 800752e:	2300      	movs	r3, #0
 8007530:	220a      	movs	r2, #10
 8007532:	4658      	mov	r0, fp
 8007534:	f000 f9d6 	bl	80078e4 <__multadd>
 8007538:	42af      	cmp	r7, r5
 800753a:	4681      	mov	r9, r0
 800753c:	f04f 0300 	mov.w	r3, #0
 8007540:	f04f 020a 	mov.w	r2, #10
 8007544:	4639      	mov	r1, r7
 8007546:	4658      	mov	r0, fp
 8007548:	d107      	bne.n	800755a <_dtoa_r+0xac2>
 800754a:	f000 f9cb 	bl	80078e4 <__multadd>
 800754e:	4607      	mov	r7, r0
 8007550:	4605      	mov	r5, r0
 8007552:	9b07      	ldr	r3, [sp, #28]
 8007554:	3301      	adds	r3, #1
 8007556:	9307      	str	r3, [sp, #28]
 8007558:	e774      	b.n	8007444 <_dtoa_r+0x9ac>
 800755a:	f000 f9c3 	bl	80078e4 <__multadd>
 800755e:	4629      	mov	r1, r5
 8007560:	4607      	mov	r7, r0
 8007562:	2300      	movs	r3, #0
 8007564:	220a      	movs	r2, #10
 8007566:	4658      	mov	r0, fp
 8007568:	f000 f9bc 	bl	80078e4 <__multadd>
 800756c:	4605      	mov	r5, r0
 800756e:	e7f0      	b.n	8007552 <_dtoa_r+0xaba>
 8007570:	9b00      	ldr	r3, [sp, #0]
 8007572:	2b00      	cmp	r3, #0
 8007574:	bfcc      	ite	gt
 8007576:	461e      	movgt	r6, r3
 8007578:	2601      	movle	r6, #1
 800757a:	4456      	add	r6, sl
 800757c:	2700      	movs	r7, #0
 800757e:	4649      	mov	r1, r9
 8007580:	2201      	movs	r2, #1
 8007582:	4658      	mov	r0, fp
 8007584:	f000 fb5a 	bl	8007c3c <__lshift>
 8007588:	4621      	mov	r1, r4
 800758a:	4681      	mov	r9, r0
 800758c:	f000 fbc2 	bl	8007d14 <__mcmp>
 8007590:	2800      	cmp	r0, #0
 8007592:	dcb0      	bgt.n	80074f6 <_dtoa_r+0xa5e>
 8007594:	d102      	bne.n	800759c <_dtoa_r+0xb04>
 8007596:	f018 0f01 	tst.w	r8, #1
 800759a:	d1ac      	bne.n	80074f6 <_dtoa_r+0xa5e>
 800759c:	4633      	mov	r3, r6
 800759e:	461e      	mov	r6, r3
 80075a0:	f813 2d01 	ldrb.w	r2, [r3, #-1]!
 80075a4:	2a30      	cmp	r2, #48	@ 0x30
 80075a6:	d0fa      	beq.n	800759e <_dtoa_r+0xb06>
 80075a8:	e5c2      	b.n	8007130 <_dtoa_r+0x698>
 80075aa:	459a      	cmp	sl, r3
 80075ac:	d1a4      	bne.n	80074f8 <_dtoa_r+0xa60>
 80075ae:	9b04      	ldr	r3, [sp, #16]
 80075b0:	3301      	adds	r3, #1
 80075b2:	9304      	str	r3, [sp, #16]
 80075b4:	2331      	movs	r3, #49	@ 0x31
 80075b6:	f88a 3000 	strb.w	r3, [sl]
 80075ba:	e5b9      	b.n	8007130 <_dtoa_r+0x698>
 80075bc:	9b23      	ldr	r3, [sp, #140]	@ 0x8c
 80075be:	f8df a05c 	ldr.w	sl, [pc, #92]	@ 800761c <_dtoa_r+0xb84>
 80075c2:	b11b      	cbz	r3, 80075cc <_dtoa_r+0xb34>
 80075c4:	f10a 0308 	add.w	r3, sl, #8
 80075c8:	9a23      	ldr	r2, [sp, #140]	@ 0x8c
 80075ca:	6013      	str	r3, [r2, #0]
 80075cc:	4650      	mov	r0, sl
 80075ce:	b019      	add	sp, #100	@ 0x64
 80075d0:	e8bd 8ff0 	ldmia.w	sp!, {r4, r5, r6, r7, r8, r9, sl, fp, pc}
 80075d4:	9b09      	ldr	r3, [sp, #36]	@ 0x24
 80075d6:	2b01      	cmp	r3, #1
 80075d8:	f77f ae37 	ble.w	800724a <_dtoa_r+0x7b2>
 80075dc:	9b0f      	ldr	r3, [sp, #60]	@ 0x3c
 80075de:	930a      	str	r3, [sp, #40]	@ 0x28
 80075e0:	2001      	movs	r0, #1
 80075e2:	e655      	b.n	8007290 <_dtoa_r+0x7f8>
 80075e4:	9b00      	ldr	r3, [sp, #0]
 80075e6:	2b00      	cmp	r3, #0
 80075e8:	f77f aed6 	ble.w	8007398 <_dtoa_r+0x900>
 80075ec:	4656      	mov	r6, sl
 80075ee:	4621      	mov	r1, r4
 80075f0:	4648      	mov	r0, r9
 80075f2:	f7ff f9c6 	bl	8006982 <quorem>
 80075f6:	f100 0830 	add.w	r8, r0, #48	@ 0x30
 80075fa:	f806 8b01 	strb.w	r8, [r6], #1
 80075fe:	9b00      	ldr	r3, [sp, #0]
 8007600:	eba6 020a 	sub.w	r2, r6, sl
 8007604:	4293      	cmp	r3, r2
 8007606:	ddb3      	ble.n	8007570 <_dtoa_r+0xad8>
 8007608:	4649      	mov	r1, r9
 800760a:	2300      	movs	r3, #0
 800760c:	220a      	movs	r2, #10
 800760e:	4658      	mov	r0, fp
 8007610:	f000 f968 	bl	80078e4 <__multadd>
 8007614:	4681      	mov	r9, r0
 8007616:	e7ea      	b.n	80075ee <_dtoa_r+0xb56>
 8007618:	08008b08 	.word	0x08008b08
 800761c:	08008a8c 	.word	0x08008a8c

08007620 <_free_r>:
 8007620:	b538      	push	{r3, r4, r5, lr}
 8007622:	4605      	mov	r5, r0
 8007624:	2900      	cmp	r1, #0
 8007626:	d041      	beq.n	80076ac <_free_r+0x8c>
 8007628:	f851 3c04 	ldr.w	r3, [r1, #-4]
 800762c:	1f0c      	subs	r4, r1, #4
 800762e:	2b00      	cmp	r3, #0
 8007630:	bfb8      	it	lt
 8007632:	18e4      	addlt	r4, r4, r3
 8007634:	f000 f8e8 	bl	8007808 <__malloc_lock>
 8007638:	4a1d      	ldr	r2, [pc, #116]	@ (80076b0 <_free_r+0x90>)
 800763a:	6813      	ldr	r3, [r2, #0]
 800763c:	b933      	cbnz	r3, 800764c <_free_r+0x2c>
 800763e:	6063      	str	r3, [r4, #4]
 8007640:	6014      	str	r4, [r2, #0]
 8007642:	4628      	mov	r0, r5
 8007644:	e8bd 4038 	ldmia.w	sp!, {r3, r4, r5, lr}
 8007648:	f000 b8e4 	b.w	8007814 <__malloc_unlock>
 800764c:	42a3      	cmp	r3, r4
 800764e:	d908      	bls.n	8007662 <_free_r+0x42>
 8007650:	6820      	ldr	r0, [r4, #0]
 8007652:	1821      	adds	r1, r4, r0
 8007654:	428b      	cmp	r3, r1
 8007656:	bf01      	itttt	eq
 8007658:	6819      	ldreq	r1, [r3, #0]
 800765a:	685b      	ldreq	r3, [r3, #4]
 800765c:	1809      	addeq	r1, r1, r0
 800765e:	6021      	streq	r1, [r4, #0]
 8007660:	e7ed      	b.n	800763e <_free_r+0x1e>
 8007662:	461a      	mov	r2, r3
 8007664:	685b      	ldr	r3, [r3, #4]
 8007666:	b10b      	cbz	r3, 800766c <_free_r+0x4c>
 8007668:	42a3      	cmp	r3, r4
 800766a:	d9fa      	bls.n	8007662 <_free_r+0x42>
 800766c:	6811      	ldr	r1, [r2, #0]
 800766e:	1850      	adds	r0, r2, r1
 8007670:	42a0      	cmp	r0, r4
 8007672:	d10b      	bne.n	800768c <_free_r+0x6c>
 8007674:	6820      	ldr	r0, [r4, #0]
 8007676:	4401      	add	r1, r0
 8007678:	1850      	adds	r0, r2, r1
 800767a:	4283      	cmp	r3, r0
 800767c:	6011      	str	r1, [r2, #0]
 800767e:	d1e0      	bne.n	8007642 <_free_r+0x22>
 8007680:	6818      	ldr	r0, [r3, #0]
 8007682:	685b      	ldr	r3, [r3, #4]
 8007684:	6053      	str	r3, [r2, #4]
 8007686:	4408      	add	r0, r1
 8007688:	6010      	str	r0, [r2, #0]
 800768a:	e7da      	b.n	8007642 <_free_r+0x22>
 800768c:	d902      	bls.n	8007694 <_free_r+0x74>
 800768e:	230c      	movs	r3, #12
 8007690:	602b      	str	r3, [r5, #0]
 8007692:	e7d6      	b.n	8007642 <_free_r+0x22>
 8007694:	6820      	ldr	r0, [r4, #0]
 8007696:	1821      	adds	r1, r4, r0
 8007698:	428b      	cmp	r3, r1
 800769a:	bf04      	itt	eq
 800769c:	6819      	ldreq	r1, [r3, #0]
 800769e:	685b      	ldreq	r3, [r3, #4]
 80076a0:	6063      	str	r3, [r4, #4]
 80076a2:	bf04      	itt	eq
 80076a4:	1809      	addeq	r1, r1, r0
 80076a6:	6021      	streq	r1, [r4, #0]
 80076a8:	6054      	str	r4, [r2, #4]
 80076aa:	e7ca      	b.n	8007642 <_free_r+0x22>
 80076ac:	bd38      	pop	{r3, r4, r5, pc}
 80076ae:	bf00      	nop
 80076b0:	200004d8 	.word	0x200004d8

080076b4 <malloc>:
 80076b4:	4b02      	ldr	r3, [pc, #8]	@ (80076c0 <malloc+0xc>)
 80076b6:	4601      	mov	r1, r0
 80076b8:	6818      	ldr	r0, [r3, #0]
 80076ba:	f000 b825 	b.w	8007708 <_malloc_r>
 80076be:	bf00      	nop
 80076c0:	20000024 	.word	0x20000024

080076c4 <sbrk_aligned>:
 80076c4:	b570      	push	{r4, r5, r6, lr}
 80076c6:	4e0f      	ldr	r6, [pc, #60]	@ (8007704 <sbrk_aligned+0x40>)
 80076c8:	460c      	mov	r4, r1
 80076ca:	6831      	ldr	r1, [r6, #0]
 80076cc:	4605      	mov	r5, r0
 80076ce:	b911      	cbnz	r1, 80076d6 <sbrk_aligned+0x12>
 80076d0:	f000 fe46 	bl	8008360 <_sbrk_r>
 80076d4:	6030      	str	r0, [r6, #0]
 80076d6:	4621      	mov	r1, r4
 80076d8:	4628      	mov	r0, r5
 80076da:	f000 fe41 	bl	8008360 <_sbrk_r>
 80076de:	1c43      	adds	r3, r0, #1
 80076e0:	d103      	bne.n	80076ea <sbrk_aligned+0x26>
 80076e2:	f04f 34ff 	mov.w	r4, #4294967295
 80076e6:	4620      	mov	r0, r4
 80076e8:	bd70      	pop	{r4, r5, r6, pc}
 80076ea:	1cc4      	adds	r4, r0, #3
 80076ec:	f024 0403 	bic.w	r4, r4, #3
 80076f0:	42a0      	cmp	r0, r4
 80076f2:	d0f8      	beq.n	80076e6 <sbrk_aligned+0x22>
 80076f4:	1a21      	subs	r1, r4, r0
 80076f6:	4628      	mov	r0, r5
 80076f8:	f000 fe32 	bl	8008360 <_sbrk_r>
 80076fc:	3001      	adds	r0, #1
 80076fe:	d1f2      	bne.n	80076e6 <sbrk_aligned+0x22>
 8007700:	e7ef      	b.n	80076e2 <sbrk_aligned+0x1e>
 8007702:	bf00      	nop
 8007704:	200004d4 	.word	0x200004d4

08007708 <_malloc_r>:
 8007708:	e92d 43f8 	stmdb	sp!, {r3, r4, r5, r6, r7, r8, r9, lr}
 800770c:	1ccd      	adds	r5, r1, #3
 800770e:	f025 0503 	bic.w	r5, r5, #3
 8007712:	3508      	adds	r5, #8
 8007714:	2d0c      	cmp	r5, #12
 8007716:	bf38      	it	cc
 8007718:	250c      	movcc	r5, #12
 800771a:	2d00      	cmp	r5, #0
 800771c:	4606      	mov	r6, r0
 800771e:	db01      	blt.n	8007724 <_malloc_r+0x1c>
 8007720:	42a9      	cmp	r1, r5
 8007722:	d904      	bls.n	800772e <_malloc_r+0x26>
 8007724:	230c      	movs	r3, #12
 8007726:	6033      	str	r3, [r6, #0]
 8007728:	2000      	movs	r0, #0
 800772a:	e8bd 83f8 	ldmia.w	sp!, {r3, r4, r5, r6, r7, r8, r9, pc}
 800772e:	f8df 80d4 	ldr.w	r8, [pc, #212]	@ 8007804 <_malloc_r+0xfc>
 8007732:	f000 f869 	bl	8007808 <__malloc_lock>
 8007736:	f8d8 3000 	ldr.w	r3, [r8]
 800773a:	461c      	mov	r4, r3
 800773c:	bb44      	cbnz	r4, 8007790 <_malloc_r+0x88>
 800773e:	4629      	mov	r1, r5
 8007740:	4630      	mov	r0, r6
 8007742:	f7ff ffbf 	bl	80076c4 <sbrk_aligned>
 8007746:	1c43      	adds	r3, r0, #1
 8007748:	4604      	mov	r4, r0
 800774a:	d158      	bne.n	80077fe <_malloc_r+0xf6>
 800774c:	f8d8 4000 	ldr.w	r4, [r8]
 8007750:	4627      	mov	r7, r4
 8007752:	2f00      	cmp	r7, #0
 8007754:	d143      	bne.n	80077de <_malloc_r+0xd6>
 8007756:	2c00      	cmp	r4, #0
 8007758:	d04b      	beq.n	80077f2 <_malloc_r+0xea>
 800775a:	6823      	ldr	r3, [r4, #0]
 800775c:	4639      	mov	r1, r7
 800775e:	4630      	mov	r0, r6
 8007760:	eb04 0903 	add.w	r9, r4, r3
 8007764:	f000 fdfc 	bl	8008360 <_sbrk_r>
 8007768:	4581      	cmp	r9, r0
 800776a:	d142      	bne.n	80077f2 <_malloc_r+0xea>
 800776c:	6821      	ldr	r1, [r4, #0]
 800776e:	1a6d      	subs	r5, r5, r1
 8007770:	4629      	mov	r1, r5
 8007772:	4630      	mov	r0, r6
 8007774:	f7ff ffa6 	bl	80076c4 <sbrk_aligned>
 8007778:	3001      	adds	r0, #1
 800777a:	d03a      	beq.n	80077f2 <_malloc_r+0xea>
 800777c:	6823      	ldr	r3, [r4, #0]
 800777e:	442b      	add	r3, r5
 8007780:	6023      	str	r3, [r4, #0]
 8007782:	f8d8 3000 	ldr.w	r3, [r8]
 8007786:	685a      	ldr	r2, [r3, #4]
 8007788:	bb62      	cbnz	r2, 80077e4 <_malloc_r+0xdc>
 800778a:	f8c8 7000 	str.w	r7, [r8]
 800778e:	e00f      	b.n	80077b0 <_malloc_r+0xa8>
 8007790:	6822      	ldr	r2, [r4, #0]
 8007792:	1b52      	subs	r2, r2, r5
 8007794:	d420      	bmi.n	80077d8 <_malloc_r+0xd0>
 8007796:	2a0b      	cmp	r2, #11
 8007798:	d917      	bls.n	80077ca <_malloc_r+0xc2>
 800779a:	1961      	adds	r1, r4, r5
 800779c:	42a3      	cmp	r3, r4
 800779e:	6025      	str	r5, [r4, #0]
 80077a0:	bf18      	it	ne
 80077a2:	6059      	strne	r1, [r3, #4]
 80077a4:	6863      	ldr	r3, [r4, #4]
 80077a6:	bf08      	it	eq
 80077a8:	f8c8 1000 	streq.w	r1, [r8]
 80077ac:	5162      	str	r2, [r4, r5]
 80077ae:	604b      	str	r3, [r1, #4]
 80077b0:	4630      	mov	r0, r6
 80077b2:	f000 f82f 	bl	8007814 <__malloc_unlock>
 80077b6:	f104 000b 	add.w	r0, r4, #11
 80077ba:	1d23      	adds	r3, r4, #4
 80077bc:	f020 0007 	bic.w	r0, r0, #7
 80077c0:	1ac2      	subs	r2, r0, r3
 80077c2:	bf1c      	itt	ne
 80077c4:	1a1b      	subne	r3, r3, r0
 80077c6:	50a3      	strne	r3, [r4, r2]
 80077c8:	e7af      	b.n	800772a <_malloc_r+0x22>
 80077ca:	6862      	ldr	r2, [r4, #4]
 80077cc:	42a3      	cmp	r3, r4
 80077ce:	bf0c      	ite	eq
 80077d0:	f8c8 2000 	streq.w	r2, [r8]
 80077d4:	605a      	strne	r2, [r3, #4]
 80077d6:	e7eb      	b.n	80077b0 <_malloc_r+0xa8>
 80077d8:	4623      	mov	r3, r4
 80077da:	6864      	ldr	r4, [r4, #4]
 80077dc:	e7ae      	b.n	800773c <_malloc_r+0x34>
 80077de:	463c      	mov	r4, r7
 80077e0:	687f      	ldr	r7, [r7, #4]
 80077e2:	e7b6      	b.n	8007752 <_malloc_r+0x4a>
 80077e4:	461a      	mov	r2, r3
 80077e6:	685b      	ldr	r3, [r3, #4]
 80077e8:	42a3      	cmp	r3, r4
 80077ea:	d1fb      	bne.n	80077e4 <_malloc_r+0xdc>
 80077ec:	2300      	movs	r3, #0
 80077ee:	6053      	str	r3, [r2, #4]
 80077f0:	e7de      	b.n	80077b0 <_malloc_r+0xa8>
 80077f2:	230c      	movs	r3, #12
 80077f4:	6033      	str	r3, [r6, #0]
 80077f6:	4630      	mov	r0, r6
 80077f8:	f000 f80c 	bl	8007814 <__malloc_unlock>
 80077fc:	e794      	b.n	8007728 <_malloc_r+0x20>
 80077fe:	6005      	str	r5, [r0, #0]
 8007800:	e7d6      	b.n	80077b0 <_malloc_r+0xa8>
 8007802:	bf00      	nop
 8007804:	200004d8 	.word	0x200004d8

08007808 <__malloc_lock>:
 8007808:	4801      	ldr	r0, [pc, #4]	@ (8007810 <__malloc_lock+0x8>)
 800780a:	f7ff b8b8 	b.w	800697e <__retarget_lock_acquire_recursive>
 800780e:	bf00      	nop
 8007810:	200004d0 	.word	0x200004d0

08007814 <__malloc_unlock>:
 8007814:	4801      	ldr	r0, [pc, #4]	@ (800781c <__malloc_unlock+0x8>)
 8007816:	f7ff b8b3 	b.w	8006980 <__retarget_lock_release_recursive>
 800781a:	bf00      	nop
 800781c:	200004d0 	.word	0x200004d0

08007820 <_Balloc>:
 8007820:	b570      	push	{r4, r5, r6, lr}
 8007822:	69c6      	ldr	r6, [r0, #28]
 8007824:	4604      	mov	r4, r0
 8007826:	460d      	mov	r5, r1
 8007828:	b976      	cbnz	r6, 8007848 <_Balloc+0x28>
 800782a:	2010      	movs	r0, #16
 800782c:	f7ff ff42 	bl	80076b4 <malloc>
 8007830:	4602      	mov	r2, r0
 8007832:	61e0      	str	r0, [r4, #28]
 8007834:	b920      	cbnz	r0, 8007840 <_Balloc+0x20>
 8007836:	4b18      	ldr	r3, [pc, #96]	@ (8007898 <_Balloc+0x78>)
 8007838:	4818      	ldr	r0, [pc, #96]	@ (800789c <_Balloc+0x7c>)
 800783a:	216b      	movs	r1, #107	@ 0x6b
 800783c:	f000 fdae 	bl	800839c <__assert_func>
 8007840:	e9c0 6601 	strd	r6, r6, [r0, #4]
 8007844:	6006      	str	r6, [r0, #0]
 8007846:	60c6      	str	r6, [r0, #12]
 8007848:	69e6      	ldr	r6, [r4, #28]
 800784a:	68f3      	ldr	r3, [r6, #12]
 800784c:	b183      	cbz	r3, 8007870 <_Balloc+0x50>
 800784e:	69e3      	ldr	r3, [r4, #28]
 8007850:	68db      	ldr	r3, [r3, #12]
 8007852:	f853 0025 	ldr.w	r0, [r3, r5, lsl #2]
 8007856:	b9b8      	cbnz	r0, 8007888 <_Balloc+0x68>
 8007858:	2101      	movs	r1, #1
 800785a:	fa01 f605 	lsl.w	r6, r1, r5
 800785e:	1d72      	adds	r2, r6, #5
 8007860:	0092      	lsls	r2, r2, #2
 8007862:	4620      	mov	r0, r4
 8007864:	f000 fdb8 	bl	80083d8 <_calloc_r>
 8007868:	b160      	cbz	r0, 8007884 <_Balloc+0x64>
 800786a:	e9c0 5601 	strd	r5, r6, [r0, #4]
 800786e:	e00e      	b.n	800788e <_Balloc+0x6e>
 8007870:	2221      	movs	r2, #33	@ 0x21
 8007872:	2104      	movs	r1, #4
 8007874:	4620      	mov	r0, r4
 8007876:	f000 fdaf 	bl	80083d8 <_calloc_r>
 800787a:	69e3      	ldr	r3, [r4, #28]
 800787c:	60f0      	str	r0, [r6, #12]
 800787e:	68db      	ldr	r3, [r3, #12]
 8007880:	2b00      	cmp	r3, #0
 8007882:	d1e4      	bne.n	800784e <_Balloc+0x2e>
 8007884:	2000      	movs	r0, #0
 8007886:	bd70      	pop	{r4, r5, r6, pc}
 8007888:	6802      	ldr	r2, [r0, #0]
 800788a:	f843 2025 	str.w	r2, [r3, r5, lsl #2]
 800788e:	2300      	movs	r3, #0
 8007890:	e9c0 3303 	strd	r3, r3, [r0, #12]
 8007894:	e7f7      	b.n	8007886 <_Balloc+0x66>
 8007896:	bf00      	nop
 8007898:	08008a99 	.word	0x08008a99
 800789c:	08008b19 	.word	0x08008b19

080078a0 <_Bfree>:
 80078a0:	b570      	push	{r4, r5, r6, lr}
 80078a2:	69c6      	ldr	r6, [r0, #28]
 80078a4:	4605      	mov	r5, r0
 80078a6:	460c      	mov	r4, r1
 80078a8:	b976      	cbnz	r6, 80078c8 <_Bfree+0x28>
 80078aa:	2010      	movs	r0, #16
 80078ac:	f7ff ff02 	bl	80076b4 <malloc>
 80078b0:	4602      	mov	r2, r0
 80078b2:	61e8      	str	r0, [r5, #28]
 80078b4:	b920      	cbnz	r0, 80078c0 <_Bfree+0x20>
 80078b6:	4b09      	ldr	r3, [pc, #36]	@ (80078dc <_Bfree+0x3c>)
 80078b8:	4809      	ldr	r0, [pc, #36]	@ (80078e0 <_Bfree+0x40>)
 80078ba:	218f      	movs	r1, #143	@ 0x8f
 80078bc:	f000 fd6e 	bl	800839c <__assert_func>
 80078c0:	e9c0 6601 	strd	r6, r6, [r0, #4]
 80078c4:	6006      	str	r6, [r0, #0]
 80078c6:	60c6      	str	r6, [r0, #12]
 80078c8:	b13c      	cbz	r4, 80078da <_Bfree+0x3a>
 80078ca:	69eb      	ldr	r3, [r5, #28]
 80078cc:	6862      	ldr	r2, [r4, #4]
 80078ce:	68db      	ldr	r3, [r3, #12]
 80078d0:	f853 1022 	ldr.w	r1, [r3, r2, lsl #2]
 80078d4:	6021      	str	r1, [r4, #0]
 80078d6:	f843 4022 	str.w	r4, [r3, r2, lsl #2]
 80078da:	bd70      	pop	{r4, r5, r6, pc}
 80078dc:	08008a99 	.word	0x08008a99
 80078e0:	08008b19 	.word	0x08008b19

080078e4 <__multadd>:
 80078e4:	e92d 41f0 	stmdb	sp!, {r4, r5, r6, r7, r8, lr}
 80078e8:	690d      	ldr	r5, [r1, #16]
 80078ea:	4607      	mov	r7, r0
 80078ec:	460c      	mov	r4, r1
 80078ee:	461e      	mov	r6, r3
 80078f0:	f101 0c14 	add.w	ip, r1, #20
 80078f4:	2000      	movs	r0, #0
 80078f6:	f8dc 3000 	ldr.w	r3, [ip]
 80078fa:	b299      	uxth	r1, r3
 80078fc:	fb02 6101 	mla	r1, r2, r1, r6
 8007900:	0c1e      	lsrs	r6, r3, #16
 8007902:	0c0b      	lsrs	r3, r1, #16
 8007904:	fb02 3306 	mla	r3, r2, r6, r3
 8007908:	b289      	uxth	r1, r1
 800790a:	3001      	adds	r0, #1
 800790c:	eb01 4103 	add.w	r1, r1, r3, lsl #16
 8007910:	4285      	cmp	r5, r0
 8007912:	f84c 1b04 	str.w	r1, [ip], #4
 8007916:	ea4f 4613 	mov.w	r6, r3, lsr #16
 800791a:	dcec      	bgt.n	80078f6 <__multadd+0x12>
 800791c:	b30e      	cbz	r6, 8007962 <__multadd+0x7e>
 800791e:	68a3      	ldr	r3, [r4, #8]
 8007920:	42ab      	cmp	r3, r5
 8007922:	dc19      	bgt.n	8007958 <__multadd+0x74>
 8007924:	6861      	ldr	r1, [r4, #4]
 8007926:	4638      	mov	r0, r7
 8007928:	3101      	adds	r1, #1
 800792a:	f7ff ff79 	bl	8007820 <_Balloc>
 800792e:	4680      	mov	r8, r0
 8007930:	b928      	cbnz	r0, 800793e <__multadd+0x5a>
 8007932:	4602      	mov	r2, r0
 8007934:	4b0c      	ldr	r3, [pc, #48]	@ (8007968 <__multadd+0x84>)
 8007936:	480d      	ldr	r0, [pc, #52]	@ (800796c <__multadd+0x88>)
 8007938:	21ba      	movs	r1, #186	@ 0xba
 800793a:	f000 fd2f 	bl	800839c <__assert_func>
 800793e:	6922      	ldr	r2, [r4, #16]
 8007940:	3202      	adds	r2, #2
 8007942:	f104 010c 	add.w	r1, r4, #12
 8007946:	0092      	lsls	r2, r2, #2
 8007948:	300c      	adds	r0, #12
 800794a:	f000 fd19 	bl	8008380 <memcpy>
 800794e:	4621      	mov	r1, r4
 8007950:	4638      	mov	r0, r7
 8007952:	f7ff ffa5 	bl	80078a0 <_Bfree>
 8007956:	4644      	mov	r4, r8
 8007958:	eb04 0385 	add.w	r3, r4, r5, lsl #2
 800795c:	3501      	adds	r5, #1
 800795e:	615e      	str	r6, [r3, #20]
 8007960:	6125      	str	r5, [r4, #16]
 8007962:	4620      	mov	r0, r4
 8007964:	e8bd 81f0 	ldmia.w	sp!, {r4, r5, r6, r7, r8, pc}
 8007968:	08008b08 	.word	0x08008b08
 800796c:	08008b19 	.word	0x08008b19

08007970 <__hi0bits>:
 8007970:	f5b0 3f80 	cmp.w	r0, #65536	@ 0x10000
 8007974:	4603      	mov	r3, r0
 8007976:	bf36      	itet	cc
 8007978:	0403      	lslcc	r3, r0, #16
 800797a:	2000      	movcs	r0, #0
 800797c:	2010      	movcc	r0, #16
 800797e:	f1b3 7f80 	cmp.w	r3, #16777216	@ 0x1000000
 8007982:	bf3c      	itt	cc
 8007984:	021b      	lslcc	r3, r3, #8
 8007986:	3008      	addcc	r0, #8
 8007988:	f1b3 5f80 	cmp.w	r3, #268435456	@ 0x10000000
 800798c:	bf3c      	itt	cc
 800798e:	011b      	lslcc	r3, r3, #4
 8007990:	3004      	addcc	r0, #4
 8007992:	f1b3 4f80 	cmp.w	r3, #1073741824	@ 0x40000000
 8007996:	bf3c      	itt	cc
 8007998:	009b      	lslcc	r3, r3, #2
 800799a:	3002      	addcc	r0, #2
 800799c:	2b00      	cmp	r3, #0
 800799e:	db05      	blt.n	80079ac <__hi0bits+0x3c>
 80079a0:	f013 4f80 	tst.w	r3, #1073741824	@ 0x40000000
 80079a4:	f100 0001 	add.w	r0, r0, #1
 80079a8:	bf08      	it	eq
 80079aa:	2020      	moveq	r0, #32
 80079ac:	4770      	bx	lr

080079ae <__lo0bits>:
 80079ae:	6803      	ldr	r3, [r0, #0]
 80079b0:	4602      	mov	r2, r0
 80079b2:	f013 0007 	ands.w	r0, r3, #7
 80079b6:	d00b      	beq.n	80079d0 <__lo0bits+0x22>
 80079b8:	07d9      	lsls	r1, r3, #31
 80079ba:	d421      	bmi.n	8007a00 <__lo0bits+0x52>
 80079bc:	0798      	lsls	r0, r3, #30
 80079be:	bf49      	itett	mi
 80079c0:	085b      	lsrmi	r3, r3, #1
 80079c2:	089b      	lsrpl	r3, r3, #2
 80079c4:	2001      	movmi	r0, #1
 80079c6:	6013      	strmi	r3, [r2, #0]
 80079c8:	bf5c      	itt	pl
 80079ca:	6013      	strpl	r3, [r2, #0]
 80079cc:	2002      	movpl	r0, #2
 80079ce:	4770      	bx	lr
 80079d0:	b299      	uxth	r1, r3
 80079d2:	b909      	cbnz	r1, 80079d8 <__lo0bits+0x2a>
 80079d4:	0c1b      	lsrs	r3, r3, #16
 80079d6:	2010      	movs	r0, #16
 80079d8:	b2d9      	uxtb	r1, r3
 80079da:	b909      	cbnz	r1, 80079e0 <__lo0bits+0x32>
 80079dc:	3008      	adds	r0, #8
 80079de:	0a1b      	lsrs	r3, r3, #8
 80079e0:	0719      	lsls	r1, r3, #28
 80079e2:	bf04      	itt	eq
 80079e4:	091b      	lsreq	r3, r3, #4
 80079e6:	3004      	addeq	r0, #4
 80079e8:	0799      	lsls	r1, r3, #30
 80079ea:	bf04      	itt	eq
 80079ec:	089b      	lsreq	r3, r3, #2
 80079ee:	3002      	addeq	r0, #2
 80079f0:	07d9      	lsls	r1, r3, #31
 80079f2:	d403      	bmi.n	80079fc <__lo0bits+0x4e>
 80079f4:	085b      	lsrs	r3, r3, #1
 80079f6:	f100 0001 	add.w	r0, r0, #1
 80079fa:	d003      	beq.n	8007a04 <__lo0bits+0x56>
 80079fc:	6013      	str	r3, [r2, #0]
 80079fe:	4770      	bx	lr
 8007a00:	2000      	movs	r0, #0
 8007a02:	4770      	bx	lr
 8007a04:	2020      	movs	r0, #32
 8007a06:	4770      	bx	lr

08007a08 <__i2b>:
 8007a08:	b510      	push	{r4, lr}
 8007a0a:	460c      	mov	r4, r1
 8007a0c:	2101      	movs	r1, #1
 8007a0e:	f7ff ff07 	bl	8007820 <_Balloc>
 8007a12:	4602      	mov	r2, r0
 8007a14:	b928      	cbnz	r0, 8007a22 <__i2b+0x1a>
 8007a16:	4b05      	ldr	r3, [pc, #20]	@ (8007a2c <__i2b+0x24>)
 8007a18:	4805      	ldr	r0, [pc, #20]	@ (8007a30 <__i2b+0x28>)
 8007a1a:	f240 1145 	movw	r1, #325	@ 0x145
 8007a1e:	f000 fcbd 	bl	800839c <__assert_func>
 8007a22:	2301      	movs	r3, #1
 8007a24:	6144      	str	r4, [r0, #20]
 8007a26:	6103      	str	r3, [r0, #16]
 8007a28:	bd10      	pop	{r4, pc}
 8007a2a:	bf00      	nop
 8007a2c:	08008b08 	.word	0x08008b08
 8007a30:	08008b19 	.word	0x08008b19

08007a34 <__multiply>:
 8007a34:	e92d 4ff0 	stmdb	sp!, {r4, r5, r6, r7, r8, r9, sl, fp, lr}
 8007a38:	4614      	mov	r4, r2
 8007a3a:	690a      	ldr	r2, [r1, #16]
 8007a3c:	6923      	ldr	r3, [r4, #16]
 8007a3e:	429a      	cmp	r2, r3
 8007a40:	bfa8      	it	ge
 8007a42:	4623      	movge	r3, r4
 8007a44:	460f      	mov	r7, r1
 8007a46:	bfa4      	itt	ge
 8007a48:	460c      	movge	r4, r1
 8007a4a:	461f      	movge	r7, r3
 8007a4c:	f8d4 a010 	ldr.w	sl, [r4, #16]
 8007a50:	f8d7 9010 	ldr.w	r9, [r7, #16]
 8007a54:	68a3      	ldr	r3, [r4, #8]
 8007a56:	6861      	ldr	r1, [r4, #4]
 8007a58:	eb0a 0609 	add.w	r6, sl, r9
 8007a5c:	42b3      	cmp	r3, r6
 8007a5e:	b085      	sub	sp, #20
 8007a60:	bfb8      	it	lt
 8007a62:	3101      	addlt	r1, #1
 8007a64:	f7ff fedc 	bl	8007820 <_Balloc>
 8007a68:	b930      	cbnz	r0, 8007a78 <__multiply+0x44>
 8007a6a:	4602      	mov	r2, r0
 8007a6c:	4b44      	ldr	r3, [pc, #272]	@ (8007b80 <__multiply+0x14c>)
 8007a6e:	4845      	ldr	r0, [pc, #276]	@ (8007b84 <__multiply+0x150>)
 8007a70:	f44f 71b1 	mov.w	r1, #354	@ 0x162
 8007a74:	f000 fc92 	bl	800839c <__assert_func>
 8007a78:	f100 0514 	add.w	r5, r0, #20
 8007a7c:	eb05 0886 	add.w	r8, r5, r6, lsl #2
 8007a80:	462b      	mov	r3, r5
 8007a82:	2200      	movs	r2, #0
 8007a84:	4543      	cmp	r3, r8
 8007a86:	d321      	bcc.n	8007acc <__multiply+0x98>
 8007a88:	f107 0114 	add.w	r1, r7, #20
 8007a8c:	f104 0214 	add.w	r2, r4, #20
 8007a90:	eb02 028a 	add.w	r2, r2, sl, lsl #2
 8007a94:	eb01 0389 	add.w	r3, r1, r9, lsl #2
 8007a98:	9302      	str	r3, [sp, #8]
 8007a9a:	1b13      	subs	r3, r2, r4
 8007a9c:	3b15      	subs	r3, #21
 8007a9e:	f023 0303 	bic.w	r3, r3, #3
 8007aa2:	3304      	adds	r3, #4
 8007aa4:	f104 0715 	add.w	r7, r4, #21
 8007aa8:	42ba      	cmp	r2, r7
 8007aaa:	bf38      	it	cc
 8007aac:	2304      	movcc	r3, #4
 8007aae:	9301      	str	r3, [sp, #4]
 8007ab0:	9b02      	ldr	r3, [sp, #8]
 8007ab2:	9103      	str	r1, [sp, #12]
 8007ab4:	428b      	cmp	r3, r1
 8007ab6:	d80c      	bhi.n	8007ad2 <__multiply+0x9e>
 8007ab8:	2e00      	cmp	r6, #0
 8007aba:	dd03      	ble.n	8007ac4 <__multiply+0x90>
 8007abc:	f858 3d04 	ldr.w	r3, [r8, #-4]!
 8007ac0:	2b00      	cmp	r3, #0
 8007ac2:	d05b      	beq.n	8007b7c <__multiply+0x148>
 8007ac4:	6106      	str	r6, [r0, #16]
 8007ac6:	b005      	add	sp, #20
 8007ac8:	e8bd 8ff0 	ldmia.w	sp!, {r4, r5, r6, r7, r8, r9, sl, fp, pc}
 8007acc:	f843 2b04 	str.w	r2, [r3], #4
 8007ad0:	e7d8      	b.n	8007a84 <__multiply+0x50>
 8007ad2:	f8b1 a000 	ldrh.w	sl, [r1]
 8007ad6:	f1ba 0f00 	cmp.w	sl, #0
 8007ada:	d024      	beq.n	8007b26 <__multiply+0xf2>
 8007adc:	f104 0e14 	add.w	lr, r4, #20
 8007ae0:	46a9      	mov	r9, r5
 8007ae2:	f04f 0c00 	mov.w	ip, #0
 8007ae6:	f85e 7b04 	ldr.w	r7, [lr], #4
 8007aea:	f8d9 3000 	ldr.w	r3, [r9]
 8007aee:	fa1f fb87 	uxth.w	fp, r7
 8007af2:	b29b      	uxth	r3, r3
 8007af4:	fb0a 330b 	mla	r3, sl, fp, r3
 8007af8:	ea4f 4b17 	mov.w	fp, r7, lsr #16
 8007afc:	f8d9 7000 	ldr.w	r7, [r9]
 8007b00:	4463      	add	r3, ip
 8007b02:	ea4f 4c17 	mov.w	ip, r7, lsr #16
 8007b06:	fb0a c70b 	mla	r7, sl, fp, ip
 8007b0a:	eb07 4713 	add.w	r7, r7, r3, lsr #16
 8007b0e:	b29b      	uxth	r3, r3
 8007b10:	ea43 4307 	orr.w	r3, r3, r7, lsl #16
 8007b14:	4572      	cmp	r2, lr
 8007b16:	f849 3b04 	str.w	r3, [r9], #4
 8007b1a:	ea4f 4c17 	mov.w	ip, r7, lsr #16
 8007b1e:	d8e2      	bhi.n	8007ae6 <__multiply+0xb2>
 8007b20:	9b01      	ldr	r3, [sp, #4]
 8007b22:	f845 c003 	str.w	ip, [r5, r3]
 8007b26:	9b03      	ldr	r3, [sp, #12]
 8007b28:	f8b3 9002 	ldrh.w	r9, [r3, #2]
 8007b2c:	3104      	adds	r1, #4
 8007b2e:	f1b9 0f00 	cmp.w	r9, #0
 8007b32:	d021      	beq.n	8007b78 <__multiply+0x144>
 8007b34:	682b      	ldr	r3, [r5, #0]
 8007b36:	f104 0c14 	add.w	ip, r4, #20
 8007b3a:	46ae      	mov	lr, r5
 8007b3c:	f04f 0a00 	mov.w	sl, #0
 8007b40:	f8bc b000 	ldrh.w	fp, [ip]
 8007b44:	f8be 7002 	ldrh.w	r7, [lr, #2]
 8007b48:	fb09 770b 	mla	r7, r9, fp, r7
 8007b4c:	4457      	add	r7, sl
 8007b4e:	b29b      	uxth	r3, r3
 8007b50:	ea43 4307 	orr.w	r3, r3, r7, lsl #16
 8007b54:	f84e 3b04 	str.w	r3, [lr], #4
 8007b58:	f85c 3b04 	ldr.w	r3, [ip], #4
 8007b5c:	ea4f 4a13 	mov.w	sl, r3, lsr #16
 8007b60:	f8be 3000 	ldrh.w	r3, [lr]
 8007b64:	fb09 330a 	mla	r3, r9, sl, r3
 8007b68:	eb03 4317 	add.w	r3, r3, r7, lsr #16
 8007b6c:	4562      	cmp	r2, ip
 8007b6e:	ea4f 4a13 	mov.w	sl, r3, lsr #16
 8007b72:	d8e5      	bhi.n	8007b40 <__multiply+0x10c>
 8007b74:	9f01      	ldr	r7, [sp, #4]
 8007b76:	51eb      	str	r3, [r5, r7]
 8007b78:	3504      	adds	r5, #4
 8007b7a:	e799      	b.n	8007ab0 <__multiply+0x7c>
 8007b7c:	3e01      	subs	r6, #1
 8007b7e:	e79b      	b.n	8007ab8 <__multiply+0x84>
 8007b80:	08008b08 	.word	0x08008b08
 8007b84:	08008b19 	.word	0x08008b19

08007b88 <__pow5mult>:
 8007b88:	e92d 43f8 	stmdb	sp!, {r3, r4, r5, r6, r7, r8, r9, lr}
 8007b8c:	4615      	mov	r5, r2
 8007b8e:	f012 0203 	ands.w	r2, r2, #3
 8007b92:	4607      	mov	r7, r0
 8007b94:	460e      	mov	r6, r1
 8007b96:	d007      	beq.n	8007ba8 <__pow5mult+0x20>
 8007b98:	4c25      	ldr	r4, [pc, #148]	@ (8007c30 <__pow5mult+0xa8>)
 8007b9a:	3a01      	subs	r2, #1
 8007b9c:	2300      	movs	r3, #0
 8007b9e:	f854 2022 	ldr.w	r2, [r4, r2, lsl #2]
 8007ba2:	f7ff fe9f 	bl	80078e4 <__multadd>
 8007ba6:	4606      	mov	r6, r0
 8007ba8:	10ad      	asrs	r5, r5, #2
 8007baa:	d03d      	beq.n	8007c28 <__pow5mult+0xa0>
 8007bac:	69fc      	ldr	r4, [r7, #28]
 8007bae:	b97c      	cbnz	r4, 8007bd0 <__pow5mult+0x48>
 8007bb0:	2010      	movs	r0, #16
 8007bb2:	f7ff fd7f 	bl	80076b4 <malloc>
 8007bb6:	4602      	mov	r2, r0
 8007bb8:	61f8      	str	r0, [r7, #28]
 8007bba:	b928      	cbnz	r0, 8007bc8 <__pow5mult+0x40>
 8007bbc:	4b1d      	ldr	r3, [pc, #116]	@ (8007c34 <__pow5mult+0xac>)
 8007bbe:	481e      	ldr	r0, [pc, #120]	@ (8007c38 <__pow5mult+0xb0>)
 8007bc0:	f240 11b3 	movw	r1, #435	@ 0x1b3
 8007bc4:	f000 fbea 	bl	800839c <__assert_func>
 8007bc8:	e9c0 4401 	strd	r4, r4, [r0, #4]
 8007bcc:	6004      	str	r4, [r0, #0]
 8007bce:	60c4      	str	r4, [r0, #12]
 8007bd0:	f8d7 801c 	ldr.w	r8, [r7, #28]
 8007bd4:	f8d8 4008 	ldr.w	r4, [r8, #8]
 8007bd8:	b94c      	cbnz	r4, 8007bee <__pow5mult+0x66>
 8007bda:	f240 2171 	movw	r1, #625	@ 0x271
 8007bde:	4638      	mov	r0, r7
 8007be0:	f7ff ff12 	bl	8007a08 <__i2b>
 8007be4:	2300      	movs	r3, #0
 8007be6:	f8c8 0008 	str.w	r0, [r8, #8]
 8007bea:	4604      	mov	r4, r0
 8007bec:	6003      	str	r3, [r0, #0]
 8007bee:	f04f 0900 	mov.w	r9, #0
 8007bf2:	07eb      	lsls	r3, r5, #31
 8007bf4:	d50a      	bpl.n	8007c0c <__pow5mult+0x84>
 8007bf6:	4631      	mov	r1, r6
 8007bf8:	4622      	mov	r2, r4
 8007bfa:	4638      	mov	r0, r7
 8007bfc:	f7ff ff1a 	bl	8007a34 <__multiply>
 8007c00:	4631      	mov	r1, r6
 8007c02:	4680      	mov	r8, r0
 8007c04:	4638      	mov	r0, r7
 8007c06:	f7ff fe4b 	bl	80078a0 <_Bfree>
 8007c0a:	4646      	mov	r6, r8
 8007c0c:	106d      	asrs	r5, r5, #1
 8007c0e:	d00b      	beq.n	8007c28 <__pow5mult+0xa0>
 8007c10:	6820      	ldr	r0, [r4, #0]
 8007c12:	b938      	cbnz	r0, 8007c24 <__pow5mult+0x9c>
 8007c14:	4622      	mov	r2, r4
 8007c16:	4621      	mov	r1, r4
 8007c18:	4638      	mov	r0, r7
 8007c1a:	f7ff ff0b 	bl	8007a34 <__multiply>
 8007c1e:	6020      	str	r0, [r4, #0]
 8007c20:	f8c0 9000 	str.w	r9, [r0]
 8007c24:	4604      	mov	r4, r0
 8007c26:	e7e4      	b.n	8007bf2 <__pow5mult+0x6a>
 8007c28:	4630      	mov	r0, r6
 8007c2a:	e8bd 83f8 	ldmia.w	sp!, {r3, r4, r5, r6, r7, r8, r9, pc}
 8007c2e:	bf00      	nop
 8007c30:	08008b74 	.word	0x08008b74
 8007c34:	08008a99 	.word	0x08008a99
 8007c38:	08008b19 	.word	0x08008b19

08007c3c <__lshift>:
 8007c3c:	e92d 47f0 	stmdb	sp!, {r4, r5, r6, r7, r8, r9, sl, lr}
 8007c40:	460c      	mov	r4, r1
 8007c42:	6849      	ldr	r1, [r1, #4]
 8007c44:	6923      	ldr	r3, [r4, #16]
 8007c46:	eb03 1862 	add.w	r8, r3, r2, asr #5
 8007c4a:	68a3      	ldr	r3, [r4, #8]
 8007c4c:	4607      	mov	r7, r0
 8007c4e:	4691      	mov	r9, r2
 8007c50:	ea4f 1a62 	mov.w	sl, r2, asr #5
 8007c54:	f108 0601 	add.w	r6, r8, #1
 8007c58:	42b3      	cmp	r3, r6
 8007c5a:	db0b      	blt.n	8007c74 <__lshift+0x38>
 8007c5c:	4638      	mov	r0, r7
 8007c5e:	f7ff fddf 	bl	8007820 <_Balloc>
 8007c62:	4605      	mov	r5, r0
 8007c64:	b948      	cbnz	r0, 8007c7a <__lshift+0x3e>
 8007c66:	4602      	mov	r2, r0
 8007c68:	4b28      	ldr	r3, [pc, #160]	@ (8007d0c <__lshift+0xd0>)
 8007c6a:	4829      	ldr	r0, [pc, #164]	@ (8007d10 <__lshift+0xd4>)
 8007c6c:	f44f 71ef 	mov.w	r1, #478	@ 0x1de
 8007c70:	f000 fb94 	bl	800839c <__assert_func>
 8007c74:	3101      	adds	r1, #1
 8007c76:	005b      	lsls	r3, r3, #1
 8007c78:	e7ee      	b.n	8007c58 <__lshift+0x1c>
 8007c7a:	2300      	movs	r3, #0
 8007c7c:	f100 0114 	add.w	r1, r0, #20
 8007c80:	f100 0210 	add.w	r2, r0, #16
 8007c84:	4618      	mov	r0, r3
 8007c86:	4553      	cmp	r3, sl
 8007c88:	db33      	blt.n	8007cf2 <__lshift+0xb6>
 8007c8a:	6920      	ldr	r0, [r4, #16]
 8007c8c:	ea2a 7aea 	bic.w	sl, sl, sl, asr #31
 8007c90:	f104 0314 	add.w	r3, r4, #20
 8007c94:	f019 091f 	ands.w	r9, r9, #31
 8007c98:	eb01 018a 	add.w	r1, r1, sl, lsl #2
 8007c9c:	eb03 0c80 	add.w	ip, r3, r0, lsl #2
 8007ca0:	d02b      	beq.n	8007cfa <__lshift+0xbe>
 8007ca2:	f1c9 0e20 	rsb	lr, r9, #32
 8007ca6:	468a      	mov	sl, r1
 8007ca8:	2200      	movs	r2, #0
 8007caa:	6818      	ldr	r0, [r3, #0]
 8007cac:	fa00 f009 	lsl.w	r0, r0, r9
 8007cb0:	4310      	orrs	r0, r2
 8007cb2:	f84a 0b04 	str.w	r0, [sl], #4
 8007cb6:	f853 2b04 	ldr.w	r2, [r3], #4
 8007cba:	459c      	cmp	ip, r3
 8007cbc:	fa22 f20e 	lsr.w	r2, r2, lr
 8007cc0:	d8f3      	bhi.n	8007caa <__lshift+0x6e>
 8007cc2:	ebac 0304 	sub.w	r3, ip, r4
 8007cc6:	3b15      	subs	r3, #21
 8007cc8:	f023 0303 	bic.w	r3, r3, #3
 8007ccc:	3304      	adds	r3, #4
 8007cce:	f104 0015 	add.w	r0, r4, #21
 8007cd2:	4584      	cmp	ip, r0
 8007cd4:	bf38      	it	cc
 8007cd6:	2304      	movcc	r3, #4
 8007cd8:	50ca      	str	r2, [r1, r3]
 8007cda:	b10a      	cbz	r2, 8007ce0 <__lshift+0xa4>
 8007cdc:	f108 0602 	add.w	r6, r8, #2
 8007ce0:	3e01      	subs	r6, #1
 8007ce2:	4638      	mov	r0, r7
 8007ce4:	612e      	str	r6, [r5, #16]
 8007ce6:	4621      	mov	r1, r4
 8007ce8:	f7ff fdda 	bl	80078a0 <_Bfree>
 8007cec:	4628      	mov	r0, r5
 8007cee:	e8bd 87f0 	ldmia.w	sp!, {r4, r5, r6, r7, r8, r9, sl, pc}
 8007cf2:	f842 0f04 	str.w	r0, [r2, #4]!
 8007cf6:	3301      	adds	r3, #1
 8007cf8:	e7c5      	b.n	8007c86 <__lshift+0x4a>
 8007cfa:	3904      	subs	r1, #4
 8007cfc:	f853 2b04 	ldr.w	r2, [r3], #4
 8007d00:	f841 2f04 	str.w	r2, [r1, #4]!
 8007d04:	459c      	cmp	ip, r3
 8007d06:	d8f9      	bhi.n	8007cfc <__lshift+0xc0>
 8007d08:	e7ea      	b.n	8007ce0 <__lshift+0xa4>
 8007d0a:	bf00      	nop
 8007d0c:	08008b08 	.word	0x08008b08
 8007d10:	08008b19 	.word	0x08008b19

08007d14 <__mcmp>:
 8007d14:	690a      	ldr	r2, [r1, #16]
 8007d16:	4603      	mov	r3, r0
 8007d18:	6900      	ldr	r0, [r0, #16]
 8007d1a:	1a80      	subs	r0, r0, r2
 8007d1c:	b530      	push	{r4, r5, lr}
 8007d1e:	d10e      	bne.n	8007d3e <__mcmp+0x2a>
 8007d20:	3314      	adds	r3, #20
 8007d22:	3114      	adds	r1, #20
 8007d24:	eb03 0482 	add.w	r4, r3, r2, lsl #2
 8007d28:	eb01 0182 	add.w	r1, r1, r2, lsl #2
 8007d2c:	f854 5d04 	ldr.w	r5, [r4, #-4]!
 8007d30:	f851 2d04 	ldr.w	r2, [r1, #-4]!
 8007d34:	4295      	cmp	r5, r2
 8007d36:	d003      	beq.n	8007d40 <__mcmp+0x2c>
 8007d38:	d205      	bcs.n	8007d46 <__mcmp+0x32>
 8007d3a:	f04f 30ff 	mov.w	r0, #4294967295
 8007d3e:	bd30      	pop	{r4, r5, pc}
 8007d40:	42a3      	cmp	r3, r4
 8007d42:	d3f3      	bcc.n	8007d2c <__mcmp+0x18>
 8007d44:	e7fb      	b.n	8007d3e <__mcmp+0x2a>
 8007d46:	2001      	movs	r0, #1
 8007d48:	e7f9      	b.n	8007d3e <__mcmp+0x2a>
	...

08007d4c <__mdiff>:
 8007d4c:	e92d 4ff7 	stmdb	sp!, {r0, r1, r2, r4, r5, r6, r7, r8, r9, sl, fp, lr}
 8007d50:	4689      	mov	r9, r1
 8007d52:	4606      	mov	r6, r0
 8007d54:	4611      	mov	r1, r2
 8007d56:	4648      	mov	r0, r9
 8007d58:	4614      	mov	r4, r2
 8007d5a:	f7ff ffdb 	bl	8007d14 <__mcmp>
 8007d5e:	1e05      	subs	r5, r0, #0
 8007d60:	d112      	bne.n	8007d88 <__mdiff+0x3c>
 8007d62:	4629      	mov	r1, r5
 8007d64:	4630      	mov	r0, r6
 8007d66:	f7ff fd5b 	bl	8007820 <_Balloc>
 8007d6a:	4602      	mov	r2, r0
 8007d6c:	b928      	cbnz	r0, 8007d7a <__mdiff+0x2e>
 8007d6e:	4b3f      	ldr	r3, [pc, #252]	@ (8007e6c <__mdiff+0x120>)
 8007d70:	f240 2137 	movw	r1, #567	@ 0x237
 8007d74:	483e      	ldr	r0, [pc, #248]	@ (8007e70 <__mdiff+0x124>)
 8007d76:	f000 fb11 	bl	800839c <__assert_func>
 8007d7a:	2301      	movs	r3, #1
 8007d7c:	e9c0 3504 	strd	r3, r5, [r0, #16]
 8007d80:	4610      	mov	r0, r2
 8007d82:	b003      	add	sp, #12
 8007d84:	e8bd 8ff0 	ldmia.w	sp!, {r4, r5, r6, r7, r8, r9, sl, fp, pc}
 8007d88:	bfbc      	itt	lt
 8007d8a:	464b      	movlt	r3, r9
 8007d8c:	46a1      	movlt	r9, r4
 8007d8e:	4630      	mov	r0, r6
 8007d90:	f8d9 1004 	ldr.w	r1, [r9, #4]
 8007d94:	bfba      	itte	lt
 8007d96:	461c      	movlt	r4, r3
 8007d98:	2501      	movlt	r5, #1
 8007d9a:	2500      	movge	r5, #0
 8007d9c:	f7ff fd40 	bl	8007820 <_Balloc>
 8007da0:	4602      	mov	r2, r0
 8007da2:	b918      	cbnz	r0, 8007dac <__mdiff+0x60>
 8007da4:	4b31      	ldr	r3, [pc, #196]	@ (8007e6c <__mdiff+0x120>)
 8007da6:	f240 2145 	movw	r1, #581	@ 0x245
 8007daa:	e7e3      	b.n	8007d74 <__mdiff+0x28>
 8007dac:	f8d9 7010 	ldr.w	r7, [r9, #16]
 8007db0:	6926      	ldr	r6, [r4, #16]
 8007db2:	60c5      	str	r5, [r0, #12]
 8007db4:	f109 0310 	add.w	r3, r9, #16
 8007db8:	f109 0514 	add.w	r5, r9, #20
 8007dbc:	f104 0e14 	add.w	lr, r4, #20
 8007dc0:	f100 0b14 	add.w	fp, r0, #20
 8007dc4:	eb05 0887 	add.w	r8, r5, r7, lsl #2
 8007dc8:	eb0e 0686 	add.w	r6, lr, r6, lsl #2
 8007dcc:	9301      	str	r3, [sp, #4]
 8007dce:	46d9      	mov	r9, fp
 8007dd0:	f04f 0c00 	mov.w	ip, #0
 8007dd4:	9b01      	ldr	r3, [sp, #4]
 8007dd6:	f85e 0b04 	ldr.w	r0, [lr], #4
 8007dda:	f853 af04 	ldr.w	sl, [r3, #4]!
 8007dde:	9301      	str	r3, [sp, #4]
 8007de0:	fa1f f38a 	uxth.w	r3, sl
 8007de4:	4619      	mov	r1, r3
 8007de6:	b283      	uxth	r3, r0
 8007de8:	1acb      	subs	r3, r1, r3
 8007dea:	0c00      	lsrs	r0, r0, #16
 8007dec:	4463      	add	r3, ip
 8007dee:	ebc0 401a 	rsb	r0, r0, sl, lsr #16
 8007df2:	eb00 4023 	add.w	r0, r0, r3, asr #16
 8007df6:	b29b      	uxth	r3, r3
 8007df8:	ea43 4300 	orr.w	r3, r3, r0, lsl #16
 8007dfc:	4576      	cmp	r6, lr
 8007dfe:	f849 3b04 	str.w	r3, [r9], #4
 8007e02:	ea4f 4c20 	mov.w	ip, r0, asr #16
 8007e06:	d8e5      	bhi.n	8007dd4 <__mdiff+0x88>
 8007e08:	1b33      	subs	r3, r6, r4
 8007e0a:	3b15      	subs	r3, #21
 8007e0c:	f023 0303 	bic.w	r3, r3, #3
 8007e10:	3415      	adds	r4, #21
 8007e12:	3304      	adds	r3, #4
 8007e14:	42a6      	cmp	r6, r4
 8007e16:	bf38      	it	cc
 8007e18:	2304      	movcc	r3, #4
 8007e1a:	441d      	add	r5, r3
 8007e1c:	445b      	add	r3, fp
 8007e1e:	461e      	mov	r6, r3
 8007e20:	462c      	mov	r4, r5
 8007e22:	4544      	cmp	r4, r8
 8007e24:	d30e      	bcc.n	8007e44 <__mdiff+0xf8>
 8007e26:	f108 0103 	add.w	r1, r8, #3
 8007e2a:	1b49      	subs	r1, r1, r5
 8007e2c:	f021 0103 	bic.w	r1, r1, #3
 8007e30:	3d03      	subs	r5, #3
 8007e32:	45a8      	cmp	r8, r5
 8007e34:	bf38      	it	cc
 8007e36:	2100      	movcc	r1, #0
 8007e38:	440b      	add	r3, r1
 8007e3a:	f853 1d04 	ldr.w	r1, [r3, #-4]!
 8007e3e:	b191      	cbz	r1, 8007e66 <__mdiff+0x11a>
 8007e40:	6117      	str	r7, [r2, #16]
 8007e42:	e79d      	b.n	8007d80 <__mdiff+0x34>
 8007e44:	f854 1b04 	ldr.w	r1, [r4], #4
 8007e48:	46e6      	mov	lr, ip
 8007e4a:	0c08      	lsrs	r0, r1, #16
 8007e4c:	fa1c fc81 	uxtah	ip, ip, r1
 8007e50:	4471      	add	r1, lr
 8007e52:	eb00 402c 	add.w	r0, r0, ip, asr #16
 8007e56:	b289      	uxth	r1, r1
 8007e58:	ea41 4100 	orr.w	r1, r1, r0, lsl #16
 8007e5c:	f846 1b04 	str.w	r1, [r6], #4
 8007e60:	ea4f 4c20 	mov.w	ip, r0, asr #16
 8007e64:	e7dd      	b.n	8007e22 <__mdiff+0xd6>
 8007e66:	3f01      	subs	r7, #1
 8007e68:	e7e7      	b.n	8007e3a <__mdiff+0xee>
 8007e6a:	bf00      	nop
 8007e6c:	08008b08 	.word	0x08008b08
 8007e70:	08008b19 	.word	0x08008b19

08007e74 <__d2b>:
 8007e74:	e92d 43f7 	stmdb	sp!, {r0, r1, r2, r4, r5, r6, r7, r8, r9, lr}
 8007e78:	460f      	mov	r7, r1
 8007e7a:	2101      	movs	r1, #1
 8007e7c:	ec59 8b10 	vmov	r8, r9, d0
 8007e80:	4616      	mov	r6, r2
 8007e82:	f7ff fccd 	bl	8007820 <_Balloc>
 8007e86:	4604      	mov	r4, r0
 8007e88:	b930      	cbnz	r0, 8007e98 <__d2b+0x24>
 8007e8a:	4602      	mov	r2, r0
 8007e8c:	4b23      	ldr	r3, [pc, #140]	@ (8007f1c <__d2b+0xa8>)
 8007e8e:	4824      	ldr	r0, [pc, #144]	@ (8007f20 <__d2b+0xac>)
 8007e90:	f240 310f 	movw	r1, #783	@ 0x30f
 8007e94:	f000 fa82 	bl	800839c <__assert_func>
 8007e98:	f3c9 550a 	ubfx	r5, r9, #20, #11
 8007e9c:	f3c9 0313 	ubfx	r3, r9, #0, #20
 8007ea0:	b10d      	cbz	r5, 8007ea6 <__d2b+0x32>
 8007ea2:	f443 1380 	orr.w	r3, r3, #1048576	@ 0x100000
 8007ea6:	9301      	str	r3, [sp, #4]
 8007ea8:	f1b8 0300 	subs.w	r3, r8, #0
 8007eac:	d023      	beq.n	8007ef6 <__d2b+0x82>
 8007eae:	4668      	mov	r0, sp
 8007eb0:	9300      	str	r3, [sp, #0]
 8007eb2:	f7ff fd7c 	bl	80079ae <__lo0bits>
 8007eb6:	e9dd 1200 	ldrd	r1, r2, [sp]
 8007eba:	b1d0      	cbz	r0, 8007ef2 <__d2b+0x7e>
 8007ebc:	f1c0 0320 	rsb	r3, r0, #32
 8007ec0:	fa02 f303 	lsl.w	r3, r2, r3
 8007ec4:	430b      	orrs	r3, r1
 8007ec6:	40c2      	lsrs	r2, r0
 8007ec8:	6163      	str	r3, [r4, #20]
 8007eca:	9201      	str	r2, [sp, #4]
 8007ecc:	9b01      	ldr	r3, [sp, #4]
 8007ece:	61a3      	str	r3, [r4, #24]
 8007ed0:	2b00      	cmp	r3, #0
 8007ed2:	bf0c      	ite	eq
 8007ed4:	2201      	moveq	r2, #1
 8007ed6:	2202      	movne	r2, #2
 8007ed8:	6122      	str	r2, [r4, #16]
 8007eda:	b1a5      	cbz	r5, 8007f06 <__d2b+0x92>
 8007edc:	f2a5 4533 	subw	r5, r5, #1075	@ 0x433
 8007ee0:	4405      	add	r5, r0
 8007ee2:	603d      	str	r5, [r7, #0]
 8007ee4:	f1c0 0035 	rsb	r0, r0, #53	@ 0x35
 8007ee8:	6030      	str	r0, [r6, #0]
 8007eea:	4620      	mov	r0, r4
 8007eec:	b003      	add	sp, #12
 8007eee:	e8bd 83f0 	ldmia.w	sp!, {r4, r5, r6, r7, r8, r9, pc}
 8007ef2:	6161      	str	r1, [r4, #20]
 8007ef4:	e7ea      	b.n	8007ecc <__d2b+0x58>
 8007ef6:	a801      	add	r0, sp, #4
 8007ef8:	f7ff fd59 	bl	80079ae <__lo0bits>
 8007efc:	9b01      	ldr	r3, [sp, #4]
 8007efe:	6163      	str	r3, [r4, #20]
 8007f00:	3020      	adds	r0, #32
 8007f02:	2201      	movs	r2, #1
 8007f04:	e7e8      	b.n	8007ed8 <__d2b+0x64>
 8007f06:	eb04 0382 	add.w	r3, r4, r2, lsl #2
 8007f0a:	f2a0 4032 	subw	r0, r0, #1074	@ 0x432
 8007f0e:	6038      	str	r0, [r7, #0]
 8007f10:	6918      	ldr	r0, [r3, #16]
 8007f12:	f7ff fd2d 	bl	8007970 <__hi0bits>
 8007f16:	ebc0 1042 	rsb	r0, r0, r2, lsl #5
 8007f1a:	e7e5      	b.n	8007ee8 <__d2b+0x74>
 8007f1c:	08008b08 	.word	0x08008b08
 8007f20:	08008b19 	.word	0x08008b19

08007f24 <__ssputs_r>:
 8007f24:	e92d 47f0 	stmdb	sp!, {r4, r5, r6, r7, r8, r9, sl, lr}
 8007f28:	688e      	ldr	r6, [r1, #8]
 8007f2a:	461f      	mov	r7, r3
 8007f2c:	42be      	cmp	r6, r7
 8007f2e:	680b      	ldr	r3, [r1, #0]
 8007f30:	4682      	mov	sl, r0
 8007f32:	460c      	mov	r4, r1
 8007f34:	4690      	mov	r8, r2
 8007f36:	d82d      	bhi.n	8007f94 <__ssputs_r+0x70>
 8007f38:	f9b1 200c 	ldrsh.w	r2, [r1, #12]
 8007f3c:	f412 6f90 	tst.w	r2, #1152	@ 0x480
 8007f40:	d026      	beq.n	8007f90 <__ssputs_r+0x6c>
 8007f42:	6965      	ldr	r5, [r4, #20]
 8007f44:	6909      	ldr	r1, [r1, #16]
 8007f46:	eb05 0545 	add.w	r5, r5, r5, lsl #1
 8007f4a:	eba3 0901 	sub.w	r9, r3, r1
 8007f4e:	eb05 75d5 	add.w	r5, r5, r5, lsr #31
 8007f52:	1c7b      	adds	r3, r7, #1
 8007f54:	444b      	add	r3, r9
 8007f56:	106d      	asrs	r5, r5, #1
 8007f58:	429d      	cmp	r5, r3
 8007f5a:	bf38      	it	cc
 8007f5c:	461d      	movcc	r5, r3
 8007f5e:	0553      	lsls	r3, r2, #21
 8007f60:	d527      	bpl.n	8007fb2 <__ssputs_r+0x8e>
 8007f62:	4629      	mov	r1, r5
 8007f64:	f7ff fbd0 	bl	8007708 <_malloc_r>
 8007f68:	4606      	mov	r6, r0
 8007f6a:	b360      	cbz	r0, 8007fc6 <__ssputs_r+0xa2>
 8007f6c:	6921      	ldr	r1, [r4, #16]
 8007f6e:	464a      	mov	r2, r9
 8007f70:	f000 fa06 	bl	8008380 <memcpy>
 8007f74:	89a3      	ldrh	r3, [r4, #12]
 8007f76:	f423 6390 	bic.w	r3, r3, #1152	@ 0x480
 8007f7a:	f043 0380 	orr.w	r3, r3, #128	@ 0x80
 8007f7e:	81a3      	strh	r3, [r4, #12]
 8007f80:	6126      	str	r6, [r4, #16]
 8007f82:	6165      	str	r5, [r4, #20]
 8007f84:	444e      	add	r6, r9
 8007f86:	eba5 0509 	sub.w	r5, r5, r9
 8007f8a:	6026      	str	r6, [r4, #0]
 8007f8c:	60a5      	str	r5, [r4, #8]
 8007f8e:	463e      	mov	r6, r7
 8007f90:	42be      	cmp	r6, r7
 8007f92:	d900      	bls.n	8007f96 <__ssputs_r+0x72>
 8007f94:	463e      	mov	r6, r7
 8007f96:	6820      	ldr	r0, [r4, #0]
 8007f98:	4632      	mov	r2, r6
 8007f9a:	4641      	mov	r1, r8
 8007f9c:	f000 f9c6 	bl	800832c <memmove>
 8007fa0:	68a3      	ldr	r3, [r4, #8]
 8007fa2:	1b9b      	subs	r3, r3, r6
 8007fa4:	60a3      	str	r3, [r4, #8]
 8007fa6:	6823      	ldr	r3, [r4, #0]
 8007fa8:	4433      	add	r3, r6
 8007faa:	6023      	str	r3, [r4, #0]
 8007fac:	2000      	movs	r0, #0
 8007fae:	e8bd 87f0 	ldmia.w	sp!, {r4, r5, r6, r7, r8, r9, sl, pc}
 8007fb2:	462a      	mov	r2, r5
 8007fb4:	f000 fa36 	bl	8008424 <_realloc_r>
 8007fb8:	4606      	mov	r6, r0
 8007fba:	2800      	cmp	r0, #0
 8007fbc:	d1e0      	bne.n	8007f80 <__ssputs_r+0x5c>
 8007fbe:	6921      	ldr	r1, [r4, #16]
 8007fc0:	4650      	mov	r0, sl
 8007fc2:	f7ff fb2d 	bl	8007620 <_free_r>
 8007fc6:	230c      	movs	r3, #12
 8007fc8:	f8ca 3000 	str.w	r3, [sl]
 8007fcc:	89a3      	ldrh	r3, [r4, #12]
 8007fce:	f043 0340 	orr.w	r3, r3, #64	@ 0x40
 8007fd2:	81a3      	strh	r3, [r4, #12]
 8007fd4:	f04f 30ff 	mov.w	r0, #4294967295
 8007fd8:	e7e9      	b.n	8007fae <__ssputs_r+0x8a>
	...

08007fdc <_svfiprintf_r>:
 8007fdc:	e92d 4ff0 	stmdb	sp!, {r4, r5, r6, r7, r8, r9, sl, fp, lr}
 8007fe0:	4698      	mov	r8, r3
 8007fe2:	898b      	ldrh	r3, [r1, #12]
 8007fe4:	061b      	lsls	r3, r3, #24
 8007fe6:	b09d      	sub	sp, #116	@ 0x74
 8007fe8:	4607      	mov	r7, r0
 8007fea:	460d      	mov	r5, r1
 8007fec:	4614      	mov	r4, r2
 8007fee:	d510      	bpl.n	8008012 <_svfiprintf_r+0x36>
 8007ff0:	690b      	ldr	r3, [r1, #16]
 8007ff2:	b973      	cbnz	r3, 8008012 <_svfiprintf_r+0x36>
 8007ff4:	2140      	movs	r1, #64	@ 0x40
 8007ff6:	f7ff fb87 	bl	8007708 <_malloc_r>
 8007ffa:	6028      	str	r0, [r5, #0]
 8007ffc:	6128      	str	r0, [r5, #16]
 8007ffe:	b930      	cbnz	r0, 800800e <_svfiprintf_r+0x32>
 8008000:	230c      	movs	r3, #12
 8008002:	603b      	str	r3, [r7, #0]
 8008004:	f04f 30ff 	mov.w	r0, #4294967295
 8008008:	b01d      	add	sp, #116	@ 0x74
 800800a:	e8bd 8ff0 	ldmia.w	sp!, {r4, r5, r6, r7, r8, r9, sl, fp, pc}
 800800e:	2340      	movs	r3, #64	@ 0x40
 8008010:	616b      	str	r3, [r5, #20]
 8008012:	2300      	movs	r3, #0
 8008014:	9309      	str	r3, [sp, #36]	@ 0x24
 8008016:	2320      	movs	r3, #32
 8008018:	f88d 3029 	strb.w	r3, [sp, #41]	@ 0x29
 800801c:	f8cd 800c 	str.w	r8, [sp, #12]
 8008020:	2330      	movs	r3, #48	@ 0x30
 8008022:	f8df 819c 	ldr.w	r8, [pc, #412]	@ 80081c0 <_svfiprintf_r+0x1e4>
 8008026:	f88d 302a 	strb.w	r3, [sp, #42]	@ 0x2a
 800802a:	f04f 0901 	mov.w	r9, #1
 800802e:	4623      	mov	r3, r4
 8008030:	469a      	mov	sl, r3
 8008032:	f813 2b01 	ldrb.w	r2, [r3], #1
 8008036:	b10a      	cbz	r2, 800803c <_svfiprintf_r+0x60>
 8008038:	2a25      	cmp	r2, #37	@ 0x25
 800803a:	d1f9      	bne.n	8008030 <_svfiprintf_r+0x54>
 800803c:	ebba 0b04 	subs.w	fp, sl, r4
 8008040:	d00b      	beq.n	800805a <_svfiprintf_r+0x7e>
 8008042:	465b      	mov	r3, fp
 8008044:	4622      	mov	r2, r4
 8008046:	4629      	mov	r1, r5
 8008048:	4638      	mov	r0, r7
 800804a:	f7ff ff6b 	bl	8007f24 <__ssputs_r>
 800804e:	3001      	adds	r0, #1
 8008050:	f000 80a7 	beq.w	80081a2 <_svfiprintf_r+0x1c6>
 8008054:	9a09      	ldr	r2, [sp, #36]	@ 0x24
 8008056:	445a      	add	r2, fp
 8008058:	9209      	str	r2, [sp, #36]	@ 0x24
 800805a:	f89a 3000 	ldrb.w	r3, [sl]
 800805e:	2b00      	cmp	r3, #0
 8008060:	f000 809f 	beq.w	80081a2 <_svfiprintf_r+0x1c6>
 8008064:	2300      	movs	r3, #0
 8008066:	f04f 32ff 	mov.w	r2, #4294967295
 800806a:	e9cd 2305 	strd	r2, r3, [sp, #20]
 800806e:	f10a 0a01 	add.w	sl, sl, #1
 8008072:	9304      	str	r3, [sp, #16]
 8008074:	9307      	str	r3, [sp, #28]
 8008076:	f88d 3053 	strb.w	r3, [sp, #83]	@ 0x53
 800807a:	931a      	str	r3, [sp, #104]	@ 0x68
 800807c:	4654      	mov	r4, sl
 800807e:	2205      	movs	r2, #5
 8008080:	f814 1b01 	ldrb.w	r1, [r4], #1
 8008084:	484e      	ldr	r0, [pc, #312]	@ (80081c0 <_svfiprintf_r+0x1e4>)
 8008086:	f7f8 f8a3 	bl	80001d0 <memchr>
 800808a:	9a04      	ldr	r2, [sp, #16]
 800808c:	b9d8      	cbnz	r0, 80080c6 <_svfiprintf_r+0xea>
 800808e:	06d0      	lsls	r0, r2, #27
 8008090:	bf44      	itt	mi
 8008092:	2320      	movmi	r3, #32
 8008094:	f88d 3053 	strbmi.w	r3, [sp, #83]	@ 0x53
 8008098:	0711      	lsls	r1, r2, #28
 800809a:	bf44      	itt	mi
 800809c:	232b      	movmi	r3, #43	@ 0x2b
 800809e:	f88d 3053 	strbmi.w	r3, [sp, #83]	@ 0x53
 80080a2:	f89a 3000 	ldrb.w	r3, [sl]
 80080a6:	2b2a      	cmp	r3, #42	@ 0x2a
 80080a8:	d015      	beq.n	80080d6 <_svfiprintf_r+0xfa>
 80080aa:	9a07      	ldr	r2, [sp, #28]
 80080ac:	4654      	mov	r4, sl
 80080ae:	2000      	movs	r0, #0
 80080b0:	f04f 0c0a 	mov.w	ip, #10
 80080b4:	4621      	mov	r1, r4
 80080b6:	f811 3b01 	ldrb.w	r3, [r1], #1
 80080ba:	3b30      	subs	r3, #48	@ 0x30
 80080bc:	2b09      	cmp	r3, #9
 80080be:	d94b      	bls.n	8008158 <_svfiprintf_r+0x17c>
 80080c0:	b1b0      	cbz	r0, 80080f0 <_svfiprintf_r+0x114>
 80080c2:	9207      	str	r2, [sp, #28]
 80080c4:	e014      	b.n	80080f0 <_svfiprintf_r+0x114>
 80080c6:	eba0 0308 	sub.w	r3, r0, r8
 80080ca:	fa09 f303 	lsl.w	r3, r9, r3
 80080ce:	4313      	orrs	r3, r2
 80080d0:	9304      	str	r3, [sp, #16]
 80080d2:	46a2      	mov	sl, r4
 80080d4:	e7d2      	b.n	800807c <_svfiprintf_r+0xa0>
 80080d6:	9b03      	ldr	r3, [sp, #12]
 80080d8:	1d19      	adds	r1, r3, #4
 80080da:	681b      	ldr	r3, [r3, #0]
 80080dc:	9103      	str	r1, [sp, #12]
 80080de:	2b00      	cmp	r3, #0
 80080e0:	bfbb      	ittet	lt
 80080e2:	425b      	neglt	r3, r3
 80080e4:	f042 0202 	orrlt.w	r2, r2, #2
 80080e8:	9307      	strge	r3, [sp, #28]
 80080ea:	9307      	strlt	r3, [sp, #28]
 80080ec:	bfb8      	it	lt
 80080ee:	9204      	strlt	r2, [sp, #16]
 80080f0:	7823      	ldrb	r3, [r4, #0]
 80080f2:	2b2e      	cmp	r3, #46	@ 0x2e
 80080f4:	d10a      	bne.n	800810c <_svfiprintf_r+0x130>
 80080f6:	7863      	ldrb	r3, [r4, #1]
 80080f8:	2b2a      	cmp	r3, #42	@ 0x2a
 80080fa:	d132      	bne.n	8008162 <_svfiprintf_r+0x186>
 80080fc:	9b03      	ldr	r3, [sp, #12]
 80080fe:	1d1a      	adds	r2, r3, #4
 8008100:	681b      	ldr	r3, [r3, #0]
 8008102:	9203      	str	r2, [sp, #12]
 8008104:	ea43 73e3 	orr.w	r3, r3, r3, asr #31
 8008108:	3402      	adds	r4, #2
 800810a:	9305      	str	r3, [sp, #20]
 800810c:	f8df a0c0 	ldr.w	sl, [pc, #192]	@ 80081d0 <_svfiprintf_r+0x1f4>
 8008110:	7821      	ldrb	r1, [r4, #0]
 8008112:	2203      	movs	r2, #3
 8008114:	4650      	mov	r0, sl
 8008116:	f7f8 f85b 	bl	80001d0 <memchr>
 800811a:	b138      	cbz	r0, 800812c <_svfiprintf_r+0x150>
 800811c:	9b04      	ldr	r3, [sp, #16]
 800811e:	eba0 000a 	sub.w	r0, r0, sl
 8008122:	2240      	movs	r2, #64	@ 0x40
 8008124:	4082      	lsls	r2, r0
 8008126:	4313      	orrs	r3, r2
 8008128:	3401      	adds	r4, #1
 800812a:	9304      	str	r3, [sp, #16]
 800812c:	f814 1b01 	ldrb.w	r1, [r4], #1
 8008130:	4824      	ldr	r0, [pc, #144]	@ (80081c4 <_svfiprintf_r+0x1e8>)
 8008132:	f88d 1028 	strb.w	r1, [sp, #40]	@ 0x28
 8008136:	2206      	movs	r2, #6
 8008138:	f7f8 f84a 	bl	80001d0 <memchr>
 800813c:	2800      	cmp	r0, #0
 800813e:	d036      	beq.n	80081ae <_svfiprintf_r+0x1d2>
 8008140:	4b21      	ldr	r3, [pc, #132]	@ (80081c8 <_svfiprintf_r+0x1ec>)
 8008142:	bb1b      	cbnz	r3, 800818c <_svfiprintf_r+0x1b0>
 8008144:	9b03      	ldr	r3, [sp, #12]
 8008146:	3307      	adds	r3, #7
 8008148:	f023 0307 	bic.w	r3, r3, #7
 800814c:	3308      	adds	r3, #8
 800814e:	9303      	str	r3, [sp, #12]
 8008150:	9b09      	ldr	r3, [sp, #36]	@ 0x24
 8008152:	4433      	add	r3, r6
 8008154:	9309      	str	r3, [sp, #36]	@ 0x24
 8008156:	e76a      	b.n	800802e <_svfiprintf_r+0x52>
 8008158:	fb0c 3202 	mla	r2, ip, r2, r3
 800815c:	460c      	mov	r4, r1
 800815e:	2001      	movs	r0, #1
 8008160:	e7a8      	b.n	80080b4 <_svfiprintf_r+0xd8>
 8008162:	2300      	movs	r3, #0
 8008164:	3401      	adds	r4, #1
 8008166:	9305      	str	r3, [sp, #20]
 8008168:	4619      	mov	r1, r3
 800816a:	f04f 0c0a 	mov.w	ip, #10
 800816e:	4620      	mov	r0, r4
 8008170:	f810 2b01 	ldrb.w	r2, [r0], #1
 8008174:	3a30      	subs	r2, #48	@ 0x30
 8008176:	2a09      	cmp	r2, #9
 8008178:	d903      	bls.n	8008182 <_svfiprintf_r+0x1a6>
 800817a:	2b00      	cmp	r3, #0
 800817c:	d0c6      	beq.n	800810c <_svfiprintf_r+0x130>
 800817e:	9105      	str	r1, [sp, #20]
 8008180:	e7c4      	b.n	800810c <_svfiprintf_r+0x130>
 8008182:	fb0c 2101 	mla	r1, ip, r1, r2
 8008186:	4604      	mov	r4, r0
 8008188:	2301      	movs	r3, #1
 800818a:	e7f0      	b.n	800816e <_svfiprintf_r+0x192>
 800818c:	ab03      	add	r3, sp, #12
 800818e:	9300      	str	r3, [sp, #0]
 8008190:	462a      	mov	r2, r5
 8008192:	4b0e      	ldr	r3, [pc, #56]	@ (80081cc <_svfiprintf_r+0x1f0>)
 8008194:	a904      	add	r1, sp, #16
 8008196:	4638      	mov	r0, r7
 8008198:	f7fd fe96 	bl	8005ec8 <_printf_float>
 800819c:	1c42      	adds	r2, r0, #1
 800819e:	4606      	mov	r6, r0
 80081a0:	d1d6      	bne.n	8008150 <_svfiprintf_r+0x174>
 80081a2:	89ab      	ldrh	r3, [r5, #12]
 80081a4:	065b      	lsls	r3, r3, #25
 80081a6:	f53f af2d 	bmi.w	8008004 <_svfiprintf_r+0x28>
 80081aa:	9809      	ldr	r0, [sp, #36]	@ 0x24
 80081ac:	e72c      	b.n	8008008 <_svfiprintf_r+0x2c>
 80081ae:	ab03      	add	r3, sp, #12
 80081b0:	9300      	str	r3, [sp, #0]
 80081b2:	462a      	mov	r2, r5
 80081b4:	4b05      	ldr	r3, [pc, #20]	@ (80081cc <_svfiprintf_r+0x1f0>)
 80081b6:	a904      	add	r1, sp, #16
 80081b8:	4638      	mov	r0, r7
 80081ba:	f7fe f91d 	bl	80063f8 <_printf_i>
 80081be:	e7ed      	b.n	800819c <_svfiprintf_r+0x1c0>
 80081c0:	08008c70 	.word	0x08008c70
 80081c4:	08008c7a 	.word	0x08008c7a
 80081c8:	08005ec9 	.word	0x08005ec9
 80081cc:	08007f25 	.word	0x08007f25
 80081d0:	08008c76 	.word	0x08008c76

080081d4 <__sflush_r>:
 80081d4:	f9b1 200c 	ldrsh.w	r2, [r1, #12]
 80081d8:	e92d 41f0 	stmdb	sp!, {r4, r5, r6, r7, r8, lr}
 80081dc:	0716      	lsls	r6, r2, #28
 80081de:	4605      	mov	r5, r0
 80081e0:	460c      	mov	r4, r1
 80081e2:	d454      	bmi.n	800828e <__sflush_r+0xba>
 80081e4:	684b      	ldr	r3, [r1, #4]
 80081e6:	2b00      	cmp	r3, #0
 80081e8:	dc02      	bgt.n	80081f0 <__sflush_r+0x1c>
 80081ea:	6c0b      	ldr	r3, [r1, #64]	@ 0x40
 80081ec:	2b00      	cmp	r3, #0
 80081ee:	dd48      	ble.n	8008282 <__sflush_r+0xae>
 80081f0:	6ae6      	ldr	r6, [r4, #44]	@ 0x2c
 80081f2:	2e00      	cmp	r6, #0
 80081f4:	d045      	beq.n	8008282 <__sflush_r+0xae>
 80081f6:	2300      	movs	r3, #0
 80081f8:	f412 5280 	ands.w	r2, r2, #4096	@ 0x1000
 80081fc:	682f      	ldr	r7, [r5, #0]
 80081fe:	6a21      	ldr	r1, [r4, #32]
 8008200:	602b      	str	r3, [r5, #0]
 8008202:	d030      	beq.n	8008266 <__sflush_r+0x92>
 8008204:	6d62      	ldr	r2, [r4, #84]	@ 0x54
 8008206:	89a3      	ldrh	r3, [r4, #12]
 8008208:	0759      	lsls	r1, r3, #29
 800820a:	d505      	bpl.n	8008218 <__sflush_r+0x44>
 800820c:	6863      	ldr	r3, [r4, #4]
 800820e:	1ad2      	subs	r2, r2, r3
 8008210:	6b63      	ldr	r3, [r4, #52]	@ 0x34
 8008212:	b10b      	cbz	r3, 8008218 <__sflush_r+0x44>
 8008214:	6c23      	ldr	r3, [r4, #64]	@ 0x40
 8008216:	1ad2      	subs	r2, r2, r3
 8008218:	2300      	movs	r3, #0
 800821a:	6ae6      	ldr	r6, [r4, #44]	@ 0x2c
 800821c:	6a21      	ldr	r1, [r4, #32]
 800821e:	4628      	mov	r0, r5
 8008220:	47b0      	blx	r6
 8008222:	1c43      	adds	r3, r0, #1
 8008224:	89a3      	ldrh	r3, [r4, #12]
 8008226:	d106      	bne.n	8008236 <__sflush_r+0x62>
 8008228:	6829      	ldr	r1, [r5, #0]
 800822a:	291d      	cmp	r1, #29
 800822c:	d82b      	bhi.n	8008286 <__sflush_r+0xb2>
 800822e:	4a2a      	ldr	r2, [pc, #168]	@ (80082d8 <__sflush_r+0x104>)
 8008230:	410a      	asrs	r2, r1
 8008232:	07d6      	lsls	r6, r2, #31
 8008234:	d427      	bmi.n	8008286 <__sflush_r+0xb2>
 8008236:	2200      	movs	r2, #0
 8008238:	6062      	str	r2, [r4, #4]
 800823a:	04d9      	lsls	r1, r3, #19
 800823c:	6922      	ldr	r2, [r4, #16]
 800823e:	6022      	str	r2, [r4, #0]
 8008240:	d504      	bpl.n	800824c <__sflush_r+0x78>
 8008242:	1c42      	adds	r2, r0, #1
 8008244:	d101      	bne.n	800824a <__sflush_r+0x76>
 8008246:	682b      	ldr	r3, [r5, #0]
 8008248:	b903      	cbnz	r3, 800824c <__sflush_r+0x78>
 800824a:	6560      	str	r0, [r4, #84]	@ 0x54
 800824c:	6b61      	ldr	r1, [r4, #52]	@ 0x34
 800824e:	602f      	str	r7, [r5, #0]
 8008250:	b1b9      	cbz	r1, 8008282 <__sflush_r+0xae>
 8008252:	f104 0344 	add.w	r3, r4, #68	@ 0x44
 8008256:	4299      	cmp	r1, r3
 8008258:	d002      	beq.n	8008260 <__sflush_r+0x8c>
 800825a:	4628      	mov	r0, r5
 800825c:	f7ff f9e0 	bl	8007620 <_free_r>
 8008260:	2300      	movs	r3, #0
 8008262:	6363      	str	r3, [r4, #52]	@ 0x34
 8008264:	e00d      	b.n	8008282 <__sflush_r+0xae>
 8008266:	2301      	movs	r3, #1
 8008268:	4628      	mov	r0, r5
 800826a:	47b0      	blx	r6
 800826c:	4602      	mov	r2, r0
 800826e:	1c50      	adds	r0, r2, #1
 8008270:	d1c9      	bne.n	8008206 <__sflush_r+0x32>
 8008272:	682b      	ldr	r3, [r5, #0]
 8008274:	2b00      	cmp	r3, #0
 8008276:	d0c6      	beq.n	8008206 <__sflush_r+0x32>
 8008278:	2b1d      	cmp	r3, #29
 800827a:	d001      	beq.n	8008280 <__sflush_r+0xac>
 800827c:	2b16      	cmp	r3, #22
 800827e:	d11e      	bne.n	80082be <__sflush_r+0xea>
 8008280:	602f      	str	r7, [r5, #0]
 8008282:	2000      	movs	r0, #0
 8008284:	e022      	b.n	80082cc <__sflush_r+0xf8>
 8008286:	f043 0340 	orr.w	r3, r3, #64	@ 0x40
 800828a:	b21b      	sxth	r3, r3
 800828c:	e01b      	b.n	80082c6 <__sflush_r+0xf2>
 800828e:	690f      	ldr	r7, [r1, #16]
 8008290:	2f00      	cmp	r7, #0
 8008292:	d0f6      	beq.n	8008282 <__sflush_r+0xae>
 8008294:	0793      	lsls	r3, r2, #30
 8008296:	680e      	ldr	r6, [r1, #0]
 8008298:	bf08      	it	eq
 800829a:	694b      	ldreq	r3, [r1, #20]
 800829c:	600f      	str	r7, [r1, #0]
 800829e:	bf18      	it	ne
 80082a0:	2300      	movne	r3, #0
 80082a2:	eba6 0807 	sub.w	r8, r6, r7
 80082a6:	608b      	str	r3, [r1, #8]
 80082a8:	f1b8 0f00 	cmp.w	r8, #0
 80082ac:	dde9      	ble.n	8008282 <__sflush_r+0xae>
 80082ae:	6a21      	ldr	r1, [r4, #32]
 80082b0:	6aa6      	ldr	r6, [r4, #40]	@ 0x28
 80082b2:	4643      	mov	r3, r8
 80082b4:	463a      	mov	r2, r7
 80082b6:	4628      	mov	r0, r5
 80082b8:	47b0      	blx	r6
 80082ba:	2800      	cmp	r0, #0
 80082bc:	dc08      	bgt.n	80082d0 <__sflush_r+0xfc>
 80082be:	f9b4 300c 	ldrsh.w	r3, [r4, #12]
 80082c2:	f043 0340 	orr.w	r3, r3, #64	@ 0x40
 80082c6:	81a3      	strh	r3, [r4, #12]
 80082c8:	f04f 30ff 	mov.w	r0, #4294967295
 80082cc:	e8bd 81f0 	ldmia.w	sp!, {r4, r5, r6, r7, r8, pc}
 80082d0:	4407      	add	r7, r0
 80082d2:	eba8 0800 	sub.w	r8, r8, r0
 80082d6:	e7e7      	b.n	80082a8 <__sflush_r+0xd4>
 80082d8:	dfbffffe 	.word	0xdfbffffe

080082dc <_fflush_r>:
 80082dc:	b538      	push	{r3, r4, r5, lr}
 80082de:	690b      	ldr	r3, [r1, #16]
 80082e0:	4605      	mov	r5, r0
 80082e2:	460c      	mov	r4, r1
 80082e4:	b913      	cbnz	r3, 80082ec <_fflush_r+0x10>
 80082e6:	2500      	movs	r5, #0
 80082e8:	4628      	mov	r0, r5
 80082ea:	bd38      	pop	{r3, r4, r5, pc}
 80082ec:	b118      	cbz	r0, 80082f6 <_fflush_r+0x1a>
 80082ee:	6a03      	ldr	r3, [r0, #32]
 80082f0:	b90b      	cbnz	r3, 80082f6 <_fflush_r+0x1a>
 80082f2:	f7fe fa2d 	bl	8006750 <__sinit>
 80082f6:	f9b4 300c 	ldrsh.w	r3, [r4, #12]
 80082fa:	2b00      	cmp	r3, #0
 80082fc:	d0f3      	beq.n	80082e6 <_fflush_r+0xa>
 80082fe:	6e62      	ldr	r2, [r4, #100]	@ 0x64
 8008300:	07d0      	lsls	r0, r2, #31
 8008302:	d404      	bmi.n	800830e <_fflush_r+0x32>
 8008304:	0599      	lsls	r1, r3, #22
 8008306:	d402      	bmi.n	800830e <_fflush_r+0x32>
 8008308:	6da0      	ldr	r0, [r4, #88]	@ 0x58
 800830a:	f7fe fb38 	bl	800697e <__retarget_lock_acquire_recursive>
 800830e:	4628      	mov	r0, r5
 8008310:	4621      	mov	r1, r4
 8008312:	f7ff ff5f 	bl	80081d4 <__sflush_r>
 8008316:	6e63      	ldr	r3, [r4, #100]	@ 0x64
 8008318:	07da      	lsls	r2, r3, #31
 800831a:	4605      	mov	r5, r0
 800831c:	d4e4      	bmi.n	80082e8 <_fflush_r+0xc>
 800831e:	89a3      	ldrh	r3, [r4, #12]
 8008320:	059b      	lsls	r3, r3, #22
 8008322:	d4e1      	bmi.n	80082e8 <_fflush_r+0xc>
 8008324:	6da0      	ldr	r0, [r4, #88]	@ 0x58
 8008326:	f7fe fb2b 	bl	8006980 <__retarget_lock_release_recursive>
 800832a:	e7dd      	b.n	80082e8 <_fflush_r+0xc>

0800832c <memmove>:
 800832c:	4288      	cmp	r0, r1
 800832e:	b510      	push	{r4, lr}
 8008330:	eb01 0402 	add.w	r4, r1, r2
 8008334:	d902      	bls.n	800833c <memmove+0x10>
 8008336:	4284      	cmp	r4, r0
 8008338:	4623      	mov	r3, r4
 800833a:	d807      	bhi.n	800834c <memmove+0x20>
 800833c:	1e43      	subs	r3, r0, #1
 800833e:	42a1      	cmp	r1, r4
 8008340:	d008      	beq.n	8008354 <memmove+0x28>
 8008342:	f811 2b01 	ldrb.w	r2, [r1], #1
 8008346:	f803 2f01 	strb.w	r2, [r3, #1]!
 800834a:	e7f8      	b.n	800833e <memmove+0x12>
 800834c:	4402      	add	r2, r0
 800834e:	4601      	mov	r1, r0
 8008350:	428a      	cmp	r2, r1
 8008352:	d100      	bne.n	8008356 <memmove+0x2a>
 8008354:	bd10      	pop	{r4, pc}
 8008356:	f813 4d01 	ldrb.w	r4, [r3, #-1]!
 800835a:	f802 4d01 	strb.w	r4, [r2, #-1]!
 800835e:	e7f7      	b.n	8008350 <memmove+0x24>

08008360 <_sbrk_r>:
 8008360:	b538      	push	{r3, r4, r5, lr}
 8008362:	4d06      	ldr	r5, [pc, #24]	@ (800837c <_sbrk_r+0x1c>)
 8008364:	2300      	movs	r3, #0
 8008366:	4604      	mov	r4, r0
 8008368:	4608      	mov	r0, r1
 800836a:	602b      	str	r3, [r5, #0]
 800836c:	f7fa f80c 	bl	8002388 <_sbrk>
 8008370:	1c43      	adds	r3, r0, #1
 8008372:	d102      	bne.n	800837a <_sbrk_r+0x1a>
 8008374:	682b      	ldr	r3, [r5, #0]
 8008376:	b103      	cbz	r3, 800837a <_sbrk_r+0x1a>
 8008378:	6023      	str	r3, [r4, #0]
 800837a:	bd38      	pop	{r3, r4, r5, pc}
 800837c:	200004cc 	.word	0x200004cc

08008380 <memcpy>:
 8008380:	440a      	add	r2, r1
 8008382:	4291      	cmp	r1, r2
 8008384:	f100 33ff 	add.w	r3, r0, #4294967295
 8008388:	d100      	bne.n	800838c <memcpy+0xc>
 800838a:	4770      	bx	lr
 800838c:	b510      	push	{r4, lr}
 800838e:	f811 4b01 	ldrb.w	r4, [r1], #1
 8008392:	f803 4f01 	strb.w	r4, [r3, #1]!
 8008396:	4291      	cmp	r1, r2
 8008398:	d1f9      	bne.n	800838e <memcpy+0xe>
 800839a:	bd10      	pop	{r4, pc}

0800839c <__assert_func>:
 800839c:	b51f      	push	{r0, r1, r2, r3, r4, lr}
 800839e:	4614      	mov	r4, r2
 80083a0:	461a      	mov	r2, r3
 80083a2:	4b09      	ldr	r3, [pc, #36]	@ (80083c8 <__assert_func+0x2c>)
 80083a4:	681b      	ldr	r3, [r3, #0]
 80083a6:	4605      	mov	r5, r0
 80083a8:	68d8      	ldr	r0, [r3, #12]
 80083aa:	b954      	cbnz	r4, 80083c2 <__assert_func+0x26>
 80083ac:	4b07      	ldr	r3, [pc, #28]	@ (80083cc <__assert_func+0x30>)
 80083ae:	461c      	mov	r4, r3
 80083b0:	e9cd 3401 	strd	r3, r4, [sp, #4]
 80083b4:	9100      	str	r1, [sp, #0]
 80083b6:	462b      	mov	r3, r5
 80083b8:	4905      	ldr	r1, [pc, #20]	@ (80083d0 <__assert_func+0x34>)
 80083ba:	f000 f86f 	bl	800849c <fiprintf>
 80083be:	f000 f87f 	bl	80084c0 <abort>
 80083c2:	4b04      	ldr	r3, [pc, #16]	@ (80083d4 <__assert_func+0x38>)
 80083c4:	e7f4      	b.n	80083b0 <__assert_func+0x14>
 80083c6:	bf00      	nop
 80083c8:	20000024 	.word	0x20000024
 80083cc:	08008cc6 	.word	0x08008cc6
 80083d0:	08008c98 	.word	0x08008c98
 80083d4:	08008c8b 	.word	0x08008c8b

080083d8 <_calloc_r>:
 80083d8:	b570      	push	{r4, r5, r6, lr}
 80083da:	fba1 5402 	umull	r5, r4, r1, r2
 80083de:	b93c      	cbnz	r4, 80083f0 <_calloc_r+0x18>
 80083e0:	4629      	mov	r1, r5
 80083e2:	f7ff f991 	bl	8007708 <_malloc_r>
 80083e6:	4606      	mov	r6, r0
 80083e8:	b928      	cbnz	r0, 80083f6 <_calloc_r+0x1e>
 80083ea:	2600      	movs	r6, #0
 80083ec:	4630      	mov	r0, r6
 80083ee:	bd70      	pop	{r4, r5, r6, pc}
 80083f0:	220c      	movs	r2, #12
 80083f2:	6002      	str	r2, [r0, #0]
 80083f4:	e7f9      	b.n	80083ea <_calloc_r+0x12>
 80083f6:	462a      	mov	r2, r5
 80083f8:	4621      	mov	r1, r4
 80083fa:	f7fe fa42 	bl	8006882 <memset>
 80083fe:	e7f5      	b.n	80083ec <_calloc_r+0x14>

08008400 <__ascii_mbtowc>:
 8008400:	b082      	sub	sp, #8
 8008402:	b901      	cbnz	r1, 8008406 <__ascii_mbtowc+0x6>
 8008404:	a901      	add	r1, sp, #4
 8008406:	b142      	cbz	r2, 800841a <__ascii_mbtowc+0x1a>
 8008408:	b14b      	cbz	r3, 800841e <__ascii_mbtowc+0x1e>
 800840a:	7813      	ldrb	r3, [r2, #0]
 800840c:	600b      	str	r3, [r1, #0]
 800840e:	7812      	ldrb	r2, [r2, #0]
 8008410:	1e10      	subs	r0, r2, #0
 8008412:	bf18      	it	ne
 8008414:	2001      	movne	r0, #1
 8008416:	b002      	add	sp, #8
 8008418:	4770      	bx	lr
 800841a:	4610      	mov	r0, r2
 800841c:	e7fb      	b.n	8008416 <__ascii_mbtowc+0x16>
 800841e:	f06f 0001 	mvn.w	r0, #1
 8008422:	e7f8      	b.n	8008416 <__ascii_mbtowc+0x16>

08008424 <_realloc_r>:
 8008424:	e92d 41f0 	stmdb	sp!, {r4, r5, r6, r7, r8, lr}
 8008428:	4680      	mov	r8, r0
 800842a:	4615      	mov	r5, r2
 800842c:	460c      	mov	r4, r1
 800842e:	b921      	cbnz	r1, 800843a <_realloc_r+0x16>
 8008430:	e8bd 41f0 	ldmia.w	sp!, {r4, r5, r6, r7, r8, lr}
 8008434:	4611      	mov	r1, r2
 8008436:	f7ff b967 	b.w	8007708 <_malloc_r>
 800843a:	b92a      	cbnz	r2, 8008448 <_realloc_r+0x24>
 800843c:	f7ff f8f0 	bl	8007620 <_free_r>
 8008440:	2400      	movs	r4, #0
 8008442:	4620      	mov	r0, r4
 8008444:	e8bd 81f0 	ldmia.w	sp!, {r4, r5, r6, r7, r8, pc}
 8008448:	f000 f841 	bl	80084ce <_malloc_usable_size_r>
 800844c:	4285      	cmp	r5, r0
 800844e:	4606      	mov	r6, r0
 8008450:	d802      	bhi.n	8008458 <_realloc_r+0x34>
 8008452:	ebb5 0f50 	cmp.w	r5, r0, lsr #1
 8008456:	d8f4      	bhi.n	8008442 <_realloc_r+0x1e>
 8008458:	4629      	mov	r1, r5
 800845a:	4640      	mov	r0, r8
 800845c:	f7ff f954 	bl	8007708 <_malloc_r>
 8008460:	4607      	mov	r7, r0
 8008462:	2800      	cmp	r0, #0
 8008464:	d0ec      	beq.n	8008440 <_realloc_r+0x1c>
 8008466:	42b5      	cmp	r5, r6
 8008468:	462a      	mov	r2, r5
 800846a:	4621      	mov	r1, r4
 800846c:	bf28      	it	cs
 800846e:	4632      	movcs	r2, r6
 8008470:	f7ff ff86 	bl	8008380 <memcpy>
 8008474:	4621      	mov	r1, r4
 8008476:	4640      	mov	r0, r8
 8008478:	f7ff f8d2 	bl	8007620 <_free_r>
 800847c:	463c      	mov	r4, r7
 800847e:	e7e0      	b.n	8008442 <_realloc_r+0x1e>

08008480 <__ascii_wctomb>:
 8008480:	4603      	mov	r3, r0
 8008482:	4608      	mov	r0, r1
 8008484:	b141      	cbz	r1, 8008498 <__ascii_wctomb+0x18>
 8008486:	2aff      	cmp	r2, #255	@ 0xff
 8008488:	d904      	bls.n	8008494 <__ascii_wctomb+0x14>
 800848a:	228a      	movs	r2, #138	@ 0x8a
 800848c:	601a      	str	r2, [r3, #0]
 800848e:	f04f 30ff 	mov.w	r0, #4294967295
 8008492:	4770      	bx	lr
 8008494:	700a      	strb	r2, [r1, #0]
 8008496:	2001      	movs	r0, #1
 8008498:	4770      	bx	lr
	...

0800849c <fiprintf>:
 800849c:	b40e      	push	{r1, r2, r3}
 800849e:	b503      	push	{r0, r1, lr}
 80084a0:	4601      	mov	r1, r0
 80084a2:	ab03      	add	r3, sp, #12
 80084a4:	4805      	ldr	r0, [pc, #20]	@ (80084bc <fiprintf+0x20>)
 80084a6:	f853 2b04 	ldr.w	r2, [r3], #4
 80084aa:	6800      	ldr	r0, [r0, #0]
 80084ac:	9301      	str	r3, [sp, #4]
 80084ae:	f000 f83f 	bl	8008530 <_vfiprintf_r>
 80084b2:	b002      	add	sp, #8
 80084b4:	f85d eb04 	ldr.w	lr, [sp], #4
 80084b8:	b003      	add	sp, #12
 80084ba:	4770      	bx	lr
 80084bc:	20000024 	.word	0x20000024

080084c0 <abort>:
 80084c0:	b508      	push	{r3, lr}
 80084c2:	2006      	movs	r0, #6
 80084c4:	f000 fa08 	bl	80088d8 <raise>
 80084c8:	2001      	movs	r0, #1
 80084ca:	f7f9 fee5 	bl	8002298 <_exit>

080084ce <_malloc_usable_size_r>:
 80084ce:	f851 3c04 	ldr.w	r3, [r1, #-4]
 80084d2:	1f18      	subs	r0, r3, #4
 80084d4:	2b00      	cmp	r3, #0
 80084d6:	bfbc      	itt	lt
 80084d8:	580b      	ldrlt	r3, [r1, r0]
 80084da:	18c0      	addlt	r0, r0, r3
 80084dc:	4770      	bx	lr

080084de <__sfputc_r>:
 80084de:	6893      	ldr	r3, [r2, #8]
 80084e0:	3b01      	subs	r3, #1
 80084e2:	2b00      	cmp	r3, #0
 80084e4:	b410      	push	{r4}
 80084e6:	6093      	str	r3, [r2, #8]
 80084e8:	da08      	bge.n	80084fc <__sfputc_r+0x1e>
 80084ea:	6994      	ldr	r4, [r2, #24]
 80084ec:	42a3      	cmp	r3, r4
 80084ee:	db01      	blt.n	80084f4 <__sfputc_r+0x16>
 80084f0:	290a      	cmp	r1, #10
 80084f2:	d103      	bne.n	80084fc <__sfputc_r+0x1e>
 80084f4:	f85d 4b04 	ldr.w	r4, [sp], #4
 80084f8:	f000 b932 	b.w	8008760 <__swbuf_r>
 80084fc:	6813      	ldr	r3, [r2, #0]
 80084fe:	1c58      	adds	r0, r3, #1
 8008500:	6010      	str	r0, [r2, #0]
 8008502:	7019      	strb	r1, [r3, #0]
 8008504:	4608      	mov	r0, r1
 8008506:	f85d 4b04 	ldr.w	r4, [sp], #4
 800850a:	4770      	bx	lr

0800850c <__sfputs_r>:
 800850c:	b5f8      	push	{r3, r4, r5, r6, r7, lr}
 800850e:	4606      	mov	r6, r0
 8008510:	460f      	mov	r7, r1
 8008512:	4614      	mov	r4, r2
 8008514:	18d5      	adds	r5, r2, r3
 8008516:	42ac      	cmp	r4, r5
 8008518:	d101      	bne.n	800851e <__sfputs_r+0x12>
 800851a:	2000      	movs	r0, #0
 800851c:	e007      	b.n	800852e <__sfputs_r+0x22>
 800851e:	f814 1b01 	ldrb.w	r1, [r4], #1
 8008522:	463a      	mov	r2, r7
 8008524:	4630      	mov	r0, r6
 8008526:	f7ff ffda 	bl	80084de <__sfputc_r>
 800852a:	1c43      	adds	r3, r0, #1
 800852c:	d1f3      	bne.n	8008516 <__sfputs_r+0xa>
 800852e:	bdf8      	pop	{r3, r4, r5, r6, r7, pc}

08008530 <_vfiprintf_r>:
 8008530:	e92d 4ff0 	stmdb	sp!, {r4, r5, r6, r7, r8, r9, sl, fp, lr}
 8008534:	460d      	mov	r5, r1
 8008536:	b09d      	sub	sp, #116	@ 0x74
 8008538:	4614      	mov	r4, r2
 800853a:	4698      	mov	r8, r3
 800853c:	4606      	mov	r6, r0
 800853e:	b118      	cbz	r0, 8008548 <_vfiprintf_r+0x18>
 8008540:	6a03      	ldr	r3, [r0, #32]
 8008542:	b90b      	cbnz	r3, 8008548 <_vfiprintf_r+0x18>
 8008544:	f7fe f904 	bl	8006750 <__sinit>
 8008548:	6e6b      	ldr	r3, [r5, #100]	@ 0x64
 800854a:	07d9      	lsls	r1, r3, #31
 800854c:	d405      	bmi.n	800855a <_vfiprintf_r+0x2a>
 800854e:	89ab      	ldrh	r3, [r5, #12]
 8008550:	059a      	lsls	r2, r3, #22
 8008552:	d402      	bmi.n	800855a <_vfiprintf_r+0x2a>
 8008554:	6da8      	ldr	r0, [r5, #88]	@ 0x58
 8008556:	f7fe fa12 	bl	800697e <__retarget_lock_acquire_recursive>
 800855a:	89ab      	ldrh	r3, [r5, #12]
 800855c:	071b      	lsls	r3, r3, #28
 800855e:	d501      	bpl.n	8008564 <_vfiprintf_r+0x34>
 8008560:	692b      	ldr	r3, [r5, #16]
 8008562:	b99b      	cbnz	r3, 800858c <_vfiprintf_r+0x5c>
 8008564:	4629      	mov	r1, r5
 8008566:	4630      	mov	r0, r6
 8008568:	f000 f938 	bl	80087dc <__swsetup_r>
 800856c:	b170      	cbz	r0, 800858c <_vfiprintf_r+0x5c>
 800856e:	6e6b      	ldr	r3, [r5, #100]	@ 0x64
 8008570:	07dc      	lsls	r4, r3, #31
 8008572:	d504      	bpl.n	800857e <_vfiprintf_r+0x4e>
 8008574:	f04f 30ff 	mov.w	r0, #4294967295
 8008578:	b01d      	add	sp, #116	@ 0x74
 800857a:	e8bd 8ff0 	ldmia.w	sp!, {r4, r5, r6, r7, r8, r9, sl, fp, pc}
 800857e:	89ab      	ldrh	r3, [r5, #12]
 8008580:	0598      	lsls	r0, r3, #22
 8008582:	d4f7      	bmi.n	8008574 <_vfiprintf_r+0x44>
 8008584:	6da8      	ldr	r0, [r5, #88]	@ 0x58
 8008586:	f7fe f9fb 	bl	8006980 <__retarget_lock_release_recursive>
 800858a:	e7f3      	b.n	8008574 <_vfiprintf_r+0x44>
 800858c:	2300      	movs	r3, #0
 800858e:	9309      	str	r3, [sp, #36]	@ 0x24
 8008590:	2320      	movs	r3, #32
 8008592:	f88d 3029 	strb.w	r3, [sp, #41]	@ 0x29
 8008596:	f8cd 800c 	str.w	r8, [sp, #12]
 800859a:	2330      	movs	r3, #48	@ 0x30
 800859c:	f8df 81ac 	ldr.w	r8, [pc, #428]	@ 800874c <_vfiprintf_r+0x21c>
 80085a0:	f88d 302a 	strb.w	r3, [sp, #42]	@ 0x2a
 80085a4:	f04f 0901 	mov.w	r9, #1
 80085a8:	4623      	mov	r3, r4
 80085aa:	469a      	mov	sl, r3
 80085ac:	f813 2b01 	ldrb.w	r2, [r3], #1
 80085b0:	b10a      	cbz	r2, 80085b6 <_vfiprintf_r+0x86>
 80085b2:	2a25      	cmp	r2, #37	@ 0x25
 80085b4:	d1f9      	bne.n	80085aa <_vfiprintf_r+0x7a>
 80085b6:	ebba 0b04 	subs.w	fp, sl, r4
 80085ba:	d00b      	beq.n	80085d4 <_vfiprintf_r+0xa4>
 80085bc:	465b      	mov	r3, fp
 80085be:	4622      	mov	r2, r4
 80085c0:	4629      	mov	r1, r5
 80085c2:	4630      	mov	r0, r6
 80085c4:	f7ff ffa2 	bl	800850c <__sfputs_r>
 80085c8:	3001      	adds	r0, #1
 80085ca:	f000 80a7 	beq.w	800871c <_vfiprintf_r+0x1ec>
 80085ce:	9a09      	ldr	r2, [sp, #36]	@ 0x24
 80085d0:	445a      	add	r2, fp
 80085d2:	9209      	str	r2, [sp, #36]	@ 0x24
 80085d4:	f89a 3000 	ldrb.w	r3, [sl]
 80085d8:	2b00      	cmp	r3, #0
 80085da:	f000 809f 	beq.w	800871c <_vfiprintf_r+0x1ec>
 80085de:	2300      	movs	r3, #0
 80085e0:	f04f 32ff 	mov.w	r2, #4294967295
 80085e4:	e9cd 2305 	strd	r2, r3, [sp, #20]
 80085e8:	f10a 0a01 	add.w	sl, sl, #1
 80085ec:	9304      	str	r3, [sp, #16]
 80085ee:	9307      	str	r3, [sp, #28]
 80085f0:	f88d 3053 	strb.w	r3, [sp, #83]	@ 0x53
 80085f4:	931a      	str	r3, [sp, #104]	@ 0x68
 80085f6:	4654      	mov	r4, sl
 80085f8:	2205      	movs	r2, #5
 80085fa:	f814 1b01 	ldrb.w	r1, [r4], #1
 80085fe:	4853      	ldr	r0, [pc, #332]	@ (800874c <_vfiprintf_r+0x21c>)
 8008600:	f7f7 fde6 	bl	80001d0 <memchr>
 8008604:	9a04      	ldr	r2, [sp, #16]
 8008606:	b9d8      	cbnz	r0, 8008640 <_vfiprintf_r+0x110>
 8008608:	06d1      	lsls	r1, r2, #27
 800860a:	bf44      	itt	mi
 800860c:	2320      	movmi	r3, #32
 800860e:	f88d 3053 	strbmi.w	r3, [sp, #83]	@ 0x53
 8008612:	0713      	lsls	r3, r2, #28
 8008614:	bf44      	itt	mi
 8008616:	232b      	movmi	r3, #43	@ 0x2b
 8008618:	f88d 3053 	strbmi.w	r3, [sp, #83]	@ 0x53
 800861c:	f89a 3000 	ldrb.w	r3, [sl]
 8008620:	2b2a      	cmp	r3, #42	@ 0x2a
 8008622:	d015      	beq.n	8008650 <_vfiprintf_r+0x120>
 8008624:	9a07      	ldr	r2, [sp, #28]
 8008626:	4654      	mov	r4, sl
 8008628:	2000      	movs	r0, #0
 800862a:	f04f 0c0a 	mov.w	ip, #10
 800862e:	4621      	mov	r1, r4
 8008630:	f811 3b01 	ldrb.w	r3, [r1], #1
 8008634:	3b30      	subs	r3, #48	@ 0x30
 8008636:	2b09      	cmp	r3, #9
 8008638:	d94b      	bls.n	80086d2 <_vfiprintf_r+0x1a2>
 800863a:	b1b0      	cbz	r0, 800866a <_vfiprintf_r+0x13a>
 800863c:	9207      	str	r2, [sp, #28]
 800863e:	e014      	b.n	800866a <_vfiprintf_r+0x13a>
 8008640:	eba0 0308 	sub.w	r3, r0, r8
 8008644:	fa09 f303 	lsl.w	r3, r9, r3
 8008648:	4313      	orrs	r3, r2
 800864a:	9304      	str	r3, [sp, #16]
 800864c:	46a2      	mov	sl, r4
 800864e:	e7d2      	b.n	80085f6 <_vfiprintf_r+0xc6>
 8008650:	9b03      	ldr	r3, [sp, #12]
 8008652:	1d19      	adds	r1, r3, #4
 8008654:	681b      	ldr	r3, [r3, #0]
 8008656:	9103      	str	r1, [sp, #12]
 8008658:	2b00      	cmp	r3, #0
 800865a:	bfbb      	ittet	lt
 800865c:	425b      	neglt	r3, r3
 800865e:	f042 0202 	orrlt.w	r2, r2, #2
 8008662:	9307      	strge	r3, [sp, #28]
 8008664:	9307      	strlt	r3, [sp, #28]
 8008666:	bfb8      	it	lt
 8008668:	9204      	strlt	r2, [sp, #16]
 800866a:	7823      	ldrb	r3, [r4, #0]
 800866c:	2b2e      	cmp	r3, #46	@ 0x2e
 800866e:	d10a      	bne.n	8008686 <_vfiprintf_r+0x156>
 8008670:	7863      	ldrb	r3, [r4, #1]
 8008672:	2b2a      	cmp	r3, #42	@ 0x2a
 8008674:	d132      	bne.n	80086dc <_vfiprintf_r+0x1ac>
 8008676:	9b03      	ldr	r3, [sp, #12]
 8008678:	1d1a      	adds	r2, r3, #4
 800867a:	681b      	ldr	r3, [r3, #0]
 800867c:	9203      	str	r2, [sp, #12]
 800867e:	ea43 73e3 	orr.w	r3, r3, r3, asr #31
 8008682:	3402      	adds	r4, #2
 8008684:	9305      	str	r3, [sp, #20]
 8008686:	f8df a0d4 	ldr.w	sl, [pc, #212]	@ 800875c <_vfiprintf_r+0x22c>
 800868a:	7821      	ldrb	r1, [r4, #0]
 800868c:	2203      	movs	r2, #3
 800868e:	4650      	mov	r0, sl
 8008690:	f7f7 fd9e 	bl	80001d0 <memchr>
 8008694:	b138      	cbz	r0, 80086a6 <_vfiprintf_r+0x176>
 8008696:	9b04      	ldr	r3, [sp, #16]
 8008698:	eba0 000a 	sub.w	r0, r0, sl
 800869c:	2240      	movs	r2, #64	@ 0x40
 800869e:	4082      	lsls	r2, r0
 80086a0:	4313      	orrs	r3, r2
 80086a2:	3401      	adds	r4, #1
 80086a4:	9304      	str	r3, [sp, #16]
 80086a6:	f814 1b01 	ldrb.w	r1, [r4], #1
 80086aa:	4829      	ldr	r0, [pc, #164]	@ (8008750 <_vfiprintf_r+0x220>)
 80086ac:	f88d 1028 	strb.w	r1, [sp, #40]	@ 0x28
 80086b0:	2206      	movs	r2, #6
 80086b2:	f7f7 fd8d 	bl	80001d0 <memchr>
 80086b6:	2800      	cmp	r0, #0
 80086b8:	d03f      	beq.n	800873a <_vfiprintf_r+0x20a>
 80086ba:	4b26      	ldr	r3, [pc, #152]	@ (8008754 <_vfiprintf_r+0x224>)
 80086bc:	bb1b      	cbnz	r3, 8008706 <_vfiprintf_r+0x1d6>
 80086be:	9b03      	ldr	r3, [sp, #12]
 80086c0:	3307      	adds	r3, #7
 80086c2:	f023 0307 	bic.w	r3, r3, #7
 80086c6:	3308      	adds	r3, #8
 80086c8:	9303      	str	r3, [sp, #12]
 80086ca:	9b09      	ldr	r3, [sp, #36]	@ 0x24
 80086cc:	443b      	add	r3, r7
 80086ce:	9309      	str	r3, [sp, #36]	@ 0x24
 80086d0:	e76a      	b.n	80085a8 <_vfiprintf_r+0x78>
 80086d2:	fb0c 3202 	mla	r2, ip, r2, r3
 80086d6:	460c      	mov	r4, r1
 80086d8:	2001      	movs	r0, #1
 80086da:	e7a8      	b.n	800862e <_vfiprintf_r+0xfe>
 80086dc:	2300      	movs	r3, #0
 80086de:	3401      	adds	r4, #1
 80086e0:	9305      	str	r3, [sp, #20]
 80086e2:	4619      	mov	r1, r3
 80086e4:	f04f 0c0a 	mov.w	ip, #10
 80086e8:	4620      	mov	r0, r4
 80086ea:	f810 2b01 	ldrb.w	r2, [r0], #1
 80086ee:	3a30      	subs	r2, #48	@ 0x30
 80086f0:	2a09      	cmp	r2, #9
 80086f2:	d903      	bls.n	80086fc <_vfiprintf_r+0x1cc>
 80086f4:	2b00      	cmp	r3, #0
 80086f6:	d0c6      	beq.n	8008686 <_vfiprintf_r+0x156>
 80086f8:	9105      	str	r1, [sp, #20]
 80086fa:	e7c4      	b.n	8008686 <_vfiprintf_r+0x156>
 80086fc:	fb0c 2101 	mla	r1, ip, r1, r2
 8008700:	4604      	mov	r4, r0
 8008702:	2301      	movs	r3, #1
 8008704:	e7f0      	b.n	80086e8 <_vfiprintf_r+0x1b8>
 8008706:	ab03      	add	r3, sp, #12
 8008708:	9300      	str	r3, [sp, #0]
 800870a:	462a      	mov	r2, r5
 800870c:	4b12      	ldr	r3, [pc, #72]	@ (8008758 <_vfiprintf_r+0x228>)
 800870e:	a904      	add	r1, sp, #16
 8008710:	4630      	mov	r0, r6
 8008712:	f7fd fbd9 	bl	8005ec8 <_printf_float>
 8008716:	4607      	mov	r7, r0
 8008718:	1c78      	adds	r0, r7, #1
 800871a:	d1d6      	bne.n	80086ca <_vfiprintf_r+0x19a>
 800871c:	6e6b      	ldr	r3, [r5, #100]	@ 0x64
 800871e:	07d9      	lsls	r1, r3, #31
 8008720:	d405      	bmi.n	800872e <_vfiprintf_r+0x1fe>
 8008722:	89ab      	ldrh	r3, [r5, #12]
 8008724:	059a      	lsls	r2, r3, #22
 8008726:	d402      	bmi.n	800872e <_vfiprintf_r+0x1fe>
 8008728:	6da8      	ldr	r0, [r5, #88]	@ 0x58
 800872a:	f7fe f929 	bl	8006980 <__retarget_lock_release_recursive>
 800872e:	89ab      	ldrh	r3, [r5, #12]
 8008730:	065b      	lsls	r3, r3, #25
 8008732:	f53f af1f 	bmi.w	8008574 <_vfiprintf_r+0x44>
 8008736:	9809      	ldr	r0, [sp, #36]	@ 0x24
 8008738:	e71e      	b.n	8008578 <_vfiprintf_r+0x48>
 800873a:	ab03      	add	r3, sp, #12
 800873c:	9300      	str	r3, [sp, #0]
 800873e:	462a      	mov	r2, r5
 8008740:	4b05      	ldr	r3, [pc, #20]	@ (8008758 <_vfiprintf_r+0x228>)
 8008742:	a904      	add	r1, sp, #16
 8008744:	4630      	mov	r0, r6
 8008746:	f7fd fe57 	bl	80063f8 <_printf_i>
 800874a:	e7e4      	b.n	8008716 <_vfiprintf_r+0x1e6>
 800874c:	08008c70 	.word	0x08008c70
 8008750:	08008c7a 	.word	0x08008c7a
 8008754:	08005ec9 	.word	0x08005ec9
 8008758:	0800850d 	.word	0x0800850d
 800875c:	08008c76 	.word	0x08008c76

08008760 <__swbuf_r>:
 8008760:	b5f8      	push	{r3, r4, r5, r6, r7, lr}
 8008762:	460e      	mov	r6, r1
 8008764:	4614      	mov	r4, r2
 8008766:	4605      	mov	r5, r0
 8008768:	b118      	cbz	r0, 8008772 <__swbuf_r+0x12>
 800876a:	6a03      	ldr	r3, [r0, #32]
 800876c:	b90b      	cbnz	r3, 8008772 <__swbuf_r+0x12>
 800876e:	f7fd ffef 	bl	8006750 <__sinit>
 8008772:	69a3      	ldr	r3, [r4, #24]
 8008774:	60a3      	str	r3, [r4, #8]
 8008776:	89a3      	ldrh	r3, [r4, #12]
 8008778:	071a      	lsls	r2, r3, #28
 800877a:	d501      	bpl.n	8008780 <__swbuf_r+0x20>
 800877c:	6923      	ldr	r3, [r4, #16]
 800877e:	b943      	cbnz	r3, 8008792 <__swbuf_r+0x32>
 8008780:	4621      	mov	r1, r4
 8008782:	4628      	mov	r0, r5
 8008784:	f000 f82a 	bl	80087dc <__swsetup_r>
 8008788:	b118      	cbz	r0, 8008792 <__swbuf_r+0x32>
 800878a:	f04f 37ff 	mov.w	r7, #4294967295
 800878e:	4638      	mov	r0, r7
 8008790:	bdf8      	pop	{r3, r4, r5, r6, r7, pc}
 8008792:	6823      	ldr	r3, [r4, #0]
 8008794:	6922      	ldr	r2, [r4, #16]
 8008796:	1a98      	subs	r0, r3, r2
 8008798:	6963      	ldr	r3, [r4, #20]
 800879a:	b2f6      	uxtb	r6, r6
 800879c:	4283      	cmp	r3, r0
 800879e:	4637      	mov	r7, r6
 80087a0:	dc05      	bgt.n	80087ae <__swbuf_r+0x4e>
 80087a2:	4621      	mov	r1, r4
 80087a4:	4628      	mov	r0, r5
 80087a6:	f7ff fd99 	bl	80082dc <_fflush_r>
 80087aa:	2800      	cmp	r0, #0
 80087ac:	d1ed      	bne.n	800878a <__swbuf_r+0x2a>
 80087ae:	68a3      	ldr	r3, [r4, #8]
 80087b0:	3b01      	subs	r3, #1
 80087b2:	60a3      	str	r3, [r4, #8]
 80087b4:	6823      	ldr	r3, [r4, #0]
 80087b6:	1c5a      	adds	r2, r3, #1
 80087b8:	6022      	str	r2, [r4, #0]
 80087ba:	701e      	strb	r6, [r3, #0]
 80087bc:	6962      	ldr	r2, [r4, #20]
 80087be:	1c43      	adds	r3, r0, #1
 80087c0:	429a      	cmp	r2, r3
 80087c2:	d004      	beq.n	80087ce <__swbuf_r+0x6e>
 80087c4:	89a3      	ldrh	r3, [r4, #12]
 80087c6:	07db      	lsls	r3, r3, #31
 80087c8:	d5e1      	bpl.n	800878e <__swbuf_r+0x2e>
 80087ca:	2e0a      	cmp	r6, #10
 80087cc:	d1df      	bne.n	800878e <__swbuf_r+0x2e>
 80087ce:	4621      	mov	r1, r4
 80087d0:	4628      	mov	r0, r5
 80087d2:	f7ff fd83 	bl	80082dc <_fflush_r>
 80087d6:	2800      	cmp	r0, #0
 80087d8:	d0d9      	beq.n	800878e <__swbuf_r+0x2e>
 80087da:	e7d6      	b.n	800878a <__swbuf_r+0x2a>

080087dc <__swsetup_r>:
 80087dc:	b538      	push	{r3, r4, r5, lr}
 80087de:	4b29      	ldr	r3, [pc, #164]	@ (8008884 <__swsetup_r+0xa8>)
 80087e0:	4605      	mov	r5, r0
 80087e2:	6818      	ldr	r0, [r3, #0]
 80087e4:	460c      	mov	r4, r1
 80087e6:	b118      	cbz	r0, 80087f0 <__swsetup_r+0x14>
 80087e8:	6a03      	ldr	r3, [r0, #32]
 80087ea:	b90b      	cbnz	r3, 80087f0 <__swsetup_r+0x14>
 80087ec:	f7fd ffb0 	bl	8006750 <__sinit>
 80087f0:	f9b4 300c 	ldrsh.w	r3, [r4, #12]
 80087f4:	0719      	lsls	r1, r3, #28
 80087f6:	d422      	bmi.n	800883e <__swsetup_r+0x62>
 80087f8:	06da      	lsls	r2, r3, #27
 80087fa:	d407      	bmi.n	800880c <__swsetup_r+0x30>
 80087fc:	2209      	movs	r2, #9
 80087fe:	602a      	str	r2, [r5, #0]
 8008800:	f043 0340 	orr.w	r3, r3, #64	@ 0x40
 8008804:	81a3      	strh	r3, [r4, #12]
 8008806:	f04f 30ff 	mov.w	r0, #4294967295
 800880a:	e033      	b.n	8008874 <__swsetup_r+0x98>
 800880c:	0758      	lsls	r0, r3, #29
 800880e:	d512      	bpl.n	8008836 <__swsetup_r+0x5a>
 8008810:	6b61      	ldr	r1, [r4, #52]	@ 0x34
 8008812:	b141      	cbz	r1, 8008826 <__swsetup_r+0x4a>
 8008814:	f104 0344 	add.w	r3, r4, #68	@ 0x44
 8008818:	4299      	cmp	r1, r3
 800881a:	d002      	beq.n	8008822 <__swsetup_r+0x46>
 800881c:	4628      	mov	r0, r5
 800881e:	f7fe feff 	bl	8007620 <_free_r>
 8008822:	2300      	movs	r3, #0
 8008824:	6363      	str	r3, [r4, #52]	@ 0x34
 8008826:	89a3      	ldrh	r3, [r4, #12]
 8008828:	f023 0324 	bic.w	r3, r3, #36	@ 0x24
 800882c:	81a3      	strh	r3, [r4, #12]
 800882e:	2300      	movs	r3, #0
 8008830:	6063      	str	r3, [r4, #4]
 8008832:	6923      	ldr	r3, [r4, #16]
 8008834:	6023      	str	r3, [r4, #0]
 8008836:	89a3      	ldrh	r3, [r4, #12]
 8008838:	f043 0308 	orr.w	r3, r3, #8
 800883c:	81a3      	strh	r3, [r4, #12]
 800883e:	6923      	ldr	r3, [r4, #16]
 8008840:	b94b      	cbnz	r3, 8008856 <__swsetup_r+0x7a>
 8008842:	89a3      	ldrh	r3, [r4, #12]
 8008844:	f403 7320 	and.w	r3, r3, #640	@ 0x280
 8008848:	f5b3 7f00 	cmp.w	r3, #512	@ 0x200
 800884c:	d003      	beq.n	8008856 <__swsetup_r+0x7a>
 800884e:	4621      	mov	r1, r4
 8008850:	4628      	mov	r0, r5
 8008852:	f000 f883 	bl	800895c <__smakebuf_r>
 8008856:	f9b4 300c 	ldrsh.w	r3, [r4, #12]
 800885a:	f013 0201 	ands.w	r2, r3, #1
 800885e:	d00a      	beq.n	8008876 <__swsetup_r+0x9a>
 8008860:	2200      	movs	r2, #0
 8008862:	60a2      	str	r2, [r4, #8]
 8008864:	6962      	ldr	r2, [r4, #20]
 8008866:	4252      	negs	r2, r2
 8008868:	61a2      	str	r2, [r4, #24]
 800886a:	6922      	ldr	r2, [r4, #16]
 800886c:	b942      	cbnz	r2, 8008880 <__swsetup_r+0xa4>
 800886e:	f013 0080 	ands.w	r0, r3, #128	@ 0x80
 8008872:	d1c5      	bne.n	8008800 <__swsetup_r+0x24>
 8008874:	bd38      	pop	{r3, r4, r5, pc}
 8008876:	0799      	lsls	r1, r3, #30
 8008878:	bf58      	it	pl
 800887a:	6962      	ldrpl	r2, [r4, #20]
 800887c:	60a2      	str	r2, [r4, #8]
 800887e:	e7f4      	b.n	800886a <__swsetup_r+0x8e>
 8008880:	2000      	movs	r0, #0
 8008882:	e7f7      	b.n	8008874 <__swsetup_r+0x98>
 8008884:	20000024 	.word	0x20000024

08008888 <_raise_r>:
 8008888:	291f      	cmp	r1, #31
 800888a:	b538      	push	{r3, r4, r5, lr}
 800888c:	4605      	mov	r5, r0
 800888e:	460c      	mov	r4, r1
 8008890:	d904      	bls.n	800889c <_raise_r+0x14>
 8008892:	2316      	movs	r3, #22
 8008894:	6003      	str	r3, [r0, #0]
 8008896:	f04f 30ff 	mov.w	r0, #4294967295
 800889a:	bd38      	pop	{r3, r4, r5, pc}
 800889c:	6bc2      	ldr	r2, [r0, #60]	@ 0x3c
 800889e:	b112      	cbz	r2, 80088a6 <_raise_r+0x1e>
 80088a0:	f852 3021 	ldr.w	r3, [r2, r1, lsl #2]
 80088a4:	b94b      	cbnz	r3, 80088ba <_raise_r+0x32>
 80088a6:	4628      	mov	r0, r5
 80088a8:	f000 f830 	bl	800890c <_getpid_r>
 80088ac:	4622      	mov	r2, r4
 80088ae:	4601      	mov	r1, r0
 80088b0:	4628      	mov	r0, r5
 80088b2:	e8bd 4038 	ldmia.w	sp!, {r3, r4, r5, lr}
 80088b6:	f000 b817 	b.w	80088e8 <_kill_r>
 80088ba:	2b01      	cmp	r3, #1
 80088bc:	d00a      	beq.n	80088d4 <_raise_r+0x4c>
 80088be:	1c59      	adds	r1, r3, #1
 80088c0:	d103      	bne.n	80088ca <_raise_r+0x42>
 80088c2:	2316      	movs	r3, #22
 80088c4:	6003      	str	r3, [r0, #0]
 80088c6:	2001      	movs	r0, #1
 80088c8:	e7e7      	b.n	800889a <_raise_r+0x12>
 80088ca:	2100      	movs	r1, #0
 80088cc:	f842 1024 	str.w	r1, [r2, r4, lsl #2]
 80088d0:	4620      	mov	r0, r4
 80088d2:	4798      	blx	r3
 80088d4:	2000      	movs	r0, #0
 80088d6:	e7e0      	b.n	800889a <_raise_r+0x12>

080088d8 <raise>:
 80088d8:	4b02      	ldr	r3, [pc, #8]	@ (80088e4 <raise+0xc>)
 80088da:	4601      	mov	r1, r0
 80088dc:	6818      	ldr	r0, [r3, #0]
 80088de:	f7ff bfd3 	b.w	8008888 <_raise_r>
 80088e2:	bf00      	nop
 80088e4:	20000024 	.word	0x20000024

080088e8 <_kill_r>:
 80088e8:	b538      	push	{r3, r4, r5, lr}
 80088ea:	4d07      	ldr	r5, [pc, #28]	@ (8008908 <_kill_r+0x20>)
 80088ec:	2300      	movs	r3, #0
 80088ee:	4604      	mov	r4, r0
 80088f0:	4608      	mov	r0, r1
 80088f2:	4611      	mov	r1, r2
 80088f4:	602b      	str	r3, [r5, #0]
 80088f6:	f7f9 fcbf 	bl	8002278 <_kill>
 80088fa:	1c43      	adds	r3, r0, #1
 80088fc:	d102      	bne.n	8008904 <_kill_r+0x1c>
 80088fe:	682b      	ldr	r3, [r5, #0]
 8008900:	b103      	cbz	r3, 8008904 <_kill_r+0x1c>
 8008902:	6023      	str	r3, [r4, #0]
 8008904:	bd38      	pop	{r3, r4, r5, pc}
 8008906:	bf00      	nop
 8008908:	200004cc 	.word	0x200004cc

0800890c <_getpid_r>:
 800890c:	f7f9 bcac 	b.w	8002268 <_getpid>

08008910 <__swhatbuf_r>:
 8008910:	b570      	push	{r4, r5, r6, lr}
 8008912:	460c      	mov	r4, r1
 8008914:	f9b1 100e 	ldrsh.w	r1, [r1, #14]
 8008918:	2900      	cmp	r1, #0
 800891a:	b096      	sub	sp, #88	@ 0x58
 800891c:	4615      	mov	r5, r2
 800891e:	461e      	mov	r6, r3
 8008920:	da0d      	bge.n	800893e <__swhatbuf_r+0x2e>
 8008922:	89a3      	ldrh	r3, [r4, #12]
 8008924:	f013 0f80 	tst.w	r3, #128	@ 0x80
 8008928:	f04f 0100 	mov.w	r1, #0
 800892c:	bf14      	ite	ne
 800892e:	2340      	movne	r3, #64	@ 0x40
 8008930:	f44f 6380 	moveq.w	r3, #1024	@ 0x400
 8008934:	2000      	movs	r0, #0
 8008936:	6031      	str	r1, [r6, #0]
 8008938:	602b      	str	r3, [r5, #0]
 800893a:	b016      	add	sp, #88	@ 0x58
 800893c:	bd70      	pop	{r4, r5, r6, pc}
 800893e:	466a      	mov	r2, sp
 8008940:	f000 f848 	bl	80089d4 <_fstat_r>
 8008944:	2800      	cmp	r0, #0
 8008946:	dbec      	blt.n	8008922 <__swhatbuf_r+0x12>
 8008948:	9901      	ldr	r1, [sp, #4]
 800894a:	f401 4170 	and.w	r1, r1, #61440	@ 0xf000
 800894e:	f5a1 5300 	sub.w	r3, r1, #8192	@ 0x2000
 8008952:	4259      	negs	r1, r3
 8008954:	4159      	adcs	r1, r3
 8008956:	f44f 6380 	mov.w	r3, #1024	@ 0x400
 800895a:	e7eb      	b.n	8008934 <__swhatbuf_r+0x24>

0800895c <__smakebuf_r>:
 800895c:	898b      	ldrh	r3, [r1, #12]
 800895e:	b5f7      	push	{r0, r1, r2, r4, r5, r6, r7, lr}
 8008960:	079d      	lsls	r5, r3, #30
 8008962:	4606      	mov	r6, r0
 8008964:	460c      	mov	r4, r1
 8008966:	d507      	bpl.n	8008978 <__smakebuf_r+0x1c>
 8008968:	f104 0347 	add.w	r3, r4, #71	@ 0x47
 800896c:	6023      	str	r3, [r4, #0]
 800896e:	6123      	str	r3, [r4, #16]
 8008970:	2301      	movs	r3, #1
 8008972:	6163      	str	r3, [r4, #20]
 8008974:	b003      	add	sp, #12
 8008976:	bdf0      	pop	{r4, r5, r6, r7, pc}
 8008978:	ab01      	add	r3, sp, #4
 800897a:	466a      	mov	r2, sp
 800897c:	f7ff ffc8 	bl	8008910 <__swhatbuf_r>
 8008980:	9f00      	ldr	r7, [sp, #0]
 8008982:	4605      	mov	r5, r0
 8008984:	4639      	mov	r1, r7
 8008986:	4630      	mov	r0, r6
 8008988:	f7fe febe 	bl	8007708 <_malloc_r>
 800898c:	b948      	cbnz	r0, 80089a2 <__smakebuf_r+0x46>
 800898e:	f9b4 300c 	ldrsh.w	r3, [r4, #12]
 8008992:	059a      	lsls	r2, r3, #22
 8008994:	d4ee      	bmi.n	8008974 <__smakebuf_r+0x18>
 8008996:	f023 0303 	bic.w	r3, r3, #3
 800899a:	f043 0302 	orr.w	r3, r3, #2
 800899e:	81a3      	strh	r3, [r4, #12]
 80089a0:	e7e2      	b.n	8008968 <__smakebuf_r+0xc>
 80089a2:	89a3      	ldrh	r3, [r4, #12]
 80089a4:	6020      	str	r0, [r4, #0]
 80089a6:	f043 0380 	orr.w	r3, r3, #128	@ 0x80
 80089aa:	81a3      	strh	r3, [r4, #12]
 80089ac:	9b01      	ldr	r3, [sp, #4]
 80089ae:	e9c4 0704 	strd	r0, r7, [r4, #16]
 80089b2:	b15b      	cbz	r3, 80089cc <__smakebuf_r+0x70>
 80089b4:	f9b4 100e 	ldrsh.w	r1, [r4, #14]
 80089b8:	4630      	mov	r0, r6
 80089ba:	f000 f81d 	bl	80089f8 <_isatty_r>
 80089be:	b128      	cbz	r0, 80089cc <__smakebuf_r+0x70>
 80089c0:	89a3      	ldrh	r3, [r4, #12]
 80089c2:	f023 0303 	bic.w	r3, r3, #3
 80089c6:	f043 0301 	orr.w	r3, r3, #1
 80089ca:	81a3      	strh	r3, [r4, #12]
 80089cc:	89a3      	ldrh	r3, [r4, #12]
 80089ce:	431d      	orrs	r5, r3
 80089d0:	81a5      	strh	r5, [r4, #12]
 80089d2:	e7cf      	b.n	8008974 <__smakebuf_r+0x18>

080089d4 <_fstat_r>:
 80089d4:	b538      	push	{r3, r4, r5, lr}
 80089d6:	4d07      	ldr	r5, [pc, #28]	@ (80089f4 <_fstat_r+0x20>)
 80089d8:	2300      	movs	r3, #0
 80089da:	4604      	mov	r4, r0
 80089dc:	4608      	mov	r0, r1
 80089de:	4611      	mov	r1, r2
 80089e0:	602b      	str	r3, [r5, #0]
 80089e2:	f7f9 fca9 	bl	8002338 <_fstat>
 80089e6:	1c43      	adds	r3, r0, #1
 80089e8:	d102      	bne.n	80089f0 <_fstat_r+0x1c>
 80089ea:	682b      	ldr	r3, [r5, #0]
 80089ec:	b103      	cbz	r3, 80089f0 <_fstat_r+0x1c>
 80089ee:	6023      	str	r3, [r4, #0]
 80089f0:	bd38      	pop	{r3, r4, r5, pc}
 80089f2:	bf00      	nop
 80089f4:	200004cc 	.word	0x200004cc

080089f8 <_isatty_r>:
 80089f8:	b538      	push	{r3, r4, r5, lr}
 80089fa:	4d06      	ldr	r5, [pc, #24]	@ (8008a14 <_isatty_r+0x1c>)
 80089fc:	2300      	movs	r3, #0
 80089fe:	4604      	mov	r4, r0
 8008a00:	4608      	mov	r0, r1
 8008a02:	602b      	str	r3, [r5, #0]
 8008a04:	f7f9 fca8 	bl	8002358 <_isatty>
 8008a08:	1c43      	adds	r3, r0, #1
 8008a0a:	d102      	bne.n	8008a12 <_isatty_r+0x1a>
 8008a0c:	682b      	ldr	r3, [r5, #0]
 8008a0e:	b103      	cbz	r3, 8008a12 <_isatty_r+0x1a>
 8008a10:	6023      	str	r3, [r4, #0]
 8008a12:	bd38      	pop	{r3, r4, r5, pc}
 8008a14:	200004cc 	.word	0x200004cc

08008a18 <_init>:
 8008a18:	b5f8      	push	{r3, r4, r5, r6, r7, lr}
 8008a1a:	bf00      	nop
 8008a1c:	bcf8      	pop	{r3, r4, r5, r6, r7}
 8008a1e:	bc08      	pop	{r3}
 8008a20:	469e      	mov	lr, r3
 8008a22:	4770      	bx	lr

08008a24 <_fini>:
 8008a24:	b5f8      	push	{r3, r4, r5, r6, r7, lr}
 8008a26:	bf00      	nop
 8008a28:	bcf8      	pop	{r3, r4, r5, r6, r7}
 8008a2a:	bc08      	pop	{r3}
 8008a2c:	469e      	mov	lr, r3
 8008a2e:	4770      	bx	lr
